   1              		.file	"hand.c"
   2              		.text
   3              	.Ltext0:
   4              		.cfi_sections	.debug_frame
   5              		.file 0 "C:/Users/victim/source/repos/Paranyok/UEFI/Backend" "C:/Users/victim/source/repos/Paranyo
   6              		.globl	LibLocateHandle
   8              		.seh_proc	LibLocateHandle
   9              	LibLocateHandle:
  10              	.LVL0:
  11              	.LFB3:
  12              		.file 1 "C:/Users/victim/source/repos/Paranyok/UEFI/Backend/gnu-efi-3.0.18/lib/hand.c"
   1:C:/Users/victim/source/repos/Paranyok/UEFI/Backend/gnu-efi-3.0.18/lib\hand.c **** /*++
   2:C:/Users/victim/source/repos/Paranyok/UEFI/Backend/gnu-efi-3.0.18/lib\hand.c **** 
   3:C:/Users/victim/source/repos/Paranyok/UEFI/Backend/gnu-efi-3.0.18/lib\hand.c **** Copyright (c) 1998  Intel Corporation
   4:C:/Users/victim/source/repos/Paranyok/UEFI/Backend/gnu-efi-3.0.18/lib\hand.c **** 
   5:C:/Users/victim/source/repos/Paranyok/UEFI/Backend/gnu-efi-3.0.18/lib\hand.c **** Module Name:
   6:C:/Users/victim/source/repos/Paranyok/UEFI/Backend/gnu-efi-3.0.18/lib\hand.c **** 
   7:C:/Users/victim/source/repos/Paranyok/UEFI/Backend/gnu-efi-3.0.18/lib\hand.c ****     hand.c
   8:C:/Users/victim/source/repos/Paranyok/UEFI/Backend/gnu-efi-3.0.18/lib\hand.c **** 
   9:C:/Users/victim/source/repos/Paranyok/UEFI/Backend/gnu-efi-3.0.18/lib\hand.c **** Abstract:
  10:C:/Users/victim/source/repos/Paranyok/UEFI/Backend/gnu-efi-3.0.18/lib\hand.c **** 
  11:C:/Users/victim/source/repos/Paranyok/UEFI/Backend/gnu-efi-3.0.18/lib\hand.c **** 
  12:C:/Users/victim/source/repos/Paranyok/UEFI/Backend/gnu-efi-3.0.18/lib\hand.c **** 
  13:C:/Users/victim/source/repos/Paranyok/UEFI/Backend/gnu-efi-3.0.18/lib\hand.c **** 
  14:C:/Users/victim/source/repos/Paranyok/UEFI/Backend/gnu-efi-3.0.18/lib\hand.c **** Revision History
  15:C:/Users/victim/source/repos/Paranyok/UEFI/Backend/gnu-efi-3.0.18/lib\hand.c **** 
  16:C:/Users/victim/source/repos/Paranyok/UEFI/Backend/gnu-efi-3.0.18/lib\hand.c **** --*/
  17:C:/Users/victim/source/repos/Paranyok/UEFI/Backend/gnu-efi-3.0.18/lib\hand.c **** 
  18:C:/Users/victim/source/repos/Paranyok/UEFI/Backend/gnu-efi-3.0.18/lib\hand.c **** #include "lib.h"
  19:C:/Users/victim/source/repos/Paranyok/UEFI/Backend/gnu-efi-3.0.18/lib\hand.c **** #include "efistdarg.h"                        // !!!
  20:C:/Users/victim/source/repos/Paranyok/UEFI/Backend/gnu-efi-3.0.18/lib\hand.c **** 
  21:C:/Users/victim/source/repos/Paranyok/UEFI/Backend/gnu-efi-3.0.18/lib\hand.c **** 
  22:C:/Users/victim/source/repos/Paranyok/UEFI/Backend/gnu-efi-3.0.18/lib\hand.c **** EFI_STATUS
  23:C:/Users/victim/source/repos/Paranyok/UEFI/Backend/gnu-efi-3.0.18/lib\hand.c **** LibLocateProtocol (
  24:C:/Users/victim/source/repos/Paranyok/UEFI/Backend/gnu-efi-3.0.18/lib\hand.c ****     IN  EFI_GUID    *ProtocolGuid,
  25:C:/Users/victim/source/repos/Paranyok/UEFI/Backend/gnu-efi-3.0.18/lib\hand.c ****     OUT VOID        **Interface
  26:C:/Users/victim/source/repos/Paranyok/UEFI/Backend/gnu-efi-3.0.18/lib\hand.c ****     )
  27:C:/Users/victim/source/repos/Paranyok/UEFI/Backend/gnu-efi-3.0.18/lib\hand.c **** //
  28:C:/Users/victim/source/repos/Paranyok/UEFI/Backend/gnu-efi-3.0.18/lib\hand.c **** // Find the first instance of this Protocol in the system and return it's interface
  29:C:/Users/victim/source/repos/Paranyok/UEFI/Backend/gnu-efi-3.0.18/lib\hand.c **** //
  30:C:/Users/victim/source/repos/Paranyok/UEFI/Backend/gnu-efi-3.0.18/lib\hand.c **** {
  31:C:/Users/victim/source/repos/Paranyok/UEFI/Backend/gnu-efi-3.0.18/lib\hand.c ****     EFI_STATUS      Status;
  32:C:/Users/victim/source/repos/Paranyok/UEFI/Backend/gnu-efi-3.0.18/lib\hand.c ****     UINTN           NumberHandles, Index;
  33:C:/Users/victim/source/repos/Paranyok/UEFI/Backend/gnu-efi-3.0.18/lib\hand.c ****     EFI_HANDLE      *Handles;
  34:C:/Users/victim/source/repos/Paranyok/UEFI/Backend/gnu-efi-3.0.18/lib\hand.c **** 
  35:C:/Users/victim/source/repos/Paranyok/UEFI/Backend/gnu-efi-3.0.18/lib\hand.c ****     
  36:C:/Users/victim/source/repos/Paranyok/UEFI/Backend/gnu-efi-3.0.18/lib\hand.c ****     *Interface = NULL;
  37:C:/Users/victim/source/repos/Paranyok/UEFI/Backend/gnu-efi-3.0.18/lib\hand.c ****     Status = LibLocateHandle (ByProtocol, ProtocolGuid, NULL, &NumberHandles, &Handles);
  38:C:/Users/victim/source/repos/Paranyok/UEFI/Backend/gnu-efi-3.0.18/lib\hand.c ****     if (EFI_ERROR(Status)) {
  39:C:/Users/victim/source/repos/Paranyok/UEFI/Backend/gnu-efi-3.0.18/lib\hand.c ****         DEBUG((D_INFO, "LibLocateProtocol: Handle not found\n"));
  40:C:/Users/victim/source/repos/Paranyok/UEFI/Backend/gnu-efi-3.0.18/lib\hand.c ****         return Status;
  41:C:/Users/victim/source/repos/Paranyok/UEFI/Backend/gnu-efi-3.0.18/lib\hand.c ****     }
  42:C:/Users/victim/source/repos/Paranyok/UEFI/Backend/gnu-efi-3.0.18/lib\hand.c **** 
  43:C:/Users/victim/source/repos/Paranyok/UEFI/Backend/gnu-efi-3.0.18/lib\hand.c ****     for (Index=0; Index < NumberHandles; Index++) {
  44:C:/Users/victim/source/repos/Paranyok/UEFI/Backend/gnu-efi-3.0.18/lib\hand.c ****         Status = uefi_call_wrapper(BS->HandleProtocol, 3, Handles[Index], ProtocolGuid, Interface);
  45:C:/Users/victim/source/repos/Paranyok/UEFI/Backend/gnu-efi-3.0.18/lib\hand.c ****         if (!EFI_ERROR(Status)) {
  46:C:/Users/victim/source/repos/Paranyok/UEFI/Backend/gnu-efi-3.0.18/lib\hand.c ****             break;
  47:C:/Users/victim/source/repos/Paranyok/UEFI/Backend/gnu-efi-3.0.18/lib\hand.c ****         }
  48:C:/Users/victim/source/repos/Paranyok/UEFI/Backend/gnu-efi-3.0.18/lib\hand.c ****     }
  49:C:/Users/victim/source/repos/Paranyok/UEFI/Backend/gnu-efi-3.0.18/lib\hand.c **** 
  50:C:/Users/victim/source/repos/Paranyok/UEFI/Backend/gnu-efi-3.0.18/lib\hand.c ****     if (Handles) {
  51:C:/Users/victim/source/repos/Paranyok/UEFI/Backend/gnu-efi-3.0.18/lib\hand.c ****         FreePool (Handles);
  52:C:/Users/victim/source/repos/Paranyok/UEFI/Backend/gnu-efi-3.0.18/lib\hand.c ****     }
  53:C:/Users/victim/source/repos/Paranyok/UEFI/Backend/gnu-efi-3.0.18/lib\hand.c **** 
  54:C:/Users/victim/source/repos/Paranyok/UEFI/Backend/gnu-efi-3.0.18/lib\hand.c ****     return Status;
  55:C:/Users/victim/source/repos/Paranyok/UEFI/Backend/gnu-efi-3.0.18/lib\hand.c **** }
  56:C:/Users/victim/source/repos/Paranyok/UEFI/Backend/gnu-efi-3.0.18/lib\hand.c **** 
  57:C:/Users/victim/source/repos/Paranyok/UEFI/Backend/gnu-efi-3.0.18/lib\hand.c **** EFI_STATUS
  58:C:/Users/victim/source/repos/Paranyok/UEFI/Backend/gnu-efi-3.0.18/lib\hand.c **** LibLocateHandle (
  59:C:/Users/victim/source/repos/Paranyok/UEFI/Backend/gnu-efi-3.0.18/lib\hand.c ****     IN EFI_LOCATE_SEARCH_TYPE       SearchType,
  60:C:/Users/victim/source/repos/Paranyok/UEFI/Backend/gnu-efi-3.0.18/lib\hand.c ****     IN EFI_GUID                     *Protocol OPTIONAL,
  61:C:/Users/victim/source/repos/Paranyok/UEFI/Backend/gnu-efi-3.0.18/lib\hand.c ****     IN VOID                         *SearchKey OPTIONAL,
  62:C:/Users/victim/source/repos/Paranyok/UEFI/Backend/gnu-efi-3.0.18/lib\hand.c ****     IN OUT UINTN                    *NoHandles,
  63:C:/Users/victim/source/repos/Paranyok/UEFI/Backend/gnu-efi-3.0.18/lib\hand.c ****     OUT EFI_HANDLE                  **Buffer
  64:C:/Users/victim/source/repos/Paranyok/UEFI/Backend/gnu-efi-3.0.18/lib\hand.c ****     )
  65:C:/Users/victim/source/repos/Paranyok/UEFI/Backend/gnu-efi-3.0.18/lib\hand.c **** 
  66:C:/Users/victim/source/repos/Paranyok/UEFI/Backend/gnu-efi-3.0.18/lib\hand.c **** {
  13              		.loc 1 66 1 view -0
  14              		.cfi_startproc
  15              		.loc 1 66 1 is_stmt 0 view .LVU1
  16 0000 4154     		pushq	%r12
  17              		.seh_pushreg	%r12
  18              		.cfi_def_cfa_offset 16
  19              		.cfi_offset 12, -16
  20 0002 55       		pushq	%rbp
  21              		.seh_pushreg	%rbp
  22              		.cfi_def_cfa_offset 24
  23              		.cfi_offset 6, -24
  24 0003 57       		pushq	%rdi
  25              		.seh_pushreg	%rdi
  26              		.cfi_def_cfa_offset 32
  27              		.cfi_offset 5, -32
  28 0004 56       		pushq	%rsi
  29              		.seh_pushreg	%rsi
  30              		.cfi_def_cfa_offset 40
  31              		.cfi_offset 4, -40
  32 0005 53       		pushq	%rbx
  33              		.seh_pushreg	%rbx
  34              		.cfi_def_cfa_offset 48
  35              		.cfi_offset 3, -48
  36 0006 4883EC40 		subq	$64, %rsp
  37              		.seh_stackalloc	64
  38              		.cfi_def_cfa_offset 112
  39              		.seh_endprologue
  40 000a 89CD     		movl	%ecx, %ebp
  41 000c 4889D7   		movq	%rdx, %rdi
  42 000f 4C89C6   		movq	%r8, %rsi
  43 0012 4D89CC   		movq	%r9, %r12
  44 0015 488B9C24 		movq	144(%rsp), %rbx
  44      90000000 
  67:C:/Users/victim/source/repos/Paranyok/UEFI/Backend/gnu-efi-3.0.18/lib\hand.c ****     EFI_STATUS          Status;
  45              		.loc 1 67 5 is_stmt 1 view .LVU2
  68:C:/Users/victim/source/repos/Paranyok/UEFI/Backend/gnu-efi-3.0.18/lib\hand.c ****     UINTN               BufferSize;
  46              		.loc 1 68 5 view .LVU3
  69:C:/Users/victim/source/repos/Paranyok/UEFI/Backend/gnu-efi-3.0.18/lib\hand.c **** 
  70:C:/Users/victim/source/repos/Paranyok/UEFI/Backend/gnu-efi-3.0.18/lib\hand.c ****     //
  71:C:/Users/victim/source/repos/Paranyok/UEFI/Backend/gnu-efi-3.0.18/lib\hand.c ****     // Initialize for GrowBuffer loop
  72:C:/Users/victim/source/repos/Paranyok/UEFI/Backend/gnu-efi-3.0.18/lib\hand.c ****     //
  73:C:/Users/victim/source/repos/Paranyok/UEFI/Backend/gnu-efi-3.0.18/lib\hand.c **** 
  74:C:/Users/victim/source/repos/Paranyok/UEFI/Backend/gnu-efi-3.0.18/lib\hand.c ****     Status = EFI_SUCCESS;
  47              		.loc 1 74 5 view .LVU4
  48              		.loc 1 74 12 is_stmt 0 view .LVU5
  49 001d 48C74424 		movq	$0, 56(%rsp)
  49      38000000 
  49      00
  75:C:/Users/victim/source/repos/Paranyok/UEFI/Backend/gnu-efi-3.0.18/lib\hand.c ****     *Buffer = NULL;
  50              		.loc 1 75 5 is_stmt 1 view .LVU6
  51              		.loc 1 75 13 is_stmt 0 view .LVU7
  52 0026 48C70300 		movq	$0, (%rbx)
  52      000000
  76:C:/Users/victim/source/repos/Paranyok/UEFI/Backend/gnu-efi-3.0.18/lib\hand.c ****     BufferSize = 50 * sizeof(EFI_HANDLE);
  53              		.loc 1 76 5 is_stmt 1 view .LVU8
  54              		.loc 1 76 16 is_stmt 0 view .LVU9
  55 002d 48C74424 		movq	$400, 48(%rsp)
  55      30900100 
  55      00
  77:C:/Users/victim/source/repos/Paranyok/UEFI/Backend/gnu-efi-3.0.18/lib\hand.c **** 
  78:C:/Users/victim/source/repos/Paranyok/UEFI/Backend/gnu-efi-3.0.18/lib\hand.c ****     //
  79:C:/Users/victim/source/repos/Paranyok/UEFI/Backend/gnu-efi-3.0.18/lib\hand.c ****     // Call the real function
  80:C:/Users/victim/source/repos/Paranyok/UEFI/Backend/gnu-efi-3.0.18/lib\hand.c ****     //
  81:C:/Users/victim/source/repos/Paranyok/UEFI/Backend/gnu-efi-3.0.18/lib\hand.c **** 
  82:C:/Users/victim/source/repos/Paranyok/UEFI/Backend/gnu-efi-3.0.18/lib\hand.c ****     while (GrowBuffer (&Status, (VOID **) Buffer, BufferSize)) {
  56              		.loc 1 82 5 is_stmt 1 view .LVU10
  57              		.loc 1 82 11 is_stmt 0 view .LVU11
  58 0036 EB2D     		jmp	.L2
  59              	.LVL1:
  60              	.L3:
  83:C:/Users/victim/source/repos/Paranyok/UEFI/Backend/gnu-efi-3.0.18/lib\hand.c **** 
  84:C:/Users/victim/source/repos/Paranyok/UEFI/Backend/gnu-efi-3.0.18/lib\hand.c ****         Status = uefi_call_wrapper(
  61              		.loc 1 84 9 is_stmt 1 view .LVU12
  62              		.loc 1 84 18 is_stmt 0 view .LVU13
  63 0038 488B0500 		movq	.refptr.BS(%rip), %rax
  63      000000
  64 003f 488B00   		movq	(%rax), %rax
  65 0042 488B80B0 		movq	176(%rax), %rax
  65      000000
  66 0049 488B13   		movq	(%rbx), %rdx
  67 004c 48895424 		movq	%rdx, 32(%rsp)
  67      20
  68 0051 4C8D4C24 		leaq	48(%rsp), %r9
  68      30
  69 0056 4989F0   		movq	%rsi, %r8
  70 0059 4889FA   		movq	%rdi, %rdx
  71 005c 89E9     		movl	%ebp, %ecx
  72 005e FFD0     		call	*%rax
  73              	.LVL2:
  74              		.loc 1 84 16 discriminator 1 view .LVU14
  75 0060 48894424 		movq	%rax, 56(%rsp)
  75      38
  76              	.L2:
  82:C:/Users/victim/source/repos/Paranyok/UEFI/Backend/gnu-efi-3.0.18/lib\hand.c **** 
  77              		.loc 1 82 12 is_stmt 1 view .LVU15
  78 0065 488D4C24 		leaq	56(%rsp), %rcx
  78      38
  79 006a 4C8B4424 		movq	48(%rsp), %r8
  79      30
  80 006f 4889DA   		movq	%rbx, %rdx
  81 0072 E8000000 		call	GrowBuffer
  81      00
  82              	.LVL3:
  82:C:/Users/victim/source/repos/Paranyok/UEFI/Backend/gnu-efi-3.0.18/lib\hand.c **** 
  83              		.loc 1 82 12 is_stmt 0 discriminator 1 view .LVU16
  84 0077 84C0     		testb	%al, %al
  85 0079 75BD     		jne	.L3
  85:C:/Users/victim/source/repos/Paranyok/UEFI/Backend/gnu-efi-3.0.18/lib\hand.c **** 			BS->LocateHandle,
  86:C:/Users/victim/source/repos/Paranyok/UEFI/Backend/gnu-efi-3.0.18/lib\hand.c **** 			5,
  87:C:/Users/victim/source/repos/Paranyok/UEFI/Backend/gnu-efi-3.0.18/lib\hand.c ****                         SearchType,
  88:C:/Users/victim/source/repos/Paranyok/UEFI/Backend/gnu-efi-3.0.18/lib\hand.c ****                         Protocol,
  89:C:/Users/victim/source/repos/Paranyok/UEFI/Backend/gnu-efi-3.0.18/lib\hand.c ****                         SearchKey,
  90:C:/Users/victim/source/repos/Paranyok/UEFI/Backend/gnu-efi-3.0.18/lib\hand.c ****                         &BufferSize,
  91:C:/Users/victim/source/repos/Paranyok/UEFI/Backend/gnu-efi-3.0.18/lib\hand.c ****                         *Buffer
  92:C:/Users/victim/source/repos/Paranyok/UEFI/Backend/gnu-efi-3.0.18/lib\hand.c ****                         );
  93:C:/Users/victim/source/repos/Paranyok/UEFI/Backend/gnu-efi-3.0.18/lib\hand.c **** 
  94:C:/Users/victim/source/repos/Paranyok/UEFI/Backend/gnu-efi-3.0.18/lib\hand.c ****     }
  95:C:/Users/victim/source/repos/Paranyok/UEFI/Backend/gnu-efi-3.0.18/lib\hand.c **** 
  96:C:/Users/victim/source/repos/Paranyok/UEFI/Backend/gnu-efi-3.0.18/lib\hand.c ****     *NoHandles = BufferSize / sizeof (EFI_HANDLE);
  86              		.loc 1 96 5 is_stmt 1 view .LVU17
  87              		.loc 1 96 29 is_stmt 0 view .LVU18
  88 007b 488B4424 		movq	48(%rsp), %rax
  88      30
  89 0080 48C1E803 		shrq	$3, %rax
  90              		.loc 1 96 16 view .LVU19
  91 0084 49890424 		movq	%rax, (%r12)
  97:C:/Users/victim/source/repos/Paranyok/UEFI/Backend/gnu-efi-3.0.18/lib\hand.c ****     if (EFI_ERROR(Status)) {
  92              		.loc 1 97 5 is_stmt 1 view .LVU20
  93              		.loc 1 97 8 is_stmt 0 view .LVU21
  94 0088 48837C24 		cmpq	$0, 56(%rsp)
  94      3800
  95 008e 7810     		js	.L5
  96              	.L4:
  98:C:/Users/victim/source/repos/Paranyok/UEFI/Backend/gnu-efi-3.0.18/lib\hand.c ****         *NoHandles = 0;
  99:C:/Users/victim/source/repos/Paranyok/UEFI/Backend/gnu-efi-3.0.18/lib\hand.c ****     }
 100:C:/Users/victim/source/repos/Paranyok/UEFI/Backend/gnu-efi-3.0.18/lib\hand.c **** 
 101:C:/Users/victim/source/repos/Paranyok/UEFI/Backend/gnu-efi-3.0.18/lib\hand.c ****     return Status;
  97              		.loc 1 101 5 is_stmt 1 view .LVU22
 102:C:/Users/victim/source/repos/Paranyok/UEFI/Backend/gnu-efi-3.0.18/lib\hand.c **** }
  98              		.loc 1 102 1 is_stmt 0 view .LVU23
  99 0090 488B4424 		movq	56(%rsp), %rax
  99      38
 100 0095 4883C440 		addq	$64, %rsp
 101              		.cfi_remember_state
 102              		.cfi_def_cfa_offset 48
 103 0099 5B       		popq	%rbx
 104              		.cfi_restore 3
 105              		.cfi_def_cfa_offset 40
 106 009a 5E       		popq	%rsi
 107              		.cfi_restore 4
 108              		.cfi_def_cfa_offset 32
 109              	.LVL4:
 110              		.loc 1 102 1 view .LVU24
 111 009b 5F       		popq	%rdi
 112              		.cfi_restore 5
 113              		.cfi_def_cfa_offset 24
 114              	.LVL5:
 115              		.loc 1 102 1 view .LVU25
 116 009c 5D       		popq	%rbp
 117              		.cfi_restore 6
 118              		.cfi_def_cfa_offset 16
 119              	.LVL6:
 120              		.loc 1 102 1 view .LVU26
 121 009d 415C     		popq	%r12
 122              		.cfi_restore 12
 123              		.cfi_def_cfa_offset 8
 124              	.LVL7:
 125              		.loc 1 102 1 view .LVU27
 126 009f C3       		ret
 127              	.LVL8:
 128              	.L5:
 129              		.cfi_restore_state
  98:C:/Users/victim/source/repos/Paranyok/UEFI/Backend/gnu-efi-3.0.18/lib\hand.c ****         *NoHandles = 0;
 130              		.loc 1 98 9 is_stmt 1 view .LVU28
  98:C:/Users/victim/source/repos/Paranyok/UEFI/Backend/gnu-efi-3.0.18/lib\hand.c ****         *NoHandles = 0;
 131              		.loc 1 98 20 is_stmt 0 view .LVU29
 132 00a0 49C70424 		movq	$0, (%r12)
 132      00000000 
 133 00a8 EBE6     		jmp	.L4
 134              		.cfi_endproc
 135              	.LFE3:
 136              		.seh_endproc
 137              		.globl	LibLocateProtocol
 139              		.seh_proc	LibLocateProtocol
 140              	LibLocateProtocol:
 141              	.LVL9:
 142              	.LFB2:
  30:C:/Users/victim/source/repos/Paranyok/UEFI/Backend/gnu-efi-3.0.18/lib\hand.c ****     EFI_STATUS      Status;
 143              		.loc 1 30 1 is_stmt 1 view -0
 144              		.cfi_startproc
  30:C:/Users/victim/source/repos/Paranyok/UEFI/Backend/gnu-efi-3.0.18/lib\hand.c ****     EFI_STATUS      Status;
 145              		.loc 1 30 1 is_stmt 0 view .LVU31
 146 00aa 55       		pushq	%rbp
 147              		.seh_pushreg	%rbp
 148              		.cfi_def_cfa_offset 16
 149              		.cfi_offset 6, -16
 150 00ab 57       		pushq	%rdi
 151              		.seh_pushreg	%rdi
 152              		.cfi_def_cfa_offset 24
 153              		.cfi_offset 5, -24
 154 00ac 56       		pushq	%rsi
 155              		.seh_pushreg	%rsi
 156              		.cfi_def_cfa_offset 32
 157              		.cfi_offset 4, -32
 158 00ad 53       		pushq	%rbx
 159              		.seh_pushreg	%rbx
 160              		.cfi_def_cfa_offset 40
 161              		.cfi_offset 3, -40
 162 00ae 4883EC48 		subq	$72, %rsp
 163              		.seh_stackalloc	72
 164              		.cfi_def_cfa_offset 112
 165              		.seh_endprologue
 166 00b2 4889CF   		movq	%rcx, %rdi
 167 00b5 4889D5   		movq	%rdx, %rbp
  31:C:/Users/victim/source/repos/Paranyok/UEFI/Backend/gnu-efi-3.0.18/lib\hand.c ****     UINTN           NumberHandles, Index;
 168              		.loc 1 31 5 is_stmt 1 view .LVU32
  32:C:/Users/victim/source/repos/Paranyok/UEFI/Backend/gnu-efi-3.0.18/lib\hand.c ****     EFI_HANDLE      *Handles;
 169              		.loc 1 32 5 view .LVU33
  33:C:/Users/victim/source/repos/Paranyok/UEFI/Backend/gnu-efi-3.0.18/lib\hand.c **** 
 170              		.loc 1 33 5 view .LVU34
  36:C:/Users/victim/source/repos/Paranyok/UEFI/Backend/gnu-efi-3.0.18/lib\hand.c ****     Status = LibLocateHandle (ByProtocol, ProtocolGuid, NULL, &NumberHandles, &Handles);
 171              		.loc 1 36 5 view .LVU35
  36:C:/Users/victim/source/repos/Paranyok/UEFI/Backend/gnu-efi-3.0.18/lib\hand.c ****     Status = LibLocateHandle (ByProtocol, ProtocolGuid, NULL, &NumberHandles, &Handles);
 172              		.loc 1 36 16 is_stmt 0 view .LVU36
 173 00b8 48C70200 		movq	$0, (%rdx)
 173      000000
  37:C:/Users/victim/source/repos/Paranyok/UEFI/Backend/gnu-efi-3.0.18/lib\hand.c ****     if (EFI_ERROR(Status)) {
 174              		.loc 1 37 5 is_stmt 1 view .LVU37
  37:C:/Users/victim/source/repos/Paranyok/UEFI/Backend/gnu-efi-3.0.18/lib\hand.c ****     if (EFI_ERROR(Status)) {
 175              		.loc 1 37 14 is_stmt 0 view .LVU38
 176 00bf 488D4424 		leaq	48(%rsp), %rax
 176      30
 177 00c4 48894424 		movq	%rax, 32(%rsp)
 177      20
 178 00c9 4C8D4C24 		leaq	56(%rsp), %r9
 178      38
 179 00ce 41B80000 		movl	$0, %r8d
 179      0000
 180 00d4 4889CA   		movq	%rcx, %rdx
 181              	.LVL10:
  37:C:/Users/victim/source/repos/Paranyok/UEFI/Backend/gnu-efi-3.0.18/lib\hand.c ****     if (EFI_ERROR(Status)) {
 182              		.loc 1 37 14 view .LVU39
 183 00d7 B9020000 		movl	$2, %ecx
 183      00
 184              	.LVL11:
  37:C:/Users/victim/source/repos/Paranyok/UEFI/Backend/gnu-efi-3.0.18/lib\hand.c ****     if (EFI_ERROR(Status)) {
 185              		.loc 1 37 14 view .LVU40
 186 00dc E81FFFFF 		call	LibLocateHandle
 186      FF
 187              	.LVL12:
  37:C:/Users/victim/source/repos/Paranyok/UEFI/Backend/gnu-efi-3.0.18/lib\hand.c ****     if (EFI_ERROR(Status)) {
 188              		.loc 1 37 14 view .LVU41
 189 00e1 4889C3   		movq	%rax, %rbx
 190              	.LVL13:
  38:C:/Users/victim/source/repos/Paranyok/UEFI/Backend/gnu-efi-3.0.18/lib\hand.c ****         DEBUG((D_INFO, "LibLocateProtocol: Handle not found\n"));
 191              		.loc 1 38 5 is_stmt 1 view .LVU42
  38:C:/Users/victim/source/repos/Paranyok/UEFI/Backend/gnu-efi-3.0.18/lib\hand.c ****         DEBUG((D_INFO, "LibLocateProtocol: Handle not found\n"));
 192              		.loc 1 38 8 is_stmt 0 view .LVU43
 193 00e4 4885C0   		testq	%rax, %rax
 194 00e7 7848     		js	.L6
  43:C:/Users/victim/source/repos/Paranyok/UEFI/Backend/gnu-efi-3.0.18/lib\hand.c ****         Status = uefi_call_wrapper(BS->HandleProtocol, 3, Handles[Index], ProtocolGuid, Interface);
 195              		.loc 1 43 15 view .LVU44
 196 00e9 BE000000 		movl	$0, %esi
 196      00
 197              	.L8:
 198              	.LVL14:
  43:C:/Users/victim/source/repos/Paranyok/UEFI/Backend/gnu-efi-3.0.18/lib\hand.c ****         Status = uefi_call_wrapper(BS->HandleProtocol, 3, Handles[Index], ProtocolGuid, Interface);
 199              		.loc 1 43 25 is_stmt 1 discriminator 1 view .LVU45
 200 00ee 483B7424 		cmpq	56(%rsp), %rsi
 200      38
 201 00f3 732D     		jnb	.L9
  44:C:/Users/victim/source/repos/Paranyok/UEFI/Backend/gnu-efi-3.0.18/lib\hand.c ****         if (!EFI_ERROR(Status)) {
 202              		.loc 1 44 9 view .LVU46
  44:C:/Users/victim/source/repos/Paranyok/UEFI/Backend/gnu-efi-3.0.18/lib\hand.c ****         if (!EFI_ERROR(Status)) {
 203              		.loc 1 44 18 is_stmt 0 view .LVU47
 204 00f5 488B0500 		movq	.refptr.BS(%rip), %rax
 204      000000
 205              	.LVL15:
  44:C:/Users/victim/source/repos/Paranyok/UEFI/Backend/gnu-efi-3.0.18/lib\hand.c ****         if (!EFI_ERROR(Status)) {
 206              		.loc 1 44 18 view .LVU48
 207 00fc 488B00   		movq	(%rax), %rax
 208 00ff 488B5424 		movq	48(%rsp), %rdx
 208      30
 209 0104 488B0CF2 		movq	(%rdx,%rsi,8), %rcx
 210 0108 4989E8   		movq	%rbp, %r8
 211 010b 4889FA   		movq	%rdi, %rdx
 212 010e FF909800 		call	*152(%rax)
 212      0000
 213              	.LVL16:
 214 0114 4889C3   		movq	%rax, %rbx
 215              	.LVL17:
  45:C:/Users/victim/source/repos/Paranyok/UEFI/Backend/gnu-efi-3.0.18/lib\hand.c ****             break;
 216              		.loc 1 45 9 is_stmt 1 view .LVU49
  45:C:/Users/victim/source/repos/Paranyok/UEFI/Backend/gnu-efi-3.0.18/lib\hand.c ****             break;
 217              		.loc 1 45 12 is_stmt 0 view .LVU50
 218 0117 4885C0   		testq	%rax, %rax
 219 011a 7906     		jns	.L9
  43:C:/Users/victim/source/repos/Paranyok/UEFI/Backend/gnu-efi-3.0.18/lib\hand.c ****         Status = uefi_call_wrapper(BS->HandleProtocol, 3, Handles[Index], ProtocolGuid, Interface);
 220              		.loc 1 43 47 is_stmt 1 discriminator 2 view .LVU51
 221 011c 4883C601 		addq	$1, %rsi
 222              	.LVL18:
  43:C:/Users/victim/source/repos/Paranyok/UEFI/Backend/gnu-efi-3.0.18/lib\hand.c ****         Status = uefi_call_wrapper(BS->HandleProtocol, 3, Handles[Index], ProtocolGuid, Interface);
 223              		.loc 1 43 47 is_stmt 0 discriminator 2 view .LVU52
 224 0120 EBCC     		jmp	.L8
 225              	.LVL19:
 226              	.L9:
  50:C:/Users/victim/source/repos/Paranyok/UEFI/Backend/gnu-efi-3.0.18/lib\hand.c ****         FreePool (Handles);
 227              		.loc 1 50 5 is_stmt 1 view .LVU53
  50:C:/Users/victim/source/repos/Paranyok/UEFI/Backend/gnu-efi-3.0.18/lib\hand.c ****         FreePool (Handles);
 228              		.loc 1 50 9 is_stmt 0 view .LVU54
 229 0122 488B4C24 		movq	48(%rsp), %rcx
 229      30
  50:C:/Users/victim/source/repos/Paranyok/UEFI/Backend/gnu-efi-3.0.18/lib\hand.c ****         FreePool (Handles);
 230              		.loc 1 50 8 view .LVU55
 231 0127 4885C9   		testq	%rcx, %rcx
 232 012a 7405     		je	.L6
  51:C:/Users/victim/source/repos/Paranyok/UEFI/Backend/gnu-efi-3.0.18/lib\hand.c ****     }
 233              		.loc 1 51 9 is_stmt 1 view .LVU56
 234 012c E8000000 		call	FreePool
 234      00
 235              	.LVL20:
 236              	.L6:
  55:C:/Users/victim/source/repos/Paranyok/UEFI/Backend/gnu-efi-3.0.18/lib\hand.c **** 
 237              		.loc 1 55 1 is_stmt 0 view .LVU57
 238 0131 4889D8   		movq	%rbx, %rax
 239 0134 4883C448 		addq	$72, %rsp
 240              		.cfi_def_cfa_offset 40
 241 0138 5B       		popq	%rbx
 242              		.cfi_restore 3
 243              		.cfi_def_cfa_offset 32
 244              	.LVL21:
  55:C:/Users/victim/source/repos/Paranyok/UEFI/Backend/gnu-efi-3.0.18/lib\hand.c **** 
 245              		.loc 1 55 1 view .LVU58
 246 0139 5E       		popq	%rsi
 247              		.cfi_restore 4
 248              		.cfi_def_cfa_offset 24
 249 013a 5F       		popq	%rdi
 250              		.cfi_restore 5
 251              		.cfi_def_cfa_offset 16
 252              	.LVL22:
  55:C:/Users/victim/source/repos/Paranyok/UEFI/Backend/gnu-efi-3.0.18/lib\hand.c **** 
 253              		.loc 1 55 1 view .LVU59
 254 013b 5D       		popq	%rbp
 255              		.cfi_restore 6
 256              		.cfi_def_cfa_offset 8
 257              	.LVL23:
  55:C:/Users/victim/source/repos/Paranyok/UEFI/Backend/gnu-efi-3.0.18/lib\hand.c **** 
 258              		.loc 1 55 1 view .LVU60
 259 013c C3       		ret
 260              		.cfi_endproc
 261              	.LFE2:
 262              		.seh_endproc
 263              		.globl	LibLocateHandleByDiskSignature
 265              		.seh_proc	LibLocateHandleByDiskSignature
 266              	LibLocateHandleByDiskSignature:
 267              	.LVL24:
 268              	.LFB4:
 103:C:/Users/victim/source/repos/Paranyok/UEFI/Backend/gnu-efi-3.0.18/lib\hand.c **** 
 104:C:/Users/victim/source/repos/Paranyok/UEFI/Backend/gnu-efi-3.0.18/lib\hand.c **** EFI_STATUS
 105:C:/Users/victim/source/repos/Paranyok/UEFI/Backend/gnu-efi-3.0.18/lib\hand.c **** LibLocateHandleByDiskSignature (
 106:C:/Users/victim/source/repos/Paranyok/UEFI/Backend/gnu-efi-3.0.18/lib\hand.c ****     IN UINT8                        MBRType,
 107:C:/Users/victim/source/repos/Paranyok/UEFI/Backend/gnu-efi-3.0.18/lib\hand.c ****     IN UINT8                        SignatureType,
 108:C:/Users/victim/source/repos/Paranyok/UEFI/Backend/gnu-efi-3.0.18/lib\hand.c ****     IN VOID                         *Signature,
 109:C:/Users/victim/source/repos/Paranyok/UEFI/Backend/gnu-efi-3.0.18/lib\hand.c ****     IN OUT UINTN                    *NoHandles,
 110:C:/Users/victim/source/repos/Paranyok/UEFI/Backend/gnu-efi-3.0.18/lib\hand.c ****     OUT EFI_HANDLE                  **Buffer
 111:C:/Users/victim/source/repos/Paranyok/UEFI/Backend/gnu-efi-3.0.18/lib\hand.c ****     )
 112:C:/Users/victim/source/repos/Paranyok/UEFI/Backend/gnu-efi-3.0.18/lib\hand.c **** 
 113:C:/Users/victim/source/repos/Paranyok/UEFI/Backend/gnu-efi-3.0.18/lib\hand.c **** {
 269              		.loc 1 113 1 is_stmt 1 view -0
 270              		.cfi_startproc
 271              		.loc 1 113 1 is_stmt 0 view .LVU62
 272 013d 4157     		pushq	%r15
 273              		.seh_pushreg	%r15
 274              		.cfi_def_cfa_offset 16
 275              		.cfi_offset 15, -16
 276 013f 4156     		pushq	%r14
 277              		.seh_pushreg	%r14
 278              		.cfi_def_cfa_offset 24
 279              		.cfi_offset 14, -24
 280 0141 4155     		pushq	%r13
 281              		.seh_pushreg	%r13
 282              		.cfi_def_cfa_offset 32
 283              		.cfi_offset 13, -32
 284 0143 4154     		pushq	%r12
 285              		.seh_pushreg	%r12
 286              		.cfi_def_cfa_offset 40
 287              		.cfi_offset 12, -40
 288 0145 55       		pushq	%rbp
 289              		.seh_pushreg	%rbp
 290              		.cfi_def_cfa_offset 48
 291              		.cfi_offset 6, -48
 292 0146 57       		pushq	%rdi
 293              		.seh_pushreg	%rdi
 294              		.cfi_def_cfa_offset 56
 295              		.cfi_offset 5, -56
 296 0147 56       		pushq	%rsi
 297              		.seh_pushreg	%rsi
 298              		.cfi_def_cfa_offset 64
 299              		.cfi_offset 4, -64
 300 0148 53       		pushq	%rbx
 301              		.seh_pushreg	%rbx
 302              		.cfi_def_cfa_offset 72
 303              		.cfi_offset 3, -72
 304 0149 4883EC68 		subq	$104, %rsp
 305              		.seh_stackalloc	104
 306              		.cfi_def_cfa_offset 176
 307              		.seh_endprologue
 308 014d 4C898424 		movq	%r8, 192(%rsp)
 308      C0000000 
 309 0155 4D89CC   		movq	%r9, %r12
 310 0158 4C8BBC24 		movq	208(%rsp), %r15
 310      D0000000 
 311 0160 884C243E 		movb	%cl, 62(%rsp)
 312 0164 8854243F 		movb	%dl, 63(%rsp)
 114:C:/Users/victim/source/repos/Paranyok/UEFI/Backend/gnu-efi-3.0.18/lib\hand.c ****     EFI_STATUS            Status;
 313              		.loc 1 114 5 is_stmt 1 view .LVU63
 115:C:/Users/victim/source/repos/Paranyok/UEFI/Backend/gnu-efi-3.0.18/lib\hand.c ****     UINTN                 BufferSize;
 314              		.loc 1 115 5 view .LVU64
 116:C:/Users/victim/source/repos/Paranyok/UEFI/Backend/gnu-efi-3.0.18/lib\hand.c ****     UINTN                 NoBlockIoHandles;
 315              		.loc 1 116 5 view .LVU65
 117:C:/Users/victim/source/repos/Paranyok/UEFI/Backend/gnu-efi-3.0.18/lib\hand.c ****     EFI_HANDLE            *BlockIoBuffer;
 316              		.loc 1 117 5 view .LVU66
 118:C:/Users/victim/source/repos/Paranyok/UEFI/Backend/gnu-efi-3.0.18/lib\hand.c ****     EFI_DEVICE_PATH       *DevicePath;
 317              		.loc 1 118 5 view .LVU67
 119:C:/Users/victim/source/repos/Paranyok/UEFI/Backend/gnu-efi-3.0.18/lib\hand.c ****     UINTN                 Index;
 318              		.loc 1 119 5 view .LVU68
 120:C:/Users/victim/source/repos/Paranyok/UEFI/Backend/gnu-efi-3.0.18/lib\hand.c ****     EFI_DEVICE_PATH       *Next, *DevPath;
 319              		.loc 1 120 5 view .LVU69
 121:C:/Users/victim/source/repos/Paranyok/UEFI/Backend/gnu-efi-3.0.18/lib\hand.c ****     HARDDRIVE_DEVICE_PATH *HardDriveDevicePath;
 320              		.loc 1 121 5 view .LVU70
 122:C:/Users/victim/source/repos/Paranyok/UEFI/Backend/gnu-efi-3.0.18/lib\hand.c ****     BOOLEAN               Match;
 321              		.loc 1 122 5 view .LVU71
 123:C:/Users/victim/source/repos/Paranyok/UEFI/Backend/gnu-efi-3.0.18/lib\hand.c ****     BOOLEAN               PreviousNodeIsHardDriveDevicePath;
 322              		.loc 1 123 5 view .LVU72
 124:C:/Users/victim/source/repos/Paranyok/UEFI/Backend/gnu-efi-3.0.18/lib\hand.c **** 
 125:C:/Users/victim/source/repos/Paranyok/UEFI/Backend/gnu-efi-3.0.18/lib\hand.c ****     //
 126:C:/Users/victim/source/repos/Paranyok/UEFI/Backend/gnu-efi-3.0.18/lib\hand.c ****     // Initialize for GrowBuffer loop
 127:C:/Users/victim/source/repos/Paranyok/UEFI/Backend/gnu-efi-3.0.18/lib\hand.c ****     //
 128:C:/Users/victim/source/repos/Paranyok/UEFI/Backend/gnu-efi-3.0.18/lib\hand.c **** 
 129:C:/Users/victim/source/repos/Paranyok/UEFI/Backend/gnu-efi-3.0.18/lib\hand.c ****     Status = EFI_SUCCESS;
 323              		.loc 1 129 5 view .LVU73
 324              		.loc 1 129 12 is_stmt 0 view .LVU74
 325 0168 48C74424 		movq	$0, 88(%rsp)
 325      58000000 
 325      00
 130:C:/Users/victim/source/repos/Paranyok/UEFI/Backend/gnu-efi-3.0.18/lib\hand.c ****     BlockIoBuffer = NULL;
 326              		.loc 1 130 5 is_stmt 1 view .LVU75
 327              		.loc 1 130 19 is_stmt 0 view .LVU76
 328 0171 48C74424 		movq	$0, 72(%rsp)
 328      48000000 
 328      00
 131:C:/Users/victim/source/repos/Paranyok/UEFI/Backend/gnu-efi-3.0.18/lib\hand.c ****     BufferSize = 50 * sizeof(EFI_HANDLE);
 329              		.loc 1 131 5 is_stmt 1 view .LVU77
 330              		.loc 1 131 16 is_stmt 0 view .LVU78
 331 017a 48C74424 		movq	$400, 80(%rsp)
 331      50900100 
 331      00
 132:C:/Users/victim/source/repos/Paranyok/UEFI/Backend/gnu-efi-3.0.18/lib\hand.c **** 
 133:C:/Users/victim/source/repos/Paranyok/UEFI/Backend/gnu-efi-3.0.18/lib\hand.c ****     //
 134:C:/Users/victim/source/repos/Paranyok/UEFI/Backend/gnu-efi-3.0.18/lib\hand.c ****     // Call the real function
 135:C:/Users/victim/source/repos/Paranyok/UEFI/Backend/gnu-efi-3.0.18/lib\hand.c ****     //
 136:C:/Users/victim/source/repos/Paranyok/UEFI/Backend/gnu-efi-3.0.18/lib\hand.c **** 
 137:C:/Users/victim/source/repos/Paranyok/UEFI/Backend/gnu-efi-3.0.18/lib\hand.c ****     while (GrowBuffer (&Status, (VOID **)&BlockIoBuffer, BufferSize)) {
 332              		.loc 1 137 5 is_stmt 1 view .LVU79
 333              		.loc 1 137 11 is_stmt 0 view .LVU80
 334 0183 EB39     		jmp	.L12
 335              	.LVL25:
 336              	.L13:
 138:C:/Users/victim/source/repos/Paranyok/UEFI/Backend/gnu-efi-3.0.18/lib\hand.c **** 
 139:C:/Users/victim/source/repos/Paranyok/UEFI/Backend/gnu-efi-3.0.18/lib\hand.c ****         //
 140:C:/Users/victim/source/repos/Paranyok/UEFI/Backend/gnu-efi-3.0.18/lib\hand.c ****         // Get list of device handles that support the BLOCK_IO Protocol.
 141:C:/Users/victim/source/repos/Paranyok/UEFI/Backend/gnu-efi-3.0.18/lib\hand.c ****         //
 142:C:/Users/victim/source/repos/Paranyok/UEFI/Backend/gnu-efi-3.0.18/lib\hand.c **** 
 143:C:/Users/victim/source/repos/Paranyok/UEFI/Backend/gnu-efi-3.0.18/lib\hand.c ****         Status = uefi_call_wrapper(
 337              		.loc 1 143 9 is_stmt 1 view .LVU81
 338              		.loc 1 143 18 is_stmt 0 view .LVU82
 339 0185 488B0500 		movq	.refptr.BS(%rip), %rax
 339      000000
 340 018c 488B00   		movq	(%rax), %rax
 341 018f 488B80B0 		movq	176(%rax), %rax
 341      000000
 342 0196 488B5424 		movq	72(%rsp), %rdx
 342      48
 343 019b 48895424 		movq	%rdx, 32(%rsp)
 343      20
 344 01a0 4C8D4C24 		leaq	80(%rsp), %r9
 344      50
 345 01a5 41B80000 		movl	$0, %r8d
 345      0000
 346 01ab 488B1500 		movq	.refptr.gEfiBlockIoProtocolGuid(%rip), %rdx
 346      000000
 347 01b2 B9020000 		movl	$2, %ecx
 347      00
 348 01b7 FFD0     		call	*%rax
 349              	.LVL26:
 350              		.loc 1 143 16 discriminator 1 view .LVU83
 351 01b9 48894424 		movq	%rax, 88(%rsp)
 351      58
 352              	.L12:
 137:C:/Users/victim/source/repos/Paranyok/UEFI/Backend/gnu-efi-3.0.18/lib\hand.c **** 
 353              		.loc 1 137 12 is_stmt 1 view .LVU84
 354 01be 488D5424 		leaq	72(%rsp), %rdx
 354      48
 355 01c3 488D4C24 		leaq	88(%rsp), %rcx
 355      58
 356 01c8 4C8B4424 		movq	80(%rsp), %r8
 356      50
 357 01cd E8000000 		call	GrowBuffer
 357      00
 358              	.LVL27:
 359 01d2 89C6     		movl	%eax, %esi
 137:C:/Users/victim/source/repos/Paranyok/UEFI/Backend/gnu-efi-3.0.18/lib\hand.c **** 
 360              		.loc 1 137 12 is_stmt 0 discriminator 1 view .LVU85
 361 01d4 84C0     		testb	%al, %al
 362 01d6 75AD     		jne	.L13
 144:C:/Users/victim/source/repos/Paranyok/UEFI/Backend/gnu-efi-3.0.18/lib\hand.c **** 			BS->LocateHandle,
 145:C:/Users/victim/source/repos/Paranyok/UEFI/Backend/gnu-efi-3.0.18/lib\hand.c **** 			5,
 146:C:/Users/victim/source/repos/Paranyok/UEFI/Backend/gnu-efi-3.0.18/lib\hand.c ****                         ByProtocol,
 147:C:/Users/victim/source/repos/Paranyok/UEFI/Backend/gnu-efi-3.0.18/lib\hand.c ****                         &BlockIoProtocol,
 148:C:/Users/victim/source/repos/Paranyok/UEFI/Backend/gnu-efi-3.0.18/lib\hand.c ****                         NULL,
 149:C:/Users/victim/source/repos/Paranyok/UEFI/Backend/gnu-efi-3.0.18/lib\hand.c ****                         &BufferSize,
 150:C:/Users/victim/source/repos/Paranyok/UEFI/Backend/gnu-efi-3.0.18/lib\hand.c ****                         BlockIoBuffer
 151:C:/Users/victim/source/repos/Paranyok/UEFI/Backend/gnu-efi-3.0.18/lib\hand.c ****                         );
 152:C:/Users/victim/source/repos/Paranyok/UEFI/Backend/gnu-efi-3.0.18/lib\hand.c **** 
 153:C:/Users/victim/source/repos/Paranyok/UEFI/Backend/gnu-efi-3.0.18/lib\hand.c ****     }
 154:C:/Users/victim/source/repos/Paranyok/UEFI/Backend/gnu-efi-3.0.18/lib\hand.c **** 
 155:C:/Users/victim/source/repos/Paranyok/UEFI/Backend/gnu-efi-3.0.18/lib\hand.c ****     NoBlockIoHandles = BufferSize / sizeof (EFI_HANDLE);
 363              		.loc 1 155 5 is_stmt 1 view .LVU86
 364              		.loc 1 155 35 is_stmt 0 view .LVU87
 365 01d8 488B4424 		movq	80(%rsp), %rax
 365      50
 366              		.loc 1 155 22 view .LVU88
 367 01dd 4989C5   		movq	%rax, %r13
 368 01e0 49C1ED03 		shrq	$3, %r13
 369              	.LVL28:
 156:C:/Users/victim/source/repos/Paranyok/UEFI/Backend/gnu-efi-3.0.18/lib\hand.c ****     if (EFI_ERROR(Status)) {
 370              		.loc 1 156 5 is_stmt 1 view .LVU89
 371              		.loc 1 156 8 is_stmt 0 view .LVU90
 372 01e4 48837C24 		cmpq	$0, 88(%rsp)
 372      5800
 373 01ea 7818     		js	.L14
 157:C:/Users/victim/source/repos/Paranyok/UEFI/Backend/gnu-efi-3.0.18/lib\hand.c ****         NoBlockIoHandles = 0;
 158:C:/Users/victim/source/repos/Paranyok/UEFI/Backend/gnu-efi-3.0.18/lib\hand.c ****     }
 159:C:/Users/victim/source/repos/Paranyok/UEFI/Backend/gnu-efi-3.0.18/lib\hand.c **** 
 160:C:/Users/victim/source/repos/Paranyok/UEFI/Backend/gnu-efi-3.0.18/lib\hand.c ****     //
 161:C:/Users/victim/source/repos/Paranyok/UEFI/Backend/gnu-efi-3.0.18/lib\hand.c ****     // If there was an error or there are no device handles that support 
 162:C:/Users/victim/source/repos/Paranyok/UEFI/Backend/gnu-efi-3.0.18/lib\hand.c ****     // the BLOCK_IO Protocol, then return.
 163:C:/Users/victim/source/repos/Paranyok/UEFI/Backend/gnu-efi-3.0.18/lib\hand.c ****     //
 164:C:/Users/victim/source/repos/Paranyok/UEFI/Backend/gnu-efi-3.0.18/lib\hand.c **** 
 165:C:/Users/victim/source/repos/Paranyok/UEFI/Backend/gnu-efi-3.0.18/lib\hand.c ****     if (NoBlockIoHandles == 0) {
 374              		.loc 1 165 5 is_stmt 1 view .LVU91
 375              		.loc 1 165 8 is_stmt 0 view .LVU92
 376 01ec 4883F807 		cmpq	$7, %rax
 377 01f0 7612     		jbe	.L14
 166:C:/Users/victim/source/repos/Paranyok/UEFI/Backend/gnu-efi-3.0.18/lib\hand.c ****         FreePool(BlockIoBuffer);
 167:C:/Users/victim/source/repos/Paranyok/UEFI/Backend/gnu-efi-3.0.18/lib\hand.c ****         *NoHandles = 0;
 168:C:/Users/victim/source/repos/Paranyok/UEFI/Backend/gnu-efi-3.0.18/lib\hand.c ****         *Buffer = NULL;
 169:C:/Users/victim/source/repos/Paranyok/UEFI/Backend/gnu-efi-3.0.18/lib\hand.c ****         return Status;
 170:C:/Users/victim/source/repos/Paranyok/UEFI/Backend/gnu-efi-3.0.18/lib\hand.c ****     }
 171:C:/Users/victim/source/repos/Paranyok/UEFI/Backend/gnu-efi-3.0.18/lib\hand.c **** 
 172:C:/Users/victim/source/repos/Paranyok/UEFI/Backend/gnu-efi-3.0.18/lib\hand.c ****     //
 173:C:/Users/victim/source/repos/Paranyok/UEFI/Backend/gnu-efi-3.0.18/lib\hand.c ****     // Loop through all the device handles that support the BLOCK_IO Protocol
 174:C:/Users/victim/source/repos/Paranyok/UEFI/Backend/gnu-efi-3.0.18/lib\hand.c ****     //
 175:C:/Users/victim/source/repos/Paranyok/UEFI/Backend/gnu-efi-3.0.18/lib\hand.c **** 
 176:C:/Users/victim/source/repos/Paranyok/UEFI/Backend/gnu-efi-3.0.18/lib\hand.c ****     *NoHandles = 0;
 378              		.loc 1 176 5 is_stmt 1 view .LVU93
 379              		.loc 1 176 16 is_stmt 0 view .LVU94
 380 01f2 49C70424 		movq	$0, (%r12)
 380      00000000 
 177:C:/Users/victim/source/repos/Paranyok/UEFI/Backend/gnu-efi-3.0.18/lib\hand.c **** 
 178:C:/Users/victim/source/repos/Paranyok/UEFI/Backend/gnu-efi-3.0.18/lib\hand.c ****     for(Index=0;Index<NoBlockIoHandles;Index++) {
 381              		.loc 1 178 5 is_stmt 1 view .LVU95
 382              	.LVL29:
 383              		.loc 1 178 14 is_stmt 0 view .LVU96
 384 01fa BD000000 		movl	$0, %ebp
 384      00
 385              		.loc 1 178 5 view .LVU97
 386 01ff E9420100 		jmp	.L17
 386      00
 387              	.LVL30:
 388              	.L14:
 166:C:/Users/victim/source/repos/Paranyok/UEFI/Backend/gnu-efi-3.0.18/lib\hand.c ****         FreePool(BlockIoBuffer);
 389              		.loc 1 166 9 is_stmt 1 view .LVU98
 390 0204 488B4C24 		movq	72(%rsp), %rcx
 390      48
 391 0209 E8000000 		call	FreePool
 391      00
 392              	.LVL31:
 167:C:/Users/victim/source/repos/Paranyok/UEFI/Backend/gnu-efi-3.0.18/lib\hand.c ****         *Buffer = NULL;
 393              		.loc 1 167 9 view .LVU99
 167:C:/Users/victim/source/repos/Paranyok/UEFI/Backend/gnu-efi-3.0.18/lib\hand.c ****         *Buffer = NULL;
 394              		.loc 1 167 20 is_stmt 0 view .LVU100
 395 020e 49C70424 		movq	$0, (%r12)
 395      00000000 
 168:C:/Users/victim/source/repos/Paranyok/UEFI/Backend/gnu-efi-3.0.18/lib\hand.c ****         return Status;
 396              		.loc 1 168 9 is_stmt 1 view .LVU101
 168:C:/Users/victim/source/repos/Paranyok/UEFI/Backend/gnu-efi-3.0.18/lib\hand.c ****         return Status;
 397              		.loc 1 168 17 is_stmt 0 view .LVU102
 398 0216 49C70700 		movq	$0, (%r15)
 398      000000
 169:C:/Users/victim/source/repos/Paranyok/UEFI/Backend/gnu-efi-3.0.18/lib\hand.c ****     }
 399              		.loc 1 169 9 is_stmt 1 view .LVU103
 169:C:/Users/victim/source/repos/Paranyok/UEFI/Backend/gnu-efi-3.0.18/lib\hand.c ****     }
 400              		.loc 1 169 16 is_stmt 0 view .LVU104
 401 021d 488B5C24 		movq	88(%rsp), %rbx
 401      58
 402              	.L11:
 179:C:/Users/victim/source/repos/Paranyok/UEFI/Backend/gnu-efi-3.0.18/lib\hand.c **** 
 180:C:/Users/victim/source/repos/Paranyok/UEFI/Backend/gnu-efi-3.0.18/lib\hand.c ****         Status = uefi_call_wrapper(
 181:C:/Users/victim/source/repos/Paranyok/UEFI/Backend/gnu-efi-3.0.18/lib\hand.c **** 				     BS->HandleProtocol, 
 182:C:/Users/victim/source/repos/Paranyok/UEFI/Backend/gnu-efi-3.0.18/lib\hand.c **** 					3,
 183:C:/Users/victim/source/repos/Paranyok/UEFI/Backend/gnu-efi-3.0.18/lib\hand.c **** 				     BlockIoBuffer[Index], 
 184:C:/Users/victim/source/repos/Paranyok/UEFI/Backend/gnu-efi-3.0.18/lib\hand.c ****                                      &DevicePathProtocol, 
 185:C:/Users/victim/source/repos/Paranyok/UEFI/Backend/gnu-efi-3.0.18/lib\hand.c ****                                      (VOID*)&DevicePath
 186:C:/Users/victim/source/repos/Paranyok/UEFI/Backend/gnu-efi-3.0.18/lib\hand.c ****                                      );
 187:C:/Users/victim/source/repos/Paranyok/UEFI/Backend/gnu-efi-3.0.18/lib\hand.c **** 
 188:C:/Users/victim/source/repos/Paranyok/UEFI/Backend/gnu-efi-3.0.18/lib\hand.c ****         //
 189:C:/Users/victim/source/repos/Paranyok/UEFI/Backend/gnu-efi-3.0.18/lib\hand.c ****         // Search DevicePath for a Hard Drive Media Device Path node.
 190:C:/Users/victim/source/repos/Paranyok/UEFI/Backend/gnu-efi-3.0.18/lib\hand.c ****         // If one is found, then see if it matches the signature that was
 191:C:/Users/victim/source/repos/Paranyok/UEFI/Backend/gnu-efi-3.0.18/lib\hand.c ****         // passed in.  If it does match, and the next node is the End of the
 192:C:/Users/victim/source/repos/Paranyok/UEFI/Backend/gnu-efi-3.0.18/lib\hand.c ****         // device path, and the previous node is not a Hard Drive Media Device
 193:C:/Users/victim/source/repos/Paranyok/UEFI/Backend/gnu-efi-3.0.18/lib\hand.c ****         // Path, then we have found a match.
 194:C:/Users/victim/source/repos/Paranyok/UEFI/Backend/gnu-efi-3.0.18/lib\hand.c ****         //
 195:C:/Users/victim/source/repos/Paranyok/UEFI/Backend/gnu-efi-3.0.18/lib\hand.c **** 
 196:C:/Users/victim/source/repos/Paranyok/UEFI/Backend/gnu-efi-3.0.18/lib\hand.c ****         Match = FALSE;
 197:C:/Users/victim/source/repos/Paranyok/UEFI/Backend/gnu-efi-3.0.18/lib\hand.c **** 
 198:C:/Users/victim/source/repos/Paranyok/UEFI/Backend/gnu-efi-3.0.18/lib\hand.c ****         if (DevicePath != NULL) {
 199:C:/Users/victim/source/repos/Paranyok/UEFI/Backend/gnu-efi-3.0.18/lib\hand.c **** 
 200:C:/Users/victim/source/repos/Paranyok/UEFI/Backend/gnu-efi-3.0.18/lib\hand.c ****             PreviousNodeIsHardDriveDevicePath = FALSE;
 201:C:/Users/victim/source/repos/Paranyok/UEFI/Backend/gnu-efi-3.0.18/lib\hand.c **** 
 202:C:/Users/victim/source/repos/Paranyok/UEFI/Backend/gnu-efi-3.0.18/lib\hand.c ****             DevPath = DevicePath;
 203:C:/Users/victim/source/repos/Paranyok/UEFI/Backend/gnu-efi-3.0.18/lib\hand.c **** 
 204:C:/Users/victim/source/repos/Paranyok/UEFI/Backend/gnu-efi-3.0.18/lib\hand.c ****             //
 205:C:/Users/victim/source/repos/Paranyok/UEFI/Backend/gnu-efi-3.0.18/lib\hand.c ****             // Check for end of device path type
 206:C:/Users/victim/source/repos/Paranyok/UEFI/Backend/gnu-efi-3.0.18/lib\hand.c ****             //    
 207:C:/Users/victim/source/repos/Paranyok/UEFI/Backend/gnu-efi-3.0.18/lib\hand.c **** 
 208:C:/Users/victim/source/repos/Paranyok/UEFI/Backend/gnu-efi-3.0.18/lib\hand.c ****             for (; ;) {
 209:C:/Users/victim/source/repos/Paranyok/UEFI/Backend/gnu-efi-3.0.18/lib\hand.c **** 
 210:C:/Users/victim/source/repos/Paranyok/UEFI/Backend/gnu-efi-3.0.18/lib\hand.c ****                 if ((DevicePathType(DevPath) == MEDIA_DEVICE_PATH) &&
 211:C:/Users/victim/source/repos/Paranyok/UEFI/Backend/gnu-efi-3.0.18/lib\hand.c ****                     (DevicePathSubType(DevPath) == MEDIA_HARDDRIVE_DP)) {
 212:C:/Users/victim/source/repos/Paranyok/UEFI/Backend/gnu-efi-3.0.18/lib\hand.c **** 
 213:C:/Users/victim/source/repos/Paranyok/UEFI/Backend/gnu-efi-3.0.18/lib\hand.c ****                     HardDriveDevicePath = (HARDDRIVE_DEVICE_PATH *)(DevPath);
 214:C:/Users/victim/source/repos/Paranyok/UEFI/Backend/gnu-efi-3.0.18/lib\hand.c **** 
 215:C:/Users/victim/source/repos/Paranyok/UEFI/Backend/gnu-efi-3.0.18/lib\hand.c ****                     if (PreviousNodeIsHardDriveDevicePath == FALSE) {
 216:C:/Users/victim/source/repos/Paranyok/UEFI/Backend/gnu-efi-3.0.18/lib\hand.c **** 
 217:C:/Users/victim/source/repos/Paranyok/UEFI/Backend/gnu-efi-3.0.18/lib\hand.c ****                         Next = NextDevicePathNode(DevPath);
 218:C:/Users/victim/source/repos/Paranyok/UEFI/Backend/gnu-efi-3.0.18/lib\hand.c ****                         if (IsDevicePathEndType(Next)) {
 219:C:/Users/victim/source/repos/Paranyok/UEFI/Backend/gnu-efi-3.0.18/lib\hand.c ****                             if ((HardDriveDevicePath->MBRType == MBRType) &&
 220:C:/Users/victim/source/repos/Paranyok/UEFI/Backend/gnu-efi-3.0.18/lib\hand.c ****                                 (HardDriveDevicePath->SignatureType == SignatureType)) {
 221:C:/Users/victim/source/repos/Paranyok/UEFI/Backend/gnu-efi-3.0.18/lib\hand.c ****                                     switch(SignatureType) {
 222:C:/Users/victim/source/repos/Paranyok/UEFI/Backend/gnu-efi-3.0.18/lib\hand.c ****                                         case SIGNATURE_TYPE_MBR:
 223:C:/Users/victim/source/repos/Paranyok/UEFI/Backend/gnu-efi-3.0.18/lib\hand.c ****                                             if (*((UINT32 *)(Signature)) == *(UINT32 *)(&(HardDrive
 224:C:/Users/victim/source/repos/Paranyok/UEFI/Backend/gnu-efi-3.0.18/lib\hand.c ****                                                 Match = TRUE;
 225:C:/Users/victim/source/repos/Paranyok/UEFI/Backend/gnu-efi-3.0.18/lib\hand.c ****                                             }
 226:C:/Users/victim/source/repos/Paranyok/UEFI/Backend/gnu-efi-3.0.18/lib\hand.c ****                                             break;
 227:C:/Users/victim/source/repos/Paranyok/UEFI/Backend/gnu-efi-3.0.18/lib\hand.c ****                                         case SIGNATURE_TYPE_GUID:
 228:C:/Users/victim/source/repos/Paranyok/UEFI/Backend/gnu-efi-3.0.18/lib\hand.c ****                                             if (CompareGuid((EFI_GUID *)Signature,(EFI_GUID *)(&(Ha
 229:C:/Users/victim/source/repos/Paranyok/UEFI/Backend/gnu-efi-3.0.18/lib\hand.c ****                                                 Match = TRUE;
 230:C:/Users/victim/source/repos/Paranyok/UEFI/Backend/gnu-efi-3.0.18/lib\hand.c ****                                             }
 231:C:/Users/victim/source/repos/Paranyok/UEFI/Backend/gnu-efi-3.0.18/lib\hand.c ****                                             break;
 232:C:/Users/victim/source/repos/Paranyok/UEFI/Backend/gnu-efi-3.0.18/lib\hand.c ****                                     }
 233:C:/Users/victim/source/repos/Paranyok/UEFI/Backend/gnu-efi-3.0.18/lib\hand.c ****                             }
 234:C:/Users/victim/source/repos/Paranyok/UEFI/Backend/gnu-efi-3.0.18/lib\hand.c ****                         }
 235:C:/Users/victim/source/repos/Paranyok/UEFI/Backend/gnu-efi-3.0.18/lib\hand.c ****                     }
 236:C:/Users/victim/source/repos/Paranyok/UEFI/Backend/gnu-efi-3.0.18/lib\hand.c ****                     PreviousNodeIsHardDriveDevicePath = TRUE;
 237:C:/Users/victim/source/repos/Paranyok/UEFI/Backend/gnu-efi-3.0.18/lib\hand.c ****                 } else {
 238:C:/Users/victim/source/repos/Paranyok/UEFI/Backend/gnu-efi-3.0.18/lib\hand.c ****                     PreviousNodeIsHardDriveDevicePath = FALSE;
 239:C:/Users/victim/source/repos/Paranyok/UEFI/Backend/gnu-efi-3.0.18/lib\hand.c ****                 }
 240:C:/Users/victim/source/repos/Paranyok/UEFI/Backend/gnu-efi-3.0.18/lib\hand.c **** 
 241:C:/Users/victim/source/repos/Paranyok/UEFI/Backend/gnu-efi-3.0.18/lib\hand.c ****                 if (IsDevicePathEnd(DevPath)) {
 242:C:/Users/victim/source/repos/Paranyok/UEFI/Backend/gnu-efi-3.0.18/lib\hand.c ****                     break;
 243:C:/Users/victim/source/repos/Paranyok/UEFI/Backend/gnu-efi-3.0.18/lib\hand.c ****                 }
 244:C:/Users/victim/source/repos/Paranyok/UEFI/Backend/gnu-efi-3.0.18/lib\hand.c **** 
 245:C:/Users/victim/source/repos/Paranyok/UEFI/Backend/gnu-efi-3.0.18/lib\hand.c ****                 DevPath = NextDevicePathNode(DevPath);
 246:C:/Users/victim/source/repos/Paranyok/UEFI/Backend/gnu-efi-3.0.18/lib\hand.c ****             }
 247:C:/Users/victim/source/repos/Paranyok/UEFI/Backend/gnu-efi-3.0.18/lib\hand.c **** 
 248:C:/Users/victim/source/repos/Paranyok/UEFI/Backend/gnu-efi-3.0.18/lib\hand.c ****         }
 249:C:/Users/victim/source/repos/Paranyok/UEFI/Backend/gnu-efi-3.0.18/lib\hand.c **** 
 250:C:/Users/victim/source/repos/Paranyok/UEFI/Backend/gnu-efi-3.0.18/lib\hand.c ****         if (Match == FALSE) {
 251:C:/Users/victim/source/repos/Paranyok/UEFI/Backend/gnu-efi-3.0.18/lib\hand.c ****             BlockIoBuffer[Index] = NULL;
 252:C:/Users/victim/source/repos/Paranyok/UEFI/Backend/gnu-efi-3.0.18/lib\hand.c ****         } else {
 253:C:/Users/victim/source/repos/Paranyok/UEFI/Backend/gnu-efi-3.0.18/lib\hand.c ****             *NoHandles = *NoHandles + 1;
 254:C:/Users/victim/source/repos/Paranyok/UEFI/Backend/gnu-efi-3.0.18/lib\hand.c ****         }
 255:C:/Users/victim/source/repos/Paranyok/UEFI/Backend/gnu-efi-3.0.18/lib\hand.c ****     }
 256:C:/Users/victim/source/repos/Paranyok/UEFI/Backend/gnu-efi-3.0.18/lib\hand.c **** 
 257:C:/Users/victim/source/repos/Paranyok/UEFI/Backend/gnu-efi-3.0.18/lib\hand.c ****     //
 258:C:/Users/victim/source/repos/Paranyok/UEFI/Backend/gnu-efi-3.0.18/lib\hand.c ****     // If there are no matches, then return
 259:C:/Users/victim/source/repos/Paranyok/UEFI/Backend/gnu-efi-3.0.18/lib\hand.c ****     //
 260:C:/Users/victim/source/repos/Paranyok/UEFI/Backend/gnu-efi-3.0.18/lib\hand.c **** 
 261:C:/Users/victim/source/repos/Paranyok/UEFI/Backend/gnu-efi-3.0.18/lib\hand.c ****     if (*NoHandles == 0) {
 262:C:/Users/victim/source/repos/Paranyok/UEFI/Backend/gnu-efi-3.0.18/lib\hand.c ****         FreePool(BlockIoBuffer);
 263:C:/Users/victim/source/repos/Paranyok/UEFI/Backend/gnu-efi-3.0.18/lib\hand.c ****         *NoHandles = 0;
 264:C:/Users/victim/source/repos/Paranyok/UEFI/Backend/gnu-efi-3.0.18/lib\hand.c ****         *Buffer = NULL;
 265:C:/Users/victim/source/repos/Paranyok/UEFI/Backend/gnu-efi-3.0.18/lib\hand.c ****         return EFI_SUCCESS;
 266:C:/Users/victim/source/repos/Paranyok/UEFI/Backend/gnu-efi-3.0.18/lib\hand.c ****     }
 267:C:/Users/victim/source/repos/Paranyok/UEFI/Backend/gnu-efi-3.0.18/lib\hand.c **** 
 268:C:/Users/victim/source/repos/Paranyok/UEFI/Backend/gnu-efi-3.0.18/lib\hand.c ****     //
 269:C:/Users/victim/source/repos/Paranyok/UEFI/Backend/gnu-efi-3.0.18/lib\hand.c ****     // Allocate space for the return buffer of device handles.
 270:C:/Users/victim/source/repos/Paranyok/UEFI/Backend/gnu-efi-3.0.18/lib\hand.c ****     //
 271:C:/Users/victim/source/repos/Paranyok/UEFI/Backend/gnu-efi-3.0.18/lib\hand.c **** 
 272:C:/Users/victim/source/repos/Paranyok/UEFI/Backend/gnu-efi-3.0.18/lib\hand.c ****     *Buffer = AllocatePool(*NoHandles * sizeof(EFI_HANDLE));
 273:C:/Users/victim/source/repos/Paranyok/UEFI/Backend/gnu-efi-3.0.18/lib\hand.c **** 
 274:C:/Users/victim/source/repos/Paranyok/UEFI/Backend/gnu-efi-3.0.18/lib\hand.c ****     if (*Buffer == NULL) {
 275:C:/Users/victim/source/repos/Paranyok/UEFI/Backend/gnu-efi-3.0.18/lib\hand.c ****         FreePool(BlockIoBuffer);
 276:C:/Users/victim/source/repos/Paranyok/UEFI/Backend/gnu-efi-3.0.18/lib\hand.c ****         *NoHandles = 0;
 277:C:/Users/victim/source/repos/Paranyok/UEFI/Backend/gnu-efi-3.0.18/lib\hand.c ****         *Buffer = NULL;
 278:C:/Users/victim/source/repos/Paranyok/UEFI/Backend/gnu-efi-3.0.18/lib\hand.c ****         return EFI_OUT_OF_RESOURCES;
 279:C:/Users/victim/source/repos/Paranyok/UEFI/Backend/gnu-efi-3.0.18/lib\hand.c ****     }
 280:C:/Users/victim/source/repos/Paranyok/UEFI/Backend/gnu-efi-3.0.18/lib\hand.c **** 
 281:C:/Users/victim/source/repos/Paranyok/UEFI/Backend/gnu-efi-3.0.18/lib\hand.c ****     //
 282:C:/Users/victim/source/repos/Paranyok/UEFI/Backend/gnu-efi-3.0.18/lib\hand.c ****     // Build list of matching device handles.
 283:C:/Users/victim/source/repos/Paranyok/UEFI/Backend/gnu-efi-3.0.18/lib\hand.c ****     //
 284:C:/Users/victim/source/repos/Paranyok/UEFI/Backend/gnu-efi-3.0.18/lib\hand.c **** 
 285:C:/Users/victim/source/repos/Paranyok/UEFI/Backend/gnu-efi-3.0.18/lib\hand.c ****     *NoHandles = 0;
 286:C:/Users/victim/source/repos/Paranyok/UEFI/Backend/gnu-efi-3.0.18/lib\hand.c ****     for(Index=0;Index<NoBlockIoHandles;Index++) {
 287:C:/Users/victim/source/repos/Paranyok/UEFI/Backend/gnu-efi-3.0.18/lib\hand.c ****         if (BlockIoBuffer[Index] != NULL) {
 288:C:/Users/victim/source/repos/Paranyok/UEFI/Backend/gnu-efi-3.0.18/lib\hand.c ****             (*Buffer)[*NoHandles] = BlockIoBuffer[Index];
 289:C:/Users/victim/source/repos/Paranyok/UEFI/Backend/gnu-efi-3.0.18/lib\hand.c ****             *NoHandles = *NoHandles + 1;
 290:C:/Users/victim/source/repos/Paranyok/UEFI/Backend/gnu-efi-3.0.18/lib\hand.c ****         }
 291:C:/Users/victim/source/repos/Paranyok/UEFI/Backend/gnu-efi-3.0.18/lib\hand.c ****     }
 292:C:/Users/victim/source/repos/Paranyok/UEFI/Backend/gnu-efi-3.0.18/lib\hand.c **** 
 293:C:/Users/victim/source/repos/Paranyok/UEFI/Backend/gnu-efi-3.0.18/lib\hand.c ****     FreePool(BlockIoBuffer);
 294:C:/Users/victim/source/repos/Paranyok/UEFI/Backend/gnu-efi-3.0.18/lib\hand.c **** 
 295:C:/Users/victim/source/repos/Paranyok/UEFI/Backend/gnu-efi-3.0.18/lib\hand.c ****     return EFI_SUCCESS;
 296:C:/Users/victim/source/repos/Paranyok/UEFI/Backend/gnu-efi-3.0.18/lib\hand.c **** }
 403              		.loc 1 296 1 view .LVU105
 404 0222 4889D8   		movq	%rbx, %rax
 405 0225 4883C468 		addq	$104, %rsp
 406              		.cfi_remember_state
 407              		.cfi_def_cfa_offset 72
 408 0229 5B       		popq	%rbx
 409              		.cfi_restore 3
 410              		.cfi_def_cfa_offset 64
 411 022a 5E       		popq	%rsi
 412              		.cfi_restore 4
 413              		.cfi_def_cfa_offset 56
 414 022b 5F       		popq	%rdi
 415              		.cfi_restore 5
 416              		.cfi_def_cfa_offset 48
 417 022c 5D       		popq	%rbp
 418              		.cfi_restore 6
 419              		.cfi_def_cfa_offset 40
 420 022d 415C     		popq	%r12
 421              		.cfi_restore 12
 422              		.cfi_def_cfa_offset 32
 423              	.LVL32:
 424              		.loc 1 296 1 view .LVU106
 425 022f 415D     		popq	%r13
 426              		.cfi_restore 13
 427              		.cfi_def_cfa_offset 24
 428 0231 415E     		popq	%r14
 429              		.cfi_restore 14
 430              		.cfi_def_cfa_offset 16
 431 0233 415F     		popq	%r15
 432              		.cfi_restore 15
 433              		.cfi_def_cfa_offset 8
 434 0235 C3       		ret
 435              	.LVL33:
 436              	.L44:
 437              		.cfi_restore_state
 210:C:/Users/victim/source/repos/Paranyok/UEFI/Backend/gnu-efi-3.0.18/lib\hand.c ****                     (DevicePathSubType(DevPath) == MEDIA_HARDDRIVE_DP)) {
 438              		.loc 1 210 68 discriminator 1 view .LVU107
 439 0236 807B0101 		cmpb	$1, 1(%rbx)
 440 023a 7407     		je	.L40
 238:C:/Users/victim/source/repos/Paranyok/UEFI/Backend/gnu-efi-3.0.18/lib\hand.c ****                 }
 441              		.loc 1 238 55 view .LVU108
 442 023c 89F2     		movl	%esi, %edx
 443              	.LVL34:
 238:C:/Users/victim/source/repos/Paranyok/UEFI/Backend/gnu-efi-3.0.18/lib\hand.c ****                 }
 444              		.loc 1 238 55 view .LVU109
 445 023e E9DF0000 		jmp	.L19
 445      00
 446              	.LVL35:
 447              	.L40:
 213:C:/Users/victim/source/repos/Paranyok/UEFI/Backend/gnu-efi-3.0.18/lib\hand.c **** 
 448              		.loc 1 213 21 is_stmt 1 view .LVU110
 215:C:/Users/victim/source/repos/Paranyok/UEFI/Backend/gnu-efi-3.0.18/lib\hand.c **** 
 449              		.loc 1 215 21 view .LVU111
 215:C:/Users/victim/source/repos/Paranyok/UEFI/Backend/gnu-efi-3.0.18/lib\hand.c **** 
 450              		.loc 1 215 24 is_stmt 0 view .LVU112
 451 0243 84D2     		testb	%dl, %dl
 452 0245 0F85D700 		jne	.L19
 452      0000
 217:C:/Users/victim/source/repos/Paranyok/UEFI/Backend/gnu-efi-3.0.18/lib\hand.c ****                         if (IsDevicePathEndType(Next)) {
 453              		.loc 1 217 25 is_stmt 1 view .LVU113
 217:C:/Users/victim/source/repos/Paranyok/UEFI/Backend/gnu-efi-3.0.18/lib\hand.c ****                         if (IsDevicePathEndType(Next)) {
 454              		.loc 1 217 32 is_stmt 0 view .LVU114
 455 024b 0FB64302 		movzbl	2(%rbx), %eax
 456 024f 0FB65303 		movzbl	3(%rbx), %edx
 457              	.LVL36:
 217:C:/Users/victim/source/repos/Paranyok/UEFI/Backend/gnu-efi-3.0.18/lib\hand.c ****                         if (IsDevicePathEndType(Next)) {
 458              		.loc 1 217 32 view .LVU115
 459 0253 C1E208   		sall	$8, %edx
 460 0256 09D0     		orl	%edx, %eax
 461 0258 4898     		cltq
 462              	.LVL37:
 218:C:/Users/victim/source/repos/Paranyok/UEFI/Backend/gnu-efi-3.0.18/lib\hand.c ****                             if ((HardDriveDevicePath->MBRType == MBRType) &&
 463              		.loc 1 218 25 is_stmt 1 view .LVU116
 218:C:/Users/victim/source/repos/Paranyok/UEFI/Backend/gnu-efi-3.0.18/lib\hand.c ****                             if ((HardDriveDevicePath->MBRType == MBRType) &&
 464              		.loc 1 218 29 is_stmt 0 view .LVU117
 465 025a 0FB60403 		movzbl	(%rbx,%rax), %eax
 466              	.LVL38:
 218:C:/Users/victim/source/repos/Paranyok/UEFI/Backend/gnu-efi-3.0.18/lib\hand.c ****                             if ((HardDriveDevicePath->MBRType == MBRType) &&
 467              		.loc 1 218 28 view .LVU118
 468 025e F7D0     		notl	%eax
 469 0260 A87F     		testb	$127, %al
 470 0262 740A     		je	.L41
 236:C:/Users/victim/source/repos/Paranyok/UEFI/Backend/gnu-efi-3.0.18/lib\hand.c ****                 } else {
 471              		.loc 1 236 55 view .LVU119
 472 0264 BA010000 		movl	$1, %edx
 472      00
 473              	.LVL39:
 236:C:/Users/victim/source/repos/Paranyok/UEFI/Backend/gnu-efi-3.0.18/lib\hand.c ****                 } else {
 474              		.loc 1 236 55 view .LVU120
 475 0269 E9B40000 		jmp	.L19
 475      00
 476              	.LVL40:
 477              	.L41:
 219:C:/Users/victim/source/repos/Paranyok/UEFI/Backend/gnu-efi-3.0.18/lib\hand.c ****                                 (HardDriveDevicePath->SignatureType == SignatureType)) {
 478              		.loc 1 219 29 is_stmt 1 view .LVU121
 219:C:/Users/victim/source/repos/Paranyok/UEFI/Backend/gnu-efi-3.0.18/lib\hand.c ****                                 (HardDriveDevicePath->SignatureType == SignatureType)) {
 479              		.loc 1 219 32 is_stmt 0 view .LVU122
 480 026e 0FB64424 		movzbl	62(%rsp), %eax
 480      3E
 481 0273 384328   		cmpb	%al, 40(%rbx)
 482 0276 740A     		je	.L42
 236:C:/Users/victim/source/repos/Paranyok/UEFI/Backend/gnu-efi-3.0.18/lib\hand.c ****                 } else {
 483              		.loc 1 236 55 view .LVU123
 484 0278 BA010000 		movl	$1, %edx
 484      00
 485              	.LVL41:
 236:C:/Users/victim/source/repos/Paranyok/UEFI/Backend/gnu-efi-3.0.18/lib\hand.c ****                 } else {
 486              		.loc 1 236 55 view .LVU124
 487 027d E9A00000 		jmp	.L19
 487      00
 488              	.LVL42:
 489              	.L42:
 219:C:/Users/victim/source/repos/Paranyok/UEFI/Backend/gnu-efi-3.0.18/lib\hand.c ****                                 (HardDriveDevicePath->SignatureType == SignatureType)) {
 490              		.loc 1 219 75 discriminator 1 view .LVU125
 491 0282 0FB64424 		movzbl	63(%rsp), %eax
 491      3F
 492 0287 384329   		cmpb	%al, 41(%rbx)
 493 028a 740A     		je	.L43
 236:C:/Users/victim/source/repos/Paranyok/UEFI/Backend/gnu-efi-3.0.18/lib\hand.c ****                 } else {
 494              		.loc 1 236 55 view .LVU126
 495 028c BA010000 		movl	$1, %edx
 495      00
 496              	.LVL43:
 236:C:/Users/victim/source/repos/Paranyok/UEFI/Backend/gnu-efi-3.0.18/lib\hand.c ****                 } else {
 497              		.loc 1 236 55 view .LVU127
 498 0291 E98C0000 		jmp	.L19
 498      00
 499              	.LVL44:
 500              	.L43:
 221:C:/Users/victim/source/repos/Paranyok/UEFI/Backend/gnu-efi-3.0.18/lib\hand.c ****                                         case SIGNATURE_TYPE_MBR:
 501              		.loc 1 221 37 is_stmt 1 view .LVU128
 502 0296 3C01     		cmpb	$1, %al
 503 0298 740B     		je	.L20
 504 029a 3C02     		cmpb	$2, %al
 505 029c 741D     		je	.L21
 506 029e BA010000 		movl	$1, %edx
 506      00
 507              	.LVL45:
 221:C:/Users/victim/source/repos/Paranyok/UEFI/Backend/gnu-efi-3.0.18/lib\hand.c ****                                         case SIGNATURE_TYPE_MBR:
 508              		.loc 1 221 37 is_stmt 0 view .LVU129
 509 02a3 EB7D     		jmp	.L19
 510              	.LVL46:
 511              	.L20:
 223:C:/Users/victim/source/repos/Paranyok/UEFI/Backend/gnu-efi-3.0.18/lib\hand.c ****                                                 Match = TRUE;
 512              		.loc 1 223 45 is_stmt 1 view .LVU130
 223:C:/Users/victim/source/repos/Paranyok/UEFI/Backend/gnu-efi-3.0.18/lib\hand.c ****                                                 Match = TRUE;
 513              		.loc 1 223 48 is_stmt 0 view .LVU131
 514 02a5 488B8424 		movq	192(%rsp), %rax
 514      C0000000 
 515 02ad 8B5318   		movl	24(%rbx), %edx
 516              	.LVL47:
 223:C:/Users/victim/source/repos/Paranyok/UEFI/Backend/gnu-efi-3.0.18/lib\hand.c ****                                                 Match = TRUE;
 517              		.loc 1 223 48 view .LVU132
 518 02b0 3910     		cmpl	%edx, (%rax)
 519 02b2 7424     		je	.L38
 236:C:/Users/victim/source/repos/Paranyok/UEFI/Backend/gnu-efi-3.0.18/lib\hand.c ****                 } else {
 520              		.loc 1 236 55 view .LVU133
 521 02b4 BA010000 		movl	$1, %edx
 521      00
 522 02b9 EB67     		jmp	.L19
 523              	.LVL48:
 524              	.L21:
 228:C:/Users/victim/source/repos/Paranyok/UEFI/Backend/gnu-efi-3.0.18/lib\hand.c ****                                                 Match = TRUE;
 525              		.loc 1 228 45 is_stmt 1 view .LVU134
 228:C:/Users/victim/source/repos/Paranyok/UEFI/Backend/gnu-efi-3.0.18/lib\hand.c ****                                                 Match = TRUE;
 526              		.loc 1 228 96 is_stmt 0 view .LVU135
 527 02bb 488D5318 		leaq	24(%rbx), %rdx
 528              	.LVL49:
 228:C:/Users/victim/source/repos/Paranyok/UEFI/Backend/gnu-efi-3.0.18/lib\hand.c ****                                                 Match = TRUE;
 529              		.loc 1 228 49 view .LVU136
 530 02bf 488B8C24 		movq	192(%rsp), %rcx
 530      C0000000 
 531 02c7 E8000000 		call	CompareGuid
 531      00
 532              	.LVL50:
 228:C:/Users/victim/source/repos/Paranyok/UEFI/Backend/gnu-efi-3.0.18/lib\hand.c ****                                                 Match = TRUE;
 533              		.loc 1 228 48 discriminator 1 view .LVU137
 534 02cc 4885C0   		testq	%rax, %rax
 535 02cf 7414     		je	.L39
 236:C:/Users/victim/source/repos/Paranyok/UEFI/Backend/gnu-efi-3.0.18/lib\hand.c ****                 } else {
 536              		.loc 1 236 55 view .LVU138
 537 02d1 BA010000 		movl	$1, %edx
 537      00
 538 02d6 EB4A     		jmp	.L19
 539              	.LVL51:
 540              	.L38:
 236:C:/Users/victim/source/repos/Paranyok/UEFI/Backend/gnu-efi-3.0.18/lib\hand.c ****                 } else {
 541              		.loc 1 236 55 view .LVU139
 542 02d8 BA010000 		movl	$1, %edx
 542      00
 224:C:/Users/victim/source/repos/Paranyok/UEFI/Backend/gnu-efi-3.0.18/lib\hand.c ****                                             }
 543              		.loc 1 224 55 view .LVU140
 544 02dd 41BE0100 		movl	$1, %r14d
 544      0000
 545              	.LVL52:
 224:C:/Users/victim/source/repos/Paranyok/UEFI/Backend/gnu-efi-3.0.18/lib\hand.c ****                                             }
 546              		.loc 1 224 55 view .LVU141
 547 02e3 EB3D     		jmp	.L19
 548              	.LVL53:
 549              	.L39:
 236:C:/Users/victim/source/repos/Paranyok/UEFI/Backend/gnu-efi-3.0.18/lib\hand.c ****                 } else {
 550              		.loc 1 236 55 view .LVU142
 551 02e5 BA010000 		movl	$1, %edx
 551      00
 229:C:/Users/victim/source/repos/Paranyok/UEFI/Backend/gnu-efi-3.0.18/lib\hand.c ****                                             }
 552              		.loc 1 229 55 view .LVU143
 553 02ea 41BE0100 		movl	$1, %r14d
 553      0000
 554              	.LVL54:
 229:C:/Users/victim/source/repos/Paranyok/UEFI/Backend/gnu-efi-3.0.18/lib\hand.c ****                                             }
 555              		.loc 1 229 55 view .LVU144
 556 02f0 EB30     		jmp	.L19
 557              	.LVL55:
 229:C:/Users/victim/source/repos/Paranyok/UEFI/Backend/gnu-efi-3.0.18/lib\hand.c ****                                             }
 558              		.loc 1 229 55 view .LVU145
 559 02f2 66662E0F 		.p2align 6
 559      1F840000 
 559      0000000F 
 559      1F00
 560              	.L22:
 245:C:/Users/victim/source/repos/Paranyok/UEFI/Backend/gnu-efi-3.0.18/lib\hand.c ****             }
 561              		.loc 1 245 17 is_stmt 1 view .LVU146
 245:C:/Users/victim/source/repos/Paranyok/UEFI/Backend/gnu-efi-3.0.18/lib\hand.c ****             }
 562              		.loc 1 245 27 is_stmt 0 view .LVU147
 563 0300 0FB64302 		movzbl	2(%rbx), %eax
 564 0304 0FB64B03 		movzbl	3(%rbx), %ecx
 565 0308 C1E108   		sall	$8, %ecx
 566 030b 09C8     		orl	%ecx, %eax
 567 030d 4898     		cltq
 245:C:/Users/victim/source/repos/Paranyok/UEFI/Backend/gnu-efi-3.0.18/lib\hand.c ****             }
 568              		.loc 1 245 25 view .LVU148
 569 030f 4801C3   		addq	%rax, %rbx
 570              	.LVL56:
 208:C:/Users/victim/source/repos/Paranyok/UEFI/Backend/gnu-efi-3.0.18/lib\hand.c **** 
 571              		.loc 1 208 13 is_stmt 1 view .LVU149
 572              	.L24:
 208:C:/Users/victim/source/repos/Paranyok/UEFI/Backend/gnu-efi-3.0.18/lib\hand.c **** 
 573              		.loc 1 208 13 view .LVU150
 210:C:/Users/victim/source/repos/Paranyok/UEFI/Backend/gnu-efi-3.0.18/lib\hand.c ****                     (DevicePathSubType(DevPath) == MEDIA_HARDDRIVE_DP)) {
 574              		.loc 1 210 17 view .LVU151
 210:C:/Users/victim/source/repos/Paranyok/UEFI/Backend/gnu-efi-3.0.18/lib\hand.c ****                     (DevicePathSubType(DevPath) == MEDIA_HARDDRIVE_DP)) {
 575              		.loc 1 210 20 is_stmt 0 view .LVU152
 576 0312 0FB603   		movzbl	(%rbx), %eax
 577 0315 83E07F   		andl	$127, %eax
 578 0318 3C04     		cmpb	$4, %al
 579 031a 0F8416FF 		je	.L44
 579      FFFF
 238:C:/Users/victim/source/repos/Paranyok/UEFI/Backend/gnu-efi-3.0.18/lib\hand.c ****                 }
 580              		.loc 1 238 55 view .LVU153
 581 0320 89F2     		movl	%esi, %edx
 582              	.LVL57:
 583              	.L19:
 241:C:/Users/victim/source/repos/Paranyok/UEFI/Backend/gnu-efi-3.0.18/lib\hand.c ****                     break;
 584              		.loc 1 241 17 is_stmt 1 view .LVU154
 241:C:/Users/victim/source/repos/Paranyok/UEFI/Backend/gnu-efi-3.0.18/lib\hand.c ****                     break;
 585              		.loc 1 241 21 is_stmt 0 view .LVU155
 586 0322 0FB603   		movzbl	(%rbx), %eax
 241:C:/Users/victim/source/repos/Paranyok/UEFI/Backend/gnu-efi-3.0.18/lib\hand.c ****                     break;
 587              		.loc 1 241 20 view .LVU156
 588 0325 F7D0     		notl	%eax
 589 0327 A87F     		testb	$127, %al
 590 0329 75D5     		jne	.L22
 241:C:/Users/victim/source/repos/Paranyok/UEFI/Backend/gnu-efi-3.0.18/lib\hand.c ****                     break;
 591              		.loc 1 241 21 discriminator 1 view .LVU157
 592 032b 807B01FF 		cmpb	$-1, 1(%rbx)
 593 032f 75CF     		jne	.L22
 250:C:/Users/victim/source/repos/Paranyok/UEFI/Backend/gnu-efi-3.0.18/lib\hand.c ****             BlockIoBuffer[Index] = NULL;
 594              		.loc 1 250 9 is_stmt 1 view .LVU158
 250:C:/Users/victim/source/repos/Paranyok/UEFI/Backend/gnu-efi-3.0.18/lib\hand.c ****             BlockIoBuffer[Index] = NULL;
 595              		.loc 1 250 12 is_stmt 0 view .LVU159
 596 0331 4584F6   		testb	%r14b, %r14b
 597 0334 755A     		jne	.L25
 598              	.LVL58:
 599              	.L18:
 251:C:/Users/victim/source/repos/Paranyok/UEFI/Backend/gnu-efi-3.0.18/lib\hand.c ****         } else {
 600              		.loc 1 251 13 is_stmt 1 view .LVU160
 251:C:/Users/victim/source/repos/Paranyok/UEFI/Backend/gnu-efi-3.0.18/lib\hand.c ****         } else {
 601              		.loc 1 251 26 is_stmt 0 view .LVU161
 602 0336 48037C24 		addq	72(%rsp), %rdi
 602      48
 251:C:/Users/victim/source/repos/Paranyok/UEFI/Backend/gnu-efi-3.0.18/lib\hand.c ****         } else {
 603              		.loc 1 251 34 view .LVU162
 604 033b 48C70700 		movq	$0, (%rdi)
 604      000000
 605              	.L26:
 178:C:/Users/victim/source/repos/Paranyok/UEFI/Backend/gnu-efi-3.0.18/lib\hand.c **** 
 606              		.loc 1 178 45 is_stmt 1 discriminator 2 view .LVU163
 607 0342 4883C501 		addq	$1, %rbp
 608              	.LVL59:
 609              	.L17:
 178:C:/Users/victim/source/repos/Paranyok/UEFI/Backend/gnu-efi-3.0.18/lib\hand.c **** 
 610              		.loc 1 178 22 discriminator 1 view .LVU164
 611 0346 4C39ED   		cmpq	%r13, %rbp
 612 0349 7353     		jnb	.L45
 180:C:/Users/victim/source/repos/Paranyok/UEFI/Backend/gnu-efi-3.0.18/lib\hand.c **** 				     BS->HandleProtocol, 
 613              		.loc 1 180 9 view .LVU165
 180:C:/Users/victim/source/repos/Paranyok/UEFI/Backend/gnu-efi-3.0.18/lib\hand.c **** 				     BS->HandleProtocol, 
 614              		.loc 1 180 18 is_stmt 0 view .LVU166
 615 034b 488B0500 		movq	.refptr.BS(%rip), %rax
 615      000000
 616 0352 488B00   		movq	(%rax), %rax
 617 0355 488D3CED 		leaq	0(,%rbp,8), %rdi
 617      00000000 
 618 035d 4889FA   		movq	%rdi, %rdx
 619 0360 48035424 		addq	72(%rsp), %rdx
 619      48
 620 0365 488B0A   		movq	(%rdx), %rcx
 621 0368 4C8D4424 		leaq	64(%rsp), %r8
 621      40
 622 036d 488B1500 		movq	.refptr.gEfiDevicePathProtocolGuid(%rip), %rdx
 622      000000
 623 0374 FF909800 		call	*152(%rax)
 623      0000
 624              	.LVL60:
 180:C:/Users/victim/source/repos/Paranyok/UEFI/Backend/gnu-efi-3.0.18/lib\hand.c **** 				     BS->HandleProtocol, 
 625              		.loc 1 180 16 discriminator 1 view .LVU167
 626 037a 48894424 		movq	%rax, 88(%rsp)
 626      58
 196:C:/Users/victim/source/repos/Paranyok/UEFI/Backend/gnu-efi-3.0.18/lib\hand.c **** 
 627              		.loc 1 196 9 is_stmt 1 view .LVU168
 628              	.LVL61:
 198:C:/Users/victim/source/repos/Paranyok/UEFI/Backend/gnu-efi-3.0.18/lib\hand.c **** 
 629              		.loc 1 198 9 view .LVU169
 198:C:/Users/victim/source/repos/Paranyok/UEFI/Backend/gnu-efi-3.0.18/lib\hand.c **** 
 630              		.loc 1 198 24 is_stmt 0 view .LVU170
 631 037f 488B5C24 		movq	64(%rsp), %rbx
 631      40
 198:C:/Users/victim/source/repos/Paranyok/UEFI/Backend/gnu-efi-3.0.18/lib\hand.c **** 
 632              		.loc 1 198 12 view .LVU171
 633 0384 4885DB   		testq	%rbx, %rbx
 634 0387 74AD     		je	.L18
 200:C:/Users/victim/source/repos/Paranyok/UEFI/Backend/gnu-efi-3.0.18/lib\hand.c **** 
 635              		.loc 1 200 47 view .LVU172
 636 0389 89F2     		movl	%esi, %edx
 196:C:/Users/victim/source/repos/Paranyok/UEFI/Backend/gnu-efi-3.0.18/lib\hand.c **** 
 637              		.loc 1 196 15 view .LVU173
 638 038b 4189F6   		movl	%esi, %r14d
 639 038e EB82     		jmp	.L24
 640              	.LVL62:
 641              	.L25:
 253:C:/Users/victim/source/repos/Paranyok/UEFI/Backend/gnu-efi-3.0.18/lib\hand.c ****         }
 642              		.loc 1 253 13 is_stmt 1 view .LVU174
 253:C:/Users/victim/source/repos/Paranyok/UEFI/Backend/gnu-efi-3.0.18/lib\hand.c ****         }
 643              		.loc 1 253 37 is_stmt 0 view .LVU175
 644 0390 498B0424 		movq	(%r12), %rax
 645 0394 4883C001 		addq	$1, %rax
 253:C:/Users/victim/source/repos/Paranyok/UEFI/Backend/gnu-efi-3.0.18/lib\hand.c ****         }
 646              		.loc 1 253 24 view .LVU176
 647 0398 49890424 		movq	%rax, (%r12)
 648 039c EBA4     		jmp	.L26
 649              	.LVL63:
 650              	.L45:
 261:C:/Users/victim/source/repos/Paranyok/UEFI/Backend/gnu-efi-3.0.18/lib\hand.c ****         FreePool(BlockIoBuffer);
 651              		.loc 1 261 5 is_stmt 1 view .LVU177
 261:C:/Users/victim/source/repos/Paranyok/UEFI/Backend/gnu-efi-3.0.18/lib\hand.c ****         FreePool(BlockIoBuffer);
 652              		.loc 1 261 9 is_stmt 0 view .LVU178
 653 039e 498B1C24 		movq	(%r12), %rbx
 261:C:/Users/victim/source/repos/Paranyok/UEFI/Backend/gnu-efi-3.0.18/lib\hand.c ****         FreePool(BlockIoBuffer);
 654              		.loc 1 261 8 view .LVU179
 655 03a2 4885DB   		testq	%rbx, %rbx
 656 03a5 7424     		je	.L46
 272:C:/Users/victim/source/repos/Paranyok/UEFI/Backend/gnu-efi-3.0.18/lib\hand.c **** 
 657              		.loc 1 272 5 is_stmt 1 view .LVU180
 272:C:/Users/victim/source/repos/Paranyok/UEFI/Backend/gnu-efi-3.0.18/lib\hand.c **** 
 658              		.loc 1 272 15 is_stmt 0 view .LVU181
 659 03a7 488D0CDD 		leaq	0(,%rbx,8), %rcx
 659      00000000 
 660 03af E8000000 		call	AllocatePool
 660      00
 661              	.LVL64:
 272:C:/Users/victim/source/repos/Paranyok/UEFI/Backend/gnu-efi-3.0.18/lib\hand.c **** 
 662              		.loc 1 272 13 discriminator 1 view .LVU182
 663 03b4 498907   		movq	%rax, (%r15)
 274:C:/Users/victim/source/repos/Paranyok/UEFI/Backend/gnu-efi-3.0.18/lib\hand.c ****         FreePool(BlockIoBuffer);
 664              		.loc 1 274 5 is_stmt 1 view .LVU183
 274:C:/Users/victim/source/repos/Paranyok/UEFI/Backend/gnu-efi-3.0.18/lib\hand.c ****         FreePool(BlockIoBuffer);
 665              		.loc 1 274 8 is_stmt 0 view .LVU184
 666 03b7 4885C0   		testq	%rax, %rax
 667 03ba 742D     		je	.L47
 285:C:/Users/victim/source/repos/Paranyok/UEFI/Backend/gnu-efi-3.0.18/lib\hand.c ****     for(Index=0;Index<NoBlockIoHandles;Index++) {
 668              		.loc 1 285 5 is_stmt 1 view .LVU185
 285:C:/Users/victim/source/repos/Paranyok/UEFI/Backend/gnu-efi-3.0.18/lib\hand.c ****     for(Index=0;Index<NoBlockIoHandles;Index++) {
 669              		.loc 1 285 16 is_stmt 0 view .LVU186
 670 03bc 49C70424 		movq	$0, (%r12)
 670      00000000 
 286:C:/Users/victim/source/repos/Paranyok/UEFI/Backend/gnu-efi-3.0.18/lib\hand.c ****         if (BlockIoBuffer[Index] != NULL) {
 671              		.loc 1 286 5 is_stmt 1 view .LVU187
 672              	.LVL65:
 286:C:/Users/victim/source/repos/Paranyok/UEFI/Backend/gnu-efi-3.0.18/lib\hand.c ****         if (BlockIoBuffer[Index] != NULL) {
 673              		.loc 1 286 14 is_stmt 0 view .LVU188
 674 03c4 B8000000 		movl	$0, %eax
 674      00
 286:C:/Users/victim/source/repos/Paranyok/UEFI/Backend/gnu-efi-3.0.18/lib\hand.c ****         if (BlockIoBuffer[Index] != NULL) {
 675              		.loc 1 286 5 view .LVU189
 676 03c9 EB59     		jmp	.L30
 677              	.LVL66:
 678              	.L46:
 262:C:/Users/victim/source/repos/Paranyok/UEFI/Backend/gnu-efi-3.0.18/lib\hand.c ****         *NoHandles = 0;
 679              		.loc 1 262 9 is_stmt 1 view .LVU190
 680 03cb 488B4C24 		movq	72(%rsp), %rcx
 680      48
 681 03d0 E8000000 		call	FreePool
 681      00
 682              	.LVL67:
 263:C:/Users/victim/source/repos/Paranyok/UEFI/Backend/gnu-efi-3.0.18/lib\hand.c ****         *Buffer = NULL;
 683              		.loc 1 263 9 view .LVU191
 263:C:/Users/victim/source/repos/Paranyok/UEFI/Backend/gnu-efi-3.0.18/lib\hand.c ****         *Buffer = NULL;
 684              		.loc 1 263 20 is_stmt 0 view .LVU192
 685 03d5 49C70424 		movq	$0, (%r12)
 685      00000000 
 264:C:/Users/victim/source/repos/Paranyok/UEFI/Backend/gnu-efi-3.0.18/lib\hand.c ****         return EFI_SUCCESS;
 686              		.loc 1 264 9 is_stmt 1 view .LVU193
 264:C:/Users/victim/source/repos/Paranyok/UEFI/Backend/gnu-efi-3.0.18/lib\hand.c ****         return EFI_SUCCESS;
 687              		.loc 1 264 17 is_stmt 0 view .LVU194
 688 03dd 49C70700 		movq	$0, (%r15)
 688      000000
 265:C:/Users/victim/source/repos/Paranyok/UEFI/Backend/gnu-efi-3.0.18/lib\hand.c ****     }
 689              		.loc 1 265 9 is_stmt 1 view .LVU195
 265:C:/Users/victim/source/repos/Paranyok/UEFI/Backend/gnu-efi-3.0.18/lib\hand.c ****     }
 690              		.loc 1 265 16 is_stmt 0 view .LVU196
 691 03e4 E939FEFF 		jmp	.L11
 691      FF
 692              	.L47:
 275:C:/Users/victim/source/repos/Paranyok/UEFI/Backend/gnu-efi-3.0.18/lib\hand.c ****         *NoHandles = 0;
 693              		.loc 1 275 9 is_stmt 1 view .LVU197
 694 03e9 488B4C24 		movq	72(%rsp), %rcx
 694      48
 695 03ee E8000000 		call	FreePool
 695      00
 696              	.LVL68:
 276:C:/Users/victim/source/repos/Paranyok/UEFI/Backend/gnu-efi-3.0.18/lib\hand.c ****         *Buffer = NULL;
 697              		.loc 1 276 9 view .LVU198
 276:C:/Users/victim/source/repos/Paranyok/UEFI/Backend/gnu-efi-3.0.18/lib\hand.c ****         *Buffer = NULL;
 698              		.loc 1 276 20 is_stmt 0 view .LVU199
 699 03f3 49C70424 		movq	$0, (%r12)
 699      00000000 
 277:C:/Users/victim/source/repos/Paranyok/UEFI/Backend/gnu-efi-3.0.18/lib\hand.c ****         return EFI_OUT_OF_RESOURCES;
 700              		.loc 1 277 9 is_stmt 1 view .LVU200
 277:C:/Users/victim/source/repos/Paranyok/UEFI/Backend/gnu-efi-3.0.18/lib\hand.c ****         return EFI_OUT_OF_RESOURCES;
 701              		.loc 1 277 17 is_stmt 0 view .LVU201
 702 03fb 49C70700 		movq	$0, (%r15)
 702      000000
 278:C:/Users/victim/source/repos/Paranyok/UEFI/Backend/gnu-efi-3.0.18/lib\hand.c ****     }
 703              		.loc 1 278 9 is_stmt 1 view .LVU202
 278:C:/Users/victim/source/repos/Paranyok/UEFI/Backend/gnu-efi-3.0.18/lib\hand.c ****     }
 704              		.loc 1 278 16 is_stmt 0 view .LVU203
 705 0402 48BB0900 		movabsq	$-9223372036854775799, %rbx
 705      00000000 
 705      0080
 706 040c E911FEFF 		jmp	.L11
 706      FF
 707              	.LVL69:
 278:C:/Users/victim/source/repos/Paranyok/UEFI/Backend/gnu-efi-3.0.18/lib\hand.c ****     }
 708              		.loc 1 278 16 view .LVU204
 709 0411 66662E0F 		.p2align 5
 709      1F840000 
 709      0000000F 
 709      1F4000
 710              	.L31:
 286:C:/Users/victim/source/repos/Paranyok/UEFI/Backend/gnu-efi-3.0.18/lib\hand.c ****         if (BlockIoBuffer[Index] != NULL) {
 711              		.loc 1 286 45 is_stmt 1 discriminator 2 view .LVU205
 712 0420 4883C001 		addq	$1, %rax
 713              	.LVL70:
 714              	.L30:
 286:C:/Users/victim/source/repos/Paranyok/UEFI/Backend/gnu-efi-3.0.18/lib\hand.c ****         if (BlockIoBuffer[Index] != NULL) {
 715              		.loc 1 286 22 discriminator 1 view .LVU206
 716 0424 4C39E8   		cmpq	%r13, %rax
 717 0427 732E     		jnb	.L48
 287:C:/Users/victim/source/repos/Paranyok/UEFI/Backend/gnu-efi-3.0.18/lib\hand.c ****             (*Buffer)[*NoHandles] = BlockIoBuffer[Index];
 718              		.loc 1 287 9 view .LVU207
 287:C:/Users/victim/source/repos/Paranyok/UEFI/Backend/gnu-efi-3.0.18/lib\hand.c ****             (*Buffer)[*NoHandles] = BlockIoBuffer[Index];
 719              		.loc 1 287 26 is_stmt 0 view .LVU208
 720 0429 488B5424 		movq	72(%rsp), %rdx
 720      48
 721 042e 488B0CC2 		movq	(%rdx,%rax,8), %rcx
 287:C:/Users/victim/source/repos/Paranyok/UEFI/Backend/gnu-efi-3.0.18/lib\hand.c ****             (*Buffer)[*NoHandles] = BlockIoBuffer[Index];
 722              		.loc 1 287 12 view .LVU209
 723 0432 4885C9   		testq	%rcx, %rcx
 724 0435 74E9     		je	.L31
 288:C:/Users/victim/source/repos/Paranyok/UEFI/Backend/gnu-efi-3.0.18/lib\hand.c ****             *NoHandles = *NoHandles + 1;
 725              		.loc 1 288 13 is_stmt 1 view .LVU210
 288:C:/Users/victim/source/repos/Paranyok/UEFI/Backend/gnu-efi-3.0.18/lib\hand.c ****             *NoHandles = *NoHandles + 1;
 726              		.loc 1 288 22 is_stmt 0 view .LVU211
 727 0437 498B3C24 		movq	(%r12), %rdi
 728 043b 488D14FD 		leaq	0(,%rdi,8), %rdx
 728      00000000 
 729 0443 490317   		addq	(%r15), %rdx
 288:C:/Users/victim/source/repos/Paranyok/UEFI/Backend/gnu-efi-3.0.18/lib\hand.c ****             *NoHandles = *NoHandles + 1;
 730              		.loc 1 288 35 view .LVU212
 731 0446 48890A   		movq	%rcx, (%rdx)
 289:C:/Users/victim/source/repos/Paranyok/UEFI/Backend/gnu-efi-3.0.18/lib\hand.c ****         }
 732              		.loc 1 289 13 is_stmt 1 view .LVU213
 289:C:/Users/victim/source/repos/Paranyok/UEFI/Backend/gnu-efi-3.0.18/lib\hand.c ****         }
 733              		.loc 1 289 37 is_stmt 0 view .LVU214
 734 0449 498B3C24 		movq	(%r12), %rdi
 735 044d 488D5701 		leaq	1(%rdi), %rdx
 289:C:/Users/victim/source/repos/Paranyok/UEFI/Backend/gnu-efi-3.0.18/lib\hand.c ****         }
 736              		.loc 1 289 24 view .LVU215
 737 0451 49891424 		movq	%rdx, (%r12)
 738 0455 EBC9     		jmp	.L31
 739              	.L48:
 293:C:/Users/victim/source/repos/Paranyok/UEFI/Backend/gnu-efi-3.0.18/lib\hand.c **** 
 740              		.loc 1 293 5 is_stmt 1 view .LVU216
 741 0457 488B4C24 		movq	72(%rsp), %rcx
 741      48
 742 045c E8000000 		call	FreePool
 742      00
 743              	.LVL71:
 295:C:/Users/victim/source/repos/Paranyok/UEFI/Backend/gnu-efi-3.0.18/lib\hand.c **** }
 744              		.loc 1 295 5 view .LVU217
 295:C:/Users/victim/source/repos/Paranyok/UEFI/Backend/gnu-efi-3.0.18/lib\hand.c **** }
 745              		.loc 1 295 12 is_stmt 0 view .LVU218
 746 0461 BB000000 		movl	$0, %ebx
 746      00
 747 0466 E9B7FDFF 		jmp	.L11
 747      FF
 748              		.cfi_endproc
 749              	.LFE4:
 750              		.seh_endproc
 751              		.globl	LibOpenRoot
 753              		.seh_proc	LibOpenRoot
 754              	LibOpenRoot:
 755              	.LVL72:
 756              	.LFB5:
 297:C:/Users/victim/source/repos/Paranyok/UEFI/Backend/gnu-efi-3.0.18/lib\hand.c **** 
 298:C:/Users/victim/source/repos/Paranyok/UEFI/Backend/gnu-efi-3.0.18/lib\hand.c **** EFI_FILE_HANDLE
 299:C:/Users/victim/source/repos/Paranyok/UEFI/Backend/gnu-efi-3.0.18/lib\hand.c **** LibOpenRoot (
 300:C:/Users/victim/source/repos/Paranyok/UEFI/Backend/gnu-efi-3.0.18/lib\hand.c ****     IN EFI_HANDLE               DeviceHandle
 301:C:/Users/victim/source/repos/Paranyok/UEFI/Backend/gnu-efi-3.0.18/lib\hand.c ****     )
 302:C:/Users/victim/source/repos/Paranyok/UEFI/Backend/gnu-efi-3.0.18/lib\hand.c **** {
 757              		.loc 1 302 1 is_stmt 1 view -0
 758              		.cfi_startproc
 759              		.loc 1 302 1 is_stmt 0 view .LVU220
 760 046b 4883EC38 		subq	$56, %rsp
 761              		.seh_stackalloc	56
 762              		.cfi_def_cfa_offset 64
 763              		.seh_endprologue
 303:C:/Users/victim/source/repos/Paranyok/UEFI/Backend/gnu-efi-3.0.18/lib\hand.c ****     EFI_STATUS                  Status;
 764              		.loc 1 303 5 is_stmt 1 view .LVU221
 304:C:/Users/victim/source/repos/Paranyok/UEFI/Backend/gnu-efi-3.0.18/lib\hand.c ****     EFI_FILE_IO_INTERFACE       *Volume;
 765              		.loc 1 304 5 view .LVU222
 305:C:/Users/victim/source/repos/Paranyok/UEFI/Backend/gnu-efi-3.0.18/lib\hand.c ****     EFI_FILE_HANDLE             File;
 766              		.loc 1 305 5 view .LVU223
 306:C:/Users/victim/source/repos/Paranyok/UEFI/Backend/gnu-efi-3.0.18/lib\hand.c **** 
 307:C:/Users/victim/source/repos/Paranyok/UEFI/Backend/gnu-efi-3.0.18/lib\hand.c **** 
 308:C:/Users/victim/source/repos/Paranyok/UEFI/Backend/gnu-efi-3.0.18/lib\hand.c ****     //
 309:C:/Users/victim/source/repos/Paranyok/UEFI/Backend/gnu-efi-3.0.18/lib\hand.c ****     // File the file system interface to the device
 310:C:/Users/victim/source/repos/Paranyok/UEFI/Backend/gnu-efi-3.0.18/lib\hand.c ****     //
 311:C:/Users/victim/source/repos/Paranyok/UEFI/Backend/gnu-efi-3.0.18/lib\hand.c **** 
 312:C:/Users/victim/source/repos/Paranyok/UEFI/Backend/gnu-efi-3.0.18/lib\hand.c ****     Status = uefi_call_wrapper(BS->HandleProtocol, 3, DeviceHandle, &FileSystemProtocol, (VOID*)&Vo
 767              		.loc 1 312 5 view .LVU224
 768              		.loc 1 312 14 is_stmt 0 view .LVU225
 769 046f 488B0500 		movq	.refptr.BS(%rip), %rax
 769      000000
 770 0476 488B00   		movq	(%rax), %rax
 771 0479 4C8D4424 		leaq	40(%rsp), %r8
 771      28
 772 047e 488B1500 		movq	.refptr.gEfiSimpleFileSystemProtocolGuid(%rip), %rdx
 772      000000
 773 0485 FF909800 		call	*152(%rax)
 773      0000
 774              	.LVL73:
 313:C:/Users/victim/source/repos/Paranyok/UEFI/Backend/gnu-efi-3.0.18/lib\hand.c **** 
 314:C:/Users/victim/source/repos/Paranyok/UEFI/Backend/gnu-efi-3.0.18/lib\hand.c ****     //
 315:C:/Users/victim/source/repos/Paranyok/UEFI/Backend/gnu-efi-3.0.18/lib\hand.c ****     // Open the root directory of the volume 
 316:C:/Users/victim/source/repos/Paranyok/UEFI/Backend/gnu-efi-3.0.18/lib\hand.c ****     //
 317:C:/Users/victim/source/repos/Paranyok/UEFI/Backend/gnu-efi-3.0.18/lib\hand.c **** 
 318:C:/Users/victim/source/repos/Paranyok/UEFI/Backend/gnu-efi-3.0.18/lib\hand.c ****     if (!EFI_ERROR(Status)) {
 775              		.loc 1 318 5 is_stmt 1 view .LVU226
 776              		.loc 1 318 8 is_stmt 0 view .LVU227
 777 048b 4885C0   		testq	%rax, %rax
 778 048e 781F     		js	.L51
 319:C:/Users/victim/source/repos/Paranyok/UEFI/Backend/gnu-efi-3.0.18/lib\hand.c ****         Status = uefi_call_wrapper(Volume->OpenVolume, 2, Volume, &File);
 779              		.loc 1 319 9 is_stmt 1 view .LVU228
 780              		.loc 1 319 18 is_stmt 0 view .LVU229
 781 0490 488B4424 		movq	40(%rsp), %rax
 781      28
 782              	.LVL74:
 783              		.loc 1 319 18 view .LVU230
 784 0495 488D5424 		leaq	32(%rsp), %rdx
 784      20
 785 049a 4889C1   		movq	%rax, %rcx
 786 049d FF5008   		call	*8(%rax)
 787              	.LVL75:
 320:C:/Users/victim/source/repos/Paranyok/UEFI/Backend/gnu-efi-3.0.18/lib\hand.c ****     }
 321:C:/Users/victim/source/repos/Paranyok/UEFI/Backend/gnu-efi-3.0.18/lib\hand.c **** 
 322:C:/Users/victim/source/repos/Paranyok/UEFI/Backend/gnu-efi-3.0.18/lib\hand.c ****     //
 323:C:/Users/victim/source/repos/Paranyok/UEFI/Backend/gnu-efi-3.0.18/lib\hand.c ****     // Done
 324:C:/Users/victim/source/repos/Paranyok/UEFI/Backend/gnu-efi-3.0.18/lib\hand.c ****     //
 325:C:/Users/victim/source/repos/Paranyok/UEFI/Backend/gnu-efi-3.0.18/lib\hand.c **** 
 326:C:/Users/victim/source/repos/Paranyok/UEFI/Backend/gnu-efi-3.0.18/lib\hand.c ****     return EFI_ERROR(Status) ? NULL : File;
 788              		.loc 1 326 5 is_stmt 1 view .LVU231
 789              		.loc 1 326 37 is_stmt 0 view .LVU232
 790 04a0 4885C0   		testq	%rax, %rax
 791 04a3 7811     		js	.L52
 792              		.loc 1 326 37 discriminator 1 view .LVU233
 793 04a5 488B4424 		movq	32(%rsp), %rax
 793      20
 794              	.LVL76:
 795              	.L49:
 327:C:/Users/victim/source/repos/Paranyok/UEFI/Backend/gnu-efi-3.0.18/lib\hand.c **** }
 796              		.loc 1 327 1 view .LVU234
 797 04aa 4883C438 		addq	$56, %rsp
 798              		.cfi_remember_state
 799              		.cfi_def_cfa_offset 8
 800 04ae C3       		ret
 801              	.LVL77:
 802              	.L51:
 803              		.cfi_restore_state
 326:C:/Users/victim/source/repos/Paranyok/UEFI/Backend/gnu-efi-3.0.18/lib\hand.c **** }
 804              		.loc 1 326 37 discriminator 2 view .LVU235
 805 04af B8000000 		movl	$0, %eax
 805      00
 806              	.LVL78:
 326:C:/Users/victim/source/repos/Paranyok/UEFI/Backend/gnu-efi-3.0.18/lib\hand.c **** }
 807              		.loc 1 326 37 discriminator 2 view .LVU236
 808 04b4 EBF4     		jmp	.L49
 809              	.LVL79:
 810              	.L52:
 326:C:/Users/victim/source/repos/Paranyok/UEFI/Backend/gnu-efi-3.0.18/lib\hand.c **** }
 811              		.loc 1 326 37 discriminator 2 view .LVU237
 812 04b6 B8000000 		movl	$0, %eax
 812      00
 813              	.LVL80:
 326:C:/Users/victim/source/repos/Paranyok/UEFI/Backend/gnu-efi-3.0.18/lib\hand.c **** }
 814              		.loc 1 326 37 view .LVU238
 815 04bb EBED     		jmp	.L49
 816              		.cfi_endproc
 817              	.LFE5:
 818              		.seh_endproc
 819              		.globl	LibFileInfo
 821              		.seh_proc	LibFileInfo
 822              	LibFileInfo:
 823              	.LVL81:
 824              	.LFB6:
 328:C:/Users/victim/source/repos/Paranyok/UEFI/Backend/gnu-efi-3.0.18/lib\hand.c **** 
 329:C:/Users/victim/source/repos/Paranyok/UEFI/Backend/gnu-efi-3.0.18/lib\hand.c **** EFI_FILE_INFO *
 330:C:/Users/victim/source/repos/Paranyok/UEFI/Backend/gnu-efi-3.0.18/lib\hand.c **** LibFileInfo (
 331:C:/Users/victim/source/repos/Paranyok/UEFI/Backend/gnu-efi-3.0.18/lib\hand.c ****     IN EFI_FILE_HANDLE      FHand
 332:C:/Users/victim/source/repos/Paranyok/UEFI/Backend/gnu-efi-3.0.18/lib\hand.c ****     )
 333:C:/Users/victim/source/repos/Paranyok/UEFI/Backend/gnu-efi-3.0.18/lib\hand.c **** {
 825              		.loc 1 333 1 is_stmt 1 view -0
 826              		.cfi_startproc
 827              		.loc 1 333 1 is_stmt 0 view .LVU240
 828 04bd 53       		pushq	%rbx
 829              		.seh_pushreg	%rbx
 830              		.cfi_def_cfa_offset 16
 831              		.cfi_offset 3, -16
 832 04be 4883EC40 		subq	$64, %rsp
 833              		.seh_stackalloc	64
 834              		.cfi_def_cfa_offset 80
 835              		.seh_endprologue
 836 04c2 4889CB   		movq	%rcx, %rbx
 334:C:/Users/victim/source/repos/Paranyok/UEFI/Backend/gnu-efi-3.0.18/lib\hand.c ****     EFI_STATUS              Status;
 837              		.loc 1 334 5 is_stmt 1 view .LVU241
 335:C:/Users/victim/source/repos/Paranyok/UEFI/Backend/gnu-efi-3.0.18/lib\hand.c ****     EFI_FILE_INFO           *Buffer;
 838              		.loc 1 335 5 view .LVU242
 336:C:/Users/victim/source/repos/Paranyok/UEFI/Backend/gnu-efi-3.0.18/lib\hand.c ****     UINTN                   BufferSize;
 839              		.loc 1 336 5 view .LVU243
 337:C:/Users/victim/source/repos/Paranyok/UEFI/Backend/gnu-efi-3.0.18/lib\hand.c **** 
 338:C:/Users/victim/source/repos/Paranyok/UEFI/Backend/gnu-efi-3.0.18/lib\hand.c ****     //
 339:C:/Users/victim/source/repos/Paranyok/UEFI/Backend/gnu-efi-3.0.18/lib\hand.c ****     // Initialize for GrowBuffer loop
 340:C:/Users/victim/source/repos/Paranyok/UEFI/Backend/gnu-efi-3.0.18/lib\hand.c ****     //
 341:C:/Users/victim/source/repos/Paranyok/UEFI/Backend/gnu-efi-3.0.18/lib\hand.c **** 
 342:C:/Users/victim/source/repos/Paranyok/UEFI/Backend/gnu-efi-3.0.18/lib\hand.c ****     Status = EFI_SUCCESS;
 840              		.loc 1 342 5 view .LVU244
 841              		.loc 1 342 12 is_stmt 0 view .LVU245
 842 04c5 48C74424 		movq	$0, 56(%rsp)
 842      38000000 
 842      00
 343:C:/Users/victim/source/repos/Paranyok/UEFI/Backend/gnu-efi-3.0.18/lib\hand.c ****     Buffer = NULL;
 843              		.loc 1 343 5 is_stmt 1 view .LVU246
 844              		.loc 1 343 12 is_stmt 0 view .LVU247
 845 04ce 48C74424 		movq	$0, 48(%rsp)
 845      30000000 
 845      00
 344:C:/Users/victim/source/repos/Paranyok/UEFI/Backend/gnu-efi-3.0.18/lib\hand.c ****     BufferSize = SIZE_OF_EFI_FILE_INFO + 200;
 846              		.loc 1 344 5 is_stmt 1 view .LVU248
 847              		.loc 1 344 16 is_stmt 0 view .LVU249
 848 04d7 48C74424 		movq	$280, 40(%rsp)
 848      28180100 
 848      00
 345:C:/Users/victim/source/repos/Paranyok/UEFI/Backend/gnu-efi-3.0.18/lib\hand.c **** 
 346:C:/Users/victim/source/repos/Paranyok/UEFI/Backend/gnu-efi-3.0.18/lib\hand.c ****     //
 347:C:/Users/victim/source/repos/Paranyok/UEFI/Backend/gnu-efi-3.0.18/lib\hand.c ****     // Call the real function
 348:C:/Users/victim/source/repos/Paranyok/UEFI/Backend/gnu-efi-3.0.18/lib\hand.c ****     //
 349:C:/Users/victim/source/repos/Paranyok/UEFI/Backend/gnu-efi-3.0.18/lib\hand.c **** 
 350:C:/Users/victim/source/repos/Paranyok/UEFI/Backend/gnu-efi-3.0.18/lib\hand.c ****     while (GrowBuffer (&Status, (VOID **) &Buffer, BufferSize)) {
 849              		.loc 1 350 5 is_stmt 1 view .LVU250
 850              		.loc 1 350 11 is_stmt 0 view .LVU251
 851 04e0 EB1C     		jmp	.L54
 852              	.LVL82:
 853              	.L55:
 351:C:/Users/victim/source/repos/Paranyok/UEFI/Backend/gnu-efi-3.0.18/lib\hand.c ****         Status = uefi_call_wrapper(
 854              		.loc 1 351 9 is_stmt 1 view .LVU252
 855              		.loc 1 351 18 is_stmt 0 view .LVU253
 856 04e2 4C8B4C24 		movq	48(%rsp), %r9
 856      30
 857 04e7 4C8D4424 		leaq	40(%rsp), %r8
 857      28
 858 04ec 488B1500 		movq	.refptr.gEfiFileInfoGuid(%rip), %rdx
 858      000000
 859 04f3 4889D9   		movq	%rbx, %rcx
 860 04f6 FF5340   		call	*64(%rbx)
 861              	.LVL83:
 862              		.loc 1 351 16 discriminator 1 view .LVU254
 863 04f9 48894424 		movq	%rax, 56(%rsp)
 863      38
 864              	.L54:
 350:C:/Users/victim/source/repos/Paranyok/UEFI/Backend/gnu-efi-3.0.18/lib\hand.c ****         Status = uefi_call_wrapper(
 865              		.loc 1 350 12 is_stmt 1 view .LVU255
 866 04fe 488D5424 		leaq	48(%rsp), %rdx
 866      30
 867 0503 488D4C24 		leaq	56(%rsp), %rcx
 867      38
 868 0508 4C8B4424 		movq	40(%rsp), %r8
 868      28
 869 050d E8000000 		call	GrowBuffer
 869      00
 870              	.LVL84:
 350:C:/Users/victim/source/repos/Paranyok/UEFI/Backend/gnu-efi-3.0.18/lib\hand.c ****         Status = uefi_call_wrapper(
 871              		.loc 1 350 12 is_stmt 0 discriminator 1 view .LVU256
 872 0512 84C0     		testb	%al, %al
 873 0514 75CC     		jne	.L55
 352:C:/Users/victim/source/repos/Paranyok/UEFI/Backend/gnu-efi-3.0.18/lib\hand.c **** 		    FHand->GetInfo,
 353:C:/Users/victim/source/repos/Paranyok/UEFI/Backend/gnu-efi-3.0.18/lib\hand.c **** 			4,
 354:C:/Users/victim/source/repos/Paranyok/UEFI/Backend/gnu-efi-3.0.18/lib\hand.c ****                     FHand,
 355:C:/Users/victim/source/repos/Paranyok/UEFI/Backend/gnu-efi-3.0.18/lib\hand.c ****                     &GenericFileInfo,
 356:C:/Users/victim/source/repos/Paranyok/UEFI/Backend/gnu-efi-3.0.18/lib\hand.c ****                     &BufferSize,
 357:C:/Users/victim/source/repos/Paranyok/UEFI/Backend/gnu-efi-3.0.18/lib\hand.c ****                     Buffer
 358:C:/Users/victim/source/repos/Paranyok/UEFI/Backend/gnu-efi-3.0.18/lib\hand.c ****                     );
 359:C:/Users/victim/source/repos/Paranyok/UEFI/Backend/gnu-efi-3.0.18/lib\hand.c ****     }
 360:C:/Users/victim/source/repos/Paranyok/UEFI/Backend/gnu-efi-3.0.18/lib\hand.c **** 
 361:C:/Users/victim/source/repos/Paranyok/UEFI/Backend/gnu-efi-3.0.18/lib\hand.c ****     return Buffer;
 874              		.loc 1 361 5 is_stmt 1 view .LVU257
 362:C:/Users/victim/source/repos/Paranyok/UEFI/Backend/gnu-efi-3.0.18/lib\hand.c **** }
 875              		.loc 1 362 1 is_stmt 0 view .LVU258
 876 0516 488B4424 		movq	48(%rsp), %rax
 876      30
 877 051b 4883C440 		addq	$64, %rsp
 878              		.cfi_def_cfa_offset 16
 879 051f 5B       		popq	%rbx
 880              		.cfi_restore 3
 881              		.cfi_def_cfa_offset 8
 882              	.LVL85:
 883              		.loc 1 362 1 view .LVU259
 884 0520 C3       		ret
 885              		.cfi_endproc
 886              	.LFE6:
 887              		.seh_endproc
 888              		.globl	LibFileSystemInfo
 890              		.seh_proc	LibFileSystemInfo
 891              	LibFileSystemInfo:
 892              	.LVL86:
 893              	.LFB7:
 363:C:/Users/victim/source/repos/Paranyok/UEFI/Backend/gnu-efi-3.0.18/lib\hand.c **** 
 364:C:/Users/victim/source/repos/Paranyok/UEFI/Backend/gnu-efi-3.0.18/lib\hand.c ****     
 365:C:/Users/victim/source/repos/Paranyok/UEFI/Backend/gnu-efi-3.0.18/lib\hand.c **** EFI_FILE_SYSTEM_INFO *
 366:C:/Users/victim/source/repos/Paranyok/UEFI/Backend/gnu-efi-3.0.18/lib\hand.c **** LibFileSystemInfo (
 367:C:/Users/victim/source/repos/Paranyok/UEFI/Backend/gnu-efi-3.0.18/lib\hand.c ****     IN EFI_FILE_HANDLE      FHand
 368:C:/Users/victim/source/repos/Paranyok/UEFI/Backend/gnu-efi-3.0.18/lib\hand.c ****     )
 369:C:/Users/victim/source/repos/Paranyok/UEFI/Backend/gnu-efi-3.0.18/lib\hand.c **** {
 894              		.loc 1 369 1 is_stmt 1 view -0
 895              		.cfi_startproc
 896              		.loc 1 369 1 is_stmt 0 view .LVU261
 897 0521 53       		pushq	%rbx
 898              		.seh_pushreg	%rbx
 899              		.cfi_def_cfa_offset 16
 900              		.cfi_offset 3, -16
 901 0522 4883EC40 		subq	$64, %rsp
 902              		.seh_stackalloc	64
 903              		.cfi_def_cfa_offset 80
 904              		.seh_endprologue
 905 0526 4889CB   		movq	%rcx, %rbx
 370:C:/Users/victim/source/repos/Paranyok/UEFI/Backend/gnu-efi-3.0.18/lib\hand.c ****     EFI_STATUS              Status;
 906              		.loc 1 370 5 is_stmt 1 view .LVU262
 371:C:/Users/victim/source/repos/Paranyok/UEFI/Backend/gnu-efi-3.0.18/lib\hand.c ****     EFI_FILE_SYSTEM_INFO    *Buffer;
 907              		.loc 1 371 5 view .LVU263
 372:C:/Users/victim/source/repos/Paranyok/UEFI/Backend/gnu-efi-3.0.18/lib\hand.c ****     UINTN                   BufferSize;
 908              		.loc 1 372 5 view .LVU264
 373:C:/Users/victim/source/repos/Paranyok/UEFI/Backend/gnu-efi-3.0.18/lib\hand.c **** 
 374:C:/Users/victim/source/repos/Paranyok/UEFI/Backend/gnu-efi-3.0.18/lib\hand.c ****     //
 375:C:/Users/victim/source/repos/Paranyok/UEFI/Backend/gnu-efi-3.0.18/lib\hand.c ****     // Initialize for GrowBuffer loop
 376:C:/Users/victim/source/repos/Paranyok/UEFI/Backend/gnu-efi-3.0.18/lib\hand.c ****     //
 377:C:/Users/victim/source/repos/Paranyok/UEFI/Backend/gnu-efi-3.0.18/lib\hand.c **** 
 378:C:/Users/victim/source/repos/Paranyok/UEFI/Backend/gnu-efi-3.0.18/lib\hand.c ****     Status = EFI_SUCCESS;
 909              		.loc 1 378 5 view .LVU265
 910              		.loc 1 378 12 is_stmt 0 view .LVU266
 911 0529 48C74424 		movq	$0, 56(%rsp)
 911      38000000 
 911      00
 379:C:/Users/victim/source/repos/Paranyok/UEFI/Backend/gnu-efi-3.0.18/lib\hand.c ****     Buffer = NULL;
 912              		.loc 1 379 5 is_stmt 1 view .LVU267
 913              		.loc 1 379 12 is_stmt 0 view .LVU268
 914 0532 48C74424 		movq	$0, 48(%rsp)
 914      30000000 
 914      00
 380:C:/Users/victim/source/repos/Paranyok/UEFI/Backend/gnu-efi-3.0.18/lib\hand.c ****     BufferSize = SIZE_OF_EFI_FILE_SYSTEM_INFO + 200;
 915              		.loc 1 380 5 is_stmt 1 view .LVU269
 916              		.loc 1 380 16 is_stmt 0 view .LVU270
 917 053b 48C74424 		movq	$236, 40(%rsp)
 917      28EC0000 
 917      00
 381:C:/Users/victim/source/repos/Paranyok/UEFI/Backend/gnu-efi-3.0.18/lib\hand.c **** 
 382:C:/Users/victim/source/repos/Paranyok/UEFI/Backend/gnu-efi-3.0.18/lib\hand.c ****     //
 383:C:/Users/victim/source/repos/Paranyok/UEFI/Backend/gnu-efi-3.0.18/lib\hand.c ****     // Call the real function
 384:C:/Users/victim/source/repos/Paranyok/UEFI/Backend/gnu-efi-3.0.18/lib\hand.c ****     //
 385:C:/Users/victim/source/repos/Paranyok/UEFI/Backend/gnu-efi-3.0.18/lib\hand.c **** 
 386:C:/Users/victim/source/repos/Paranyok/UEFI/Backend/gnu-efi-3.0.18/lib\hand.c ****     while (GrowBuffer (&Status, (VOID **) &Buffer, BufferSize)) {
 918              		.loc 1 386 5 is_stmt 1 view .LVU271
 919              		.loc 1 386 11 is_stmt 0 view .LVU272
 920 0544 EB1C     		jmp	.L57
 921              	.LVL87:
 922              	.L58:
 387:C:/Users/victim/source/repos/Paranyok/UEFI/Backend/gnu-efi-3.0.18/lib\hand.c ****         Status = uefi_call_wrapper(
 923              		.loc 1 387 9 is_stmt 1 view .LVU273
 924              		.loc 1 387 18 is_stmt 0 view .LVU274
 925 0546 4C8B4C24 		movq	48(%rsp), %r9
 925      30
 926 054b 4C8D4424 		leaq	40(%rsp), %r8
 926      28
 927 0550 488B1500 		movq	.refptr.gEfiFileSystemInfoGuid(%rip), %rdx
 927      000000
 928 0557 4889D9   		movq	%rbx, %rcx
 929 055a FF5340   		call	*64(%rbx)
 930              	.LVL88:
 931              		.loc 1 387 16 discriminator 1 view .LVU275
 932 055d 48894424 		movq	%rax, 56(%rsp)
 932      38
 933              	.L57:
 386:C:/Users/victim/source/repos/Paranyok/UEFI/Backend/gnu-efi-3.0.18/lib\hand.c ****         Status = uefi_call_wrapper(
 934              		.loc 1 386 12 is_stmt 1 view .LVU276
 935 0562 488D5424 		leaq	48(%rsp), %rdx
 935      30
 936 0567 488D4C24 		leaq	56(%rsp), %rcx
 936      38
 937 056c 4C8B4424 		movq	40(%rsp), %r8
 937      28
 938 0571 E8000000 		call	GrowBuffer
 938      00
 939              	.LVL89:
 386:C:/Users/victim/source/repos/Paranyok/UEFI/Backend/gnu-efi-3.0.18/lib\hand.c ****         Status = uefi_call_wrapper(
 940              		.loc 1 386 12 is_stmt 0 discriminator 1 view .LVU277
 941 0576 84C0     		testb	%al, %al
 942 0578 75CC     		jne	.L58
 388:C:/Users/victim/source/repos/Paranyok/UEFI/Backend/gnu-efi-3.0.18/lib\hand.c **** 		    FHand->GetInfo,
 389:C:/Users/victim/source/repos/Paranyok/UEFI/Backend/gnu-efi-3.0.18/lib\hand.c **** 			4,
 390:C:/Users/victim/source/repos/Paranyok/UEFI/Backend/gnu-efi-3.0.18/lib\hand.c ****                     FHand,
 391:C:/Users/victim/source/repos/Paranyok/UEFI/Backend/gnu-efi-3.0.18/lib\hand.c ****                     &FileSystemInfo,
 392:C:/Users/victim/source/repos/Paranyok/UEFI/Backend/gnu-efi-3.0.18/lib\hand.c ****                     &BufferSize,
 393:C:/Users/victim/source/repos/Paranyok/UEFI/Backend/gnu-efi-3.0.18/lib\hand.c ****                     Buffer
 394:C:/Users/victim/source/repos/Paranyok/UEFI/Backend/gnu-efi-3.0.18/lib\hand.c ****                     );
 395:C:/Users/victim/source/repos/Paranyok/UEFI/Backend/gnu-efi-3.0.18/lib\hand.c ****     }
 396:C:/Users/victim/source/repos/Paranyok/UEFI/Backend/gnu-efi-3.0.18/lib\hand.c **** 
 397:C:/Users/victim/source/repos/Paranyok/UEFI/Backend/gnu-efi-3.0.18/lib\hand.c ****     return Buffer;
 943              		.loc 1 397 5 is_stmt 1 view .LVU278
 398:C:/Users/victim/source/repos/Paranyok/UEFI/Backend/gnu-efi-3.0.18/lib\hand.c **** }
 944              		.loc 1 398 1 is_stmt 0 view .LVU279
 945 057a 488B4424 		movq	48(%rsp), %rax
 945      30
 946 057f 4883C440 		addq	$64, %rsp
 947              		.cfi_def_cfa_offset 16
 948 0583 5B       		popq	%rbx
 949              		.cfi_restore 3
 950              		.cfi_def_cfa_offset 8
 951              	.LVL90:
 952              		.loc 1 398 1 view .LVU280
 953 0584 C3       		ret
 954              		.cfi_endproc
 955              	.LFE7:
 956              		.seh_endproc
 957              		.globl	LibFileSystemVolumeLabelInfo
 959              		.seh_proc	LibFileSystemVolumeLabelInfo
 960              	LibFileSystemVolumeLabelInfo:
 961              	.LVL91:
 962              	.LFB8:
 399:C:/Users/victim/source/repos/Paranyok/UEFI/Backend/gnu-efi-3.0.18/lib\hand.c **** 
 400:C:/Users/victim/source/repos/Paranyok/UEFI/Backend/gnu-efi-3.0.18/lib\hand.c **** EFI_FILE_SYSTEM_VOLUME_LABEL_INFO *
 401:C:/Users/victim/source/repos/Paranyok/UEFI/Backend/gnu-efi-3.0.18/lib\hand.c **** LibFileSystemVolumeLabelInfo (
 402:C:/Users/victim/source/repos/Paranyok/UEFI/Backend/gnu-efi-3.0.18/lib\hand.c ****     IN EFI_FILE_HANDLE      FHand
 403:C:/Users/victim/source/repos/Paranyok/UEFI/Backend/gnu-efi-3.0.18/lib\hand.c ****     )
 404:C:/Users/victim/source/repos/Paranyok/UEFI/Backend/gnu-efi-3.0.18/lib\hand.c **** {
 963              		.loc 1 404 1 is_stmt 1 view -0
 964              		.cfi_startproc
 965              		.loc 1 404 1 is_stmt 0 view .LVU282
 966 0585 53       		pushq	%rbx
 967              		.seh_pushreg	%rbx
 968              		.cfi_def_cfa_offset 16
 969              		.cfi_offset 3, -16
 970 0586 4883EC40 		subq	$64, %rsp
 971              		.seh_stackalloc	64
 972              		.cfi_def_cfa_offset 80
 973              		.seh_endprologue
 974 058a 4889CB   		movq	%rcx, %rbx
 405:C:/Users/victim/source/repos/Paranyok/UEFI/Backend/gnu-efi-3.0.18/lib\hand.c ****     EFI_STATUS                        Status;
 975              		.loc 1 405 5 is_stmt 1 view .LVU283
 406:C:/Users/victim/source/repos/Paranyok/UEFI/Backend/gnu-efi-3.0.18/lib\hand.c ****     EFI_FILE_SYSTEM_VOLUME_LABEL_INFO *Buffer;
 976              		.loc 1 406 5 view .LVU284
 407:C:/Users/victim/source/repos/Paranyok/UEFI/Backend/gnu-efi-3.0.18/lib\hand.c ****     UINTN                             BufferSize;
 977              		.loc 1 407 5 view .LVU285
 408:C:/Users/victim/source/repos/Paranyok/UEFI/Backend/gnu-efi-3.0.18/lib\hand.c **** 
 409:C:/Users/victim/source/repos/Paranyok/UEFI/Backend/gnu-efi-3.0.18/lib\hand.c ****     //
 410:C:/Users/victim/source/repos/Paranyok/UEFI/Backend/gnu-efi-3.0.18/lib\hand.c ****     // Initialize for GrowBuffer loop
 411:C:/Users/victim/source/repos/Paranyok/UEFI/Backend/gnu-efi-3.0.18/lib\hand.c ****     //
 412:C:/Users/victim/source/repos/Paranyok/UEFI/Backend/gnu-efi-3.0.18/lib\hand.c **** 
 413:C:/Users/victim/source/repos/Paranyok/UEFI/Backend/gnu-efi-3.0.18/lib\hand.c ****     Status = EFI_SUCCESS;
 978              		.loc 1 413 5 view .LVU286
 979              		.loc 1 413 12 is_stmt 0 view .LVU287
 980 058d 48C74424 		movq	$0, 56(%rsp)
 980      38000000 
 980      00
 414:C:/Users/victim/source/repos/Paranyok/UEFI/Backend/gnu-efi-3.0.18/lib\hand.c ****     Buffer = NULL;
 981              		.loc 1 414 5 is_stmt 1 view .LVU288
 982              		.loc 1 414 12 is_stmt 0 view .LVU289
 983 0596 48C74424 		movq	$0, 48(%rsp)
 983      30000000 
 983      00
 415:C:/Users/victim/source/repos/Paranyok/UEFI/Backend/gnu-efi-3.0.18/lib\hand.c ****     BufferSize = SIZE_OF_EFI_FILE_SYSTEM_VOLUME_LABEL_INFO + 200;
 984              		.loc 1 415 5 is_stmt 1 view .LVU290
 985              		.loc 1 415 16 is_stmt 0 view .LVU291
 986 059f 48C74424 		movq	$200, 40(%rsp)
 986      28C80000 
 986      00
 416:C:/Users/victim/source/repos/Paranyok/UEFI/Backend/gnu-efi-3.0.18/lib\hand.c **** 
 417:C:/Users/victim/source/repos/Paranyok/UEFI/Backend/gnu-efi-3.0.18/lib\hand.c ****     //
 418:C:/Users/victim/source/repos/Paranyok/UEFI/Backend/gnu-efi-3.0.18/lib\hand.c ****     // Call the real function
 419:C:/Users/victim/source/repos/Paranyok/UEFI/Backend/gnu-efi-3.0.18/lib\hand.c ****     //
 420:C:/Users/victim/source/repos/Paranyok/UEFI/Backend/gnu-efi-3.0.18/lib\hand.c **** 
 421:C:/Users/victim/source/repos/Paranyok/UEFI/Backend/gnu-efi-3.0.18/lib\hand.c ****     while (GrowBuffer (&Status, (VOID **) &Buffer, BufferSize)) {
 987              		.loc 1 421 5 is_stmt 1 view .LVU292
 988              		.loc 1 421 11 is_stmt 0 view .LVU293
 989 05a8 EB1C     		jmp	.L60
 990              	.LVL92:
 991              	.L61:
 422:C:/Users/victim/source/repos/Paranyok/UEFI/Backend/gnu-efi-3.0.18/lib\hand.c ****         Status = uefi_call_wrapper(
 992              		.loc 1 422 9 is_stmt 1 view .LVU294
 993              		.loc 1 422 18 is_stmt 0 view .LVU295
 994 05aa 4C8B4C24 		movq	48(%rsp), %r9
 994      30
 995 05af 4C8D4424 		leaq	40(%rsp), %r8
 995      28
 996 05b4 488B1500 		movq	.refptr.gEfiFileSystemVolumeLabelInfoIdGuid(%rip), %rdx
 996      000000
 997 05bb 4889D9   		movq	%rbx, %rcx
 998 05be FF5340   		call	*64(%rbx)
 999              	.LVL93:
 1000              		.loc 1 422 16 discriminator 1 view .LVU296
 1001 05c1 48894424 		movq	%rax, 56(%rsp)
 1001      38
 1002              	.L60:
 421:C:/Users/victim/source/repos/Paranyok/UEFI/Backend/gnu-efi-3.0.18/lib\hand.c ****         Status = uefi_call_wrapper(
 1003              		.loc 1 421 12 is_stmt 1 view .LVU297
 1004 05c6 488D5424 		leaq	48(%rsp), %rdx
 1004      30
 1005 05cb 488D4C24 		leaq	56(%rsp), %rcx
 1005      38
 1006 05d0 4C8B4424 		movq	40(%rsp), %r8
 1006      28
 1007 05d5 E8000000 		call	GrowBuffer
 1007      00
 1008              	.LVL94:
 421:C:/Users/victim/source/repos/Paranyok/UEFI/Backend/gnu-efi-3.0.18/lib\hand.c ****         Status = uefi_call_wrapper(
 1009              		.loc 1 421 12 is_stmt 0 discriminator 1 view .LVU298
 1010 05da 84C0     		testb	%al, %al
 1011 05dc 75CC     		jne	.L61
 423:C:/Users/victim/source/repos/Paranyok/UEFI/Backend/gnu-efi-3.0.18/lib\hand.c **** 		    FHand->GetInfo,
 424:C:/Users/victim/source/repos/Paranyok/UEFI/Backend/gnu-efi-3.0.18/lib\hand.c **** 			4,
 425:C:/Users/victim/source/repos/Paranyok/UEFI/Backend/gnu-efi-3.0.18/lib\hand.c ****                     FHand,
 426:C:/Users/victim/source/repos/Paranyok/UEFI/Backend/gnu-efi-3.0.18/lib\hand.c ****                     &FileSystemVolumeLabelInfo,
 427:C:/Users/victim/source/repos/Paranyok/UEFI/Backend/gnu-efi-3.0.18/lib\hand.c ****                     &BufferSize,
 428:C:/Users/victim/source/repos/Paranyok/UEFI/Backend/gnu-efi-3.0.18/lib\hand.c ****                     Buffer
 429:C:/Users/victim/source/repos/Paranyok/UEFI/Backend/gnu-efi-3.0.18/lib\hand.c ****                     );
 430:C:/Users/victim/source/repos/Paranyok/UEFI/Backend/gnu-efi-3.0.18/lib\hand.c ****     }
 431:C:/Users/victim/source/repos/Paranyok/UEFI/Backend/gnu-efi-3.0.18/lib\hand.c **** 
 432:C:/Users/victim/source/repos/Paranyok/UEFI/Backend/gnu-efi-3.0.18/lib\hand.c ****     return Buffer;
 1012              		.loc 1 432 5 is_stmt 1 view .LVU299
 433:C:/Users/victim/source/repos/Paranyok/UEFI/Backend/gnu-efi-3.0.18/lib\hand.c **** }
 1013              		.loc 1 433 1 is_stmt 0 view .LVU300
 1014 05de 488B4424 		movq	48(%rsp), %rax
 1014      30
 1015 05e3 4883C440 		addq	$64, %rsp
 1016              		.cfi_def_cfa_offset 16
 1017 05e7 5B       		popq	%rbx
 1018              		.cfi_restore 3
 1019              		.cfi_def_cfa_offset 8
 1020              	.LVL95:
 1021              		.loc 1 433 1 view .LVU301
 1022 05e8 C3       		ret
 1023              		.cfi_endproc
 1024              	.LFE8:
 1025              		.seh_endproc
 1026              		.globl	LibInstallProtocolInterfaces
 1028              		.seh_proc	LibInstallProtocolInterfaces
 1029              	LibInstallProtocolInterfaces:
 1030              	.LVL96:
 1031              	.LFB9:
 434:C:/Users/victim/source/repos/Paranyok/UEFI/Backend/gnu-efi-3.0.18/lib\hand.c **** 
 435:C:/Users/victim/source/repos/Paranyok/UEFI/Backend/gnu-efi-3.0.18/lib\hand.c ****     
 436:C:/Users/victim/source/repos/Paranyok/UEFI/Backend/gnu-efi-3.0.18/lib\hand.c **** 
 437:C:/Users/victim/source/repos/Paranyok/UEFI/Backend/gnu-efi-3.0.18/lib\hand.c **** EFI_STATUS
 438:C:/Users/victim/source/repos/Paranyok/UEFI/Backend/gnu-efi-3.0.18/lib\hand.c **** LibInstallProtocolInterfaces (
 439:C:/Users/victim/source/repos/Paranyok/UEFI/Backend/gnu-efi-3.0.18/lib\hand.c ****     IN OUT EFI_HANDLE           *Handle,
 440:C:/Users/victim/source/repos/Paranyok/UEFI/Backend/gnu-efi-3.0.18/lib\hand.c ****     ...
 441:C:/Users/victim/source/repos/Paranyok/UEFI/Backend/gnu-efi-3.0.18/lib\hand.c ****     )
 442:C:/Users/victim/source/repos/Paranyok/UEFI/Backend/gnu-efi-3.0.18/lib\hand.c **** {
 1032              		.loc 1 442 1 is_stmt 1 view -0
 1033              		.cfi_startproc
 1034              		.loc 1 442 1 is_stmt 0 view .LVU303
 1035 05e9 4154     		pushq	%r12
 1036              		.seh_pushreg	%r12
 1037              		.cfi_def_cfa_offset 16
 1038              		.cfi_offset 12, -16
 1039 05eb 55       		pushq	%rbp
 1040              		.seh_pushreg	%rbp
 1041              		.cfi_def_cfa_offset 24
 1042              		.cfi_offset 6, -24
 1043 05ec 57       		pushq	%rdi
 1044              		.seh_pushreg	%rdi
 1045              		.cfi_def_cfa_offset 32
 1046              		.cfi_offset 5, -32
 1047 05ed 56       		pushq	%rsi
 1048              		.seh_pushreg	%rsi
 1049              		.cfi_def_cfa_offset 40
 1050              		.cfi_offset 4, -40
 1051 05ee 53       		pushq	%rbx
 1052              		.seh_pushreg	%rbx
 1053              		.cfi_def_cfa_offset 48
 1054              		.cfi_offset 3, -48
 1055 05ef 4883EC30 		subq	$48, %rsp
 1056              		.seh_stackalloc	48
 1057              		.cfi_def_cfa_offset 96
 1058              		.seh_endprologue
 1059 05f3 4889CF   		movq	%rcx, %rdi
 1060 05f6 48895424 		movq	%rdx, 104(%rsp)
 1060      68
 1061 05fb 4C894424 		movq	%r8, 112(%rsp)
 1061      70
 1062 0600 4C894C24 		movq	%r9, 120(%rsp)
 1062      78
 443:C:/Users/victim/source/repos/Paranyok/UEFI/Backend/gnu-efi-3.0.18/lib\hand.c ****     va_list         args;
 1063              		.loc 1 443 5 is_stmt 1 view .LVU304
 444:C:/Users/victim/source/repos/Paranyok/UEFI/Backend/gnu-efi-3.0.18/lib\hand.c ****     EFI_STATUS      Status;
 1064              		.loc 1 444 5 view .LVU305
 445:C:/Users/victim/source/repos/Paranyok/UEFI/Backend/gnu-efi-3.0.18/lib\hand.c ****     EFI_GUID        *Protocol;
 1065              		.loc 1 445 5 view .LVU306
 446:C:/Users/victim/source/repos/Paranyok/UEFI/Backend/gnu-efi-3.0.18/lib\hand.c ****     VOID            *Interface;
 1066              		.loc 1 446 5 view .LVU307
 447:C:/Users/victim/source/repos/Paranyok/UEFI/Backend/gnu-efi-3.0.18/lib\hand.c ****     EFI_TPL         OldTpl;
 1067              		.loc 1 447 5 view .LVU308
 448:C:/Users/victim/source/repos/Paranyok/UEFI/Backend/gnu-efi-3.0.18/lib\hand.c ****     UINTN           Index;
 1068              		.loc 1 448 5 view .LVU309
 449:C:/Users/victim/source/repos/Paranyok/UEFI/Backend/gnu-efi-3.0.18/lib\hand.c ****     EFI_HANDLE      OldHandle;
 1069              		.loc 1 449 5 view .LVU310
 450:C:/Users/victim/source/repos/Paranyok/UEFI/Backend/gnu-efi-3.0.18/lib\hand.c **** 
 451:C:/Users/victim/source/repos/Paranyok/UEFI/Backend/gnu-efi-3.0.18/lib\hand.c ****     //
 452:C:/Users/victim/source/repos/Paranyok/UEFI/Backend/gnu-efi-3.0.18/lib\hand.c ****     // Syncronize with notifcations
 453:C:/Users/victim/source/repos/Paranyok/UEFI/Backend/gnu-efi-3.0.18/lib\hand.c ****     // 
 454:C:/Users/victim/source/repos/Paranyok/UEFI/Backend/gnu-efi-3.0.18/lib\hand.c **** 
 455:C:/Users/victim/source/repos/Paranyok/UEFI/Backend/gnu-efi-3.0.18/lib\hand.c ****     OldTpl = uefi_call_wrapper(BS->RaiseTPL, 1, TPL_NOTIFY);
 1070              		.loc 1 455 5 view .LVU311
 1071              		.loc 1 455 14 is_stmt 0 view .LVU312
 1072 0605 488B0500 		movq	.refptr.BS(%rip), %rax
 1072      000000
 1073 060c 488B00   		movq	(%rax), %rax
 1074 060f B9100000 		movl	$16, %ecx
 1074      00
 1075              	.LVL97:
 1076              		.loc 1 455 14 view .LVU313
 1077 0614 FF5018   		call	*24(%rax)
 1078              	.LVL98:
 1079 0617 4889C5   		movq	%rax, %rbp
 1080              	.LVL99:
 456:C:/Users/victim/source/repos/Paranyok/UEFI/Backend/gnu-efi-3.0.18/lib\hand.c ****     OldHandle = *Handle;
 1081              		.loc 1 456 5 is_stmt 1 view .LVU314
 1082              		.loc 1 456 15 is_stmt 0 view .LVU315
 1083 061a 4C8B27   		movq	(%rdi), %r12
 1084              	.LVL100:
 457:C:/Users/victim/source/repos/Paranyok/UEFI/Backend/gnu-efi-3.0.18/lib\hand.c **** 
 458:C:/Users/victim/source/repos/Paranyok/UEFI/Backend/gnu-efi-3.0.18/lib\hand.c ****     //
 459:C:/Users/victim/source/repos/Paranyok/UEFI/Backend/gnu-efi-3.0.18/lib\hand.c ****     // Install the protocol interfaces
 460:C:/Users/victim/source/repos/Paranyok/UEFI/Backend/gnu-efi-3.0.18/lib\hand.c ****     //
 461:C:/Users/victim/source/repos/Paranyok/UEFI/Backend/gnu-efi-3.0.18/lib\hand.c **** 
 462:C:/Users/victim/source/repos/Paranyok/UEFI/Backend/gnu-efi-3.0.18/lib\hand.c ****     Index = 0;
 1085              		.loc 1 462 5 is_stmt 1 view .LVU316
 463:C:/Users/victim/source/repos/Paranyok/UEFI/Backend/gnu-efi-3.0.18/lib\hand.c ****     Status = EFI_SUCCESS;
 1086              		.loc 1 463 5 view .LVU317
 464:C:/Users/victim/source/repos/Paranyok/UEFI/Backend/gnu-efi-3.0.18/lib\hand.c ****     va_start (args, Handle);
 1087              		.loc 1 464 5 view .LVU318
 1088 061d 488D4424 		leaq	104(%rsp), %rax
 1088      68
 1089              	.LVL101:
 1090              		.loc 1 464 5 is_stmt 0 view .LVU319
 1091 0622 48894424 		movq	%rax, 40(%rsp)
 1091      28
 465:C:/Users/victim/source/repos/Paranyok/UEFI/Backend/gnu-efi-3.0.18/lib\hand.c **** 
 466:C:/Users/victim/source/repos/Paranyok/UEFI/Backend/gnu-efi-3.0.18/lib\hand.c ****     while (!EFI_ERROR(Status)) {
 1092              		.loc 1 466 5 is_stmt 1 view .LVU320
 462:C:/Users/victim/source/repos/Paranyok/UEFI/Backend/gnu-efi-3.0.18/lib\hand.c ****     Status = EFI_SUCCESS;
 1093              		.loc 1 462 11 is_stmt 0 view .LVU321
 1094 0627 BE000000 		movl	$0, %esi
 1094      00
 463:C:/Users/victim/source/repos/Paranyok/UEFI/Backend/gnu-efi-3.0.18/lib\hand.c ****     va_start (args, Handle);
 1095              		.loc 1 463 12 view .LVU322
 1096 062c BB000000 		movl	$0, %ebx
 1096      00
 1097              		.loc 1 466 11 view .LVU323
 1098 0631 EB04     		jmp	.L63
 1099              	.LVL102:
 1100              	.L69:
 467:C:/Users/victim/source/repos/Paranyok/UEFI/Backend/gnu-efi-3.0.18/lib\hand.c **** 
 468:C:/Users/victim/source/repos/Paranyok/UEFI/Backend/gnu-efi-3.0.18/lib\hand.c ****         //
 469:C:/Users/victim/source/repos/Paranyok/UEFI/Backend/gnu-efi-3.0.18/lib\hand.c ****         // If protocol is NULL, then it's the end of the list
 470:C:/Users/victim/source/repos/Paranyok/UEFI/Backend/gnu-efi-3.0.18/lib\hand.c ****         //
 471:C:/Users/victim/source/repos/Paranyok/UEFI/Backend/gnu-efi-3.0.18/lib\hand.c **** 
 472:C:/Users/victim/source/repos/Paranyok/UEFI/Backend/gnu-efi-3.0.18/lib\hand.c ****         Protocol = va_arg(args, EFI_GUID *);
 473:C:/Users/victim/source/repos/Paranyok/UEFI/Backend/gnu-efi-3.0.18/lib\hand.c ****         if (!Protocol) {
 474:C:/Users/victim/source/repos/Paranyok/UEFI/Backend/gnu-efi-3.0.18/lib\hand.c ****             break;
 475:C:/Users/victim/source/repos/Paranyok/UEFI/Backend/gnu-efi-3.0.18/lib\hand.c ****         }
 476:C:/Users/victim/source/repos/Paranyok/UEFI/Backend/gnu-efi-3.0.18/lib\hand.c **** 
 477:C:/Users/victim/source/repos/Paranyok/UEFI/Backend/gnu-efi-3.0.18/lib\hand.c ****         Interface = va_arg(args, VOID *);
 478:C:/Users/victim/source/repos/Paranyok/UEFI/Backend/gnu-efi-3.0.18/lib\hand.c **** 
 479:C:/Users/victim/source/repos/Paranyok/UEFI/Backend/gnu-efi-3.0.18/lib\hand.c ****         //
 480:C:/Users/victim/source/repos/Paranyok/UEFI/Backend/gnu-efi-3.0.18/lib\hand.c ****         // Install it
 481:C:/Users/victim/source/repos/Paranyok/UEFI/Backend/gnu-efi-3.0.18/lib\hand.c ****         //
 482:C:/Users/victim/source/repos/Paranyok/UEFI/Backend/gnu-efi-3.0.18/lib\hand.c **** 
 483:C:/Users/victim/source/repos/Paranyok/UEFI/Backend/gnu-efi-3.0.18/lib\hand.c ****         DEBUG((D_INFO, "LibInstallProtocolInterface: %d %x\n", Protocol, Interface));
 484:C:/Users/victim/source/repos/Paranyok/UEFI/Backend/gnu-efi-3.0.18/lib\hand.c ****         Status = uefi_call_wrapper(BS->InstallProtocolInterface, 4, Handle, Protocol, EFI_NATIVE_IN
 485:C:/Users/victim/source/repos/Paranyok/UEFI/Backend/gnu-efi-3.0.18/lib\hand.c ****         if (EFI_ERROR(Status)) {
 486:C:/Users/victim/source/repos/Paranyok/UEFI/Backend/gnu-efi-3.0.18/lib\hand.c ****             break;
 487:C:/Users/victim/source/repos/Paranyok/UEFI/Backend/gnu-efi-3.0.18/lib\hand.c ****         }
 488:C:/Users/victim/source/repos/Paranyok/UEFI/Backend/gnu-efi-3.0.18/lib\hand.c **** 
 489:C:/Users/victim/source/repos/Paranyok/UEFI/Backend/gnu-efi-3.0.18/lib\hand.c ****         Index += 1;
 1101              		.loc 1 489 9 is_stmt 1 view .LVU324
 1102              		.loc 1 489 15 is_stmt 0 view .LVU325
 1103 0633 4883C601 		addq	$1, %rsi
 1104              	.LVL103:
 1105              	.L63:
 466:C:/Users/victim/source/repos/Paranyok/UEFI/Backend/gnu-efi-3.0.18/lib\hand.c **** 
 1106              		.loc 1 466 12 is_stmt 1 view .LVU326
 1107 0637 4885DB   		testq	%rbx, %rbx
 1108 063a 7849     		js	.L64
 472:C:/Users/victim/source/repos/Paranyok/UEFI/Backend/gnu-efi-3.0.18/lib\hand.c ****         if (!Protocol) {
 1109              		.loc 1 472 9 view .LVU327
 472:C:/Users/victim/source/repos/Paranyok/UEFI/Backend/gnu-efi-3.0.18/lib\hand.c ****         if (!Protocol) {
 1110              		.loc 1 472 18 is_stmt 0 view .LVU328
 1111 063c 488B4424 		movq	40(%rsp), %rax
 1111      28
 1112 0641 488D5008 		leaq	8(%rax), %rdx
 1113 0645 48895424 		movq	%rdx, 40(%rsp)
 1113      28
 1114 064a 488B10   		movq	(%rax), %rdx
 473:C:/Users/victim/source/repos/Paranyok/UEFI/Backend/gnu-efi-3.0.18/lib\hand.c ****             break;
 1115              		.loc 1 473 9 is_stmt 1 view .LVU329
 473:C:/Users/victim/source/repos/Paranyok/UEFI/Backend/gnu-efi-3.0.18/lib\hand.c ****             break;
 1116              		.loc 1 473 12 is_stmt 0 view .LVU330
 1117 064d 4885D2   		testq	%rdx, %rdx
 1118 0650 7433     		je	.L64
 477:C:/Users/victim/source/repos/Paranyok/UEFI/Backend/gnu-efi-3.0.18/lib\hand.c **** 
 1119              		.loc 1 477 9 is_stmt 1 view .LVU331
 477:C:/Users/victim/source/repos/Paranyok/UEFI/Backend/gnu-efi-3.0.18/lib\hand.c **** 
 1120              		.loc 1 477 19 is_stmt 0 view .LVU332
 1121 0652 488B4424 		movq	40(%rsp), %rax
 1121      28
 1122 0657 488D4808 		leaq	8(%rax), %rcx
 1123 065b 48894C24 		movq	%rcx, 40(%rsp)
 1123      28
 483:C:/Users/victim/source/repos/Paranyok/UEFI/Backend/gnu-efi-3.0.18/lib\hand.c ****         Status = uefi_call_wrapper(BS->InstallProtocolInterface, 4, Handle, Protocol, EFI_NATIVE_IN
 1124              		.loc 1 483 85 is_stmt 1 view .LVU333
 484:C:/Users/victim/source/repos/Paranyok/UEFI/Backend/gnu-efi-3.0.18/lib\hand.c ****         if (EFI_ERROR(Status)) {
 1125              		.loc 1 484 9 view .LVU334
 484:C:/Users/victim/source/repos/Paranyok/UEFI/Backend/gnu-efi-3.0.18/lib\hand.c ****         if (EFI_ERROR(Status)) {
 1126              		.loc 1 484 18 is_stmt 0 view .LVU335
 1127 0660 488B0D00 		movq	.refptr.BS(%rip), %rcx
 1127      000000
 1128 0667 4C8B11   		movq	(%rcx), %r10
 1129 066a 4C8B08   		movq	(%rax), %r9
 1130 066d 41B80000 		movl	$0, %r8d
 1130      0000
 1131 0673 4889F9   		movq	%rdi, %rcx
 1132 0676 41FF9280 		call	*128(%r10)
 1132      000000
 1133              	.LVL104:
 1134 067d 4889C3   		movq	%rax, %rbx
 1135              	.LVL105:
 485:C:/Users/victim/source/repos/Paranyok/UEFI/Backend/gnu-efi-3.0.18/lib\hand.c ****             break;
 1136              		.loc 1 485 9 is_stmt 1 view .LVU336
 485:C:/Users/victim/source/repos/Paranyok/UEFI/Backend/gnu-efi-3.0.18/lib\hand.c ****             break;
 1137              		.loc 1 485 12 is_stmt 0 view .LVU337
 1138 0680 4885C0   		testq	%rax, %rax
 1139 0683 79AE     		jns	.L69
 1140              	.LVL106:
 1141              	.L64:
 490:C:/Users/victim/source/repos/Paranyok/UEFI/Backend/gnu-efi-3.0.18/lib\hand.c ****     }
 491:C:/Users/victim/source/repos/Paranyok/UEFI/Backend/gnu-efi-3.0.18/lib\hand.c ****     va_end (args);
 1142              		.loc 1 491 5 is_stmt 1 view .LVU338
 492:C:/Users/victim/source/repos/Paranyok/UEFI/Backend/gnu-efi-3.0.18/lib\hand.c **** 
 493:C:/Users/victim/source/repos/Paranyok/UEFI/Backend/gnu-efi-3.0.18/lib\hand.c ****     //
 494:C:/Users/victim/source/repos/Paranyok/UEFI/Backend/gnu-efi-3.0.18/lib\hand.c ****     // If there was an error, remove all the interfaces that were
 495:C:/Users/victim/source/repos/Paranyok/UEFI/Backend/gnu-efi-3.0.18/lib\hand.c ****     // installed without any errors
 496:C:/Users/victim/source/repos/Paranyok/UEFI/Backend/gnu-efi-3.0.18/lib\hand.c ****     //
 497:C:/Users/victim/source/repos/Paranyok/UEFI/Backend/gnu-efi-3.0.18/lib\hand.c **** 
 498:C:/Users/victim/source/repos/Paranyok/UEFI/Backend/gnu-efi-3.0.18/lib\hand.c ****     if (EFI_ERROR(Status)) {
 1143              		.loc 1 498 5 view .LVU339
 1144              		.loc 1 498 8 is_stmt 0 view .LVU340
 1145 0685 4885DB   		testq	%rbx, %rbx
 1146 0688 781E     		js	.L70
 1147              	.L66:
 499:C:/Users/victim/source/repos/Paranyok/UEFI/Backend/gnu-efi-3.0.18/lib\hand.c ****         va_start (args, Handle);
 500:C:/Users/victim/source/repos/Paranyok/UEFI/Backend/gnu-efi-3.0.18/lib\hand.c ****         while (Index) {
 501:C:/Users/victim/source/repos/Paranyok/UEFI/Backend/gnu-efi-3.0.18/lib\hand.c **** 
 502:C:/Users/victim/source/repos/Paranyok/UEFI/Backend/gnu-efi-3.0.18/lib\hand.c ****             Protocol = va_arg(args, EFI_GUID *);
 503:C:/Users/victim/source/repos/Paranyok/UEFI/Backend/gnu-efi-3.0.18/lib\hand.c ****             Interface = va_arg(args, VOID *);
 504:C:/Users/victim/source/repos/Paranyok/UEFI/Backend/gnu-efi-3.0.18/lib\hand.c ****             uefi_call_wrapper(BS->UninstallProtocolInterface, 3, *Handle, Protocol, Interface);
 505:C:/Users/victim/source/repos/Paranyok/UEFI/Backend/gnu-efi-3.0.18/lib\hand.c **** 
 506:C:/Users/victim/source/repos/Paranyok/UEFI/Backend/gnu-efi-3.0.18/lib\hand.c ****             Index -= 1;
 507:C:/Users/victim/source/repos/Paranyok/UEFI/Backend/gnu-efi-3.0.18/lib\hand.c ****         }        
 508:C:/Users/victim/source/repos/Paranyok/UEFI/Backend/gnu-efi-3.0.18/lib\hand.c **** 
 509:C:/Users/victim/source/repos/Paranyok/UEFI/Backend/gnu-efi-3.0.18/lib\hand.c ****         *Handle = OldHandle;
 510:C:/Users/victim/source/repos/Paranyok/UEFI/Backend/gnu-efi-3.0.18/lib\hand.c ****         va_end (args);
 511:C:/Users/victim/source/repos/Paranyok/UEFI/Backend/gnu-efi-3.0.18/lib\hand.c ****     }
 512:C:/Users/victim/source/repos/Paranyok/UEFI/Backend/gnu-efi-3.0.18/lib\hand.c **** 
 513:C:/Users/victim/source/repos/Paranyok/UEFI/Backend/gnu-efi-3.0.18/lib\hand.c ****     //
 514:C:/Users/victim/source/repos/Paranyok/UEFI/Backend/gnu-efi-3.0.18/lib\hand.c ****     // Done
 515:C:/Users/victim/source/repos/Paranyok/UEFI/Backend/gnu-efi-3.0.18/lib\hand.c ****     //
 516:C:/Users/victim/source/repos/Paranyok/UEFI/Backend/gnu-efi-3.0.18/lib\hand.c **** 
 517:C:/Users/victim/source/repos/Paranyok/UEFI/Backend/gnu-efi-3.0.18/lib\hand.c ****     uefi_call_wrapper(BS->RestoreTPL, 1, OldTpl);
 1148              		.loc 1 517 5 is_stmt 1 view .LVU341
 1149 068a 488B0500 		movq	.refptr.BS(%rip), %rax
 1149      000000
 1150 0691 488B00   		movq	(%rax), %rax
 1151 0694 4889E9   		movq	%rbp, %rcx
 1152 0697 FF5020   		call	*32(%rax)
 1153              	.LVL107:
 518:C:/Users/victim/source/repos/Paranyok/UEFI/Backend/gnu-efi-3.0.18/lib\hand.c ****     return Status;
 1154              		.loc 1 518 5 view .LVU342
 519:C:/Users/victim/source/repos/Paranyok/UEFI/Backend/gnu-efi-3.0.18/lib\hand.c **** }
 1155              		.loc 1 519 1 is_stmt 0 view .LVU343
 1156 069a 4889D8   		movq	%rbx, %rax
 1157 069d 4883C430 		addq	$48, %rsp
 1158              		.cfi_remember_state
 1159              		.cfi_def_cfa_offset 48
 1160 06a1 5B       		popq	%rbx
 1161              		.cfi_restore 3
 1162              		.cfi_def_cfa_offset 40
 1163              	.LVL108:
 1164              		.loc 1 519 1 view .LVU344
 1165 06a2 5E       		popq	%rsi
 1166              		.cfi_restore 4
 1167              		.cfi_def_cfa_offset 32
 1168              	.LVL109:
 1169              		.loc 1 519 1 view .LVU345
 1170 06a3 5F       		popq	%rdi
 1171              		.cfi_restore 5
 1172              		.cfi_def_cfa_offset 24
 1173              	.LVL110:
 1174              		.loc 1 519 1 view .LVU346
 1175 06a4 5D       		popq	%rbp
 1176              		.cfi_restore 6
 1177              		.cfi_def_cfa_offset 16
 1178              	.LVL111:
 1179              		.loc 1 519 1 view .LVU347
 1180 06a5 415C     		popq	%r12
 1181              		.cfi_restore 12
 1182              		.cfi_def_cfa_offset 8
 1183              	.LVL112:
 1184              		.loc 1 519 1 view .LVU348
 1185 06a7 C3       		ret
 1186              	.LVL113:
 1187              	.L70:
 1188              		.cfi_restore_state
 499:C:/Users/victim/source/repos/Paranyok/UEFI/Backend/gnu-efi-3.0.18/lib\hand.c ****         va_start (args, Handle);
 1189              		.loc 1 499 9 is_stmt 1 view .LVU349
 1190 06a8 488D4424 		leaq	104(%rsp), %rax
 1190      68
 1191 06ad 48894424 		movq	%rax, 40(%rsp)
 1191      28
 500:C:/Users/victim/source/repos/Paranyok/UEFI/Backend/gnu-efi-3.0.18/lib\hand.c **** 
 1192              		.loc 1 500 9 view .LVU350
 1193              	.LVL114:
 1194              	.L67:
 500:C:/Users/victim/source/repos/Paranyok/UEFI/Backend/gnu-efi-3.0.18/lib\hand.c **** 
 1195              		.loc 1 500 16 view .LVU351
 1196 06b2 4885F6   		testq	%rsi, %rsi
 1197 06b5 7438     		je	.L71
 502:C:/Users/victim/source/repos/Paranyok/UEFI/Backend/gnu-efi-3.0.18/lib\hand.c ****             Interface = va_arg(args, VOID *);
 1198              		.loc 1 502 13 view .LVU352
 502:C:/Users/victim/source/repos/Paranyok/UEFI/Backend/gnu-efi-3.0.18/lib\hand.c ****             Interface = va_arg(args, VOID *);
 1199              		.loc 1 502 22 is_stmt 0 view .LVU353
 1200 06b7 488B4424 		movq	40(%rsp), %rax
 1200      28
 1201 06bc 488D5008 		leaq	8(%rax), %rdx
 1202 06c0 48895424 		movq	%rdx, 40(%rsp)
 1202      28
 1203 06c5 488B10   		movq	(%rax), %rdx
 503:C:/Users/victim/source/repos/Paranyok/UEFI/Backend/gnu-efi-3.0.18/lib\hand.c ****             uefi_call_wrapper(BS->UninstallProtocolInterface, 3, *Handle, Protocol, Interface);
 1204              		.loc 1 503 13 is_stmt 1 view .LVU354
 503:C:/Users/victim/source/repos/Paranyok/UEFI/Backend/gnu-efi-3.0.18/lib\hand.c ****             uefi_call_wrapper(BS->UninstallProtocolInterface, 3, *Handle, Protocol, Interface);
 1205              		.loc 1 503 23 is_stmt 0 view .LVU355
 1206 06c8 488D4810 		leaq	16(%rax), %rcx
 1207 06cc 48894C24 		movq	%rcx, 40(%rsp)
 1207      28
 504:C:/Users/victim/source/repos/Paranyok/UEFI/Backend/gnu-efi-3.0.18/lib\hand.c **** 
 1208              		.loc 1 504 13 is_stmt 1 view .LVU356
 1209 06d1 488B0D00 		movq	.refptr.BS(%rip), %rcx
 1209      000000
 1210 06d8 4C8B09   		movq	(%rcx), %r9
 1211 06db 488B0F   		movq	(%rdi), %rcx
 1212 06de 4C8B4008 		movq	8(%rax), %r8
 1213 06e2 41FF9190 		call	*144(%r9)
 1213      000000
 1214              	.LVL115:
 506:C:/Users/victim/source/repos/Paranyok/UEFI/Backend/gnu-efi-3.0.18/lib\hand.c ****         }        
 1215              		.loc 1 506 13 view .LVU357
 506:C:/Users/victim/source/repos/Paranyok/UEFI/Backend/gnu-efi-3.0.18/lib\hand.c ****         }        
 1216              		.loc 1 506 19 is_stmt 0 view .LVU358
 1217 06e9 4883EE01 		subq	$1, %rsi
 1218              	.LVL116:
 506:C:/Users/victim/source/repos/Paranyok/UEFI/Backend/gnu-efi-3.0.18/lib\hand.c ****         }        
 1219              		.loc 1 506 19 view .LVU359
 1220 06ed EBC3     		jmp	.L67
 1221              	.LVL117:
 1222              	.L71:
 509:C:/Users/victim/source/repos/Paranyok/UEFI/Backend/gnu-efi-3.0.18/lib\hand.c ****         va_end (args);
 1223              		.loc 1 509 9 is_stmt 1 view .LVU360
 509:C:/Users/victim/source/repos/Paranyok/UEFI/Backend/gnu-efi-3.0.18/lib\hand.c ****         va_end (args);
 1224              		.loc 1 509 17 is_stmt 0 view .LVU361
 1225 06ef 4C8927   		movq	%r12, (%rdi)
 510:C:/Users/victim/source/repos/Paranyok/UEFI/Backend/gnu-efi-3.0.18/lib\hand.c ****     }
 1226              		.loc 1 510 9 is_stmt 1 view .LVU362
 1227 06f2 EB96     		jmp	.L66
 1228              		.cfi_endproc
 1229              	.LFE9:
 1230              		.seh_endproc
 1231              		.globl	LibUninstallProtocolInterfaces
 1233              		.seh_proc	LibUninstallProtocolInterfaces
 1234              	LibUninstallProtocolInterfaces:
 1235              	.LVL118:
 1236              	.LFB10:
 520:C:/Users/victim/source/repos/Paranyok/UEFI/Backend/gnu-efi-3.0.18/lib\hand.c **** 
 521:C:/Users/victim/source/repos/Paranyok/UEFI/Backend/gnu-efi-3.0.18/lib\hand.c **** 
 522:C:/Users/victim/source/repos/Paranyok/UEFI/Backend/gnu-efi-3.0.18/lib\hand.c **** VOID
 523:C:/Users/victim/source/repos/Paranyok/UEFI/Backend/gnu-efi-3.0.18/lib\hand.c **** LibUninstallProtocolInterfaces (
 524:C:/Users/victim/source/repos/Paranyok/UEFI/Backend/gnu-efi-3.0.18/lib\hand.c ****     IN EFI_HANDLE           Handle,
 525:C:/Users/victim/source/repos/Paranyok/UEFI/Backend/gnu-efi-3.0.18/lib\hand.c ****     ...
 526:C:/Users/victim/source/repos/Paranyok/UEFI/Backend/gnu-efi-3.0.18/lib\hand.c ****     )
 527:C:/Users/victim/source/repos/Paranyok/UEFI/Backend/gnu-efi-3.0.18/lib\hand.c **** {
 1237              		.loc 1 527 1 view -0
 1238              		.cfi_startproc
 1239              		.loc 1 527 1 is_stmt 0 view .LVU364
 1240 06f4 53       		pushq	%rbx
 1241              		.seh_pushreg	%rbx
 1242              		.cfi_def_cfa_offset 16
 1243              		.cfi_offset 3, -16
 1244 06f5 4883EC30 		subq	$48, %rsp
 1245              		.seh_stackalloc	48
 1246              		.cfi_def_cfa_offset 64
 1247              		.seh_endprologue
 1248 06f9 4889CB   		movq	%rcx, %rbx
 1249 06fc 48895424 		movq	%rdx, 72(%rsp)
 1249      48
 1250 0701 4C894424 		movq	%r8, 80(%rsp)
 1250      50
 1251 0706 4C894C24 		movq	%r9, 88(%rsp)
 1251      58
 528:C:/Users/victim/source/repos/Paranyok/UEFI/Backend/gnu-efi-3.0.18/lib\hand.c ****     va_list         args;
 1252              		.loc 1 528 5 is_stmt 1 view .LVU365
 529:C:/Users/victim/source/repos/Paranyok/UEFI/Backend/gnu-efi-3.0.18/lib\hand.c ****     EFI_STATUS      Status;
 1253              		.loc 1 529 5 view .LVU366
 530:C:/Users/victim/source/repos/Paranyok/UEFI/Backend/gnu-efi-3.0.18/lib\hand.c ****     EFI_GUID        *Protocol;
 1254              		.loc 1 530 5 view .LVU367
 531:C:/Users/victim/source/repos/Paranyok/UEFI/Backend/gnu-efi-3.0.18/lib\hand.c ****     VOID            *Interface;
 1255              		.loc 1 531 5 view .LVU368
 532:C:/Users/victim/source/repos/Paranyok/UEFI/Backend/gnu-efi-3.0.18/lib\hand.c **** 
 533:C:/Users/victim/source/repos/Paranyok/UEFI/Backend/gnu-efi-3.0.18/lib\hand.c ****     
 534:C:/Users/victim/source/repos/Paranyok/UEFI/Backend/gnu-efi-3.0.18/lib\hand.c ****     va_start (args, Handle);
 1256              		.loc 1 534 5 view .LVU369
 1257 070b 488D4424 		leaq	72(%rsp), %rax
 1257      48
 1258 0710 48894424 		movq	%rax, 40(%rsp)
 1258      28
 1259              	.LVL119:
 1260              	.L74:
 535:C:/Users/victim/source/repos/Paranyok/UEFI/Backend/gnu-efi-3.0.18/lib\hand.c ****     for (; ;) {
 1261              		.loc 1 535 5 view .LVU370
 536:C:/Users/victim/source/repos/Paranyok/UEFI/Backend/gnu-efi-3.0.18/lib\hand.c **** 
 537:C:/Users/victim/source/repos/Paranyok/UEFI/Backend/gnu-efi-3.0.18/lib\hand.c ****         //
 538:C:/Users/victim/source/repos/Paranyok/UEFI/Backend/gnu-efi-3.0.18/lib\hand.c ****         // If protocol is NULL, then it's the end of the list
 539:C:/Users/victim/source/repos/Paranyok/UEFI/Backend/gnu-efi-3.0.18/lib\hand.c ****         //
 540:C:/Users/victim/source/repos/Paranyok/UEFI/Backend/gnu-efi-3.0.18/lib\hand.c **** 
 541:C:/Users/victim/source/repos/Paranyok/UEFI/Backend/gnu-efi-3.0.18/lib\hand.c ****         Protocol = va_arg(args, EFI_GUID *);
 1262              		.loc 1 541 9 view .LVU371
 1263              		.loc 1 541 18 is_stmt 0 view .LVU372
 1264 0715 488B4424 		movq	40(%rsp), %rax
 1264      28
 1265 071a 488D5008 		leaq	8(%rax), %rdx
 1266 071e 48895424 		movq	%rdx, 40(%rsp)
 1266      28
 1267 0723 488B10   		movq	(%rax), %rdx
 542:C:/Users/victim/source/repos/Paranyok/UEFI/Backend/gnu-efi-3.0.18/lib\hand.c ****         if (!Protocol) {
 1268              		.loc 1 542 9 is_stmt 1 view .LVU373
 1269              		.loc 1 542 12 is_stmt 0 view .LVU374
 1270 0726 4885D2   		testq	%rdx, %rdx
 1271 0729 7427     		je	.L72
 543:C:/Users/victim/source/repos/Paranyok/UEFI/Backend/gnu-efi-3.0.18/lib\hand.c ****             break;
 544:C:/Users/victim/source/repos/Paranyok/UEFI/Backend/gnu-efi-3.0.18/lib\hand.c ****         }
 545:C:/Users/victim/source/repos/Paranyok/UEFI/Backend/gnu-efi-3.0.18/lib\hand.c **** 
 546:C:/Users/victim/source/repos/Paranyok/UEFI/Backend/gnu-efi-3.0.18/lib\hand.c ****         Interface = va_arg(args, VOID *);
 1272              		.loc 1 546 9 is_stmt 1 view .LVU375
 1273              		.loc 1 546 19 is_stmt 0 view .LVU376
 1274 072b 488B4424 		movq	40(%rsp), %rax
 1274      28
 1275 0730 488D4808 		leaq	8(%rax), %rcx
 1276 0734 48894C24 		movq	%rcx, 40(%rsp)
 1276      28
 547:C:/Users/victim/source/repos/Paranyok/UEFI/Backend/gnu-efi-3.0.18/lib\hand.c **** 
 548:C:/Users/victim/source/repos/Paranyok/UEFI/Backend/gnu-efi-3.0.18/lib\hand.c ****         //
 549:C:/Users/victim/source/repos/Paranyok/UEFI/Backend/gnu-efi-3.0.18/lib\hand.c ****         // Uninstall it
 550:C:/Users/victim/source/repos/Paranyok/UEFI/Backend/gnu-efi-3.0.18/lib\hand.c ****         //
 551:C:/Users/victim/source/repos/Paranyok/UEFI/Backend/gnu-efi-3.0.18/lib\hand.c **** 
 552:C:/Users/victim/source/repos/Paranyok/UEFI/Backend/gnu-efi-3.0.18/lib\hand.c ****         Status = uefi_call_wrapper(BS->UninstallProtocolInterface, 3, Handle, Protocol, Interface);
 1277              		.loc 1 552 9 is_stmt 1 view .LVU377
 1278              		.loc 1 552 18 is_stmt 0 view .LVU378
 1279 0739 488B0D00 		movq	.refptr.BS(%rip), %rcx
 1279      000000
 1280 0740 4C8B09   		movq	(%rcx), %r9
 1281 0743 4C8B00   		movq	(%rax), %r8
 1282 0746 4889D9   		movq	%rbx, %rcx
 1283 0749 41FF9190 		call	*144(%r9)
 1283      000000
 1284              	.LVL120:
 553:C:/Users/victim/source/repos/Paranyok/UEFI/Backend/gnu-efi-3.0.18/lib\hand.c ****         if (EFI_ERROR(Status)) {
 1285              		.loc 1 553 9 is_stmt 1 view .LVU379
 554:C:/Users/victim/source/repos/Paranyok/UEFI/Backend/gnu-efi-3.0.18/lib\hand.c ****             DEBUG((D_ERROR, "LibUninstallProtocolInterfaces: failed %g, %r\n", Protocol, Handle));
 1286              		.loc 1 554 98 view .LVU380
 535:C:/Users/victim/source/repos/Paranyok/UEFI/Backend/gnu-efi-3.0.18/lib\hand.c **** 
 1287              		.loc 1 535 5 view .LVU381
 541:C:/Users/victim/source/repos/Paranyok/UEFI/Backend/gnu-efi-3.0.18/lib\hand.c ****         if (!Protocol) {
 1288              		.loc 1 541 18 is_stmt 0 view .LVU382
 1289 0750 EBC3     		jmp	.L74
 1290              	.L72:
 555:C:/Users/victim/source/repos/Paranyok/UEFI/Backend/gnu-efi-3.0.18/lib\hand.c ****         }
 556:C:/Users/victim/source/repos/Paranyok/UEFI/Backend/gnu-efi-3.0.18/lib\hand.c ****     }
 557:C:/Users/victim/source/repos/Paranyok/UEFI/Backend/gnu-efi-3.0.18/lib\hand.c ****     va_end (args);
 558:C:/Users/victim/source/repos/Paranyok/UEFI/Backend/gnu-efi-3.0.18/lib\hand.c **** }    
 1291              		.loc 1 558 1 view .LVU383
 1292 0752 4883C430 		addq	$48, %rsp
 1293              		.cfi_def_cfa_offset 16
 1294 0756 5B       		popq	%rbx
 1295              		.cfi_restore 3
 1296              		.cfi_def_cfa_offset 8
 1297              	.LVL121:
 1298              		.loc 1 558 1 view .LVU384
 1299 0757 C3       		ret
 1300              		.cfi_endproc
 1301              	.LFE10:
 1302              		.seh_endproc
 1303              		.globl	LibReinstallProtocolInterfaces
 1305              		.seh_proc	LibReinstallProtocolInterfaces
 1306              	LibReinstallProtocolInterfaces:
 1307              	.LVL122:
 1308              	.LFB11:
 559:C:/Users/victim/source/repos/Paranyok/UEFI/Backend/gnu-efi-3.0.18/lib\hand.c **** 
 560:C:/Users/victim/source/repos/Paranyok/UEFI/Backend/gnu-efi-3.0.18/lib\hand.c **** 
 561:C:/Users/victim/source/repos/Paranyok/UEFI/Backend/gnu-efi-3.0.18/lib\hand.c **** EFI_STATUS
 562:C:/Users/victim/source/repos/Paranyok/UEFI/Backend/gnu-efi-3.0.18/lib\hand.c **** LibReinstallProtocolInterfaces (
 563:C:/Users/victim/source/repos/Paranyok/UEFI/Backend/gnu-efi-3.0.18/lib\hand.c ****     IN OUT EFI_HANDLE           *Handle,
 564:C:/Users/victim/source/repos/Paranyok/UEFI/Backend/gnu-efi-3.0.18/lib\hand.c ****     ...
 565:C:/Users/victim/source/repos/Paranyok/UEFI/Backend/gnu-efi-3.0.18/lib\hand.c ****     )
 566:C:/Users/victim/source/repos/Paranyok/UEFI/Backend/gnu-efi-3.0.18/lib\hand.c **** {
 1309              		.loc 1 566 1 is_stmt 1 view -0
 1310              		.cfi_startproc
 1311              		.loc 1 566 1 is_stmt 0 view .LVU386
 1312 0758 55       		pushq	%rbp
 1313              		.seh_pushreg	%rbp
 1314              		.cfi_def_cfa_offset 16
 1315              		.cfi_offset 6, -16
 1316 0759 57       		pushq	%rdi
 1317              		.seh_pushreg	%rdi
 1318              		.cfi_def_cfa_offset 24
 1319              		.cfi_offset 5, -24
 1320 075a 56       		pushq	%rsi
 1321              		.seh_pushreg	%rsi
 1322              		.cfi_def_cfa_offset 32
 1323              		.cfi_offset 4, -32
 1324 075b 53       		pushq	%rbx
 1325              		.seh_pushreg	%rbx
 1326              		.cfi_def_cfa_offset 40
 1327              		.cfi_offset 3, -40
 1328 075c 4883EC38 		subq	$56, %rsp
 1329              		.seh_stackalloc	56
 1330              		.cfi_def_cfa_offset 96
 1331              		.seh_endprologue
 1332 0760 4889CF   		movq	%rcx, %rdi
 1333 0763 48895424 		movq	%rdx, 104(%rsp)
 1333      68
 1334 0768 4C894424 		movq	%r8, 112(%rsp)
 1334      70
 1335 076d 4C894C24 		movq	%r9, 120(%rsp)
 1335      78
 567:C:/Users/victim/source/repos/Paranyok/UEFI/Backend/gnu-efi-3.0.18/lib\hand.c ****     va_list         args;
 1336              		.loc 1 567 5 is_stmt 1 view .LVU387
 568:C:/Users/victim/source/repos/Paranyok/UEFI/Backend/gnu-efi-3.0.18/lib\hand.c ****     EFI_STATUS      Status;
 1337              		.loc 1 568 5 view .LVU388
 569:C:/Users/victim/source/repos/Paranyok/UEFI/Backend/gnu-efi-3.0.18/lib\hand.c ****     EFI_GUID        *Protocol;
 1338              		.loc 1 569 5 view .LVU389
 570:C:/Users/victim/source/repos/Paranyok/UEFI/Backend/gnu-efi-3.0.18/lib\hand.c ****     VOID            *OldInterface, *NewInterface;
 1339              		.loc 1 570 5 view .LVU390
 571:C:/Users/victim/source/repos/Paranyok/UEFI/Backend/gnu-efi-3.0.18/lib\hand.c ****     EFI_TPL         OldTpl;
 1340              		.loc 1 571 5 view .LVU391
 572:C:/Users/victim/source/repos/Paranyok/UEFI/Backend/gnu-efi-3.0.18/lib\hand.c ****     UINTN           Index;
 1341              		.loc 1 572 5 view .LVU392
 573:C:/Users/victim/source/repos/Paranyok/UEFI/Backend/gnu-efi-3.0.18/lib\hand.c **** 
 574:C:/Users/victim/source/repos/Paranyok/UEFI/Backend/gnu-efi-3.0.18/lib\hand.c ****     //
 575:C:/Users/victim/source/repos/Paranyok/UEFI/Backend/gnu-efi-3.0.18/lib\hand.c ****     // Syncronize with notifcations
 576:C:/Users/victim/source/repos/Paranyok/UEFI/Backend/gnu-efi-3.0.18/lib\hand.c ****     // 
 577:C:/Users/victim/source/repos/Paranyok/UEFI/Backend/gnu-efi-3.0.18/lib\hand.c **** 
 578:C:/Users/victim/source/repos/Paranyok/UEFI/Backend/gnu-efi-3.0.18/lib\hand.c ****     OldTpl = uefi_call_wrapper(BS->RaiseTPL, 1, TPL_NOTIFY);
 1342              		.loc 1 578 5 view .LVU393
 1343              		.loc 1 578 14 is_stmt 0 view .LVU394
 1344 0772 488B0500 		movq	.refptr.BS(%rip), %rax
 1344      000000
 1345 0779 488B00   		movq	(%rax), %rax
 1346 077c B9100000 		movl	$16, %ecx
 1346      00
 1347              	.LVL123:
 1348              		.loc 1 578 14 view .LVU395
 1349 0781 FF5018   		call	*24(%rax)
 1350              	.LVL124:
 1351 0784 4889C5   		movq	%rax, %rbp
 1352              	.LVL125:
 579:C:/Users/victim/source/repos/Paranyok/UEFI/Backend/gnu-efi-3.0.18/lib\hand.c **** 
 580:C:/Users/victim/source/repos/Paranyok/UEFI/Backend/gnu-efi-3.0.18/lib\hand.c ****     //
 581:C:/Users/victim/source/repos/Paranyok/UEFI/Backend/gnu-efi-3.0.18/lib\hand.c ****     // Install the protocol interfaces
 582:C:/Users/victim/source/repos/Paranyok/UEFI/Backend/gnu-efi-3.0.18/lib\hand.c ****     //
 583:C:/Users/victim/source/repos/Paranyok/UEFI/Backend/gnu-efi-3.0.18/lib\hand.c **** 
 584:C:/Users/victim/source/repos/Paranyok/UEFI/Backend/gnu-efi-3.0.18/lib\hand.c ****     Index = 0;
 1353              		.loc 1 584 5 is_stmt 1 view .LVU396
 585:C:/Users/victim/source/repos/Paranyok/UEFI/Backend/gnu-efi-3.0.18/lib\hand.c ****     Status = EFI_SUCCESS;
 1354              		.loc 1 585 5 view .LVU397
 586:C:/Users/victim/source/repos/Paranyok/UEFI/Backend/gnu-efi-3.0.18/lib\hand.c ****     va_start (args, Handle);
 1355              		.loc 1 586 5 view .LVU398
 1356 0787 488D4424 		leaq	104(%rsp), %rax
 1356      68
 1357              	.LVL126:
 1358              		.loc 1 586 5 is_stmt 0 view .LVU399
 1359 078c 48894424 		movq	%rax, 40(%rsp)
 1359      28
 587:C:/Users/victim/source/repos/Paranyok/UEFI/Backend/gnu-efi-3.0.18/lib\hand.c **** 
 588:C:/Users/victim/source/repos/Paranyok/UEFI/Backend/gnu-efi-3.0.18/lib\hand.c ****     while (!EFI_ERROR(Status)) {
 1360              		.loc 1 588 5 is_stmt 1 view .LVU400
 584:C:/Users/victim/source/repos/Paranyok/UEFI/Backend/gnu-efi-3.0.18/lib\hand.c ****     Status = EFI_SUCCESS;
 1361              		.loc 1 584 11 is_stmt 0 view .LVU401
 1362 0791 BE000000 		movl	$0, %esi
 1362      00
 585:C:/Users/victim/source/repos/Paranyok/UEFI/Backend/gnu-efi-3.0.18/lib\hand.c ****     va_start (args, Handle);
 1363              		.loc 1 585 12 view .LVU402
 1364 0796 BB000000 		movl	$0, %ebx
 1364      00
 1365              		.loc 1 588 11 view .LVU403
 1366 079b EB04     		jmp	.L76
 1367              	.LVL127:
 1368              	.L82:
 589:C:/Users/victim/source/repos/Paranyok/UEFI/Backend/gnu-efi-3.0.18/lib\hand.c **** 
 590:C:/Users/victim/source/repos/Paranyok/UEFI/Backend/gnu-efi-3.0.18/lib\hand.c ****         //
 591:C:/Users/victim/source/repos/Paranyok/UEFI/Backend/gnu-efi-3.0.18/lib\hand.c ****         // If protocol is NULL, then it's the end of the list
 592:C:/Users/victim/source/repos/Paranyok/UEFI/Backend/gnu-efi-3.0.18/lib\hand.c ****         //
 593:C:/Users/victim/source/repos/Paranyok/UEFI/Backend/gnu-efi-3.0.18/lib\hand.c **** 
 594:C:/Users/victim/source/repos/Paranyok/UEFI/Backend/gnu-efi-3.0.18/lib\hand.c ****         Protocol = va_arg(args, EFI_GUID *);
 595:C:/Users/victim/source/repos/Paranyok/UEFI/Backend/gnu-efi-3.0.18/lib\hand.c ****         if (!Protocol) {
 596:C:/Users/victim/source/repos/Paranyok/UEFI/Backend/gnu-efi-3.0.18/lib\hand.c ****             break;
 597:C:/Users/victim/source/repos/Paranyok/UEFI/Backend/gnu-efi-3.0.18/lib\hand.c ****         }
 598:C:/Users/victim/source/repos/Paranyok/UEFI/Backend/gnu-efi-3.0.18/lib\hand.c **** 
 599:C:/Users/victim/source/repos/Paranyok/UEFI/Backend/gnu-efi-3.0.18/lib\hand.c ****         OldInterface = va_arg(args, VOID *);
 600:C:/Users/victim/source/repos/Paranyok/UEFI/Backend/gnu-efi-3.0.18/lib\hand.c ****         NewInterface = va_arg(args, VOID *);
 601:C:/Users/victim/source/repos/Paranyok/UEFI/Backend/gnu-efi-3.0.18/lib\hand.c **** 
 602:C:/Users/victim/source/repos/Paranyok/UEFI/Backend/gnu-efi-3.0.18/lib\hand.c ****         //
 603:C:/Users/victim/source/repos/Paranyok/UEFI/Backend/gnu-efi-3.0.18/lib\hand.c ****         // Reinstall it
 604:C:/Users/victim/source/repos/Paranyok/UEFI/Backend/gnu-efi-3.0.18/lib\hand.c ****         //
 605:C:/Users/victim/source/repos/Paranyok/UEFI/Backend/gnu-efi-3.0.18/lib\hand.c **** 
 606:C:/Users/victim/source/repos/Paranyok/UEFI/Backend/gnu-efi-3.0.18/lib\hand.c ****         Status = uefi_call_wrapper(BS->ReinstallProtocolInterface, 4, Handle, Protocol, OldInterfac
 607:C:/Users/victim/source/repos/Paranyok/UEFI/Backend/gnu-efi-3.0.18/lib\hand.c ****         if (EFI_ERROR(Status)) {
 608:C:/Users/victim/source/repos/Paranyok/UEFI/Backend/gnu-efi-3.0.18/lib\hand.c ****             break;
 609:C:/Users/victim/source/repos/Paranyok/UEFI/Backend/gnu-efi-3.0.18/lib\hand.c ****         }
 610:C:/Users/victim/source/repos/Paranyok/UEFI/Backend/gnu-efi-3.0.18/lib\hand.c **** 
 611:C:/Users/victim/source/repos/Paranyok/UEFI/Backend/gnu-efi-3.0.18/lib\hand.c ****         Index += 1;
 1369              		.loc 1 611 9 is_stmt 1 view .LVU404
 1370              		.loc 1 611 15 is_stmt 0 view .LVU405
 1371 079d 4883C601 		addq	$1, %rsi
 1372              	.LVL128:
 1373              	.L76:
 588:C:/Users/victim/source/repos/Paranyok/UEFI/Backend/gnu-efi-3.0.18/lib\hand.c **** 
 1374              		.loc 1 588 12 is_stmt 1 view .LVU406
 1375 07a1 4885DB   		testq	%rbx, %rbx
 1376 07a4 7850     		js	.L77
 594:C:/Users/victim/source/repos/Paranyok/UEFI/Backend/gnu-efi-3.0.18/lib\hand.c ****         if (!Protocol) {
 1377              		.loc 1 594 9 view .LVU407
 594:C:/Users/victim/source/repos/Paranyok/UEFI/Backend/gnu-efi-3.0.18/lib\hand.c ****         if (!Protocol) {
 1378              		.loc 1 594 18 is_stmt 0 view .LVU408
 1379 07a6 488B4424 		movq	40(%rsp), %rax
 1379      28
 1380 07ab 488D5008 		leaq	8(%rax), %rdx
 1381 07af 48895424 		movq	%rdx, 40(%rsp)
 1381      28
 1382 07b4 488B10   		movq	(%rax), %rdx
 595:C:/Users/victim/source/repos/Paranyok/UEFI/Backend/gnu-efi-3.0.18/lib\hand.c ****             break;
 1383              		.loc 1 595 9 is_stmt 1 view .LVU409
 595:C:/Users/victim/source/repos/Paranyok/UEFI/Backend/gnu-efi-3.0.18/lib\hand.c ****             break;
 1384              		.loc 1 595 12 is_stmt 0 view .LVU410
 1385 07b7 4885D2   		testq	%rdx, %rdx
 1386 07ba 743A     		je	.L77
 599:C:/Users/victim/source/repos/Paranyok/UEFI/Backend/gnu-efi-3.0.18/lib\hand.c ****         NewInterface = va_arg(args, VOID *);
 1387              		.loc 1 599 9 is_stmt 1 view .LVU411
 599:C:/Users/victim/source/repos/Paranyok/UEFI/Backend/gnu-efi-3.0.18/lib\hand.c ****         NewInterface = va_arg(args, VOID *);
 1388              		.loc 1 599 22 is_stmt 0 view .LVU412
 1389 07bc 488B4424 		movq	40(%rsp), %rax
 1389      28
 1390 07c1 488D4808 		leaq	8(%rax), %rcx
 1391 07c5 48894C24 		movq	%rcx, 40(%rsp)
 1391      28
 1392 07ca 4C8B00   		movq	(%rax), %r8
 600:C:/Users/victim/source/repos/Paranyok/UEFI/Backend/gnu-efi-3.0.18/lib\hand.c **** 
 1393              		.loc 1 600 9 is_stmt 1 view .LVU413
 600:C:/Users/victim/source/repos/Paranyok/UEFI/Backend/gnu-efi-3.0.18/lib\hand.c **** 
 1394              		.loc 1 600 22 is_stmt 0 view .LVU414
 1395 07cd 488D4810 		leaq	16(%rax), %rcx
 1396 07d1 48894C24 		movq	%rcx, 40(%rsp)
 1396      28
 606:C:/Users/victim/source/repos/Paranyok/UEFI/Backend/gnu-efi-3.0.18/lib\hand.c ****         if (EFI_ERROR(Status)) {
 1397              		.loc 1 606 9 is_stmt 1 view .LVU415
 606:C:/Users/victim/source/repos/Paranyok/UEFI/Backend/gnu-efi-3.0.18/lib\hand.c ****         if (EFI_ERROR(Status)) {
 1398              		.loc 1 606 18 is_stmt 0 view .LVU416
 1399 07d6 488B0D00 		movq	.refptr.BS(%rip), %rcx
 1399      000000
 1400 07dd 4C8B11   		movq	(%rcx), %r10
 1401 07e0 4C8B4808 		movq	8(%rax), %r9
 1402 07e4 4889F9   		movq	%rdi, %rcx
 1403 07e7 41FF9288 		call	*136(%r10)
 1403      000000
 1404              	.LVL129:
 1405 07ee 4889C3   		movq	%rax, %rbx
 1406              	.LVL130:
 607:C:/Users/victim/source/repos/Paranyok/UEFI/Backend/gnu-efi-3.0.18/lib\hand.c ****             break;
 1407              		.loc 1 607 9 is_stmt 1 view .LVU417
 607:C:/Users/victim/source/repos/Paranyok/UEFI/Backend/gnu-efi-3.0.18/lib\hand.c ****             break;
 1408              		.loc 1 607 12 is_stmt 0 view .LVU418
 1409 07f1 4885C0   		testq	%rax, %rax
 1410 07f4 79A7     		jns	.L82
 1411              	.LVL131:
 1412              	.L77:
 612:C:/Users/victim/source/repos/Paranyok/UEFI/Backend/gnu-efi-3.0.18/lib\hand.c ****     }
 613:C:/Users/victim/source/repos/Paranyok/UEFI/Backend/gnu-efi-3.0.18/lib\hand.c ****     va_end (args);
 1413              		.loc 1 613 5 is_stmt 1 view .LVU419
 614:C:/Users/victim/source/repos/Paranyok/UEFI/Backend/gnu-efi-3.0.18/lib\hand.c **** 
 615:C:/Users/victim/source/repos/Paranyok/UEFI/Backend/gnu-efi-3.0.18/lib\hand.c ****     //
 616:C:/Users/victim/source/repos/Paranyok/UEFI/Backend/gnu-efi-3.0.18/lib\hand.c ****     // If there was an error, undo all the interfaces that were
 617:C:/Users/victim/source/repos/Paranyok/UEFI/Backend/gnu-efi-3.0.18/lib\hand.c ****     // reinstalled without any errors
 618:C:/Users/victim/source/repos/Paranyok/UEFI/Backend/gnu-efi-3.0.18/lib\hand.c ****     //
 619:C:/Users/victim/source/repos/Paranyok/UEFI/Backend/gnu-efi-3.0.18/lib\hand.c **** 
 620:C:/Users/victim/source/repos/Paranyok/UEFI/Backend/gnu-efi-3.0.18/lib\hand.c ****     if (EFI_ERROR(Status)) {
 1414              		.loc 1 620 5 view .LVU420
 1415              		.loc 1 620 8 is_stmt 0 view .LVU421
 1416 07f6 4885DB   		testq	%rbx, %rbx
 1417 07f9 781C     		js	.L83
 1418              	.L79:
 621:C:/Users/victim/source/repos/Paranyok/UEFI/Backend/gnu-efi-3.0.18/lib\hand.c ****         va_start (args, Handle);
 622:C:/Users/victim/source/repos/Paranyok/UEFI/Backend/gnu-efi-3.0.18/lib\hand.c ****         while (Index) {
 623:C:/Users/victim/source/repos/Paranyok/UEFI/Backend/gnu-efi-3.0.18/lib\hand.c **** 
 624:C:/Users/victim/source/repos/Paranyok/UEFI/Backend/gnu-efi-3.0.18/lib\hand.c ****             Protocol = va_arg(args, EFI_GUID *);
 625:C:/Users/victim/source/repos/Paranyok/UEFI/Backend/gnu-efi-3.0.18/lib\hand.c ****             OldInterface = va_arg(args, VOID *);
 626:C:/Users/victim/source/repos/Paranyok/UEFI/Backend/gnu-efi-3.0.18/lib\hand.c ****             NewInterface = va_arg(args, VOID *);
 627:C:/Users/victim/source/repos/Paranyok/UEFI/Backend/gnu-efi-3.0.18/lib\hand.c **** 
 628:C:/Users/victim/source/repos/Paranyok/UEFI/Backend/gnu-efi-3.0.18/lib\hand.c ****             uefi_call_wrapper(BS->ReinstallProtocolInterface, 4, Handle, Protocol, NewInterface, Ol
 629:C:/Users/victim/source/repos/Paranyok/UEFI/Backend/gnu-efi-3.0.18/lib\hand.c **** 
 630:C:/Users/victim/source/repos/Paranyok/UEFI/Backend/gnu-efi-3.0.18/lib\hand.c ****             Index -= 1;
 631:C:/Users/victim/source/repos/Paranyok/UEFI/Backend/gnu-efi-3.0.18/lib\hand.c ****         }
 632:C:/Users/victim/source/repos/Paranyok/UEFI/Backend/gnu-efi-3.0.18/lib\hand.c ****         va_end (args);
 633:C:/Users/victim/source/repos/Paranyok/UEFI/Backend/gnu-efi-3.0.18/lib\hand.c ****     }
 634:C:/Users/victim/source/repos/Paranyok/UEFI/Backend/gnu-efi-3.0.18/lib\hand.c **** 
 635:C:/Users/victim/source/repos/Paranyok/UEFI/Backend/gnu-efi-3.0.18/lib\hand.c ****     //
 636:C:/Users/victim/source/repos/Paranyok/UEFI/Backend/gnu-efi-3.0.18/lib\hand.c ****     // Done
 637:C:/Users/victim/source/repos/Paranyok/UEFI/Backend/gnu-efi-3.0.18/lib\hand.c ****     //
 638:C:/Users/victim/source/repos/Paranyok/UEFI/Backend/gnu-efi-3.0.18/lib\hand.c **** 
 639:C:/Users/victim/source/repos/Paranyok/UEFI/Backend/gnu-efi-3.0.18/lib\hand.c ****     uefi_call_wrapper(BS->RestoreTPL, 1, OldTpl);
 1419              		.loc 1 639 5 is_stmt 1 view .LVU422
 1420 07fb 488B0500 		movq	.refptr.BS(%rip), %rax
 1420      000000
 1421 0802 488B00   		movq	(%rax), %rax
 1422 0805 4889E9   		movq	%rbp, %rcx
 1423 0808 FF5020   		call	*32(%rax)
 1424              	.LVL132:
 640:C:/Users/victim/source/repos/Paranyok/UEFI/Backend/gnu-efi-3.0.18/lib\hand.c ****     return Status;
 1425              		.loc 1 640 5 view .LVU423
 641:C:/Users/victim/source/repos/Paranyok/UEFI/Backend/gnu-efi-3.0.18/lib\hand.c **** }
 1426              		.loc 1 641 1 is_stmt 0 view .LVU424
 1427 080b 4889D8   		movq	%rbx, %rax
 1428 080e 4883C438 		addq	$56, %rsp
 1429              		.cfi_remember_state
 1430              		.cfi_def_cfa_offset 40
 1431 0812 5B       		popq	%rbx
 1432              		.cfi_restore 3
 1433              		.cfi_def_cfa_offset 32
 1434              	.LVL133:
 1435              		.loc 1 641 1 view .LVU425
 1436 0813 5E       		popq	%rsi
 1437              		.cfi_restore 4
 1438              		.cfi_def_cfa_offset 24
 1439              	.LVL134:
 1440              		.loc 1 641 1 view .LVU426
 1441 0814 5F       		popq	%rdi
 1442              		.cfi_restore 5
 1443              		.cfi_def_cfa_offset 16
 1444              	.LVL135:
 1445              		.loc 1 641 1 view .LVU427
 1446 0815 5D       		popq	%rbp
 1447              		.cfi_restore 6
 1448              		.cfi_def_cfa_offset 8
 1449              	.LVL136:
 1450              		.loc 1 641 1 view .LVU428
 1451 0816 C3       		ret
 1452              	.LVL137:
 1453              	.L83:
 1454              		.cfi_restore_state
 621:C:/Users/victim/source/repos/Paranyok/UEFI/Backend/gnu-efi-3.0.18/lib\hand.c ****         va_start (args, Handle);
 1455              		.loc 1 621 9 is_stmt 1 view .LVU429
 1456 0817 488D4424 		leaq	104(%rsp), %rax
 1456      68
 1457 081c 48894424 		movq	%rax, 40(%rsp)
 1457      28
 622:C:/Users/victim/source/repos/Paranyok/UEFI/Backend/gnu-efi-3.0.18/lib\hand.c **** 
 1458              		.loc 1 622 9 view .LVU430
 1459              	.LVL138:
 1460              	.L80:
 622:C:/Users/victim/source/repos/Paranyok/UEFI/Backend/gnu-efi-3.0.18/lib\hand.c **** 
 1461              		.loc 1 622 16 view .LVU431
 1462 0821 4885F6   		testq	%rsi, %rsi
 1463 0824 74D5     		je	.L79
 624:C:/Users/victim/source/repos/Paranyok/UEFI/Backend/gnu-efi-3.0.18/lib\hand.c ****             OldInterface = va_arg(args, VOID *);
 1464              		.loc 1 624 13 view .LVU432
 624:C:/Users/victim/source/repos/Paranyok/UEFI/Backend/gnu-efi-3.0.18/lib\hand.c ****             OldInterface = va_arg(args, VOID *);
 1465              		.loc 1 624 22 is_stmt 0 view .LVU433
 1466 0826 488B4424 		movq	40(%rsp), %rax
 1466      28
 1467 082b 488D5008 		leaq	8(%rax), %rdx
 1468 082f 48895424 		movq	%rdx, 40(%rsp)
 1468      28
 1469 0834 488B10   		movq	(%rax), %rdx
 625:C:/Users/victim/source/repos/Paranyok/UEFI/Backend/gnu-efi-3.0.18/lib\hand.c ****             NewInterface = va_arg(args, VOID *);
 1470              		.loc 1 625 13 is_stmt 1 view .LVU434
 625:C:/Users/victim/source/repos/Paranyok/UEFI/Backend/gnu-efi-3.0.18/lib\hand.c ****             NewInterface = va_arg(args, VOID *);
 1471              		.loc 1 625 26 is_stmt 0 view .LVU435
 1472 0837 488D4810 		leaq	16(%rax), %rcx
 1473 083b 48894C24 		movq	%rcx, 40(%rsp)
 1473      28
 1474 0840 4C8B4808 		movq	8(%rax), %r9
 626:C:/Users/victim/source/repos/Paranyok/UEFI/Backend/gnu-efi-3.0.18/lib\hand.c **** 
 1475              		.loc 1 626 13 is_stmt 1 view .LVU436
 626:C:/Users/victim/source/repos/Paranyok/UEFI/Backend/gnu-efi-3.0.18/lib\hand.c **** 
 1476              		.loc 1 626 26 is_stmt 0 view .LVU437
 1477 0844 488D4818 		leaq	24(%rax), %rcx
 1478 0848 48894C24 		movq	%rcx, 40(%rsp)
 1478      28
 628:C:/Users/victim/source/repos/Paranyok/UEFI/Backend/gnu-efi-3.0.18/lib\hand.c **** 
 1479              		.loc 1 628 13 is_stmt 1 view .LVU438
 1480 084d 488B0D00 		movq	.refptr.BS(%rip), %rcx
 1480      000000
 1481 0854 4C8B11   		movq	(%rcx), %r10
 1482 0857 4C8B4010 		movq	16(%rax), %r8
 1483 085b 4889F9   		movq	%rdi, %rcx
 1484 085e 41FF9288 		call	*136(%r10)
 1484      000000
 1485              	.LVL139:
 630:C:/Users/victim/source/repos/Paranyok/UEFI/Backend/gnu-efi-3.0.18/lib\hand.c ****         }
 1486              		.loc 1 630 13 view .LVU439
 630:C:/Users/victim/source/repos/Paranyok/UEFI/Backend/gnu-efi-3.0.18/lib\hand.c ****         }
 1487              		.loc 1 630 19 is_stmt 0 view .LVU440
 1488 0865 4883EE01 		subq	$1, %rsi
 1489              	.LVL140:
 630:C:/Users/victim/source/repos/Paranyok/UEFI/Backend/gnu-efi-3.0.18/lib\hand.c ****         }
 1490              		.loc 1 630 19 view .LVU441
 1491 0869 EBB6     		jmp	.L80
 1492              		.cfi_endproc
 1493              	.LFE11:
 1494              		.seh_endproc
 1495              	.Letext0:
 1496              		.file 2 "C:/Users/victim/source/repos/Paranyok/UEFI/Backend/mingw64/lib/gcc/x86_64-w64-mingw32/14.
 1497              		.file 3 "C:/Users/victim/source/repos/Paranyok/UEFI/Backend/mingw64/include/vadefs.h"
 1498              		.file 4 "C:/Users/victim/source/repos/Paranyok/UEFI/Backend/mingw64/include/corecrt.h"
 1499              		.file 5 "gnu-efi-3.0.18/inc/x86_64/efibind.h"
 1500              		.file 6 "gnu-efi-3.0.18/inc/efidef.h"
 1501              		.file 7 "gnu-efi-3.0.18/inc/efidevp.h"
 1502              		.file 8 "gnu-efi-3.0.18/inc/efiprot.h"
 1503              		.file 9 "gnu-efi-3.0.18/inc/efiapi.h"
 1504              		.file 10 "gnu-efi-3.0.18/inc/efilib.h"
 1505 086b 90909090 		.section	.debug_info,"dr"
 1505      90909090 
 1505      90909090 
 1505      90909090 
 1505      90909090 
 1506              	.Ldebug_info0:
 1507 0000 232C0000 		.long	0x2c23
 1508 0004 0500     		.word	0x5
 1509 0006 01       		.byte	0x1
 1510 0007 08       		.byte	0x8
 1511 0008 00000000 		.secrel32	.Ldebug_abbrev0
 1512 000c 30       		.uleb128 0x30
 1513 000d 474E5520 		.ascii "GNU C11 14.2.0 -mno-stack-arg-probe -m64 -mno-red-zone -maccumulate-outgoing-args -mtune=g
 1513      43313120 
 1513      31342E32 
 1513      2E30202D 
 1513      6D6E6F2D 
 1514 0111 1D       		.byte	0x1d
 1515 0112 00000000 		.secrel32	.LASF0
 1516 0116 4D000000 		.secrel32	.LASF1
 1517 011a 00000000 		.quad	.Ltext0
 1517      00000000 
 1518 0122 6B080000 		.quad	.Letext0-.Ltext0
 1518      00000000 
 1519 012a 00000000 		.secrel32	.Ldebug_line0
 1520 012e 00000000 		.secrel32	.Ldebug_macro0
 1521 0132 0C       		.uleb128 0xc
 1522 0133 01       		.byte	0x1
 1523 0134 06       		.byte	0x6
 1524 0135 7369676E 		.ascii "signed char\0"
 1524      65642063 
 1524      68617200 
 1525 0141 06       		.uleb128 0x6
 1526 0142 696E7431 		.ascii "int16_t\0"
 1526      365F7400 
 1527 014a 02       		.byte	0x2
 1528 014b 25       		.byte	0x25
 1529 014c 18       		.byte	0x18
 1530 014d 51010000 		.long	0x151
 1531 0151 0C       		.uleb128 0xc
 1532 0152 02       		.byte	0x2
 1533 0153 05       		.byte	0x5
 1534 0154 73686F72 		.ascii "short int\0"
 1534      7420696E 
 1534      7400
 1535 015e 0C       		.uleb128 0xc
 1536 015f 04       		.byte	0x4
 1537 0160 05       		.byte	0x5
 1538 0161 696E7400 		.ascii "int\0"
 1539 0165 06       		.uleb128 0x6
 1540 0166 696E7436 		.ascii "int64_t\0"
 1540      345F7400 
 1541 016e 02       		.byte	0x2
 1542 016f 2B       		.byte	0x2b
 1543 0170 18       		.byte	0x18
 1544 0171 75010000 		.long	0x175
 1545 0175 0C       		.uleb128 0xc
 1546 0176 08       		.byte	0x8
 1547 0177 05       		.byte	0x5
 1548 0178 6C6F6E67 		.ascii "long long int\0"
 1548      206C6F6E 
 1548      6720696E 
 1548      7400
 1549 0186 06       		.uleb128 0x6
 1550 0187 75696E74 		.ascii "uint8_t\0"
 1550      385F7400 
 1551 018f 02       		.byte	0x2
 1552 0190 2E       		.byte	0x2e
 1553 0191 18       		.byte	0x18
 1554 0192 96010000 		.long	0x196
 1555 0196 0C       		.uleb128 0xc
 1556 0197 01       		.byte	0x1
 1557 0198 08       		.byte	0x8
 1558 0199 756E7369 		.ascii "unsigned char\0"
 1558      676E6564 
 1558      20636861 
 1558      7200
 1559 01a7 06       		.uleb128 0x6
 1560 01a8 75696E74 		.ascii "uint16_t\0"
 1560      31365F74 
 1560      00
 1561 01b1 02       		.byte	0x2
 1562 01b2 31       		.byte	0x31
 1563 01b3 19       		.byte	0x19
 1564 01b4 B8010000 		.long	0x1b8
 1565 01b8 0C       		.uleb128 0xc
 1566 01b9 02       		.byte	0x2
 1567 01ba 07       		.byte	0x7
 1568 01bb 73686F72 		.ascii "short unsigned int\0"
 1568      7420756E 
 1568      7369676E 
 1568      65642069 
 1568      6E7400
 1569 01ce 06       		.uleb128 0x6
 1570 01cf 75696E74 		.ascii "uint32_t\0"
 1570      33325F74 
 1570      00
 1571 01d8 02       		.byte	0x2
 1572 01d9 34       		.byte	0x34
 1573 01da 19       		.byte	0x19
 1574 01db DF010000 		.long	0x1df
 1575 01df 0C       		.uleb128 0xc
 1576 01e0 04       		.byte	0x4
 1577 01e1 07       		.byte	0x7
 1578 01e2 756E7369 		.ascii "unsigned int\0"
 1578      676E6564 
 1578      20696E74 
 1578      00
 1579 01ef 06       		.uleb128 0x6
 1580 01f0 75696E74 		.ascii "uint64_t\0"
 1580      36345F74 
 1580      00
 1581 01f9 02       		.byte	0x2
 1582 01fa 37       		.byte	0x37
 1583 01fb 19       		.byte	0x19
 1584 01fc 00020000 		.long	0x200
 1585 0200 0C       		.uleb128 0xc
 1586 0201 08       		.byte	0x8
 1587 0202 07       		.byte	0x7
 1588 0203 6C6F6E67 		.ascii "long long unsigned int\0"
 1588      206C6F6E 
 1588      6720756E 
 1588      7369676E 
 1588      65642069 
 1589 021a 06       		.uleb128 0x6
 1590 021b 696E7470 		.ascii "intptr_t\0"
 1590      74725F74 
 1590      00
 1591 0224 02       		.byte	0x2
 1592 0225 53       		.byte	0x53
 1593 0226 19       		.byte	0x19
 1594 0227 75010000 		.long	0x175
 1595 022b 06       		.uleb128 0x6
 1596 022c 5F5F676E 		.ascii "__gnuc_va_list\0"
 1596      75635F76 
 1596      615F6C69 
 1596      737400
 1597 023b 03       		.byte	0x3
 1598 023c 18       		.byte	0x18
 1599 023d 1D       		.byte	0x1d
 1600 023e 42020000 		.long	0x242
 1601 0242 31       		.uleb128 0x31
 1602 0243 08       		.byte	0x8
 1603 0244 5F5F6275 		.ascii "__builtin_va_list\0"
 1603      696C7469 
 1603      6E5F7661 
 1603      5F6C6973 
 1603      7400
 1604 0256 5A020000 		.long	0x25a
 1605 025a 0C       		.uleb128 0xc
 1606 025b 01       		.byte	0x1
 1607 025c 06       		.byte	0x6
 1608 025d 63686172 		.ascii "char\0"
 1608      00
 1609 0262 06       		.uleb128 0x6
 1610 0263 76615F6C 		.ascii "va_list\0"
 1610      69737400 
 1611 026b 03       		.byte	0x3
 1612 026c 1F       		.byte	0x1f
 1613 026d 1A       		.byte	0x1a
 1614 026e 2B020000 		.long	0x22b
 1615 0272 06       		.uleb128 0x6
 1616 0273 77636861 		.ascii "wchar_t\0"
 1616      725F7400 
 1617 027b 04       		.byte	0x4
 1618 027c 62       		.byte	0x62
 1619 027d 18       		.byte	0x18
 1620 027e B8010000 		.long	0x1b8
 1621 0282 0C       		.uleb128 0xc
 1622 0283 04       		.byte	0x4
 1623 0284 05       		.byte	0x5
 1624 0285 6C6F6E67 		.ascii "long int\0"
 1624      20696E74 
 1624      00
 1625 028e 0C       		.uleb128 0xc
 1626 028f 04       		.byte	0x4
 1627 0290 07       		.byte	0x7
 1628 0291 6C6F6E67 		.ascii "long unsigned int\0"
 1628      20756E73 
 1628      69676E65 
 1628      6420696E 
 1628      7400
 1629 02a3 0C       		.uleb128 0xc
 1630 02a4 10       		.byte	0x10
 1631 02a5 04       		.byte	0x4
 1632 02a6 6C6F6E67 		.ascii "long double\0"
 1632      20646F75 
 1632      626C6500 
 1633 02b2 06       		.uleb128 0x6
 1634 02b3 43484152 		.ascii "CHAR16\0"
 1634      313600
 1635 02ba 05       		.byte	0x5
 1636 02bb 65       		.byte	0x65
 1637 02bc 11       		.byte	0x11
 1638 02bd 72020000 		.long	0x272
 1639 02c1 06       		.uleb128 0x6
 1640 02c2 55494E54 		.ascii "UINT64\0"
 1640      363400
 1641 02c9 05       		.byte	0x5
 1642 02ca 68       		.byte	0x68
 1643 02cb 14       		.byte	0x14
 1644 02cc EF010000 		.long	0x1ef
 1645 02d0 06       		.uleb128 0x6
 1646 02d1 55494E54 		.ascii "UINT32\0"
 1646      333200
 1647 02d8 05       		.byte	0x5
 1648 02d9 6C       		.byte	0x6c
 1649 02da 18       		.byte	0x18
 1650 02db CE010000 		.long	0x1ce
 1651 02df 06       		.uleb128 0x6
 1652 02e0 55494E54 		.ascii "UINT16\0"
 1652      313600
 1653 02e7 05       		.byte	0x5
 1654 02e8 70       		.byte	0x70
 1655 02e9 14       		.byte	0x14
 1656 02ea A7010000 		.long	0x1a7
 1657 02ee 06       		.uleb128 0x6
 1658 02ef 494E5431 		.ascii "INT16\0"
 1658      3600
 1659 02f5 05       		.byte	0x5
 1660 02f6 71       		.byte	0x71
 1661 02f7 14       		.byte	0x14
 1662 02f8 41010000 		.long	0x141
 1663 02fc 06       		.uleb128 0x6
 1664 02fd 55494E54 		.ascii "UINT8\0"
 1664      3800
 1665 0303 05       		.byte	0x5
 1666 0304 73       		.byte	0x73
 1667 0305 14       		.byte	0x14
 1668 0306 86010000 		.long	0x186
 1669 030a 32       		.uleb128 0x32
 1670 030b 564F4944 		.ascii "VOID\0"
 1670      00
 1671 0310 05       		.byte	0x5
 1672 0311 78       		.byte	0x78
 1673 0312 14       		.byte	0x14
 1674 0313 2A       		.uleb128 0x2a
 1675 0314 0A030000 		.long	0x30a
 1676 0318 06       		.uleb128 0x6
 1677 0319 494E544E 		.ascii "INTN\0"
 1677      00
 1678 031e 05       		.byte	0x5
 1679 031f 7B       		.byte	0x7b
 1680 0320 14       		.byte	0x14
 1681 0321 65010000 		.long	0x165
 1682 0325 06       		.uleb128 0x6
 1683 0326 55494E54 		.ascii "UINTN\0"
 1683      4E00
 1684 032c 05       		.byte	0x5
 1685 032d 7C       		.byte	0x7c
 1686 032e 14       		.byte	0x14
 1687 032f EF010000 		.long	0x1ef
 1688 0333 06       		.uleb128 0x6
 1689 0334 424F4F4C 		.ascii "BOOLEAN\0"
 1689      45414E00 
 1690 033c 06       		.byte	0x6
 1691 033d 19       		.byte	0x19
 1692 033e 0F       		.byte	0xf
 1693 033f 43030000 		.long	0x343
 1694 0343 0C       		.uleb128 0xc
 1695 0344 01       		.byte	0x1
 1696 0345 02       		.byte	0x2
 1697 0346 5F426F6F 		.ascii "_Bool\0"
 1697      6C00
 1698 034c 06       		.uleb128 0x6
 1699 034d 4546495F 		.ascii "EFI_STATUS\0"
 1699      53544154 
 1699      555300
 1700 0358 06       		.byte	0x6
 1701 0359 3A       		.byte	0x3a
 1702 035a 19       		.byte	0x19
 1703 035b 25030000 		.long	0x325
 1704 035f 06       		.uleb128 0x6
 1705 0360 4546495F 		.ascii "EFI_TPL\0"
 1705      54504C00 
 1706 0368 06       		.byte	0x6
 1707 0369 3C       		.byte	0x3c
 1708 036a 19       		.byte	0x19
 1709 036b 25030000 		.long	0x325
 1710 036f 06       		.uleb128 0x6
 1711 0370 4546495F 		.ascii "EFI_HANDLE\0"
 1711      48414E44 
 1711      4C4500
 1712 037b 06       		.byte	0x6
 1713 037c 3D       		.byte	0x3d
 1714 037d 1A       		.byte	0x1a
 1715 037e 82030000 		.long	0x382
 1716 0382 02       		.uleb128 0x2
 1717 0383 0A030000 		.long	0x30a
 1718 0387 06       		.uleb128 0x6
 1719 0388 4546495F 		.ascii "EFI_EVENT\0"
 1719      4556454E 
 1719      5400
 1720 0392 06       		.byte	0x6
 1721 0393 3E       		.byte	0x3e
 1722 0394 1A       		.byte	0x1a
 1723 0395 82030000 		.long	0x382
 1724 0399 25       		.uleb128 0x25
 1725 039a 10       		.byte	0x10
 1726 039b 55       		.byte	0x55
 1727 039c DD030000 		.long	0x3dd
 1728 03a0 09       		.uleb128 0x9
 1729 03a1 44617461 		.ascii "Data1\0"
 1729      3100
 1730 03a7 06       		.byte	0x6
 1731 03a8 56       		.byte	0x56
 1732 03a9 0D       		.byte	0xd
 1733 03aa D0020000 		.long	0x2d0
 1734 03ae 00       		.byte	0
 1735 03af 09       		.uleb128 0x9
 1736 03b0 44617461 		.ascii "Data2\0"
 1736      3200
 1737 03b6 06       		.byte	0x6
 1738 03b7 57       		.byte	0x57
 1739 03b8 0D       		.byte	0xd
 1740 03b9 DF020000 		.long	0x2df
 1741 03bd 04       		.byte	0x4
 1742 03be 09       		.uleb128 0x9
 1743 03bf 44617461 		.ascii "Data3\0"
 1743      3300
 1744 03c5 06       		.byte	0x6
 1745 03c6 58       		.byte	0x58
 1746 03c7 0D       		.byte	0xd
 1747 03c8 DF020000 		.long	0x2df
 1748 03cc 06       		.byte	0x6
 1749 03cd 09       		.uleb128 0x9
 1750 03ce 44617461 		.ascii "Data4\0"
 1750      3400
 1751 03d4 06       		.byte	0x6
 1752 03d5 59       		.byte	0x59
 1753 03d6 0D       		.byte	0xd
 1754 03d7 DD030000 		.long	0x3dd
 1755 03db 08       		.byte	0x8
 1756 03dc 00       		.byte	0
 1757 03dd 1A       		.uleb128 0x1a
 1758 03de FC020000 		.long	0x2fc
 1759 03e2 ED030000 		.long	0x3ed
 1760 03e6 1B       		.uleb128 0x1b
 1761 03e7 00020000 		.long	0x200
 1762 03eb 07       		.byte	0x7
 1763 03ec 00       		.byte	0
 1764 03ed 06       		.uleb128 0x6
 1765 03ee 4546495F 		.ascii "EFI_GUID\0"
 1765      47554944 
 1765      00
 1766 03f7 06       		.byte	0x6
 1767 03f8 5A       		.byte	0x5a
 1768 03f9 03       		.byte	0x3
 1769 03fa 99030000 		.long	0x399
 1770 03fe 2A       		.uleb128 0x2a
 1771 03ff ED030000 		.long	0x3ed
 1772 0403 25       		.uleb128 0x25
 1773 0404 10       		.byte	0x10
 1774 0405 61       		.byte	0x61
 1775 0406 B7040000 		.long	0x4b7
 1776 040a 09       		.uleb128 0x9
 1777 040b 59656172 		.ascii "Year\0"
 1777      00
 1778 0410 06       		.byte	0x6
 1779 0411 62       		.byte	0x62
 1780 0412 11       		.byte	0x11
 1781 0413 DF020000 		.long	0x2df
 1782 0417 00       		.byte	0
 1783 0418 09       		.uleb128 0x9
 1784 0419 4D6F6E74 		.ascii "Month\0"
 1784      6800
 1785 041f 06       		.byte	0x6
 1786 0420 63       		.byte	0x63
 1787 0421 11       		.byte	0x11
 1788 0422 FC020000 		.long	0x2fc
 1789 0426 02       		.byte	0x2
 1790 0427 09       		.uleb128 0x9
 1791 0428 44617900 		.ascii "Day\0"
 1792 042c 06       		.byte	0x6
 1793 042d 64       		.byte	0x64
 1794 042e 11       		.byte	0x11
 1795 042f FC020000 		.long	0x2fc
 1796 0433 03       		.byte	0x3
 1797 0434 09       		.uleb128 0x9
 1798 0435 486F7572 		.ascii "Hour\0"
 1798      00
 1799 043a 06       		.byte	0x6
 1800 043b 65       		.byte	0x65
 1801 043c 11       		.byte	0x11
 1802 043d FC020000 		.long	0x2fc
 1803 0441 04       		.byte	0x4
 1804 0442 09       		.uleb128 0x9
 1805 0443 4D696E75 		.ascii "Minute\0"
 1805      746500
 1806 044a 06       		.byte	0x6
 1807 044b 66       		.byte	0x66
 1808 044c 11       		.byte	0x11
 1809 044d FC020000 		.long	0x2fc
 1810 0451 05       		.byte	0x5
 1811 0452 09       		.uleb128 0x9
 1812 0453 5365636F 		.ascii "Second\0"
 1812      6E6400
 1813 045a 06       		.byte	0x6
 1814 045b 67       		.byte	0x67
 1815 045c 11       		.byte	0x11
 1816 045d FC020000 		.long	0x2fc
 1817 0461 06       		.byte	0x6
 1818 0462 09       		.uleb128 0x9
 1819 0463 50616431 		.ascii "Pad1\0"
 1819      00
 1820 0468 06       		.byte	0x6
 1821 0469 68       		.byte	0x68
 1822 046a 11       		.byte	0x11
 1823 046b FC020000 		.long	0x2fc
 1824 046f 07       		.byte	0x7
 1825 0470 09       		.uleb128 0x9
 1826 0471 4E616E6F 		.ascii "Nanosecond\0"
 1826      7365636F 
 1826      6E6400
 1827 047c 06       		.byte	0x6
 1828 047d 69       		.byte	0x69
 1829 047e 11       		.byte	0x11
 1830 047f D0020000 		.long	0x2d0
 1831 0483 08       		.byte	0x8
 1832 0484 09       		.uleb128 0x9
 1833 0485 54696D65 		.ascii "TimeZone\0"
 1833      5A6F6E65 
 1833      00
 1834 048e 06       		.byte	0x6
 1835 048f 6A       		.byte	0x6a
 1836 0490 11       		.byte	0x11
 1837 0491 EE020000 		.long	0x2ee
 1838 0495 0C       		.byte	0xc
 1839 0496 09       		.uleb128 0x9
 1840 0497 4461796C 		.ascii "Daylight\0"
 1840      69676874 
 1840      00
 1841 04a0 06       		.byte	0x6
 1842 04a1 6B       		.byte	0x6b
 1843 04a2 11       		.byte	0x11
 1844 04a3 FC020000 		.long	0x2fc
 1845 04a7 0E       		.byte	0xe
 1846 04a8 09       		.uleb128 0x9
 1847 04a9 50616432 		.ascii "Pad2\0"
 1847      00
 1848 04ae 06       		.byte	0x6
 1849 04af 6C       		.byte	0x6c
 1850 04b0 11       		.byte	0x11
 1851 04b1 FC020000 		.long	0x2fc
 1852 04b5 0F       		.byte	0xf
 1853 04b6 00       		.byte	0
 1854 04b7 06       		.uleb128 0x6
 1855 04b8 4546495F 		.ascii "EFI_TIME\0"
 1855      54494D45 
 1855      00
 1856 04c1 06       		.byte	0x6
 1857 04c2 6D       		.byte	0x6d
 1858 04c3 03       		.byte	0x3
 1859 04c4 03040000 		.long	0x403
 1860 04c8 1A       		.uleb128 0x1a
 1861 04c9 FC020000 		.long	0x2fc
 1862 04cd D8040000 		.long	0x4d8
 1863 04d1 1B       		.uleb128 0x1b
 1864 04d2 00020000 		.long	0x200
 1865 04d6 0F       		.byte	0xf
 1866 04d7 00       		.byte	0
 1867 04d8 06       		.uleb128 0x6
 1868 04d9 4546495F 		.ascii "EFI_PHYSICAL_ADDRESS\0"
 1868      50485953 
 1868      4943414C 
 1868      5F414444 
 1868      52455353 
 1869 04ee 06       		.byte	0x6
 1870 04ef 99       		.byte	0x99
 1871 04f0 19       		.byte	0x19
 1872 04f1 C1020000 		.long	0x2c1
 1873 04f5 06       		.uleb128 0x6
 1874 04f6 4546495F 		.ascii "EFI_VIRTUAL_ADDRESS\0"
 1874      56495254 
 1874      55414C5F 
 1874      41444452 
 1874      45535300 
 1875 050a 06       		.byte	0x6
 1876 050b 9A       		.byte	0x9a
 1877 050c 19       		.byte	0x19
 1878 050d C1020000 		.long	0x2c1
 1879 0511 26       		.uleb128 0x26
 1880 0512 DF010000 		.long	0x1df
 1881 0516 06       		.byte	0x6
 1882 0517 9C       		.byte	0x9c
 1883 0518 69050000 		.long	0x569
 1884 051c 08       		.uleb128 0x8
 1885 051d 416C6C6F 		.ascii "AllocateAnyPages\0"
 1885      63617465 
 1885      416E7950 
 1885      61676573 
 1885      00
 1886 052e 00       		.byte	0
 1887 052f 08       		.uleb128 0x8
 1888 0530 416C6C6F 		.ascii "AllocateMaxAddress\0"
 1888      63617465 
 1888      4D617841 
 1888      64647265 
 1888      737300
 1889 0543 01       		.byte	0x1
 1890 0544 08       		.uleb128 0x8
 1891 0545 416C6C6F 		.ascii "AllocateAddress\0"
 1891      63617465 
 1891      41646472 
 1891      65737300 
 1892 0555 02       		.byte	0x2
 1893 0556 08       		.uleb128 0x8
 1894 0557 4D617841 		.ascii "MaxAllocateType\0"
 1894      6C6C6F63 
 1894      61746554 
 1894      79706500 
 1895 0567 03       		.byte	0x3
 1896 0568 00       		.byte	0
 1897 0569 06       		.uleb128 0x6
 1898 056a 4546495F 		.ascii "EFI_ALLOCATE_TYPE\0"
 1898      414C4C4F 
 1898      43415445 
 1898      5F545950 
 1898      4500
 1899 057c 06       		.byte	0x6
 1900 057d A1       		.byte	0xa1
 1901 057e 03       		.byte	0x3
 1902 057f 11050000 		.long	0x511
 1903 0583 26       		.uleb128 0x26
 1904 0584 DF010000 		.long	0x1df
 1905 0588 06       		.byte	0x6
 1906 0589 AA       		.byte	0xaa
 1907 058a FC060000 		.long	0x6fc
 1908 058e 08       		.uleb128 0x8
 1909 058f 45666952 		.ascii "EfiReservedMemoryType\0"
 1909      65736572 
 1909      7665644D 
 1909      656D6F72 
 1909      79547970 
 1910 05a5 00       		.byte	0
 1911 05a6 08       		.uleb128 0x8
 1912 05a7 4566694C 		.ascii "EfiLoaderCode\0"
 1912      6F616465 
 1912      72436F64 
 1912      6500
 1913 05b5 01       		.byte	0x1
 1914 05b6 08       		.uleb128 0x8
 1915 05b7 4566694C 		.ascii "EfiLoaderData\0"
 1915      6F616465 
 1915      72446174 
 1915      6100
 1916 05c5 02       		.byte	0x2
 1917 05c6 08       		.uleb128 0x8
 1918 05c7 45666942 		.ascii "EfiBootServicesCode\0"
 1918      6F6F7453 
 1918      65727669 
 1918      63657343 
 1918      6F646500 
 1919 05db 03       		.byte	0x3
 1920 05dc 08       		.uleb128 0x8
 1921 05dd 45666942 		.ascii "EfiBootServicesData\0"
 1921      6F6F7453 
 1921      65727669 
 1921      63657344 
 1921      61746100 
 1922 05f1 04       		.byte	0x4
 1923 05f2 08       		.uleb128 0x8
 1924 05f3 45666952 		.ascii "EfiRuntimeServicesCode\0"
 1924      756E7469 
 1924      6D655365 
 1924      72766963 
 1924      6573436F 
 1925 060a 05       		.byte	0x5
 1926 060b 08       		.uleb128 0x8
 1927 060c 45666952 		.ascii "EfiRuntimeServicesData\0"
 1927      756E7469 
 1927      6D655365 
 1927      72766963 
 1927      65734461 
 1928 0623 06       		.byte	0x6
 1929 0624 08       		.uleb128 0x8
 1930 0625 45666943 		.ascii "EfiConventionalMemory\0"
 1930      6F6E7665 
 1930      6E74696F 
 1930      6E616C4D 
 1930      656D6F72 
 1931 063b 07       		.byte	0x7
 1932 063c 08       		.uleb128 0x8
 1933 063d 45666955 		.ascii "EfiUnusableMemory\0"
 1933      6E757361 
 1933      626C654D 
 1933      656D6F72 
 1933      7900
 1934 064f 08       		.byte	0x8
 1935 0650 08       		.uleb128 0x8
 1936 0651 45666941 		.ascii "EfiACPIReclaimMemory\0"
 1936      43504952 
 1936      65636C61 
 1936      696D4D65 
 1936      6D6F7279 
 1937 0666 09       		.byte	0x9
 1938 0667 08       		.uleb128 0x8
 1939 0668 45666941 		.ascii "EfiACPIMemoryNVS\0"
 1939      4350494D 
 1939      656D6F72 
 1939      794E5653 
 1939      00
 1940 0679 0A       		.byte	0xa
 1941 067a 08       		.uleb128 0x8
 1942 067b 4566694D 		.ascii "EfiMemoryMappedIO\0"
 1942      656D6F72 
 1942      794D6170 
 1942      70656449 
 1942      4F00
 1943 068d 0B       		.byte	0xb
 1944 068e 08       		.uleb128 0x8
 1945 068f 4566694D 		.ascii "EfiMemoryMappedIOPortSpace\0"
 1945      656D6F72 
 1945      794D6170 
 1945      70656449 
 1945      4F506F72 
 1946 06aa 0C       		.byte	0xc
 1947 06ab 08       		.uleb128 0x8
 1948 06ac 45666950 		.ascii "EfiPalCode\0"
 1948      616C436F 
 1948      646500
 1949 06b7 0D       		.byte	0xd
 1950 06b8 08       		.uleb128 0x8
 1951 06b9 45666950 		.ascii "EfiPersistentMemory\0"
 1951      65727369 
 1951      7374656E 
 1951      744D656D 
 1951      6F727900 
 1952 06cd 0E       		.byte	0xe
 1953 06ce 08       		.uleb128 0x8
 1954 06cf 45666955 		.ascii "EfiUnacceptedMemoryType\0"
 1954      6E616363 
 1954      65707465 
 1954      644D656D 
 1954      6F727954 
 1955 06e7 0F       		.byte	0xf
 1956 06e8 08       		.uleb128 0x8
 1957 06e9 4566694D 		.ascii "EfiMaxMemoryType\0"
 1957      61784D65 
 1957      6D6F7279 
 1957      54797065 
 1957      00
 1958 06fa 10       		.byte	0x10
 1959 06fb 00       		.byte	0
 1960 06fc 06       		.uleb128 0x6
 1961 06fd 4546495F 		.ascii "EFI_MEMORY_TYPE\0"
 1961      4D454D4F 
 1961      52595F54 
 1961      59504500 
 1962 070d 06       		.byte	0x6
 1963 070e BC       		.byte	0xbc
 1964 070f 03       		.byte	0x3
 1965 0710 83050000 		.long	0x583
 1966 0714 25       		.uleb128 0x25
 1967 0715 28       		.byte	0x28
 1968 0716 D9       		.byte	0xd9
 1969 0717 88070000 		.long	0x788
 1970 071b 09       		.uleb128 0x9
 1971 071c 54797065 		.ascii "Type\0"
 1971      00
 1972 0721 06       		.byte	0x6
 1973 0722 DA       		.byte	0xda
 1974 0723 25       		.byte	0x25
 1975 0724 D0020000 		.long	0x2d0
 1976 0728 00       		.byte	0
 1977 0729 09       		.uleb128 0x9
 1978 072a 50616400 		.ascii "Pad\0"
 1979 072e 06       		.byte	0x6
 1980 072f DB       		.byte	0xdb
 1981 0730 25       		.byte	0x25
 1982 0731 D0020000 		.long	0x2d0
 1983 0735 04       		.byte	0x4
 1984 0736 09       		.uleb128 0x9
 1985 0737 50687973 		.ascii "PhysicalStart\0"
 1985      6963616C 
 1985      53746172 
 1985      7400
 1986 0745 06       		.byte	0x6
 1987 0746 DC       		.byte	0xdc
 1988 0747 25       		.byte	0x25
 1989 0748 D8040000 		.long	0x4d8
 1990 074c 08       		.byte	0x8
 1991 074d 09       		.uleb128 0x9
 1992 074e 56697274 		.ascii "VirtualStart\0"
 1992      75616C53 
 1992      74617274 
 1992      00
 1993 075b 06       		.byte	0x6
 1994 075c DD       		.byte	0xdd
 1995 075d 25       		.byte	0x25
 1996 075e F5040000 		.long	0x4f5
 1997 0762 10       		.byte	0x10
 1998 0763 09       		.uleb128 0x9
 1999 0764 4E756D62 		.ascii "NumberOfPages\0"
 1999      65724F66 
 1999      50616765 
 1999      7300
 2000 0772 06       		.byte	0x6
 2001 0773 DE       		.byte	0xde
 2002 0774 25       		.byte	0x25
 2003 0775 C1020000 		.long	0x2c1
 2004 0779 18       		.byte	0x18
 2005 077a 33       		.uleb128 0x33
 2006 077b 17000000 		.secrel32	.LASF2
 2007 077f 06       		.byte	0x6
 2008 0780 DF       		.byte	0xdf
 2009 0781 25       		.byte	0x25
 2010 0782 C1020000 		.long	0x2c1
 2011 0786 20       		.byte	0x20
 2012 0787 00       		.byte	0
 2013 0788 06       		.uleb128 0x6
 2014 0789 4546495F 		.ascii "EFI_MEMORY_DESCRIPTOR\0"
 2014      4D454D4F 
 2014      52595F44 
 2014      45534352 
 2014      4950544F 
 2015 079f 06       		.byte	0x6
 2016 07a0 E0       		.byte	0xe0
 2017 07a1 03       		.byte	0x3
 2018 07a2 14070000 		.long	0x714
 2019 07a6 34       		.uleb128 0x34
 2020 07a7 5F454649 		.ascii "_EFI_DEVICE_PATH_PROTOCOL\0"
 2020      5F444556 
 2020      4943455F 
 2020      50415448 
 2020      5F50524F 
 2021 07c1 04       		.byte	0x4
 2022 07c2 07       		.byte	0x7
 2023 07c3 1A       		.byte	0x1a
 2024 07c4 10       		.byte	0x10
 2025 07c5 F9070000 		.long	0x7f9
 2026 07c9 09       		.uleb128 0x9
 2027 07ca 54797065 		.ascii "Type\0"
 2027      00
 2028 07cf 07       		.byte	0x7
 2029 07d0 1B       		.byte	0x1b
 2030 07d1 29       		.byte	0x29
 2031 07d2 FC020000 		.long	0x2fc
 2032 07d6 00       		.byte	0
 2033 07d7 09       		.uleb128 0x9
 2034 07d8 53756254 		.ascii "SubType\0"
 2034      79706500 
 2035 07e0 07       		.byte	0x7
 2036 07e1 1C       		.byte	0x1c
 2037 07e2 29       		.byte	0x29
 2038 07e3 FC020000 		.long	0x2fc
 2039 07e7 01       		.byte	0x1
 2040 07e8 09       		.uleb128 0x9
 2041 07e9 4C656E67 		.ascii "Length\0"
 2041      746800
 2042 07f0 07       		.byte	0x7
 2043 07f1 1D       		.byte	0x1d
 2044 07f2 29       		.byte	0x29
 2045 07f3 F9070000 		.long	0x7f9
 2046 07f7 02       		.byte	0x2
 2047 07f8 00       		.byte	0
 2048 07f9 1A       		.uleb128 0x1a
 2049 07fa FC020000 		.long	0x2fc
 2050 07fe 09080000 		.long	0x809
 2051 0802 1B       		.uleb128 0x1b
 2052 0803 00020000 		.long	0x200
 2053 0807 01       		.byte	0x1
 2054 0808 00       		.byte	0
 2055 0809 06       		.uleb128 0x6
 2056 080a 4546495F 		.ascii "EFI_DEVICE_PATH_PROTOCOL\0"
 2056      44455649 
 2056      43455F50 
 2056      4154485F 
 2056      50524F54 
 2057 0823 07       		.byte	0x7
 2058 0824 1E       		.byte	0x1e
 2059 0825 03       		.byte	0x3
 2060 0826 A6070000 		.long	0x7a6
 2061 082a 06       		.uleb128 0x6
 2062 082b 4546495F 		.ascii "EFI_DEVICE_PATH\0"
 2062      44455649 
 2062      43455F50 
 2062      41544800 
 2063 083b 07       		.byte	0x7
 2064 083c 21       		.byte	0x21
 2065 083d 22       		.byte	0x22
 2066 083e 09080000 		.long	0x809
 2067 0842 1A       		.uleb128 0x1a
 2068 0843 B2020000 		.long	0x2b2
 2069 0847 52080000 		.long	0x852
 2070 084b 1B       		.uleb128 0x1b
 2071 084c 00020000 		.long	0x200
 2072 0850 00       		.byte	0
 2073 0851 00       		.byte	0
 2074 0852 1C       		.uleb128 0x1c
 2075 0853 5F484152 		.ascii "_HARDDRIVE_DEVICE_PATH\0"
 2075      44445249 
 2075      56455F44 
 2075      45564943 
 2075      455F5041 
 2076 086a 30       		.byte	0x30
 2077 086b 07       		.byte	0x7
 2078 086c 7301     		.word	0x173
 2079 086e FD080000 		.long	0x8fd
 2080 0872 03       		.uleb128 0x3
 2081 0873 48656164 		.ascii "Header\0"
 2081      657200
 2082 087a 07       		.byte	0x7
 2083 087b 7401     		.word	0x174
 2084 087d 29       		.byte	0x29
 2085 087e 09080000 		.long	0x809
 2086 0882 00       		.byte	0
 2087 0883 03       		.uleb128 0x3
 2088 0884 50617274 		.ascii "PartitionNumber\0"
 2088      6974696F 
 2088      6E4E756D 
 2088      62657200 
 2089 0894 07       		.byte	0x7
 2090 0895 7501     		.word	0x175
 2091 0897 29       		.byte	0x29
 2092 0898 D0020000 		.long	0x2d0
 2093 089c 04       		.byte	0x4
 2094 089d 03       		.uleb128 0x3
 2095 089e 50617274 		.ascii "PartitionStart\0"
 2095      6974696F 
 2095      6E537461 
 2095      727400
 2096 08ad 07       		.byte	0x7
 2097 08ae 7601     		.word	0x176
 2098 08b0 29       		.byte	0x29
 2099 08b1 C1020000 		.long	0x2c1
 2100 08b5 08       		.byte	0x8
 2101 08b6 03       		.uleb128 0x3
 2102 08b7 50617274 		.ascii "PartitionSize\0"
 2102      6974696F 
 2102      6E53697A 
 2102      6500
 2103 08c5 07       		.byte	0x7
 2104 08c6 7701     		.word	0x177
 2105 08c8 29       		.byte	0x29
 2106 08c9 C1020000 		.long	0x2c1
 2107 08cd 10       		.byte	0x10
 2108 08ce 0B       		.uleb128 0xb
 2109 08cf 0D000000 		.secrel32	.LASF3
 2110 08d3 07       		.byte	0x7
 2111 08d4 7801     		.word	0x178
 2112 08d6 29       		.byte	0x29
 2113 08d7 C8040000 		.long	0x4c8
 2114 08db 18       		.byte	0x18
 2115 08dc 03       		.uleb128 0x3
 2116 08dd 4D425254 		.ascii "MBRType\0"
 2116      79706500 
 2117 08e5 07       		.byte	0x7
 2118 08e6 7901     		.word	0x179
 2119 08e8 29       		.byte	0x29
 2120 08e9 FC020000 		.long	0x2fc
 2121 08ed 28       		.byte	0x28
 2122 08ee 0B       		.uleb128 0xb
 2123 08ef 21000000 		.secrel32	.LASF4
 2124 08f3 07       		.byte	0x7
 2125 08f4 7A01     		.word	0x17a
 2126 08f6 29       		.byte	0x29
 2127 08f7 FC020000 		.long	0x2fc
 2128 08fb 29       		.byte	0x29
 2129 08fc 00       		.byte	0
 2130 08fd 04       		.uleb128 0x4
 2131 08fe 48415244 		.ascii "HARDDRIVE_DEVICE_PATH\0"
 2131      44524956 
 2131      455F4445 
 2131      56494345 
 2131      5F504154 
 2132 0914 07       		.byte	0x7
 2133 0915 7B01     		.word	0x17b
 2134 0917 03       		.byte	0x3
 2135 0918 52080000 		.long	0x852
 2136 091c 02       		.uleb128 0x2
 2137 091d FD080000 		.long	0x8fd
 2138 0921 02       		.uleb128 0x2
 2139 0922 B2020000 		.long	0x2b2
 2140 0926 02       		.uleb128 0x2
 2141 0927 25030000 		.long	0x325
 2142 092b 02       		.uleb128 0x2
 2143 092c C1020000 		.long	0x2c1
 2144 0930 02       		.uleb128 0x2
 2145 0931 82030000 		.long	0x382
 2146 0935 02       		.uleb128 0x2
 2147 0936 D8040000 		.long	0x4d8
 2148 093a 04       		.uleb128 0x4
 2149 093b 4546495F 		.ascii "EFI_VOLUME_OPEN\0"
 2149      564F4C55 
 2149      4D455F4F 
 2149      50454E00 
 2150 094b 08       		.byte	0x8
 2151 094c 2701     		.word	0x127
 2152 094e 0A       		.byte	0xa
 2153 094f 53090000 		.long	0x953
 2154 0953 02       		.uleb128 0x2
 2155 0954 58090000 		.long	0x958
 2156 0958 05       		.uleb128 0x5
 2157 0959 4C030000 		.long	0x34c
 2158 095d 6C090000 		.long	0x96c
 2159 0961 01       		.uleb128 0x1
 2160 0962 6C090000 		.long	0x96c
 2161 0966 01       		.uleb128 0x1
 2162 0967 BF090000 		.long	0x9bf
 2163 096b 00       		.byte	0
 2164 096c 02       		.uleb128 0x2
 2165 096d 71090000 		.long	0x971
 2166 0971 1C       		.uleb128 0x1c
 2167 0972 5F454649 		.ascii "_EFI_SIMPLE_FILE_SYSTEM_PROTOCOL\0"
 2167      5F53494D 
 2167      504C455F 
 2167      46494C45 
 2167      5F535953 
 2168 0993 10       		.byte	0x10
 2169 0994 08       		.byte	0x8
 2170 0995 2F01     		.word	0x12f
 2171 0997 BF090000 		.long	0x9bf
 2172 099b 0B       		.uleb128 0xb
 2173 099c 7E000000 		.secrel32	.LASF5
 2174 09a0 08       		.byte	0x8
 2175 09a1 3001     		.word	0x130
 2176 09a3 1D       		.byte	0x1d
 2177 09a4 C1020000 		.long	0x2c1
 2178 09a8 00       		.byte	0
 2179 09a9 03       		.uleb128 0x3
 2180 09aa 4F70656E 		.ascii "OpenVolume\0"
 2180      566F6C75 
 2180      6D6500
 2181 09b5 08       		.byte	0x8
 2182 09b6 3101     		.word	0x131
 2183 09b8 1D       		.byte	0x1d
 2184 09b9 3A090000 		.long	0x93a
 2185 09bd 08       		.byte	0x8
 2186 09be 00       		.byte	0
 2187 09bf 02       		.uleb128 0x2
 2188 09c0 C4090000 		.long	0x9c4
 2189 09c4 02       		.uleb128 0x2
 2190 09c5 C9090000 		.long	0x9c9
 2191 09c9 1C       		.uleb128 0x1c
 2192 09ca 5F454649 		.ascii "_EFI_FILE_HANDLE\0"
 2192      5F46494C 
 2192      455F4841 
 2192      4E444C45 
 2192      00
 2193 09db 78       		.byte	0x78
 2194 09dc 08       		.byte	0x8
 2195 09dd C101     		.word	0x1c1
 2196 09df E70A0000 		.long	0xae7
 2197 09e3 0B       		.uleb128 0xb
 2198 09e4 7E000000 		.secrel32	.LASF5
 2199 09e8 08       		.byte	0x8
 2200 09e9 C201     		.word	0x1c2
 2201 09eb 1D       		.byte	0x1d
 2202 09ec C1020000 		.long	0x2c1
 2203 09f0 00       		.byte	0
 2204 09f1 03       		.uleb128 0x3
 2205 09f2 4F70656E 		.ascii "Open\0"
 2205      00
 2206 09f7 08       		.byte	0x8
 2207 09f8 C301     		.word	0x1c3
 2208 09fa 1D       		.byte	0x1d
 2209 09fb 2F0B0000 		.long	0xb2f
 2210 09ff 08       		.byte	0x8
 2211 0a00 03       		.uleb128 0x3
 2212 0a01 436C6F73 		.ascii "Close\0"
 2212      6500
 2213 0a07 08       		.byte	0x8
 2214 0a08 C401     		.word	0x1c4
 2215 0a0a 1D       		.byte	0x1d
 2216 0a0b 6E0B0000 		.long	0xb6e
 2217 0a0f 10       		.byte	0x10
 2218 0a10 03       		.uleb128 0x3
 2219 0a11 44656C65 		.ascii "Delete\0"
 2219      746500
 2220 0a18 08       		.byte	0x8
 2221 0a19 C501     		.word	0x1c5
 2222 0a1b 1D       		.byte	0x1d
 2223 0a1c 9A0B0000 		.long	0xb9a
 2224 0a20 18       		.byte	0x18
 2225 0a21 03       		.uleb128 0x3
 2226 0a22 52656164 		.ascii "Read\0"
 2226      00
 2227 0a27 08       		.byte	0x8
 2228 0a28 C601     		.word	0x1c6
 2229 0a2a 1D       		.byte	0x1d
 2230 0a2b B30B0000 		.long	0xbb3
 2231 0a2f 20       		.byte	0x20
 2232 0a30 03       		.uleb128 0x3
 2233 0a31 57726974 		.ascii "Write\0"
 2233      6500
 2234 0a37 08       		.byte	0x8
 2235 0a38 C701     		.word	0x1c7
 2236 0a3a 1D       		.byte	0x1d
 2237 0a3b E80B0000 		.long	0xbe8
 2238 0a3f 28       		.byte	0x28
 2239 0a40 03       		.uleb128 0x3
 2240 0a41 47657450 		.ascii "GetPosition\0"
 2240      6F736974 
 2240      696F6E00 
 2241 0a4d 08       		.byte	0x8
 2242 0a4e C801     		.word	0x1c8
 2243 0a50 1D       		.byte	0x1d
 2244 0a51 380C0000 		.long	0xc38
 2245 0a55 30       		.byte	0x30
 2246 0a56 03       		.uleb128 0x3
 2247 0a57 53657450 		.ascii "SetPosition\0"
 2247      6F736974 
 2247      696F6E00 
 2248 0a63 08       		.byte	0x8
 2249 0a64 C901     		.word	0x1c9
 2250 0a66 1D       		.byte	0x1d
 2251 0a67 000C0000 		.long	0xc00
 2252 0a6b 38       		.byte	0x38
 2253 0a6c 03       		.uleb128 0x3
 2254 0a6d 47657449 		.ascii "GetInfo\0"
 2254      6E666F00 
 2255 0a75 08       		.byte	0x8
 2256 0a76 CA01     		.word	0x1ca
 2257 0a78 1D       		.byte	0x1d
 2258 0a79 700C0000 		.long	0xc70
 2259 0a7d 40       		.byte	0x40
 2260 0a7e 03       		.uleb128 0x3
 2261 0a7f 53657449 		.ascii "SetInfo\0"
 2261      6E666F00 
 2262 0a87 08       		.byte	0x8
 2263 0a88 CB01     		.word	0x1cb
 2264 0a8a 1D       		.byte	0x1d
 2265 0a8b B30C0000 		.long	0xcb3
 2266 0a8f 48       		.byte	0x48
 2267 0a90 03       		.uleb128 0x3
 2268 0a91 466C7573 		.ascii "Flush\0"
 2268      6800
 2269 0a97 08       		.byte	0x8
 2270 0a98 CC01     		.word	0x1cc
 2271 0a9a 1D       		.byte	0x1d
 2272 0a9b F10C0000 		.long	0xcf1
 2273 0a9f 50       		.byte	0x50
 2274 0aa0 03       		.uleb128 0x3
 2275 0aa1 4F70656E 		.ascii "OpenEx\0"
 2275      457800
 2276 0aa8 08       		.byte	0x8
 2277 0aa9 CD01     		.word	0x1cd
 2278 0aab 1D       		.byte	0x1d
 2279 0aac 680D0000 		.long	0xd68
 2280 0ab0 58       		.byte	0x58
 2281 0ab1 03       		.uleb128 0x3
 2282 0ab2 52656164 		.ascii "ReadEx\0"
 2282      457800
 2283 0ab9 08       		.byte	0x8
 2284 0aba CE01     		.word	0x1ce
 2285 0abc 1D       		.byte	0x1d
 2286 0abd B40D0000 		.long	0xdb4
 2287 0ac1 60       		.byte	0x60
 2288 0ac2 03       		.uleb128 0x3
 2289 0ac3 57726974 		.ascii "WriteEx\0"
 2289      65457800 
 2290 0acb 08       		.byte	0x8
 2291 0acc CF01     		.word	0x1cf
 2292 0ace 1D       		.byte	0x1d
 2293 0acf E70D0000 		.long	0xde7
 2294 0ad3 68       		.byte	0x68
 2295 0ad4 03       		.uleb128 0x3
 2296 0ad5 466C7573 		.ascii "FlushEx\0"
 2296      68457800 
 2297 0add 08       		.byte	0x8
 2298 0ade D001     		.word	0x1d0
 2299 0ae0 1D       		.byte	0x1d
 2300 0ae1 020E0000 		.long	0xe02
 2301 0ae5 70       		.byte	0x70
 2302 0ae6 00       		.byte	0
 2303 0ae7 04       		.uleb128 0x4
 2304 0ae8 4546495F 		.ascii "EFI_SIMPLE_FILE_SYSTEM_PROTOCOL\0"
 2304      53494D50 
 2304      4C455F46 
 2304      494C455F 
 2304      53595354 
 2305 0b08 08       		.byte	0x8
 2306 0b09 3201     		.word	0x132
 2307 0b0b 03       		.byte	0x3
 2308 0b0c 71090000 		.long	0x971
 2309 0b10 04       		.uleb128 0x4
 2310 0b11 4546495F 		.ascii "EFI_FILE_IO_INTERFACE\0"
 2310      46494C45 
 2310      5F494F5F 
 2310      494E5445 
 2310      52464143 
 2311 0b27 08       		.byte	0x8
 2312 0b28 3501     		.word	0x135
 2313 0b2a 29       		.byte	0x29
 2314 0b2b E70A0000 		.long	0xae7
 2315 0b2f 04       		.uleb128 0x4
 2316 0b30 4546495F 		.ascii "EFI_FILE_OPEN\0"
 2316      46494C45 
 2316      5F4F5045 
 2316      4E00
 2317 0b3e 08       		.byte	0x8
 2318 0b3f 3D01     		.word	0x13d
 2319 0b41 0A       		.byte	0xa
 2320 0b42 460B0000 		.long	0xb46
 2321 0b46 02       		.uleb128 0x2
 2322 0b47 4B0B0000 		.long	0xb4b
 2323 0b4b 05       		.uleb128 0x5
 2324 0b4c 4C030000 		.long	0x34c
 2325 0b50 6E0B0000 		.long	0xb6e
 2326 0b54 01       		.uleb128 0x1
 2327 0b55 C4090000 		.long	0x9c4
 2328 0b59 01       		.uleb128 0x1
 2329 0b5a BF090000 		.long	0x9bf
 2330 0b5e 01       		.uleb128 0x1
 2331 0b5f 21090000 		.long	0x921
 2332 0b63 01       		.uleb128 0x1
 2333 0b64 C1020000 		.long	0x2c1
 2334 0b68 01       		.uleb128 0x1
 2335 0b69 C1020000 		.long	0x2c1
 2336 0b6d 00       		.byte	0
 2337 0b6e 04       		.uleb128 0x4
 2338 0b6f 4546495F 		.ascii "EFI_FILE_CLOSE\0"
 2338      46494C45 
 2338      5F434C4F 
 2338      534500
 2339 0b7e 08       		.byte	0x8
 2340 0b7f 5501     		.word	0x155
 2341 0b81 0A       		.byte	0xa
 2342 0b82 860B0000 		.long	0xb86
 2343 0b86 02       		.uleb128 0x2
 2344 0b87 8B0B0000 		.long	0xb8b
 2345 0b8b 05       		.uleb128 0x5
 2346 0b8c 4C030000 		.long	0x34c
 2347 0b90 9A0B0000 		.long	0xb9a
 2348 0b94 01       		.uleb128 0x1
 2349 0b95 C4090000 		.long	0x9c4
 2350 0b99 00       		.byte	0
 2351 0b9a 04       		.uleb128 0x4
 2352 0b9b 4546495F 		.ascii "EFI_FILE_DELETE\0"
 2352      46494C45 
 2352      5F44454C 
 2352      45544500 
 2353 0bab 08       		.byte	0x8
 2354 0bac 5B01     		.word	0x15b
 2355 0bae 0A       		.byte	0xa
 2356 0baf 860B0000 		.long	0xb86
 2357 0bb3 04       		.uleb128 0x4
 2358 0bb4 4546495F 		.ascii "EFI_FILE_READ\0"
 2358      46494C45 
 2358      5F524541 
 2358      4400
 2359 0bc2 08       		.byte	0x8
 2360 0bc3 6101     		.word	0x161
 2361 0bc5 0A       		.byte	0xa
 2362 0bc6 CA0B0000 		.long	0xbca
 2363 0bca 02       		.uleb128 0x2
 2364 0bcb CF0B0000 		.long	0xbcf
 2365 0bcf 05       		.uleb128 0x5
 2366 0bd0 4C030000 		.long	0x34c
 2367 0bd4 E80B0000 		.long	0xbe8
 2368 0bd8 01       		.uleb128 0x1
 2369 0bd9 C4090000 		.long	0x9c4
 2370 0bdd 01       		.uleb128 0x1
 2371 0bde 26090000 		.long	0x926
 2372 0be2 01       		.uleb128 0x1
 2373 0be3 82030000 		.long	0x382
 2374 0be7 00       		.byte	0
 2375 0be8 04       		.uleb128 0x4
 2376 0be9 4546495F 		.ascii "EFI_FILE_WRITE\0"
 2376      46494C45 
 2376      5F575249 
 2376      544500
 2377 0bf8 08       		.byte	0x8
 2378 0bf9 6901     		.word	0x169
 2379 0bfb 0A       		.byte	0xa
 2380 0bfc CA0B0000 		.long	0xbca
 2381 0c00 04       		.uleb128 0x4
 2382 0c01 4546495F 		.ascii "EFI_FILE_SET_POSITION\0"
 2382      46494C45 
 2382      5F534554 
 2382      5F504F53 
 2382      4954494F 
 2383 0c17 08       		.byte	0x8
 2384 0c18 7101     		.word	0x171
 2385 0c1a 0A       		.byte	0xa
 2386 0c1b 1F0C0000 		.long	0xc1f
 2387 0c1f 02       		.uleb128 0x2
 2388 0c20 240C0000 		.long	0xc24
 2389 0c24 05       		.uleb128 0x5
 2390 0c25 4C030000 		.long	0x34c
 2391 0c29 380C0000 		.long	0xc38
 2392 0c2d 01       		.uleb128 0x1
 2393 0c2e C4090000 		.long	0x9c4
 2394 0c32 01       		.uleb128 0x1
 2395 0c33 C1020000 		.long	0x2c1
 2396 0c37 00       		.byte	0
 2397 0c38 04       		.uleb128 0x4
 2398 0c39 4546495F 		.ascii "EFI_FILE_GET_POSITION\0"
 2398      46494C45 
 2398      5F474554 
 2398      5F504F53 
 2398      4954494F 
 2399 0c4f 08       		.byte	0x8
 2400 0c50 7801     		.word	0x178
 2401 0c52 0A       		.byte	0xa
 2402 0c53 570C0000 		.long	0xc57
 2403 0c57 02       		.uleb128 0x2
 2404 0c58 5C0C0000 		.long	0xc5c
 2405 0c5c 05       		.uleb128 0x5
 2406 0c5d 4C030000 		.long	0x34c
 2407 0c61 700C0000 		.long	0xc70
 2408 0c65 01       		.uleb128 0x1
 2409 0c66 C4090000 		.long	0x9c4
 2410 0c6a 01       		.uleb128 0x1
 2411 0c6b 2B090000 		.long	0x92b
 2412 0c6f 00       		.byte	0
 2413 0c70 04       		.uleb128 0x4
 2414 0c71 4546495F 		.ascii "EFI_FILE_GET_INFO\0"
 2414      46494C45 
 2414      5F474554 
 2414      5F494E46 
 2414      4F00
 2415 0c83 08       		.byte	0x8
 2416 0c84 7F01     		.word	0x17f
 2417 0c86 0A       		.byte	0xa
 2418 0c87 8B0C0000 		.long	0xc8b
 2419 0c8b 02       		.uleb128 0x2
 2420 0c8c 900C0000 		.long	0xc90
 2421 0c90 05       		.uleb128 0x5
 2422 0c91 4C030000 		.long	0x34c
 2423 0c95 AE0C0000 		.long	0xcae
 2424 0c99 01       		.uleb128 0x1
 2425 0c9a C4090000 		.long	0x9c4
 2426 0c9e 01       		.uleb128 0x1
 2427 0c9f AE0C0000 		.long	0xcae
 2428 0ca3 01       		.uleb128 0x1
 2429 0ca4 26090000 		.long	0x926
 2430 0ca8 01       		.uleb128 0x1
 2431 0ca9 82030000 		.long	0x382
 2432 0cad 00       		.byte	0
 2433 0cae 02       		.uleb128 0x2
 2434 0caf ED030000 		.long	0x3ed
 2435 0cb3 04       		.uleb128 0x4
 2436 0cb4 4546495F 		.ascii "EFI_FILE_SET_INFO\0"
 2436      46494C45 
 2436      5F534554 
 2436      5F494E46 
 2436      4F00
 2437 0cc6 08       		.byte	0x8
 2438 0cc7 8801     		.word	0x188
 2439 0cc9 0A       		.byte	0xa
 2440 0cca CE0C0000 		.long	0xcce
 2441 0cce 02       		.uleb128 0x2
 2442 0ccf D30C0000 		.long	0xcd3
 2443 0cd3 05       		.uleb128 0x5
 2444 0cd4 4C030000 		.long	0x34c
 2445 0cd8 F10C0000 		.long	0xcf1
 2446 0cdc 01       		.uleb128 0x1
 2447 0cdd C4090000 		.long	0x9c4
 2448 0ce1 01       		.uleb128 0x1
 2449 0ce2 AE0C0000 		.long	0xcae
 2450 0ce6 01       		.uleb128 0x1
 2451 0ce7 25030000 		.long	0x325
 2452 0ceb 01       		.uleb128 0x1
 2453 0cec 82030000 		.long	0x382
 2454 0cf0 00       		.byte	0
 2455 0cf1 04       		.uleb128 0x4
 2456 0cf2 4546495F 		.ascii "EFI_FILE_FLUSH\0"
 2456      46494C45 
 2456      5F464C55 
 2456      534800
 2457 0d01 08       		.byte	0x8
 2458 0d02 9101     		.word	0x191
 2459 0d04 0A       		.byte	0xa
 2460 0d05 860B0000 		.long	0xb86
 2461 0d09 13       		.uleb128 0x13
 2462 0d0a 20       		.byte	0x20
 2463 0d0b 08       		.byte	0x8
 2464 0d0c 9501     		.word	0x195
 2465 0d0e 4D0D0000 		.long	0xd4d
 2466 0d12 03       		.uleb128 0x3
 2467 0d13 4576656E 		.ascii "Event\0"
 2467      7400
 2468 0d19 08       		.byte	0x8
 2469 0d1a 9601     		.word	0x196
 2470 0d1c 15       		.byte	0x15
 2471 0d1d 87030000 		.long	0x387
 2472 0d21 00       		.byte	0
 2473 0d22 0B       		.uleb128 0xb
 2474 0d23 44000000 		.secrel32	.LASF6
 2475 0d27 08       		.byte	0x8
 2476 0d28 9701     		.word	0x197
 2477 0d2a 15       		.byte	0x15
 2478 0d2b 4C030000 		.long	0x34c
 2479 0d2f 08       		.byte	0x8
 2480 0d30 0B       		.uleb128 0xb
 2481 0d31 58000000 		.secrel32	.LASF7
 2482 0d35 08       		.byte	0x8
 2483 0d36 9801     		.word	0x198
 2484 0d38 15       		.byte	0x15
 2485 0d39 25030000 		.long	0x325
 2486 0d3d 10       		.byte	0x10
 2487 0d3e 0B       		.uleb128 0xb
 2488 0d3f 06000000 		.secrel32	.LASF8
 2489 0d43 08       		.byte	0x8
 2490 0d44 9901     		.word	0x199
 2491 0d46 16       		.byte	0x16
 2492 0d47 82030000 		.long	0x382
 2493 0d4b 18       		.byte	0x18
 2494 0d4c 00       		.byte	0
 2495 0d4d 04       		.uleb128 0x4
 2496 0d4e 4546495F 		.ascii "EFI_FILE_IO_TOKEN\0"
 2496      46494C45 
 2496      5F494F5F 
 2496      544F4B45 
 2496      4E00
 2497 0d60 08       		.byte	0x8
 2498 0d61 9A01     		.word	0x19a
 2499 0d63 03       		.byte	0x3
 2500 0d64 090D0000 		.long	0xd09
 2501 0d68 04       		.uleb128 0x4
 2502 0d69 4546495F 		.ascii "EFI_FILE_OPEN_EX\0"
 2502      46494C45 
 2502      5F4F5045 
 2502      4E5F4558 
 2502      00
 2503 0d7a 08       		.byte	0x8
 2504 0d7b 9E01     		.word	0x19e
 2505 0d7d 0A       		.byte	0xa
 2506 0d7e 820D0000 		.long	0xd82
 2507 0d82 02       		.uleb128 0x2
 2508 0d83 870D0000 		.long	0xd87
 2509 0d87 05       		.uleb128 0x5
 2510 0d88 4C030000 		.long	0x34c
 2511 0d8c AF0D0000 		.long	0xdaf
 2512 0d90 01       		.uleb128 0x1
 2513 0d91 C4090000 		.long	0x9c4
 2514 0d95 01       		.uleb128 0x1
 2515 0d96 BF090000 		.long	0x9bf
 2516 0d9a 01       		.uleb128 0x1
 2517 0d9b 21090000 		.long	0x921
 2518 0d9f 01       		.uleb128 0x1
 2519 0da0 C1020000 		.long	0x2c1
 2520 0da4 01       		.uleb128 0x1
 2521 0da5 C1020000 		.long	0x2c1
 2522 0da9 01       		.uleb128 0x1
 2523 0daa AF0D0000 		.long	0xdaf
 2524 0dae 00       		.byte	0
 2525 0daf 02       		.uleb128 0x2
 2526 0db0 4D0D0000 		.long	0xd4d
 2527 0db4 04       		.uleb128 0x4
 2528 0db5 4546495F 		.ascii "EFI_FILE_READ_EX\0"
 2528      46494C45 
 2528      5F524541 
 2528      445F4558 
 2528      00
 2529 0dc6 08       		.byte	0x8
 2530 0dc7 A901     		.word	0x1a9
 2531 0dc9 0A       		.byte	0xa
 2532 0dca CE0D0000 		.long	0xdce
 2533 0dce 02       		.uleb128 0x2
 2534 0dcf D30D0000 		.long	0xdd3
 2535 0dd3 05       		.uleb128 0x5
 2536 0dd4 4C030000 		.long	0x34c
 2537 0dd8 E70D0000 		.long	0xde7
 2538 0ddc 01       		.uleb128 0x1
 2539 0ddd C4090000 		.long	0x9c4
 2540 0de1 01       		.uleb128 0x1
 2541 0de2 AF0D0000 		.long	0xdaf
 2542 0de6 00       		.byte	0
 2543 0de7 04       		.uleb128 0x4
 2544 0de8 4546495F 		.ascii "EFI_FILE_WRITE_EX\0"
 2544      46494C45 
 2544      5F575249 
 2544      54455F45 
 2544      5800
 2545 0dfa 08       		.byte	0x8
 2546 0dfb B001     		.word	0x1b0
 2547 0dfd 0A       		.byte	0xa
 2548 0dfe CE0D0000 		.long	0xdce
 2549 0e02 04       		.uleb128 0x4
 2550 0e03 4546495F 		.ascii "EFI_FILE_FLUSH_EX\0"
 2550      46494C45 
 2550      5F464C55 
 2550      53485F45 
 2550      5800
 2551 0e15 08       		.byte	0x8
 2552 0e16 B701     		.word	0x1b7
 2553 0e18 0A       		.byte	0xa
 2554 0e19 CE0D0000 		.long	0xdce
 2555 0e1d 04       		.uleb128 0x4
 2556 0e1e 4546495F 		.ascii "EFI_FILE_HANDLE\0"
 2556      46494C45 
 2556      5F48414E 
 2556      444C4500 
 2557 0e2e 08       		.byte	0x8
 2558 0e2f D101     		.word	0x1d1
 2559 0e31 17       		.byte	0x17
 2560 0e32 C4090000 		.long	0x9c4
 2561 0e36 13       		.uleb128 0x13
 2562 0e37 58       		.byte	0x58
 2563 0e38 08       		.byte	0x8
 2564 0e39 DD01     		.word	0x1dd
 2565 0e3b E30E0000 		.long	0xee3
 2566 0e3f 03       		.uleb128 0x3
 2567 0e40 53697A65 		.ascii "Size\0"
 2567      00
 2568 0e45 08       		.byte	0x8
 2569 0e46 DE01     		.word	0x1de
 2570 0e48 1D       		.byte	0x1d
 2571 0e49 C1020000 		.long	0x2c1
 2572 0e4d 00       		.byte	0
 2573 0e4e 03       		.uleb128 0x3
 2574 0e4f 46696C65 		.ascii "FileSize\0"
 2574      53697A65 
 2574      00
 2575 0e58 08       		.byte	0x8
 2576 0e59 DF01     		.word	0x1df
 2577 0e5b 1D       		.byte	0x1d
 2578 0e5c C1020000 		.long	0x2c1
 2579 0e60 08       		.byte	0x8
 2580 0e61 03       		.uleb128 0x3
 2581 0e62 50687973 		.ascii "PhysicalSize\0"
 2581      6963616C 
 2581      53697A65 
 2581      00
 2582 0e6f 08       		.byte	0x8
 2583 0e70 E001     		.word	0x1e0
 2584 0e72 1D       		.byte	0x1d
 2585 0e73 C1020000 		.long	0x2c1
 2586 0e77 10       		.byte	0x10
 2587 0e78 03       		.uleb128 0x3
 2588 0e79 43726561 		.ascii "CreateTime\0"
 2588      74655469 
 2588      6D6500
 2589 0e84 08       		.byte	0x8
 2590 0e85 E101     		.word	0x1e1
 2591 0e87 1D       		.byte	0x1d
 2592 0e88 B7040000 		.long	0x4b7
 2593 0e8c 18       		.byte	0x18
 2594 0e8d 03       		.uleb128 0x3
 2595 0e8e 4C617374 		.ascii "LastAccessTime\0"
 2595      41636365 
 2595      73735469 
 2595      6D6500
 2596 0e9d 08       		.byte	0x8
 2597 0e9e E201     		.word	0x1e2
 2598 0ea0 1D       		.byte	0x1d
 2599 0ea1 B7040000 		.long	0x4b7
 2600 0ea5 28       		.byte	0x28
 2601 0ea6 03       		.uleb128 0x3
 2602 0ea7 4D6F6469 		.ascii "ModificationTime\0"
 2602      66696361 
 2602      74696F6E 
 2602      54696D65 
 2602      00
 2603 0eb8 08       		.byte	0x8
 2604 0eb9 E301     		.word	0x1e3
 2605 0ebb 1D       		.byte	0x1d
 2606 0ebc B7040000 		.long	0x4b7
 2607 0ec0 38       		.byte	0x38
 2608 0ec1 0B       		.uleb128 0xb
 2609 0ec2 17000000 		.secrel32	.LASF2
 2610 0ec6 08       		.byte	0x8
 2611 0ec7 E401     		.word	0x1e4
 2612 0ec9 1D       		.byte	0x1d
 2613 0eca C1020000 		.long	0x2c1
 2614 0ece 48       		.byte	0x48
 2615 0ecf 03       		.uleb128 0x3
 2616 0ed0 46696C65 		.ascii "FileName\0"
 2616      4E616D65 
 2616      00
 2617 0ed9 08       		.byte	0x8
 2618 0eda E501     		.word	0x1e5
 2619 0edc 1D       		.byte	0x1d
 2620 0edd 42080000 		.long	0x842
 2621 0ee1 50       		.byte	0x50
 2622 0ee2 00       		.byte	0
 2623 0ee3 04       		.uleb128 0x4
 2624 0ee4 4546495F 		.ascii "EFI_FILE_INFO\0"
 2624      46494C45 
 2624      5F494E46 
 2624      4F00
 2625 0ef2 08       		.byte	0x8
 2626 0ef3 E601     		.word	0x1e6
 2627 0ef5 03       		.byte	0x3
 2628 0ef6 360E0000 		.long	0xe36
 2629 0efa 13       		.uleb128 0x13
 2630 0efb 28       		.byte	0x28
 2631 0efc 08       		.byte	0x8
 2632 0efd F501     		.word	0x1f5
 2633 0eff 710F0000 		.long	0xf71
 2634 0f03 03       		.uleb128 0x3
 2635 0f04 53697A65 		.ascii "Size\0"
 2635      00
 2636 0f09 08       		.byte	0x8
 2637 0f0a F601     		.word	0x1f6
 2638 0f0c 1D       		.byte	0x1d
 2639 0f0d C1020000 		.long	0x2c1
 2640 0f11 00       		.byte	0
 2641 0f12 03       		.uleb128 0x3
 2642 0f13 52656164 		.ascii "ReadOnly\0"
 2642      4F6E6C79 
 2642      00
 2643 0f1c 08       		.byte	0x8
 2644 0f1d F701     		.word	0x1f7
 2645 0f1f 1D       		.byte	0x1d
 2646 0f20 33030000 		.long	0x333
 2647 0f24 08       		.byte	0x8
 2648 0f25 03       		.uleb128 0x3
 2649 0f26 566F6C75 		.ascii "VolumeSize\0"
 2649      6D655369 
 2649      7A6500
 2650 0f31 08       		.byte	0x8
 2651 0f32 F801     		.word	0x1f8
 2652 0f34 1D       		.byte	0x1d
 2653 0f35 C1020000 		.long	0x2c1
 2654 0f39 10       		.byte	0x10
 2655 0f3a 03       		.uleb128 0x3
 2656 0f3b 46726565 		.ascii "FreeSpace\0"
 2656      53706163 
 2656      6500
 2657 0f45 08       		.byte	0x8
 2658 0f46 F901     		.word	0x1f9
 2659 0f48 1D       		.byte	0x1d
 2660 0f49 C1020000 		.long	0x2c1
 2661 0f4d 18       		.byte	0x18
 2662 0f4e 03       		.uleb128 0x3
 2663 0f4f 426C6F63 		.ascii "BlockSize\0"
 2663      6B53697A 
 2663      6500
 2664 0f59 08       		.byte	0x8
 2665 0f5a FA01     		.word	0x1fa
 2666 0f5c 1D       		.byte	0x1d
 2667 0f5d D0020000 		.long	0x2d0
 2668 0f61 20       		.byte	0x20
 2669 0f62 0B       		.uleb128 0xb
 2670 0f63 38000000 		.secrel32	.LASF9
 2671 0f67 08       		.byte	0x8
 2672 0f68 FB01     		.word	0x1fb
 2673 0f6a 1D       		.byte	0x1d
 2674 0f6b 42080000 		.long	0x842
 2675 0f6f 24       		.byte	0x24
 2676 0f70 00       		.byte	0
 2677 0f71 04       		.uleb128 0x4
 2678 0f72 4546495F 		.ascii "EFI_FILE_SYSTEM_INFO\0"
 2678      46494C45 
 2678      5F535953 
 2678      54454D5F 
 2678      494E464F 
 2679 0f87 08       		.byte	0x8
 2680 0f88 FC01     		.word	0x1fc
 2681 0f8a 03       		.byte	0x3
 2682 0f8b FA0E0000 		.long	0xefa
 2683 0f8f 13       		.uleb128 0x13
 2684 0f90 02       		.byte	0x2
 2685 0f91 08       		.byte	0x8
 2686 0f92 0B02     		.word	0x20b
 2687 0f94 A70F0000 		.long	0xfa7
 2688 0f98 0B       		.uleb128 0xb
 2689 0f99 38000000 		.secrel32	.LASF9
 2690 0f9d 08       		.byte	0x8
 2691 0f9e 0C02     		.word	0x20c
 2692 0fa0 1D       		.byte	0x1d
 2693 0fa1 42080000 		.long	0x842
 2694 0fa5 00       		.byte	0
 2695 0fa6 00       		.byte	0
 2696 0fa7 04       		.uleb128 0x4
 2697 0fa8 4546495F 		.ascii "EFI_FILE_SYSTEM_VOLUME_LABEL\0"
 2697      46494C45 
 2697      5F535953 
 2697      54454D5F 
 2697      564F4C55 
 2698 0fc5 08       		.byte	0x8
 2699 0fc6 0D02     		.word	0x20d
 2700 0fc8 03       		.byte	0x3
 2701 0fc9 8F0F0000 		.long	0xf8f
 2702 0fcd 02       		.uleb128 0x2
 2703 0fce 2A080000 		.long	0x82a
 2704 0fd2 02       		.uleb128 0x2
 2705 0fd3 CD0F0000 		.long	0xfcd
 2706 0fd7 02       		.uleb128 0x2
 2707 0fd8 FE030000 		.long	0x3fe
 2708 0fdc 02       		.uleb128 0x2
 2709 0fdd 6F030000 		.long	0x36f
 2710 0fe1 02       		.uleb128 0x2
 2711 0fe2 D0020000 		.long	0x2d0
 2712 0fe6 02       		.uleb128 0x2
 2713 0fe7 21090000 		.long	0x921
 2714 0feb 04       		.uleb128 0x4
 2715 0fec 4546495F 		.ascii "EFI_IMAGE_UNLOAD\0"
 2715      494D4147 
 2715      455F554E 
 2715      4C4F4144 
 2715      00
 2716 0ffd 08       		.byte	0x8
 2717 0ffe C604     		.word	0x4c6
 2718 1000 0A       		.byte	0xa
 2719 1001 05100000 		.long	0x1005
 2720 1005 02       		.uleb128 0x2
 2721 1006 0A100000 		.long	0x100a
 2722 100a 05       		.uleb128 0x5
 2723 100b 4C030000 		.long	0x34c
 2724 100f 19100000 		.long	0x1019
 2725 1013 01       		.uleb128 0x1
 2726 1014 6F030000 		.long	0x36f
 2727 1018 00       		.byte	0
 2728 1019 06       		.uleb128 0x6
 2729 101a 4546495F 		.ascii "EFI_ALLOCATE_PAGES\0"
 2729      414C4C4F 
 2729      43415445 
 2729      5F504147 
 2729      455300
 2730 102d 09       		.byte	0x9
 2731 102e 2C       		.byte	0x2c
 2732 102f 0A       		.byte	0xa
 2733 1030 34100000 		.long	0x1034
 2734 1034 02       		.uleb128 0x2
 2735 1035 39100000 		.long	0x1039
 2736 1039 05       		.uleb128 0x5
 2737 103a 4C030000 		.long	0x34c
 2738 103e 57100000 		.long	0x1057
 2739 1042 01       		.uleb128 0x1
 2740 1043 69050000 		.long	0x569
 2741 1047 01       		.uleb128 0x1
 2742 1048 FC060000 		.long	0x6fc
 2743 104c 01       		.uleb128 0x1
 2744 104d 25030000 		.long	0x325
 2745 1051 01       		.uleb128 0x1
 2746 1052 35090000 		.long	0x935
 2747 1056 00       		.byte	0
 2748 1057 06       		.uleb128 0x6
 2749 1058 4546495F 		.ascii "EFI_FREE_PAGES\0"
 2749      46524545 
 2749      5F504147 
 2749      455300
 2750 1067 09       		.byte	0x9
 2751 1068 35       		.byte	0x35
 2752 1069 0A       		.byte	0xa
 2753 106a 6E100000 		.long	0x106e
 2754 106e 02       		.uleb128 0x2
 2755 106f 73100000 		.long	0x1073
 2756 1073 05       		.uleb128 0x5
 2757 1074 4C030000 		.long	0x34c
 2758 1078 87100000 		.long	0x1087
 2759 107c 01       		.uleb128 0x1
 2760 107d D8040000 		.long	0x4d8
 2761 1081 01       		.uleb128 0x1
 2762 1082 25030000 		.long	0x325
 2763 1086 00       		.byte	0
 2764 1087 06       		.uleb128 0x6
 2765 1088 4546495F 		.ascii "EFI_GET_MEMORY_MAP\0"
 2765      4745545F 
 2765      4D454D4F 
 2765      52595F4D 
 2765      415000
 2766 109b 09       		.byte	0x9
 2767 109c 3C       		.byte	0x3c
 2768 109d 0A       		.byte	0xa
 2769 109e A2100000 		.long	0x10a2
 2770 10a2 02       		.uleb128 0x2
 2771 10a3 A7100000 		.long	0x10a7
 2772 10a7 05       		.uleb128 0x5
 2773 10a8 4C030000 		.long	0x34c
 2774 10ac CA100000 		.long	0x10ca
 2775 10b0 01       		.uleb128 0x1
 2776 10b1 26090000 		.long	0x926
 2777 10b5 01       		.uleb128 0x1
 2778 10b6 CA100000 		.long	0x10ca
 2779 10ba 01       		.uleb128 0x1
 2780 10bb 26090000 		.long	0x926
 2781 10bf 01       		.uleb128 0x1
 2782 10c0 26090000 		.long	0x926
 2783 10c4 01       		.uleb128 0x1
 2784 10c5 E10F0000 		.long	0xfe1
 2785 10c9 00       		.byte	0
 2786 10ca 02       		.uleb128 0x2
 2787 10cb 88070000 		.long	0x788
 2788 10cf 06       		.uleb128 0x6
 2789 10d0 4546495F 		.ascii "EFI_ALLOCATE_POOL\0"
 2789      414C4C4F 
 2789      43415445 
 2789      5F504F4F 
 2789      4C00
 2790 10e2 09       		.byte	0x9
 2791 10e3 49       		.byte	0x49
 2792 10e4 0A       		.byte	0xa
 2793 10e5 E9100000 		.long	0x10e9
 2794 10e9 02       		.uleb128 0x2
 2795 10ea EE100000 		.long	0x10ee
 2796 10ee 05       		.uleb128 0x5
 2797 10ef 4C030000 		.long	0x34c
 2798 10f3 07110000 		.long	0x1107
 2799 10f7 01       		.uleb128 0x1
 2800 10f8 FC060000 		.long	0x6fc
 2801 10fc 01       		.uleb128 0x1
 2802 10fd 25030000 		.long	0x325
 2803 1101 01       		.uleb128 0x1
 2804 1102 30090000 		.long	0x930
 2805 1106 00       		.byte	0
 2806 1107 06       		.uleb128 0x6
 2807 1108 4546495F 		.ascii "EFI_FREE_POOL\0"
 2807      46524545 
 2807      5F504F4F 
 2807      4C00
 2808 1116 09       		.byte	0x9
 2809 1117 51       		.byte	0x51
 2810 1118 0A       		.byte	0xa
 2811 1119 1D110000 		.long	0x111d
 2812 111d 02       		.uleb128 0x2
 2813 111e 22110000 		.long	0x1122
 2814 1122 05       		.uleb128 0x5
 2815 1123 4C030000 		.long	0x34c
 2816 1127 31110000 		.long	0x1131
 2817 112b 01       		.uleb128 0x1
 2818 112c 82030000 		.long	0x382
 2819 1130 00       		.byte	0
 2820 1131 06       		.uleb128 0x6
 2821 1132 4546495F 		.ascii "EFI_EVENT_NOTIFY\0"
 2821      4556454E 
 2821      545F4E4F 
 2821      54494659 
 2821      00
 2822 1143 09       		.byte	0x9
 2823 1144 8A       		.byte	0x8a
 2824 1145 0A       		.byte	0xa
 2825 1146 4A110000 		.long	0x114a
 2826 114a 02       		.uleb128 0x2
 2827 114b 4F110000 		.long	0x114f
 2828 114f 1D       		.uleb128 0x1d
 2829 1150 5F110000 		.long	0x115f
 2830 1154 01       		.uleb128 0x1
 2831 1155 87030000 		.long	0x387
 2832 1159 01       		.uleb128 0x1
 2833 115a 82030000 		.long	0x382
 2834 115e 00       		.byte	0
 2835 115f 06       		.uleb128 0x6
 2836 1160 4546495F 		.ascii "EFI_CREATE_EVENT\0"
 2836      43524541 
 2836      54455F45 
 2836      56454E54 
 2836      00
 2837 1171 09       		.byte	0x9
 2838 1172 91       		.byte	0x91
 2839 1173 0A       		.byte	0xa
 2840 1174 78110000 		.long	0x1178
 2841 1178 02       		.uleb128 0x2
 2842 1179 7D110000 		.long	0x117d
 2843 117d 05       		.uleb128 0x5
 2844 117e 4C030000 		.long	0x34c
 2845 1182 A0110000 		.long	0x11a0
 2846 1186 01       		.uleb128 0x1
 2847 1187 D0020000 		.long	0x2d0
 2848 118b 01       		.uleb128 0x1
 2849 118c 5F030000 		.long	0x35f
 2850 1190 01       		.uleb128 0x1
 2851 1191 31110000 		.long	0x1131
 2852 1195 01       		.uleb128 0x1
 2853 1196 82030000 		.long	0x382
 2854 119a 01       		.uleb128 0x1
 2855 119b A0110000 		.long	0x11a0
 2856 119f 00       		.byte	0
 2857 11a0 02       		.uleb128 0x2
 2858 11a1 87030000 		.long	0x387
 2859 11a5 26       		.uleb128 0x26
 2860 11a6 DF010000 		.long	0x1df
 2861 11aa 09       		.byte	0x9
 2862 11ab 99       		.byte	0x99
 2863 11ac EE110000 		.long	0x11ee
 2864 11b0 08       		.uleb128 0x8
 2865 11b1 54696D65 		.ascii "TimerCancel\0"
 2865      7243616E 
 2865      63656C00 
 2866 11bd 00       		.byte	0
 2867 11be 08       		.uleb128 0x8
 2868 11bf 54696D65 		.ascii "TimerPeriodic\0"
 2868      72506572 
 2868      696F6469 
 2868      6300
 2869 11cd 01       		.byte	0x1
 2870 11ce 08       		.uleb128 0x8
 2871 11cf 54696D65 		.ascii "TimerRelative\0"
 2871      7252656C 
 2871      61746976 
 2871      6500
 2872 11dd 02       		.byte	0x2
 2873 11de 08       		.uleb128 0x8
 2874 11df 54696D65 		.ascii "TimerTypeMax\0"
 2874      72547970 
 2874      654D6178 
 2874      00
 2875 11ec 03       		.byte	0x3
 2876 11ed 00       		.byte	0
 2877 11ee 06       		.uleb128 0x6
 2878 11ef 4546495F 		.ascii "EFI_TIMER_DELAY\0"
 2878      54494D45 
 2878      525F4445 
 2878      4C415900 
 2879 11ff 09       		.byte	0x9
 2880 1200 9E       		.byte	0x9e
 2881 1201 03       		.byte	0x3
 2882 1202 A5110000 		.long	0x11a5
 2883 1206 06       		.uleb128 0x6
 2884 1207 4546495F 		.ascii "EFI_SET_TIMER\0"
 2884      5345545F 
 2884      54494D45 
 2884      5200
 2885 1215 09       		.byte	0x9
 2886 1216 A2       		.byte	0xa2
 2887 1217 0A       		.byte	0xa
 2888 1218 1C120000 		.long	0x121c
 2889 121c 02       		.uleb128 0x2
 2890 121d 21120000 		.long	0x1221
 2891 1221 05       		.uleb128 0x5
 2892 1222 4C030000 		.long	0x34c
 2893 1226 3A120000 		.long	0x123a
 2894 122a 01       		.uleb128 0x1
 2895 122b 87030000 		.long	0x387
 2896 122f 01       		.uleb128 0x1
 2897 1230 EE110000 		.long	0x11ee
 2898 1234 01       		.uleb128 0x1
 2899 1235 C1020000 		.long	0x2c1
 2900 1239 00       		.byte	0
 2901 123a 06       		.uleb128 0x6
 2902 123b 4546495F 		.ascii "EFI_SIGNAL_EVENT\0"
 2902      5349474E 
 2902      414C5F45 
 2902      56454E54 
 2902      00
 2903 124c 09       		.byte	0x9
 2904 124d AA       		.byte	0xaa
 2905 124e 0A       		.byte	0xa
 2906 124f 53120000 		.long	0x1253
 2907 1253 02       		.uleb128 0x2
 2908 1254 58120000 		.long	0x1258
 2909 1258 05       		.uleb128 0x5
 2910 1259 4C030000 		.long	0x34c
 2911 125d 67120000 		.long	0x1267
 2912 1261 01       		.uleb128 0x1
 2913 1262 87030000 		.long	0x387
 2914 1266 00       		.byte	0
 2915 1267 06       		.uleb128 0x6
 2916 1268 4546495F 		.ascii "EFI_WAIT_FOR_EVENT\0"
 2916      57414954 
 2916      5F464F52 
 2916      5F455645 
 2916      4E5400
 2917 127b 09       		.byte	0x9
 2918 127c B0       		.byte	0xb0
 2919 127d 0A       		.byte	0xa
 2920 127e 82120000 		.long	0x1282
 2921 1282 02       		.uleb128 0x2
 2922 1283 87120000 		.long	0x1287
 2923 1287 05       		.uleb128 0x5
 2924 1288 4C030000 		.long	0x34c
 2925 128c A0120000 		.long	0x12a0
 2926 1290 01       		.uleb128 0x1
 2927 1291 25030000 		.long	0x325
 2928 1295 01       		.uleb128 0x1
 2929 1296 A0110000 		.long	0x11a0
 2930 129a 01       		.uleb128 0x1
 2931 129b 26090000 		.long	0x926
 2932 129f 00       		.byte	0
 2933 12a0 06       		.uleb128 0x6
 2934 12a1 4546495F 		.ascii "EFI_CLOSE_EVENT\0"
 2934      434C4F53 
 2934      455F4556 
 2934      454E5400 
 2935 12b1 09       		.byte	0x9
 2936 12b2 B8       		.byte	0xb8
 2937 12b3 0A       		.byte	0xa
 2938 12b4 53120000 		.long	0x1253
 2939 12b8 06       		.uleb128 0x6
 2940 12b9 4546495F 		.ascii "EFI_CHECK_EVENT\0"
 2940      43484543 
 2940      4B5F4556 
 2940      454E5400 
 2941 12c9 09       		.byte	0x9
 2942 12ca BE       		.byte	0xbe
 2943 12cb 0A       		.byte	0xa
 2944 12cc 53120000 		.long	0x1253
 2945 12d0 06       		.uleb128 0x6
 2946 12d1 4546495F 		.ascii "EFI_RAISE_TPL\0"
 2946      52414953 
 2946      455F5450 
 2946      4C00
 2947 12df 09       		.byte	0x9
 2948 12e0 D0       		.byte	0xd0
 2949 12e1 0A       		.byte	0xa
 2950 12e2 E6120000 		.long	0x12e6
 2951 12e6 02       		.uleb128 0x2
 2952 12e7 EB120000 		.long	0x12eb
 2953 12eb 05       		.uleb128 0x5
 2954 12ec 5F030000 		.long	0x35f
 2955 12f0 FA120000 		.long	0x12fa
 2956 12f4 01       		.uleb128 0x1
 2957 12f5 5F030000 		.long	0x35f
 2958 12f9 00       		.byte	0
 2959 12fa 06       		.uleb128 0x6
 2960 12fb 4546495F 		.ascii "EFI_RESTORE_TPL\0"
 2960      52455354 
 2960      4F52455F 
 2960      54504C00 
 2961 130b 09       		.byte	0x9
 2962 130c D6       		.byte	0xd6
 2963 130d 0A       		.byte	0xa
 2964 130e 12130000 		.long	0x1312
 2965 1312 02       		.uleb128 0x2
 2966 1313 17130000 		.long	0x1317
 2967 1317 1D       		.uleb128 0x1d
 2968 1318 22130000 		.long	0x1322
 2969 131c 01       		.uleb128 0x1
 2970 131d 5F030000 		.long	0x35f
 2971 1321 00       		.byte	0
 2972 1322 04       		.uleb128 0x4
 2973 1323 4546495F 		.ascii "EFI_IMAGE_LOAD\0"
 2973      494D4147 
 2973      455F4C4F 
 2973      414400
 2974 1332 09       		.byte	0x9
 2975 1333 7B01     		.word	0x17b
 2976 1335 0A       		.byte	0xa
 2977 1336 3A130000 		.long	0x133a
 2978 133a 02       		.uleb128 0x2
 2979 133b 3F130000 		.long	0x133f
 2980 133f 05       		.uleb128 0x5
 2981 1340 4C030000 		.long	0x34c
 2982 1344 67130000 		.long	0x1367
 2983 1348 01       		.uleb128 0x1
 2984 1349 33030000 		.long	0x333
 2985 134d 01       		.uleb128 0x1
 2986 134e 6F030000 		.long	0x36f
 2987 1352 01       		.uleb128 0x1
 2988 1353 CD0F0000 		.long	0xfcd
 2989 1357 01       		.uleb128 0x1
 2990 1358 82030000 		.long	0x382
 2991 135c 01       		.uleb128 0x1
 2992 135d 25030000 		.long	0x325
 2993 1361 01       		.uleb128 0x1
 2994 1362 DC0F0000 		.long	0xfdc
 2995 1366 00       		.byte	0
 2996 1367 04       		.uleb128 0x4
 2997 1368 4546495F 		.ascii "EFI_IMAGE_START\0"
 2997      494D4147 
 2997      455F5354 
 2997      41525400 
 2998 1378 09       		.byte	0x9
 2999 1379 8601     		.word	0x186
 3000 137b 0A       		.byte	0xa
 3001 137c 80130000 		.long	0x1380
 3002 1380 02       		.uleb128 0x2
 3003 1381 85130000 		.long	0x1385
 3004 1385 05       		.uleb128 0x5
 3005 1386 4C030000 		.long	0x34c
 3006 138a 9E130000 		.long	0x139e
 3007 138e 01       		.uleb128 0x1
 3008 138f 6F030000 		.long	0x36f
 3009 1393 01       		.uleb128 0x1
 3010 1394 26090000 		.long	0x926
 3011 1398 01       		.uleb128 0x1
 3012 1399 E60F0000 		.long	0xfe6
 3013 139d 00       		.byte	0
 3014 139e 04       		.uleb128 0x4
 3015 139f 4546495F 		.ascii "EFI_EXIT\0"
 3015      45584954 
 3015      00
 3016 13a8 09       		.byte	0x9
 3017 13a9 8E01     		.word	0x18e
 3018 13ab 0A       		.byte	0xa
 3019 13ac B0130000 		.long	0x13b0
 3020 13b0 02       		.uleb128 0x2
 3021 13b1 B5130000 		.long	0x13b5
 3022 13b5 05       		.uleb128 0x5
 3023 13b6 4C030000 		.long	0x34c
 3024 13ba D3130000 		.long	0x13d3
 3025 13be 01       		.uleb128 0x1
 3026 13bf 6F030000 		.long	0x36f
 3027 13c3 01       		.uleb128 0x1
 3028 13c4 4C030000 		.long	0x34c
 3029 13c8 01       		.uleb128 0x1
 3030 13c9 25030000 		.long	0x325
 3031 13cd 01       		.uleb128 0x1
 3032 13ce 21090000 		.long	0x921
 3033 13d2 00       		.byte	0
 3034 13d3 04       		.uleb128 0x4
 3035 13d4 4546495F 		.ascii "EFI_EXIT_BOOT_SERVICES\0"
 3035      45584954 
 3035      5F424F4F 
 3035      545F5345 
 3035      52564943 
 3036 13eb 09       		.byte	0x9
 3037 13ec B701     		.word	0x1b7
 3038 13ee 0A       		.byte	0xa
 3039 13ef F3130000 		.long	0x13f3
 3040 13f3 02       		.uleb128 0x2
 3041 13f4 F8130000 		.long	0x13f8
 3042 13f8 05       		.uleb128 0x5
 3043 13f9 4C030000 		.long	0x34c
 3044 13fd 0C140000 		.long	0x140c
 3045 1401 01       		.uleb128 0x1
 3046 1402 6F030000 		.long	0x36f
 3047 1406 01       		.uleb128 0x1
 3048 1407 25030000 		.long	0x325
 3049 140b 00       		.byte	0
 3050 140c 04       		.uleb128 0x4
 3051 140d 4546495F 		.ascii "EFI_STALL\0"
 3051      5354414C 
 3051      4C00
 3052 1417 09       		.byte	0x9
 3053 1418 C301     		.word	0x1c3
 3054 141a 0A       		.byte	0xa
 3055 141b 1F140000 		.long	0x141f
 3056 141f 02       		.uleb128 0x2
 3057 1420 24140000 		.long	0x1424
 3058 1424 05       		.uleb128 0x5
 3059 1425 4C030000 		.long	0x34c
 3060 1429 33140000 		.long	0x1433
 3061 142d 01       		.uleb128 0x1
 3062 142e 25030000 		.long	0x325
 3063 1432 00       		.byte	0
 3064 1433 04       		.uleb128 0x4
 3065 1434 4546495F 		.ascii "EFI_SET_WATCHDOG_TIMER\0"
 3065      5345545F 
 3065      57415443 
 3065      48444F47 
 3065      5F54494D 
 3066 144b 09       		.byte	0x9
 3067 144c C901     		.word	0x1c9
 3068 144e 0A       		.byte	0xa
 3069 144f 53140000 		.long	0x1453
 3070 1453 02       		.uleb128 0x2
 3071 1454 58140000 		.long	0x1458
 3072 1458 05       		.uleb128 0x5
 3073 1459 4C030000 		.long	0x34c
 3074 145d 76140000 		.long	0x1476
 3075 1461 01       		.uleb128 0x1
 3076 1462 25030000 		.long	0x325
 3077 1466 01       		.uleb128 0x1
 3078 1467 C1020000 		.long	0x2c1
 3079 146b 01       		.uleb128 0x1
 3080 146c 25030000 		.long	0x325
 3081 1470 01       		.uleb128 0x1
 3082 1471 21090000 		.long	0x921
 3083 1475 00       		.byte	0
 3084 1476 04       		.uleb128 0x4
 3085 1477 4546495F 		.ascii "EFI_CONNECT_CONTROLLER\0"
 3085      434F4E4E 
 3085      4543545F 
 3085      434F4E54 
 3085      524F4C4C 
 3086 148e 09       		.byte	0x9
 3087 148f D201     		.word	0x1d2
 3088 1491 0A       		.byte	0xa
 3089 1492 96140000 		.long	0x1496
 3090 1496 02       		.uleb128 0x2
 3091 1497 9B140000 		.long	0x149b
 3092 149b 05       		.uleb128 0x5
 3093 149c 4C030000 		.long	0x34c
 3094 14a0 B9140000 		.long	0x14b9
 3095 14a4 01       		.uleb128 0x1
 3096 14a5 6F030000 		.long	0x36f
 3097 14a9 01       		.uleb128 0x1
 3098 14aa DC0F0000 		.long	0xfdc
 3099 14ae 01       		.uleb128 0x1
 3100 14af CD0F0000 		.long	0xfcd
 3101 14b3 01       		.uleb128 0x1
 3102 14b4 33030000 		.long	0x333
 3103 14b8 00       		.byte	0
 3104 14b9 04       		.uleb128 0x4
 3105 14ba 4546495F 		.ascii "EFI_DISCONNECT_CONTROLLER\0"
 3105      44495343 
 3105      4F4E4E45 
 3105      43545F43 
 3105      4F4E5452 
 3106 14d4 09       		.byte	0x9
 3107 14d5 DB01     		.word	0x1db
 3108 14d7 0A       		.byte	0xa
 3109 14d8 DC140000 		.long	0x14dc
 3110 14dc 02       		.uleb128 0x2
 3111 14dd E1140000 		.long	0x14e1
 3112 14e1 05       		.uleb128 0x5
 3113 14e2 4C030000 		.long	0x34c
 3114 14e6 FA140000 		.long	0x14fa
 3115 14ea 01       		.uleb128 0x1
 3116 14eb 6F030000 		.long	0x36f
 3117 14ef 01       		.uleb128 0x1
 3118 14f0 6F030000 		.long	0x36f
 3119 14f4 01       		.uleb128 0x1
 3120 14f5 6F030000 		.long	0x36f
 3121 14f9 00       		.byte	0
 3122 14fa 04       		.uleb128 0x4
 3123 14fb 4546495F 		.ascii "EFI_OPEN_PROTOCOL\0"
 3123      4F50454E 
 3123      5F50524F 
 3123      544F434F 
 3123      4C00
 3124 150d 09       		.byte	0x9
 3125 150e EA01     		.word	0x1ea
 3126 1510 0A       		.byte	0xa
 3127 1511 15150000 		.long	0x1515
 3128 1515 02       		.uleb128 0x2
 3129 1516 1A150000 		.long	0x151a
 3130 151a 05       		.uleb128 0x5
 3131 151b 4C030000 		.long	0x34c
 3132 151f 42150000 		.long	0x1542
 3133 1523 01       		.uleb128 0x1
 3134 1524 6F030000 		.long	0x36f
 3135 1528 01       		.uleb128 0x1
 3136 1529 AE0C0000 		.long	0xcae
 3137 152d 01       		.uleb128 0x1
 3138 152e 30090000 		.long	0x930
 3139 1532 01       		.uleb128 0x1
 3140 1533 6F030000 		.long	0x36f
 3141 1537 01       		.uleb128 0x1
 3142 1538 6F030000 		.long	0x36f
 3143 153c 01       		.uleb128 0x1
 3144 153d D0020000 		.long	0x2d0
 3145 1541 00       		.byte	0
 3146 1542 04       		.uleb128 0x4
 3147 1543 4546495F 		.ascii "EFI_CLOSE_PROTOCOL\0"
 3147      434C4F53 
 3147      455F5052 
 3147      4F544F43 
 3147      4F4C00
 3148 1556 09       		.byte	0x9
 3149 1557 F501     		.word	0x1f5
 3150 1559 0A       		.byte	0xa
 3151 155a 5E150000 		.long	0x155e
 3152 155e 02       		.uleb128 0x2
 3153 155f 63150000 		.long	0x1563
 3154 1563 05       		.uleb128 0x5
 3155 1564 4C030000 		.long	0x34c
 3156 1568 81150000 		.long	0x1581
 3157 156c 01       		.uleb128 0x1
 3158 156d 6F030000 		.long	0x36f
 3159 1571 01       		.uleb128 0x1
 3160 1572 AE0C0000 		.long	0xcae
 3161 1576 01       		.uleb128 0x1
 3162 1577 6F030000 		.long	0x36f
 3163 157b 01       		.uleb128 0x1
 3164 157c 6F030000 		.long	0x36f
 3165 1580 00       		.byte	0
 3166 1581 13       		.uleb128 0x13
 3167 1582 18       		.byte	0x18
 3168 1583 09       		.byte	0x9
 3169 1584 FC01     		.word	0x1fc
 3170 1586 E5150000 		.long	0x15e5
 3171 158a 03       		.uleb128 0x3
 3172 158b 4167656E 		.ascii "AgentHandle\0"
 3172      7448616E 
 3172      646C6500 
 3173 1597 09       		.byte	0x9
 3174 1598 FD01     		.word	0x1fd
 3175 159a 21       		.byte	0x21
 3176 159b 6F030000 		.long	0x36f
 3177 159f 00       		.byte	0
 3178 15a0 03       		.uleb128 0x3
 3179 15a1 436F6E74 		.ascii "ControllerHandle\0"
 3179      726F6C6C 
 3179      65724861 
 3179      6E646C65 
 3179      00
 3180 15b2 09       		.byte	0x9
 3181 15b3 FE01     		.word	0x1fe
 3182 15b5 21       		.byte	0x21
 3183 15b6 6F030000 		.long	0x36f
 3184 15ba 08       		.byte	0x8
 3185 15bb 03       		.uleb128 0x3
 3186 15bc 41747472 		.ascii "Attributes\0"
 3186      69627574 
 3186      657300
 3187 15c7 09       		.byte	0x9
 3188 15c8 FF01     		.word	0x1ff
 3189 15ca 21       		.byte	0x21
 3190 15cb D0020000 		.long	0x2d0
 3191 15cf 10       		.byte	0x10
 3192 15d0 03       		.uleb128 0x3
 3193 15d1 4F70656E 		.ascii "OpenCount\0"
 3193      436F756E 
 3193      7400
 3194 15db 09       		.byte	0x9
 3195 15dc 0002     		.word	0x200
 3196 15de 21       		.byte	0x21
 3197 15df D0020000 		.long	0x2d0
 3198 15e3 14       		.byte	0x14
 3199 15e4 00       		.byte	0
 3200 15e5 04       		.uleb128 0x4
 3201 15e6 4546495F 		.ascii "EFI_OPEN_PROTOCOL_INFORMATION_ENTRY\0"
 3201      4F50454E 
 3201      5F50524F 
 3201      544F434F 
 3201      4C5F494E 
 3202 160a 09       		.byte	0x9
 3203 160b 0102     		.word	0x201
 3204 160d 03       		.byte	0x3
 3205 160e 81150000 		.long	0x1581
 3206 1612 04       		.uleb128 0x4
 3207 1613 4546495F 		.ascii "EFI_OPEN_PROTOCOL_INFORMATION\0"
 3207      4F50454E 
 3207      5F50524F 
 3207      544F434F 
 3207      4C5F494E 
 3208 1631 09       		.byte	0x9
 3209 1632 0502     		.word	0x205
 3210 1634 0A       		.byte	0xa
 3211 1635 39160000 		.long	0x1639
 3212 1639 02       		.uleb128 0x2
 3213 163a 3E160000 		.long	0x163e
 3214 163e 05       		.uleb128 0x5
 3215 163f 4C030000 		.long	0x34c
 3216 1643 5C160000 		.long	0x165c
 3217 1647 01       		.uleb128 0x1
 3218 1648 6F030000 		.long	0x36f
 3219 164c 01       		.uleb128 0x1
 3220 164d AE0C0000 		.long	0xcae
 3221 1651 01       		.uleb128 0x1
 3222 1652 5C160000 		.long	0x165c
 3223 1656 01       		.uleb128 0x1
 3224 1657 26090000 		.long	0x926
 3225 165b 00       		.byte	0
 3226 165c 02       		.uleb128 0x2
 3227 165d 61160000 		.long	0x1661
 3228 1661 02       		.uleb128 0x2
 3229 1662 E5150000 		.long	0x15e5
 3230 1666 04       		.uleb128 0x4
 3231 1667 4546495F 		.ascii "EFI_PROTOCOLS_PER_HANDLE\0"
 3231      50524F54 
 3231      4F434F4C 
 3231      535F5045 
 3231      525F4841 
 3232 1680 09       		.byte	0x9
 3233 1681 0E02     		.word	0x20e
 3234 1683 0A       		.byte	0xa
 3235 1684 88160000 		.long	0x1688
 3236 1688 02       		.uleb128 0x2
 3237 1689 8D160000 		.long	0x168d
 3238 168d 05       		.uleb128 0x5
 3239 168e 4C030000 		.long	0x34c
 3240 1692 A6160000 		.long	0x16a6
 3241 1696 01       		.uleb128 0x1
 3242 1697 6F030000 		.long	0x36f
 3243 169b 01       		.uleb128 0x1
 3244 169c A6160000 		.long	0x16a6
 3245 16a0 01       		.uleb128 0x1
 3246 16a1 26090000 		.long	0x926
 3247 16a5 00       		.byte	0
 3248 16a6 02       		.uleb128 0x2
 3249 16a7 AB160000 		.long	0x16ab
 3250 16ab 02       		.uleb128 0x2
 3251 16ac AE0C0000 		.long	0xcae
 3252 16b0 2B       		.uleb128 0x2b
 3253 16b1 DF010000 		.long	0x1df
 3254 16b5 1402     		.word	0x214
 3255 16b7 E9160000 		.long	0x16e9
 3256 16bb 08       		.uleb128 0x8
 3257 16bc 416C6C48 		.ascii "AllHandles\0"
 3257      616E646C 
 3257      657300
 3258 16c7 00       		.byte	0
 3259 16c8 08       		.uleb128 0x8
 3260 16c9 42795265 		.ascii "ByRegisterNotify\0"
 3260      67697374 
 3260      65724E6F 
 3260      74696679 
 3260      00
 3261 16da 01       		.byte	0x1
 3262 16db 08       		.uleb128 0x8
 3263 16dc 42795072 		.ascii "ByProtocol\0"
 3263      6F746F63 
 3263      6F6C00
 3264 16e7 02       		.byte	0x2
 3265 16e8 00       		.byte	0
 3266 16e9 04       		.uleb128 0x4
 3267 16ea 4546495F 		.ascii "EFI_LOCATE_SEARCH_TYPE\0"
 3267      4C4F4341 
 3267      54455F53 
 3267      45415243 
 3267      485F5459 
 3268 1701 09       		.byte	0x9
 3269 1702 1802     		.word	0x218
 3270 1704 03       		.byte	0x3
 3271 1705 B0160000 		.long	0x16b0
 3272 1709 04       		.uleb128 0x4
 3273 170a 4546495F 		.ascii "EFI_LOCATE_HANDLE_BUFFER\0"
 3273      4C4F4341 
 3273      54455F48 
 3273      414E444C 
 3273      455F4255 
 3274 1723 09       		.byte	0x9
 3275 1724 1C02     		.word	0x21c
 3276 1726 0A       		.byte	0xa
 3277 1727 2B170000 		.long	0x172b
 3278 172b 02       		.uleb128 0x2
 3279 172c 30170000 		.long	0x1730
 3280 1730 05       		.uleb128 0x5
 3281 1731 4C030000 		.long	0x34c
 3282 1735 53170000 		.long	0x1753
 3283 1739 01       		.uleb128 0x1
 3284 173a E9160000 		.long	0x16e9
 3285 173e 01       		.uleb128 0x1
 3286 173f AE0C0000 		.long	0xcae
 3287 1743 01       		.uleb128 0x1
 3288 1744 82030000 		.long	0x382
 3289 1748 01       		.uleb128 0x1
 3290 1749 26090000 		.long	0x926
 3291 174d 01       		.uleb128 0x1
 3292 174e 53170000 		.long	0x1753
 3293 1752 00       		.byte	0
 3294 1753 02       		.uleb128 0x2
 3295 1754 DC0F0000 		.long	0xfdc
 3296 1758 04       		.uleb128 0x4
 3297 1759 4546495F 		.ascii "EFI_LOCATE_PROTOCOL\0"
 3297      4C4F4341 
 3297      54455F50 
 3297      524F544F 
 3297      434F4C00 
 3298 176d 09       		.byte	0x9
 3299 176e 2602     		.word	0x226
 3300 1770 0A       		.byte	0xa
 3301 1771 75170000 		.long	0x1775
 3302 1775 02       		.uleb128 0x2
 3303 1776 7A170000 		.long	0x177a
 3304 177a 05       		.uleb128 0x5
 3305 177b 4C030000 		.long	0x34c
 3306 177f 93170000 		.long	0x1793
 3307 1783 01       		.uleb128 0x1
 3308 1784 AE0C0000 		.long	0xcae
 3309 1788 01       		.uleb128 0x1
 3310 1789 82030000 		.long	0x382
 3311 178d 01       		.uleb128 0x1
 3312 178e 30090000 		.long	0x930
 3313 1792 00       		.byte	0
 3314 1793 04       		.uleb128 0x4
 3315 1794 4546495F 		.ascii "EFI_INSTALL_MULTIPLE_PROTOCOL_INTERFACES\0"
 3315      494E5354 
 3315      414C4C5F 
 3315      4D554C54 
 3315      49504C45 
 3316 17bd 09       		.byte	0x9
 3317 17be 2E02     		.word	0x22e
 3318 17c0 0A       		.byte	0xa
 3319 17c1 C5170000 		.long	0x17c5
 3320 17c5 02       		.uleb128 0x2
 3321 17c6 CA170000 		.long	0x17ca
 3322 17ca 05       		.uleb128 0x5
 3323 17cb 4C030000 		.long	0x34c
 3324 17cf DA170000 		.long	0x17da
 3325 17d3 01       		.uleb128 0x1
 3326 17d4 DC0F0000 		.long	0xfdc
 3327 17d8 14       		.uleb128 0x14
 3328 17d9 00       		.byte	0
 3329 17da 04       		.uleb128 0x4
 3330 17db 4546495F 		.ascii "EFI_UNINSTALL_MULTIPLE_PROTOCOL_INTERFACES\0"
 3330      554E494E 
 3330      5354414C 
 3330      4C5F4D55 
 3330      4C544950 
 3331 1806 09       		.byte	0x9
 3332 1807 3502     		.word	0x235
 3333 1809 0A       		.byte	0xa
 3334 180a 0E180000 		.long	0x180e
 3335 180e 02       		.uleb128 0x2
 3336 180f 13180000 		.long	0x1813
 3337 1813 05       		.uleb128 0x5
 3338 1814 4C030000 		.long	0x34c
 3339 1818 23180000 		.long	0x1823
 3340 181c 01       		.uleb128 0x1
 3341 181d 6F030000 		.long	0x36f
 3342 1821 14       		.uleb128 0x14
 3343 1822 00       		.byte	0
 3344 1823 04       		.uleb128 0x4
 3345 1824 4546495F 		.ascii "EFI_CALCULATE_CRC32\0"
 3345      43414C43 
 3345      554C4154 
 3345      455F4352 
 3345      43333200 
 3346 1838 09       		.byte	0x9
 3347 1839 3C02     		.word	0x23c
 3348 183b 0A       		.byte	0xa
 3349 183c 40180000 		.long	0x1840
 3350 1840 02       		.uleb128 0x2
 3351 1841 45180000 		.long	0x1845
 3352 1845 05       		.uleb128 0x5
 3353 1846 4C030000 		.long	0x34c
 3354 184a 5E180000 		.long	0x185e
 3355 184e 01       		.uleb128 0x1
 3356 184f 82030000 		.long	0x382
 3357 1853 01       		.uleb128 0x1
 3358 1854 25030000 		.long	0x325
 3359 1858 01       		.uleb128 0x1
 3360 1859 E10F0000 		.long	0xfe1
 3361 185d 00       		.byte	0
 3362 185e 04       		.uleb128 0x4
 3363 185f 4546495F 		.ascii "EFI_COPY_MEM\0"
 3363      434F5059 
 3363      5F4D454D 
 3363      00
 3364 186c 09       		.byte	0x9
 3365 186d 4402     		.word	0x244
 3366 186f 0A       		.byte	0xa
 3367 1870 74180000 		.long	0x1874
 3368 1874 02       		.uleb128 0x2
 3369 1875 79180000 		.long	0x1879
 3370 1879 1D       		.uleb128 0x1d
 3371 187a 8E180000 		.long	0x188e
 3372 187e 01       		.uleb128 0x1
 3373 187f 82030000 		.long	0x382
 3374 1883 01       		.uleb128 0x1
 3375 1884 82030000 		.long	0x382
 3376 1888 01       		.uleb128 0x1
 3377 1889 25030000 		.long	0x325
 3378 188d 00       		.byte	0
 3379 188e 04       		.uleb128 0x4
 3380 188f 4546495F 		.ascii "EFI_SET_MEM\0"
 3380      5345545F 
 3380      4D454D00 
 3381 189b 09       		.byte	0x9
 3382 189c 4C02     		.word	0x24c
 3383 189e 0A       		.byte	0xa
 3384 189f A3180000 		.long	0x18a3
 3385 18a3 02       		.uleb128 0x2
 3386 18a4 A8180000 		.long	0x18a8
 3387 18a8 1D       		.uleb128 0x1d
 3388 18a9 BD180000 		.long	0x18bd
 3389 18ad 01       		.uleb128 0x1
 3390 18ae 82030000 		.long	0x382
 3391 18b2 01       		.uleb128 0x1
 3392 18b3 25030000 		.long	0x325
 3393 18b7 01       		.uleb128 0x1
 3394 18b8 FC020000 		.long	0x2fc
 3395 18bc 00       		.byte	0
 3396 18bd 04       		.uleb128 0x4
 3397 18be 4546495F 		.ascii "EFI_CREATE_EVENT_EX\0"
 3397      43524541 
 3397      54455F45 
 3397      56454E54 
 3397      5F455800 
 3398 18d2 09       		.byte	0x9
 3399 18d3 5502     		.word	0x255
 3400 18d5 0A       		.byte	0xa
 3401 18d6 DA180000 		.long	0x18da
 3402 18da 02       		.uleb128 0x2
 3403 18db DF180000 		.long	0x18df
 3404 18df 05       		.uleb128 0x5
 3405 18e0 4C030000 		.long	0x34c
 3406 18e4 07190000 		.long	0x1907
 3407 18e8 01       		.uleb128 0x1
 3408 18e9 D0020000 		.long	0x2d0
 3409 18ed 01       		.uleb128 0x1
 3410 18ee 5F030000 		.long	0x35f
 3411 18f2 01       		.uleb128 0x1
 3412 18f3 31110000 		.long	0x1131
 3413 18f7 01       		.uleb128 0x1
 3414 18f8 07190000 		.long	0x1907
 3415 18fc 01       		.uleb128 0x1
 3416 18fd D70F0000 		.long	0xfd7
 3417 1901 01       		.uleb128 0x1
 3418 1902 A0110000 		.long	0x11a0
 3419 1906 00       		.byte	0
 3420 1907 02       		.uleb128 0x2
 3421 1908 13030000 		.long	0x313
 3422 190c 04       		.uleb128 0x4
 3423 190d 4546495F 		.ascii "EFI_GET_NEXT_MONOTONIC_COUNT\0"
 3423      4745545F 
 3423      4E455854 
 3423      5F4D4F4E 
 3423      4F544F4E 
 3424 192a 09       		.byte	0x9
 3425 192b 6F02     		.word	0x26f
 3426 192d 0A       		.byte	0xa
 3427 192e 32190000 		.long	0x1932
 3428 1932 02       		.uleb128 0x2
 3429 1933 37190000 		.long	0x1937
 3430 1937 05       		.uleb128 0x5
 3431 1938 4C030000 		.long	0x34c
 3432 193c 46190000 		.long	0x1946
 3433 1940 01       		.uleb128 0x1
 3434 1941 2B090000 		.long	0x92b
 3435 1945 00       		.byte	0
 3436 1946 2B       		.uleb128 0x2b
 3437 1947 DF010000 		.long	0x1df
 3438 194b AA02     		.word	0x2aa
 3439 194d 7F190000 		.long	0x197f
 3440 1951 08       		.uleb128 0x8
 3441 1952 4546495F 		.ascii "EFI_NATIVE_INTERFACE\0"
 3441      4E415449 
 3441      56455F49 
 3441      4E544552 
 3441      46414345 
 3442 1967 00       		.byte	0
 3443 1968 08       		.uleb128 0x8
 3444 1969 4546495F 		.ascii "EFI_PCODE_INTERFACE\0"
 3444      50434F44 
 3444      455F494E 
 3444      54455246 
 3444      41434500 
 3445 197d 01       		.byte	0x1
 3446 197e 00       		.byte	0
 3447 197f 04       		.uleb128 0x4
 3448 1980 4546495F 		.ascii "EFI_INTERFACE_TYPE\0"
 3448      494E5445 
 3448      52464143 
 3448      455F5459 
 3448      504500
 3449 1993 09       		.byte	0x9
 3450 1994 AD02     		.word	0x2ad
 3451 1996 03       		.byte	0x3
 3452 1997 46190000 		.long	0x1946
 3453 199b 04       		.uleb128 0x4
 3454 199c 4546495F 		.ascii "EFI_INSTALL_PROTOCOL_INTERFACE\0"
 3454      494E5354 
 3454      414C4C5F 
 3454      50524F54 
 3454      4F434F4C 
 3455 19bb 09       		.byte	0x9
 3456 19bc B102     		.word	0x2b1
 3457 19be 0A       		.byte	0xa
 3458 19bf C3190000 		.long	0x19c3
 3459 19c3 02       		.uleb128 0x2
 3460 19c4 C8190000 		.long	0x19c8
 3461 19c8 05       		.uleb128 0x5
 3462 19c9 4C030000 		.long	0x34c
 3463 19cd E6190000 		.long	0x19e6
 3464 19d1 01       		.uleb128 0x1
 3465 19d2 DC0F0000 		.long	0xfdc
 3466 19d6 01       		.uleb128 0x1
 3467 19d7 AE0C0000 		.long	0xcae
 3468 19db 01       		.uleb128 0x1
 3469 19dc 7F190000 		.long	0x197f
 3470 19e0 01       		.uleb128 0x1
 3471 19e1 82030000 		.long	0x382
 3472 19e5 00       		.byte	0
 3473 19e6 04       		.uleb128 0x4
 3474 19e7 4546495F 		.ascii "EFI_REINSTALL_PROTOCOL_INTERFACE\0"
 3474      5245494E 
 3474      5354414C 
 3474      4C5F5052 
 3474      4F544F43 
 3475 1a08 09       		.byte	0x9
 3476 1a09 BA02     		.word	0x2ba
 3477 1a0b 0A       		.byte	0xa
 3478 1a0c 101A0000 		.long	0x1a10
 3479 1a10 02       		.uleb128 0x2
 3480 1a11 151A0000 		.long	0x1a15
 3481 1a15 05       		.uleb128 0x5
 3482 1a16 4C030000 		.long	0x34c
 3483 1a1a 331A0000 		.long	0x1a33
 3484 1a1e 01       		.uleb128 0x1
 3485 1a1f 6F030000 		.long	0x36f
 3486 1a23 01       		.uleb128 0x1
 3487 1a24 AE0C0000 		.long	0xcae
 3488 1a28 01       		.uleb128 0x1
 3489 1a29 82030000 		.long	0x382
 3490 1a2d 01       		.uleb128 0x1
 3491 1a2e 82030000 		.long	0x382
 3492 1a32 00       		.byte	0
 3493 1a33 04       		.uleb128 0x4
 3494 1a34 4546495F 		.ascii "EFI_UNINSTALL_PROTOCOL_INTERFACE\0"
 3494      554E494E 
 3494      5354414C 
 3494      4C5F5052 
 3494      4F544F43 
 3495 1a55 09       		.byte	0x9
 3496 1a56 C302     		.word	0x2c3
 3497 1a58 0A       		.byte	0xa
 3498 1a59 5D1A0000 		.long	0x1a5d
 3499 1a5d 02       		.uleb128 0x2
 3500 1a5e 621A0000 		.long	0x1a62
 3501 1a62 05       		.uleb128 0x5
 3502 1a63 4C030000 		.long	0x34c
 3503 1a67 7B1A0000 		.long	0x1a7b
 3504 1a6b 01       		.uleb128 0x1
 3505 1a6c 6F030000 		.long	0x36f
 3506 1a70 01       		.uleb128 0x1
 3507 1a71 AE0C0000 		.long	0xcae
 3508 1a75 01       		.uleb128 0x1
 3509 1a76 82030000 		.long	0x382
 3510 1a7a 00       		.byte	0
 3511 1a7b 04       		.uleb128 0x4
 3512 1a7c 4546495F 		.ascii "EFI_HANDLE_PROTOCOL\0"
 3512      48414E44 
 3512      4C455F50 
 3512      524F544F 
 3512      434F4C00 
 3513 1a90 09       		.byte	0x9
 3514 1a91 CB02     		.word	0x2cb
 3515 1a93 0A       		.byte	0xa
 3516 1a94 981A0000 		.long	0x1a98
 3517 1a98 02       		.uleb128 0x2
 3518 1a99 9D1A0000 		.long	0x1a9d
 3519 1a9d 05       		.uleb128 0x5
 3520 1a9e 4C030000 		.long	0x34c
 3521 1aa2 B61A0000 		.long	0x1ab6
 3522 1aa6 01       		.uleb128 0x1
 3523 1aa7 6F030000 		.long	0x36f
 3524 1aab 01       		.uleb128 0x1
 3525 1aac AE0C0000 		.long	0xcae
 3526 1ab0 01       		.uleb128 0x1
 3527 1ab1 30090000 		.long	0x930
 3528 1ab5 00       		.byte	0
 3529 1ab6 04       		.uleb128 0x4
 3530 1ab7 4546495F 		.ascii "EFI_REGISTER_PROTOCOL_NOTIFY\0"
 3530      52454749 
 3530      53544552 
 3530      5F50524F 
 3530      544F434F 
 3531 1ad4 09       		.byte	0x9
 3532 1ad5 D302     		.word	0x2d3
 3533 1ad7 0A       		.byte	0xa
 3534 1ad8 DC1A0000 		.long	0x1adc
 3535 1adc 02       		.uleb128 0x2
 3536 1add E11A0000 		.long	0x1ae1
 3537 1ae1 05       		.uleb128 0x5
 3538 1ae2 4C030000 		.long	0x34c
 3539 1ae6 FA1A0000 		.long	0x1afa
 3540 1aea 01       		.uleb128 0x1
 3541 1aeb AE0C0000 		.long	0xcae
 3542 1aef 01       		.uleb128 0x1
 3543 1af0 87030000 		.long	0x387
 3544 1af4 01       		.uleb128 0x1
 3545 1af5 30090000 		.long	0x930
 3546 1af9 00       		.byte	0
 3547 1afa 04       		.uleb128 0x4
 3548 1afb 4546495F 		.ascii "EFI_LOCATE_HANDLE\0"
 3548      4C4F4341 
 3548      54455F48 
 3548      414E444C 
 3548      4500
 3549 1b0d 09       		.byte	0x9
 3550 1b0e DB02     		.word	0x2db
 3551 1b10 0A       		.byte	0xa
 3552 1b11 151B0000 		.long	0x1b15
 3553 1b15 02       		.uleb128 0x2
 3554 1b16 1A1B0000 		.long	0x1b1a
 3555 1b1a 05       		.uleb128 0x5
 3556 1b1b 4C030000 		.long	0x34c
 3557 1b1f 3D1B0000 		.long	0x1b3d
 3558 1b23 01       		.uleb128 0x1
 3559 1b24 E9160000 		.long	0x16e9
 3560 1b28 01       		.uleb128 0x1
 3561 1b29 AE0C0000 		.long	0xcae
 3562 1b2d 01       		.uleb128 0x1
 3563 1b2e 82030000 		.long	0x382
 3564 1b32 01       		.uleb128 0x1
 3565 1b33 26090000 		.long	0x926
 3566 1b37 01       		.uleb128 0x1
 3567 1b38 DC0F0000 		.long	0xfdc
 3568 1b3c 00       		.byte	0
 3569 1b3d 04       		.uleb128 0x4
 3570 1b3e 4546495F 		.ascii "EFI_LOCATE_DEVICE_PATH\0"
 3570      4C4F4341 
 3570      54455F44 
 3570      45564943 
 3570      455F5041 
 3571 1b55 09       		.byte	0x9
 3572 1b56 E502     		.word	0x2e5
 3573 1b58 0A       		.byte	0xa
 3574 1b59 5D1B0000 		.long	0x1b5d
 3575 1b5d 02       		.uleb128 0x2
 3576 1b5e 621B0000 		.long	0x1b62
 3577 1b62 05       		.uleb128 0x5
 3578 1b63 4C030000 		.long	0x34c
 3579 1b67 7B1B0000 		.long	0x1b7b
 3580 1b6b 01       		.uleb128 0x1
 3581 1b6c AE0C0000 		.long	0xcae
 3582 1b70 01       		.uleb128 0x1
 3583 1b71 D20F0000 		.long	0xfd2
 3584 1b75 01       		.uleb128 0x1
 3585 1b76 DC0F0000 		.long	0xfdc
 3586 1b7a 00       		.byte	0
 3587 1b7b 04       		.uleb128 0x4
 3588 1b7c 4546495F 		.ascii "EFI_INSTALL_CONFIGURATION_TABLE\0"
 3588      494E5354 
 3588      414C4C5F 
 3588      434F4E46 
 3588      49475552 
 3589 1b9c 09       		.byte	0x9
 3590 1b9d ED02     		.word	0x2ed
 3591 1b9f 0A       		.byte	0xa
 3592 1ba0 A41B0000 		.long	0x1ba4
 3593 1ba4 02       		.uleb128 0x2
 3594 1ba5 A91B0000 		.long	0x1ba9
 3595 1ba9 05       		.uleb128 0x5
 3596 1baa 4C030000 		.long	0x34c
 3597 1bae BD1B0000 		.long	0x1bbd
 3598 1bb2 01       		.uleb128 0x1
 3599 1bb3 AE0C0000 		.long	0xcae
 3600 1bb7 01       		.uleb128 0x1
 3601 1bb8 82030000 		.long	0x382
 3602 1bbc 00       		.byte	0
 3603 1bbd 1C       		.uleb128 0x1c
 3604 1bbe 5F454649 		.ascii "_EFI_TABLE_HEADER\0"
 3604      5F544142 
 3604      4C455F48 
 3604      45414445 
 3604      5200
 3605 1bd0 18       		.byte	0x18
 3606 1bd1 09       		.byte	0x9
 3607 1bd2 FB02     		.word	0x2fb
 3608 1bd4 2D1C0000 		.long	0x1c2d
 3609 1bd8 0B       		.uleb128 0xb
 3610 1bd9 0D000000 		.secrel32	.LASF3
 3611 1bdd 09       		.byte	0x9
 3612 1bde FC02     		.word	0x2fc
 3613 1be0 21       		.byte	0x21
 3614 1be1 C1020000 		.long	0x2c1
 3615 1be5 00       		.byte	0
 3616 1be6 0B       		.uleb128 0xb
 3617 1be7 7E000000 		.secrel32	.LASF5
 3618 1beb 09       		.byte	0x9
 3619 1bec FD02     		.word	0x2fd
 3620 1bee 21       		.byte	0x21
 3621 1bef D0020000 		.long	0x2d0
 3622 1bf3 08       		.byte	0x8
 3623 1bf4 03       		.uleb128 0x3
 3624 1bf5 48656164 		.ascii "HeaderSize\0"
 3624      65725369 
 3624      7A6500
 3625 1c00 09       		.byte	0x9
 3626 1c01 FE02     		.word	0x2fe
 3627 1c03 21       		.byte	0x21
 3628 1c04 D0020000 		.long	0x2d0
 3629 1c08 0C       		.byte	0xc
 3630 1c09 03       		.uleb128 0x3
 3631 1c0a 43524333 		.ascii "CRC32\0"
 3631      3200
 3632 1c10 09       		.byte	0x9
 3633 1c11 FF02     		.word	0x2ff
 3634 1c13 21       		.byte	0x21
 3635 1c14 D0020000 		.long	0x2d0
 3636 1c18 10       		.byte	0x10
 3637 1c19 03       		.uleb128 0x3
 3638 1c1a 52657365 		.ascii "Reserved\0"
 3638      72766564 
 3638      00
 3639 1c23 09       		.byte	0x9
 3640 1c24 0003     		.word	0x300
 3641 1c26 21       		.byte	0x21
 3642 1c27 D0020000 		.long	0x2d0
 3643 1c2b 14       		.byte	0x14
 3644 1c2c 00       		.byte	0
 3645 1c2d 04       		.uleb128 0x4
 3646 1c2e 4546495F 		.ascii "EFI_TABLE_HEADER\0"
 3646      5441424C 
 3646      455F4845 
 3646      41444552 
 3646      00
 3647 1c3f 09       		.byte	0x9
 3648 1c40 0103     		.word	0x301
 3649 1c42 03       		.byte	0x3
 3650 1c43 BD1B0000 		.long	0x1bbd
 3651 1c47 35       		.uleb128 0x35
 3652 1c48 5F454649 		.ascii "_EFI_BOOT_SERVICES\0"
 3652      5F424F4F 
 3652      545F5345 
 3652      52564943 
 3652      455300
 3653 1c5b 7801     		.word	0x178
 3654 1c5d 09       		.byte	0x9
 3655 1c5e 5603     		.word	0x356
 3656 1c60 10       		.byte	0x10
 3657 1c61 D4200000 		.long	0x20d4
 3658 1c65 03       		.uleb128 0x3
 3659 1c66 48647200 		.ascii "Hdr\0"
 3660 1c6a 09       		.byte	0x9
 3661 1c6b 5803     		.word	0x358
 3662 1c6d 25       		.byte	0x25
 3663 1c6e 2D1C0000 		.long	0x1c2d
 3664 1c72 00       		.byte	0
 3665 1c73 03       		.uleb128 0x3
 3666 1c74 52616973 		.ascii "RaiseTPL\0"
 3666      6554504C 
 3666      00
 3667 1c7d 09       		.byte	0x9
 3668 1c7e 5E03     		.word	0x35e
 3669 1c80 25       		.byte	0x25
 3670 1c81 D0120000 		.long	0x12d0
 3671 1c85 18       		.byte	0x18
 3672 1c86 03       		.uleb128 0x3
 3673 1c87 52657374 		.ascii "RestoreTPL\0"
 3673      6F726554 
 3673      504C00
 3674 1c92 09       		.byte	0x9
 3675 1c93 5F03     		.word	0x35f
 3676 1c95 25       		.byte	0x25
 3677 1c96 FA120000 		.long	0x12fa
 3678 1c9a 20       		.byte	0x20
 3679 1c9b 03       		.uleb128 0x3
 3680 1c9c 416C6C6F 		.ascii "AllocatePages\0"
 3680      63617465 
 3680      50616765 
 3680      7300
 3681 1caa 09       		.byte	0x9
 3682 1cab 6503     		.word	0x365
 3683 1cad 25       		.byte	0x25
 3684 1cae 19100000 		.long	0x1019
 3685 1cb2 28       		.byte	0x28
 3686 1cb3 03       		.uleb128 0x3
 3687 1cb4 46726565 		.ascii "FreePages\0"
 3687      50616765 
 3687      7300
 3688 1cbe 09       		.byte	0x9
 3689 1cbf 6603     		.word	0x366
 3690 1cc1 25       		.byte	0x25
 3691 1cc2 57100000 		.long	0x1057
 3692 1cc6 30       		.byte	0x30
 3693 1cc7 03       		.uleb128 0x3
 3694 1cc8 4765744D 		.ascii "GetMemoryMap\0"
 3694      656D6F72 
 3694      794D6170 
 3694      00
 3695 1cd5 09       		.byte	0x9
 3696 1cd6 6703     		.word	0x367
 3697 1cd8 25       		.byte	0x25
 3698 1cd9 87100000 		.long	0x1087
 3699 1cdd 38       		.byte	0x38
 3700 1cde 0B       		.uleb128 0xb
 3701 1cdf 4B000000 		.secrel32	.LASF10
 3702 1ce3 09       		.byte	0x9
 3703 1ce4 6803     		.word	0x368
 3704 1ce6 25       		.byte	0x25
 3705 1ce7 CF100000 		.long	0x10cf
 3706 1ceb 40       		.byte	0x40
 3707 1cec 0B       		.uleb128 0xb
 3708 1ced 2F000000 		.secrel32	.LASF11
 3709 1cf1 09       		.byte	0x9
 3710 1cf2 6903     		.word	0x369
 3711 1cf4 25       		.byte	0x25
 3712 1cf5 07110000 		.long	0x1107
 3713 1cf9 48       		.byte	0x48
 3714 1cfa 03       		.uleb128 0x3
 3715 1cfb 43726561 		.ascii "CreateEvent\0"
 3715      74654576 
 3715      656E7400 
 3716 1d07 09       		.byte	0x9
 3717 1d08 6F03     		.word	0x36f
 3718 1d0a 25       		.byte	0x25
 3719 1d0b 5F110000 		.long	0x115f
 3720 1d0f 50       		.byte	0x50
 3721 1d10 03       		.uleb128 0x3
 3722 1d11 53657454 		.ascii "SetTimer\0"
 3722      696D6572 
 3722      00
 3723 1d1a 09       		.byte	0x9
 3724 1d1b 7003     		.word	0x370
 3725 1d1d 25       		.byte	0x25
 3726 1d1e 06120000 		.long	0x1206
 3727 1d22 58       		.byte	0x58
 3728 1d23 03       		.uleb128 0x3
 3729 1d24 57616974 		.ascii "WaitForEvent\0"
 3729      466F7245 
 3729      76656E74 
 3729      00
 3730 1d31 09       		.byte	0x9
 3731 1d32 7103     		.word	0x371
 3732 1d34 25       		.byte	0x25
 3733 1d35 67120000 		.long	0x1267
 3734 1d39 60       		.byte	0x60
 3735 1d3a 03       		.uleb128 0x3
 3736 1d3b 5369676E 		.ascii "SignalEvent\0"
 3736      616C4576 
 3736      656E7400 
 3737 1d47 09       		.byte	0x9
 3738 1d48 7203     		.word	0x372
 3739 1d4a 25       		.byte	0x25
 3740 1d4b 3A120000 		.long	0x123a
 3741 1d4f 68       		.byte	0x68
 3742 1d50 03       		.uleb128 0x3
 3743 1d51 436C6F73 		.ascii "CloseEvent\0"
 3743      65457665 
 3743      6E7400
 3744 1d5c 09       		.byte	0x9
 3745 1d5d 7303     		.word	0x373
 3746 1d5f 25       		.byte	0x25
 3747 1d60 A0120000 		.long	0x12a0
 3748 1d64 70       		.byte	0x70
 3749 1d65 03       		.uleb128 0x3
 3750 1d66 43686563 		.ascii "CheckEvent\0"
 3750      6B457665 
 3750      6E7400
 3751 1d71 09       		.byte	0x9
 3752 1d72 7403     		.word	0x374
 3753 1d74 25       		.byte	0x25
 3754 1d75 B8120000 		.long	0x12b8
 3755 1d79 78       		.byte	0x78
 3756 1d7a 03       		.uleb128 0x3
 3757 1d7b 496E7374 		.ascii "InstallProtocolInterface\0"
 3757      616C6C50 
 3757      726F746F 
 3757      636F6C49 
 3757      6E746572 
 3758 1d94 09       		.byte	0x9
 3759 1d95 7A03     		.word	0x37a
 3760 1d97 25       		.byte	0x25
 3761 1d98 9B190000 		.long	0x199b
 3762 1d9c 80       		.byte	0x80
 3763 1d9d 03       		.uleb128 0x3
 3764 1d9e 5265696E 		.ascii "ReinstallProtocolInterface\0"
 3764      7374616C 
 3764      6C50726F 
 3764      746F636F 
 3764      6C496E74 
 3765 1db9 09       		.byte	0x9
 3766 1dba 7B03     		.word	0x37b
 3767 1dbc 26       		.byte	0x26
 3768 1dbd E6190000 		.long	0x19e6
 3769 1dc1 88       		.byte	0x88
 3770 1dc2 03       		.uleb128 0x3
 3771 1dc3 556E696E 		.ascii "UninstallProtocolInterface\0"
 3771      7374616C 
 3771      6C50726F 
 3771      746F636F 
 3771      6C496E74 
 3772 1dde 09       		.byte	0x9
 3773 1ddf 7C03     		.word	0x37c
 3774 1de1 26       		.byte	0x26
 3775 1de2 331A0000 		.long	0x1a33
 3776 1de6 90       		.byte	0x90
 3777 1de7 03       		.uleb128 0x3
 3778 1de8 48616E64 		.ascii "HandleProtocol\0"
 3778      6C655072 
 3778      6F746F63 
 3778      6F6C00
 3779 1df7 09       		.byte	0x9
 3780 1df8 7D03     		.word	0x37d
 3781 1dfa 25       		.byte	0x25
 3782 1dfb 7B1A0000 		.long	0x1a7b
 3783 1dff 98       		.byte	0x98
 3784 1e00 03       		.uleb128 0x3
 3785 1e01 50434861 		.ascii "PCHandleProtocol\0"
 3785      6E646C65 
 3785      50726F74 
 3785      6F636F6C 
 3785      00
 3786 1e12 09       		.byte	0x9
 3787 1e13 7E03     		.word	0x37e
 3788 1e15 25       		.byte	0x25
 3789 1e16 7B1A0000 		.long	0x1a7b
 3790 1e1a A0       		.byte	0xa0
 3791 1e1b 03       		.uleb128 0x3
 3792 1e1c 52656769 		.ascii "RegisterProtocolNotify\0"
 3792      73746572 
 3792      50726F74 
 3792      6F636F6C 
 3792      4E6F7469 
 3793 1e33 09       		.byte	0x9
 3794 1e34 7F03     		.word	0x37f
 3795 1e36 25       		.byte	0x25
 3796 1e37 B61A0000 		.long	0x1ab6
 3797 1e3b A8       		.byte	0xa8
 3798 1e3c 03       		.uleb128 0x3
 3799 1e3d 4C6F6361 		.ascii "LocateHandle\0"
 3799      74654861 
 3799      6E646C65 
 3799      00
 3800 1e4a 09       		.byte	0x9
 3801 1e4b 8003     		.word	0x380
 3802 1e4d 25       		.byte	0x25
 3803 1e4e FA1A0000 		.long	0x1afa
 3804 1e52 B0       		.byte	0xb0
 3805 1e53 03       		.uleb128 0x3
 3806 1e54 4C6F6361 		.ascii "LocateDevicePath\0"
 3806      74654465 
 3806      76696365 
 3806      50617468 
 3806      00
 3807 1e65 09       		.byte	0x9
 3808 1e66 8103     		.word	0x381
 3809 1e68 25       		.byte	0x25
 3810 1e69 3D1B0000 		.long	0x1b3d
 3811 1e6d B8       		.byte	0xb8
 3812 1e6e 03       		.uleb128 0x3
 3813 1e6f 496E7374 		.ascii "InstallConfigurationTable\0"
 3813      616C6C43 
 3813      6F6E6669 
 3813      67757261 
 3813      74696F6E 
 3814 1e89 09       		.byte	0x9
 3815 1e8a 8203     		.word	0x382
 3816 1e8c 25       		.byte	0x25
 3817 1e8d 7B1B0000 		.long	0x1b7b
 3818 1e91 C0       		.byte	0xc0
 3819 1e92 03       		.uleb128 0x3
 3820 1e93 4C6F6164 		.ascii "LoadImage\0"
 3820      496D6167 
 3820      6500
 3821 1e9d 09       		.byte	0x9
 3822 1e9e 8803     		.word	0x388
 3823 1ea0 25       		.byte	0x25
 3824 1ea1 22130000 		.long	0x1322
 3825 1ea5 C8       		.byte	0xc8
 3826 1ea6 03       		.uleb128 0x3
 3827 1ea7 53746172 		.ascii "StartImage\0"
 3827      74496D61 
 3827      676500
 3828 1eb2 09       		.byte	0x9
 3829 1eb3 8903     		.word	0x389
 3830 1eb5 25       		.byte	0x25
 3831 1eb6 67130000 		.long	0x1367
 3832 1eba D0       		.byte	0xd0
 3833 1ebb 03       		.uleb128 0x3
 3834 1ebc 45786974 		.ascii "Exit\0"
 3834      00
 3835 1ec1 09       		.byte	0x9
 3836 1ec2 8A03     		.word	0x38a
 3837 1ec4 25       		.byte	0x25
 3838 1ec5 9E130000 		.long	0x139e
 3839 1ec9 D8       		.byte	0xd8
 3840 1eca 03       		.uleb128 0x3
 3841 1ecb 556E6C6F 		.ascii "UnloadImage\0"
 3841      6164496D 
 3841      61676500 
 3842 1ed7 09       		.byte	0x9
 3843 1ed8 8B03     		.word	0x38b
 3844 1eda 25       		.byte	0x25
 3845 1edb EB0F0000 		.long	0xfeb
 3846 1edf E0       		.byte	0xe0
 3847 1ee0 03       		.uleb128 0x3
 3848 1ee1 45786974 		.ascii "ExitBootServices\0"
 3848      426F6F74 
 3848      53657276 
 3848      69636573 
 3848      00
 3849 1ef2 09       		.byte	0x9
 3850 1ef3 8C03     		.word	0x38c
 3851 1ef5 25       		.byte	0x25
 3852 1ef6 D3130000 		.long	0x13d3
 3853 1efa E8       		.byte	0xe8
 3854 1efb 03       		.uleb128 0x3
 3855 1efc 4765744E 		.ascii "GetNextMonotonicCount\0"
 3855      6578744D 
 3855      6F6E6F74 
 3855      6F6E6963 
 3855      436F756E 
 3856 1f12 09       		.byte	0x9
 3857 1f13 9203     		.word	0x392
 3858 1f15 25       		.byte	0x25
 3859 1f16 0C190000 		.long	0x190c
 3860 1f1a F0       		.byte	0xf0
 3861 1f1b 03       		.uleb128 0x3
 3862 1f1c 5374616C 		.ascii "Stall\0"
 3862      6C00
 3863 1f22 09       		.byte	0x9
 3864 1f23 9303     		.word	0x393
 3865 1f25 25       		.byte	0x25
 3866 1f26 0C140000 		.long	0x140c
 3867 1f2a F8       		.byte	0xf8
 3868 1f2b 0A       		.uleb128 0xa
 3869 1f2c 53657457 		.ascii "SetWatchdogTimer\0"
 3869      61746368 
 3869      646F6754 
 3869      696D6572 
 3869      00
 3870 1f3d 9403     		.word	0x394
 3871 1f3f 25       		.byte	0x25
 3872 1f40 33140000 		.long	0x1433
 3873 1f44 0001     		.word	0x100
 3874 1f46 0A       		.uleb128 0xa
 3875 1f47 436F6E6E 		.ascii "ConnectController\0"
 3875      65637443 
 3875      6F6E7472 
 3875      6F6C6C65 
 3875      7200
 3876 1f59 9A03     		.word	0x39a
 3877 1f5b 25       		.byte	0x25
 3878 1f5c 76140000 		.long	0x1476
 3879 1f60 0801     		.word	0x108
 3880 1f62 0A       		.uleb128 0xa
 3881 1f63 44697363 		.ascii "DisconnectController\0"
 3881      6F6E6E65 
 3881      6374436F 
 3881      6E74726F 
 3881      6C6C6572 
 3882 1f78 9B03     		.word	0x39b
 3883 1f7a 25       		.byte	0x25
 3884 1f7b B9140000 		.long	0x14b9
 3885 1f7f 1001     		.word	0x110
 3886 1f81 0A       		.uleb128 0xa
 3887 1f82 4F70656E 		.ascii "OpenProtocol\0"
 3887      50726F74 
 3887      6F636F6C 
 3887      00
 3888 1f8f A003     		.word	0x3a0
 3889 1f91 25       		.byte	0x25
 3890 1f92 FA140000 		.long	0x14fa
 3891 1f96 1801     		.word	0x118
 3892 1f98 0A       		.uleb128 0xa
 3893 1f99 436C6F73 		.ascii "CloseProtocol\0"
 3893      6550726F 
 3893      746F636F 
 3893      6C00
 3894 1fa7 A103     		.word	0x3a1
 3895 1fa9 25       		.byte	0x25
 3896 1faa 42150000 		.long	0x1542
 3897 1fae 2001     		.word	0x120
 3898 1fb0 0A       		.uleb128 0xa
 3899 1fb1 4F70656E 		.ascii "OpenProtocolInformation\0"
 3899      50726F74 
 3899      6F636F6C 
 3899      496E666F 
 3899      726D6174 
 3900 1fc9 A203     		.word	0x3a2
 3901 1fcb 25       		.byte	0x25
 3902 1fcc 12160000 		.long	0x1612
 3903 1fd0 2801     		.word	0x128
 3904 1fd2 0A       		.uleb128 0xa
 3905 1fd3 50726F74 		.ascii "ProtocolsPerHandle\0"
 3905      6F636F6C 
 3905      73506572 
 3905      48616E64 
 3905      6C6500
 3906 1fe6 A703     		.word	0x3a7
 3907 1fe8 25       		.byte	0x25
 3908 1fe9 66160000 		.long	0x1666
 3909 1fed 3001     		.word	0x130
 3910 1fef 0A       		.uleb128 0xa
 3911 1ff0 4C6F6361 		.ascii "LocateHandleBuffer\0"
 3911      74654861 
 3911      6E646C65 
 3911      42756666 
 3911      657200
 3912 2003 A803     		.word	0x3a8
 3913 2005 25       		.byte	0x25
 3914 2006 09170000 		.long	0x1709
 3915 200a 3801     		.word	0x138
 3916 200c 0A       		.uleb128 0xa
 3917 200d 4C6F6361 		.ascii "LocateProtocol\0"
 3917      74655072 
 3917      6F746F63 
 3917      6F6C00
 3918 201c A903     		.word	0x3a9
 3919 201e 25       		.byte	0x25
 3920 201f 58170000 		.long	0x1758
 3921 2023 4001     		.word	0x140
 3922 2025 0A       		.uleb128 0xa
 3923 2026 496E7374 		.ascii "InstallMultipleProtocolInterfaces\0"
 3923      616C6C4D 
 3923      756C7469 
 3923      706C6550 
 3923      726F746F 
 3924 2048 AA03     		.word	0x3aa
 3925 204a 2E       		.byte	0x2e
 3926 204b 93170000 		.long	0x1793
 3927 204f 4801     		.word	0x148
 3928 2051 0A       		.uleb128 0xa
 3929 2052 556E696E 		.ascii "UninstallMultipleProtocolInterfaces\0"
 3929      7374616C 
 3929      6C4D756C 
 3929      7469706C 
 3929      6550726F 
 3930 2076 AB03     		.word	0x3ab
 3931 2078 30       		.byte	0x30
 3932 2079 DA170000 		.long	0x17da
 3933 207d 5001     		.word	0x150
 3934 207f 0A       		.uleb128 0xa
 3935 2080 43616C63 		.ascii "CalculateCrc32\0"
 3935      756C6174 
 3935      65437263 
 3935      333200
 3936 208f B003     		.word	0x3b0
 3937 2091 25       		.byte	0x25
 3938 2092 23180000 		.long	0x1823
 3939 2096 5801     		.word	0x158
 3940 2098 0A       		.uleb128 0xa
 3941 2099 436F7079 		.ascii "CopyMem\0"
 3941      4D656D00 
 3942 20a1 B503     		.word	0x3b5
 3943 20a3 25       		.byte	0x25
 3944 20a4 5E180000 		.long	0x185e
 3945 20a8 6001     		.word	0x160
 3946 20aa 0A       		.uleb128 0xa
 3947 20ab 5365744D 		.ascii "SetMem\0"
 3947      656D00
 3948 20b2 B603     		.word	0x3b6
 3949 20b4 25       		.byte	0x25
 3950 20b5 8E180000 		.long	0x188e
 3951 20b9 6801     		.word	0x168
 3952 20bb 0A       		.uleb128 0xa
 3953 20bc 43726561 		.ascii "CreateEventEx\0"
 3953      74654576 
 3953      656E7445 
 3953      7800
 3954 20ca B703     		.word	0x3b7
 3955 20cc 25       		.byte	0x25
 3956 20cd BD180000 		.long	0x18bd
 3957 20d1 7001     		.word	0x170
 3958 20d3 00       		.byte	0
 3959 20d4 04       		.uleb128 0x4
 3960 20d5 4546495F 		.ascii "EFI_BOOT_SERVICES\0"
 3960      424F4F54 
 3960      5F534552 
 3960      56494345 
 3960      5300
 3961 20e7 09       		.byte	0x9
 3962 20e8 B803     		.word	0x3b8
 3963 20ea 03       		.byte	0x3
 3964 20eb 471C0000 		.long	0x1c47
 3965 20ef 02       		.uleb128 0x2
 3966 20f0 D4200000 		.long	0x20d4
 3967 20f4 02       		.uleb128 0x2
 3968 20f5 E30E0000 		.long	0xee3
 3969 20f9 02       		.uleb128 0x2
 3970 20fa 4C030000 		.long	0x34c
 3971 20fe 0F       		.uleb128 0xf
 3972 20ff 425300   		.ascii "BS\0"
 3973 2102 39       		.byte	0x39
 3974 2103 22       		.byte	0x22
 3975 2104 EF200000 		.long	0x20ef
 3976 2108 0F       		.uleb128 0xf
 3977 2109 67456669 		.ascii "gEfiDevicePathProtocolGuid\0"
 3977      44657669 
 3977      63655061 
 3977      74685072 
 3977      6F746F63 
 3978 2124 3E       		.byte	0x3e
 3979 2125 11       		.byte	0x11
 3980 2126 ED030000 		.long	0x3ed
 3981 212a 0F       		.uleb128 0xf
 3982 212b 67456669 		.ascii "gEfiBlockIoProtocolGuid\0"
 3982      426C6F63 
 3982      6B496F50 
 3982      726F746F 
 3982      636F6C47 
 3983 2143 54       		.byte	0x54
 3984 2144 11       		.byte	0x11
 3985 2145 ED030000 		.long	0x3ed
 3986 2149 0F       		.uleb128 0xf
 3987 214a 67456669 		.ascii "gEfiSimpleFileSystemProtocolGuid\0"
 3987      53696D70 
 3987      6C654669 
 3987      6C655379 
 3987      7374656D 
 3988 216b 5C       		.byte	0x5c
 3989 216c 11       		.byte	0x11
 3990 216d ED030000 		.long	0x3ed
 3991 2171 0F       		.uleb128 0xf
 3992 2172 67456669 		.ascii "gEfiFileInfoGuid\0"
 3992      46696C65 
 3992      496E666F 
 3992      47756964 
 3992      00
 3993 2183 8C       		.byte	0x8c
 3994 2184 11       		.byte	0x11
 3995 2185 ED030000 		.long	0x3ed
 3996 2189 0F       		.uleb128 0xf
 3997 218a 67456669 		.ascii "gEfiFileSystemInfoGuid\0"
 3997      46696C65 
 3997      53797374 
 3997      656D496E 
 3997      666F4775 
 3998 21a1 8E       		.byte	0x8e
 3999 21a2 11       		.byte	0x11
 4000 21a3 ED030000 		.long	0x3ed
 4001 21a7 0F       		.uleb128 0xf
 4002 21a8 67456669 		.ascii "gEfiFileSystemVolumeLabelInfoIdGuid\0"
 4002      46696C65 
 4002      53797374 
 4002      656D566F 
 4002      6C756D65 
 4003 21cc 90       		.byte	0x90
 4004 21cd 11       		.byte	0x11
 4005 21ce ED030000 		.long	0x3ed
 4006 21d2 36       		.uleb128 0x36
 4007 21d3 4B000000 		.secrel32	.LASF10
 4008 21d7 0A       		.byte	0xa
 4009 21d8 E901     		.word	0x1e9
 4010 21da 01       		.byte	0x1
 4011 21db 82030000 		.long	0x382
 4012 21df E9210000 		.long	0x21e9
 4013 21e3 01       		.uleb128 0x1
 4014 21e4 25030000 		.long	0x325
 4015 21e8 00       		.byte	0
 4016 21e9 2C       		.uleb128 0x2c
 4017 21ea 436F6D70 		.ascii "CompareGuid\0"
 4017      61726547 
 4017      75696400 
 4018 21f6 E301     		.word	0x1e3
 4019 21f8 18030000 		.long	0x318
 4020 21fc 0B220000 		.long	0x220b
 4021 2200 01       		.uleb128 0x1
 4022 2201 AE0C0000 		.long	0xcae
 4023 2205 01       		.uleb128 0x1
 4024 2206 AE0C0000 		.long	0xcae
 4025 220a 00       		.byte	0
 4026 220b 2C       		.uleb128 0x2c
 4027 220c 47726F77 		.ascii "GrowBuffer\0"
 4027      42756666 
 4027      657200
 4028 2217 A502     		.word	0x2a5
 4029 2219 33030000 		.long	0x333
 4030 221d 31220000 		.long	0x2231
 4031 2221 01       		.uleb128 0x1
 4032 2222 F9200000 		.long	0x20f9
 4033 2226 01       		.uleb128 0x1
 4034 2227 30090000 		.long	0x930
 4035 222b 01       		.uleb128 0x1
 4036 222c 25030000 		.long	0x325
 4037 2230 00       		.byte	0
 4038 2231 37       		.uleb128 0x37
 4039 2232 2F000000 		.secrel32	.LASF11
 4040 2236 0A       		.byte	0xa
 4041 2237 FA01     		.word	0x1fa
 4042 2239 01       		.byte	0x1
 4043 223a 44220000 		.long	0x2244
 4044 223e 01       		.uleb128 0x1
 4045 223f 82030000 		.long	0x382
 4046 2243 00       		.byte	0
 4047 2244 15       		.uleb128 0x15
 4048 2245 4C696252 		.ascii "LibReinstallProtocolInterfaces\0"
 4048      65696E73 
 4048      74616C6C 
 4048      50726F74 
 4048      6F636F6C 
 4049 2264 3202     		.word	0x232
 4050 2266 4C030000 		.long	0x34c
 4051 226a 58070000 		.quad	.LFB11
 4051      00000000 
 4052 2272 13010000 		.quad	.LFE11-.LFB11
 4052      00000000 
 4053 227a 01       		.uleb128 0x1
 4054 227b 9C       		.byte	0x9c
 4055 227c 61230000 		.long	0x2361
 4056 2280 27       		.uleb128 0x27
 4057 2281 77000000 		.secrel32	.LASF14
 4058 2285 3302     		.word	0x233
 4059 2287 22       		.byte	0x22
 4060 2288 DC0F0000 		.long	0xfdc
 4061 228c 14000000 		.secrel32	.LLST30
 4062 2290 0C000000 		.secrel32	.LVUS30
 4063 2294 14       		.uleb128 0x14
 4064 2295 16       		.uleb128 0x16
 4065 2296 61726773 		.ascii "args\0"
 4065      00
 4066 229b 3702     		.word	0x237
 4067 229d 15       		.byte	0x15
 4068 229e 62020000 		.long	0x262
 4069 22a2 02       		.uleb128 0x2
 4070 22a3 91       		.byte	0x91
 4071 22a4 48       		.sleb128 -56
 4072 22a5 17       		.uleb128 0x17
 4073 22a6 44000000 		.secrel32	.LASF6
 4074 22aa 3802     		.word	0x238
 4075 22ac 15       		.byte	0x15
 4076 22ad 4C030000 		.long	0x34c
 4077 22b1 42000000 		.secrel32	.LLST31
 4078 22b5 34000000 		.secrel32	.LVUS31
 4079 22b9 18       		.uleb128 0x18
 4080 22ba 87000000 		.secrel32	.LASF12
 4081 22be 3902     		.word	0x239
 4082 22c0 16       		.byte	0x16
 4083 22c1 AE0C0000 		.long	0xcae
 4084 22c5 2D       		.uleb128 0x2d
 4085 22c6 4F6C6449 		.ascii "OldInterface\0"
 4085      6E746572 
 4085      66616365 
 4085      00
 4086 22d3 16       		.byte	0x16
 4087 22d4 82030000 		.long	0x382
 4088 22d8 2D       		.uleb128 0x2d
 4089 22d9 4E657749 		.ascii "NewInterface\0"
 4089      6E746572 
 4089      66616365 
 4089      00
 4090 22e6 25       		.byte	0x25
 4091 22e7 82030000 		.long	0x382
 4092 22eb 28       		.uleb128 0x28
 4093 22ec 4F6C6454 		.ascii "OldTpl\0"
 4093      706C00
 4094 22f3 3B02     		.word	0x23b
 4095 22f5 5F030000 		.long	0x35f
 4096 22f9 7B000000 		.secrel32	.LLST32
 4097 22fd 75000000 		.secrel32	.LVUS32
 4098 2301 17       		.uleb128 0x17
 4099 2302 00000000 		.secrel32	.LASF13
 4100 2306 3C02     		.word	0x23c
 4101 2308 15       		.byte	0x15
 4102 2309 25030000 		.long	0x325
 4103 230d 99000000 		.secrel32	.LLST33
 4104 2311 91000000 		.secrel32	.LVUS33
 4105 2315 0D       		.uleb128 0xd
 4106 2316 84070000 		.quad	.LVL124
 4106      00000000 
 4107 231e 28230000 		.long	0x2328
 4108 2322 07       		.uleb128 0x7
 4109 2323 01       		.uleb128 0x1
 4110 2324 52       		.byte	0x52
 4111 2325 01       		.uleb128 0x1
 4112 2326 40       		.byte	0x40
 4113 2327 00       		.byte	0
 4114 2328 0D       		.uleb128 0xd
 4115 2329 EE070000 		.quad	.LVL129
 4115      00000000 
 4116 2331 3C230000 		.long	0x233c
 4117 2335 07       		.uleb128 0x7
 4118 2336 01       		.uleb128 0x1
 4119 2337 52       		.byte	0x52
 4120 2338 02       		.uleb128 0x2
 4121 2339 75       		.byte	0x75
 4122 233a 00       		.sleb128 0
 4123 233b 00       		.byte	0
 4124 233c 0D       		.uleb128 0xd
 4125 233d 0B080000 		.quad	.LVL132
 4125      00000000 
 4126 2345 50230000 		.long	0x2350
 4127 2349 07       		.uleb128 0x7
 4128 234a 01       		.uleb128 0x1
 4129 234b 52       		.byte	0x52
 4130 234c 02       		.uleb128 0x2
 4131 234d 76       		.byte	0x76
 4132 234e 00       		.sleb128 0
 4133 234f 00       		.byte	0
 4134 2350 1E       		.uleb128 0x1e
 4135 2351 65080000 		.quad	.LVL139
 4135      00000000 
 4136 2359 07       		.uleb128 0x7
 4137 235a 01       		.uleb128 0x1
 4138 235b 52       		.byte	0x52
 4139 235c 02       		.uleb128 0x2
 4140 235d 75       		.byte	0x75
 4141 235e 00       		.sleb128 0
 4142 235f 00       		.byte	0
 4143 2360 00       		.byte	0
 4144 2361 38       		.uleb128 0x38
 4145 2362 4C696255 		.ascii "LibUninstallProtocolInterfaces\0"
 4145      6E696E73 
 4145      74616C6C 
 4145      50726F74 
 4145      6F636F6C 
 4146 2381 01       		.byte	0x1
 4147 2382 0B02     		.word	0x20b
 4148 2384 01       		.byte	0x1
 4149 2385 F4060000 		.quad	.LFB10
 4149      00000000 
 4150 238d 64000000 		.quad	.LFE10-.LFB10
 4150      00000000 
 4151 2395 01       		.uleb128 0x1
 4152 2396 9C       		.byte	0x9c
 4153 2397 F7230000 		.long	0x23f7
 4154 239b 27       		.uleb128 0x27
 4155 239c 77000000 		.secrel32	.LASF14
 4156 23a0 0C02     		.word	0x20c
 4157 23a2 1D       		.byte	0x1d
 4158 23a3 6F030000 		.long	0x36f
 4159 23a7 BF000000 		.secrel32	.LLST29
 4160 23ab B9000000 		.secrel32	.LVUS29
 4161 23af 14       		.uleb128 0x14
 4162 23b0 16       		.uleb128 0x16
 4163 23b1 61726773 		.ascii "args\0"
 4163      00
 4164 23b6 1002     		.word	0x210
 4165 23b8 15       		.byte	0x15
 4166 23b9 62020000 		.long	0x262
 4167 23bd 02       		.uleb128 0x2
 4168 23be 91       		.byte	0x91
 4169 23bf 68       		.sleb128 -24
 4170 23c0 18       		.uleb128 0x18
 4171 23c1 44000000 		.secrel32	.LASF6
 4172 23c5 1102     		.word	0x211
 4173 23c7 15       		.byte	0x15
 4174 23c8 4C030000 		.long	0x34c
 4175 23cc 0E       		.uleb128 0xe
 4176 23cd 87000000 		.secrel32	.LASF12
 4177 23d1 1202     		.word	0x212
 4178 23d3 16       		.byte	0x16
 4179 23d4 AE0C0000 		.long	0xcae
 4180 23d8 01       		.uleb128 0x1
 4181 23d9 51       		.byte	0x51
 4182 23da 18       		.uleb128 0x18
 4183 23db 63000000 		.secrel32	.LASF15
 4184 23df 1302     		.word	0x213
 4185 23e1 16       		.byte	0x16
 4186 23e2 82030000 		.long	0x382
 4187 23e6 1E       		.uleb128 0x1e
 4188 23e7 50070000 		.quad	.LVL120
 4188      00000000 
 4189 23ef 07       		.uleb128 0x7
 4190 23f0 01       		.uleb128 0x1
 4191 23f1 52       		.byte	0x52
 4192 23f2 02       		.uleb128 0x2
 4193 23f3 73       		.byte	0x73
 4194 23f4 00       		.sleb128 0
 4195 23f5 00       		.byte	0
 4196 23f6 00       		.byte	0
 4197 23f7 39       		.uleb128 0x39
 4198 23f8 4C696249 		.ascii "LibInstallProtocolInterfaces\0"
 4198      6E737461 
 4198      6C6C5072 
 4198      6F746F63 
 4198      6F6C496E 
 4199 2415 01       		.byte	0x1
 4200 2416 B601     		.word	0x1b6
 4201 2418 01       		.byte	0x1
 4202 2419 4C030000 		.long	0x34c
 4203 241d E9050000 		.quad	.LFB9
 4203      00000000 
 4204 2425 0B010000 		.quad	.LFE9-.LFB9
 4204      00000000 
 4205 242d 01       		.uleb128 0x1
 4206 242e 9C       		.byte	0x9c
 4207 242f 04250000 		.long	0x2504
 4208 2433 27       		.uleb128 0x27
 4209 2434 77000000 		.secrel32	.LASF14
 4210 2438 B701     		.word	0x1b7
 4211 243a 22       		.byte	0x22
 4212 243b DC0F0000 		.long	0xfdc
 4213 243f E0000000 		.secrel32	.LLST24
 4214 2443 D8000000 		.secrel32	.LVUS24
 4215 2447 14       		.uleb128 0x14
 4216 2448 16       		.uleb128 0x16
 4217 2449 61726773 		.ascii "args\0"
 4217      00
 4218 244e BB01     		.word	0x1bb
 4219 2450 15       		.byte	0x15
 4220 2451 62020000 		.long	0x262
 4221 2455 02       		.uleb128 0x2
 4222 2456 91       		.byte	0x91
 4223 2457 48       		.sleb128 -56
 4224 2458 17       		.uleb128 0x17
 4225 2459 44000000 		.secrel32	.LASF6
 4226 245d BC01     		.word	0x1bc
 4227 245f 15       		.byte	0x15
 4228 2460 4C030000 		.long	0x34c
 4229 2464 0E010000 		.secrel32	.LLST25
 4230 2468 00010000 		.secrel32	.LVUS25
 4231 246c 18       		.uleb128 0x18
 4232 246d 87000000 		.secrel32	.LASF12
 4233 2471 BD01     		.word	0x1bd
 4234 2473 16       		.byte	0x16
 4235 2474 AE0C0000 		.long	0xcae
 4236 2478 18       		.uleb128 0x18
 4237 2479 63000000 		.secrel32	.LASF15
 4238 247d BE01     		.word	0x1be
 4239 247f 16       		.byte	0x16
 4240 2480 82030000 		.long	0x382
 4241 2484 28       		.uleb128 0x28
 4242 2485 4F6C6454 		.ascii "OldTpl\0"
 4242      706C00
 4243 248c BF01     		.word	0x1bf
 4244 248e 5F030000 		.long	0x35f
 4245 2492 47010000 		.secrel32	.LLST26
 4246 2496 41010000 		.secrel32	.LVUS26
 4247 249a 17       		.uleb128 0x17
 4248 249b 00000000 		.secrel32	.LASF13
 4249 249f C001     		.word	0x1c0
 4250 24a1 15       		.byte	0x15
 4251 24a2 25030000 		.long	0x325
 4252 24a6 67010000 		.secrel32	.LLST27
 4253 24aa 5D010000 		.secrel32	.LVUS27
 4254 24ae 28       		.uleb128 0x28
 4255 24af 4F6C6448 		.ascii "OldHandle\0"
 4255      616E646C 
 4255      6500
 4256 24b9 C101     		.word	0x1c1
 4257 24bb 6F030000 		.long	0x36f
 4258 24bf 92010000 		.secrel32	.LLST28
 4259 24c3 8E010000 		.secrel32	.LVUS28
 4260 24c7 0D       		.uleb128 0xd
 4261 24c8 17060000 		.quad	.LVL98
 4261      00000000 
 4262 24d0 DA240000 		.long	0x24da
 4263 24d4 07       		.uleb128 0x7
 4264 24d5 01       		.uleb128 0x1
 4265 24d6 52       		.byte	0x52
 4266 24d7 01       		.uleb128 0x1
 4267 24d8 40       		.byte	0x40
 4268 24d9 00       		.byte	0
 4269 24da 0D       		.uleb128 0xd
 4270 24db 7D060000 		.quad	.LVL104
 4270      00000000 
 4271 24e3 F3240000 		.long	0x24f3
 4272 24e7 07       		.uleb128 0x7
 4273 24e8 01       		.uleb128 0x1
 4274 24e9 52       		.byte	0x52
 4275 24ea 02       		.uleb128 0x2
 4276 24eb 75       		.byte	0x75
 4277 24ec 00       		.sleb128 0
 4278 24ed 07       		.uleb128 0x7
 4279 24ee 01       		.uleb128 0x1
 4280 24ef 58       		.byte	0x58
 4281 24f0 01       		.uleb128 0x1
 4282 24f1 30       		.byte	0x30
 4283 24f2 00       		.byte	0
 4284 24f3 1E       		.uleb128 0x1e
 4285 24f4 9A060000 		.quad	.LVL107
 4285      00000000 
 4286 24fc 07       		.uleb128 0x7
 4287 24fd 01       		.uleb128 0x1
 4288 24fe 52       		.byte	0x52
 4289 24ff 02       		.uleb128 0x2
 4290 2500 76       		.byte	0x76
 4291 2501 00       		.sleb128 0
 4292 2502 00       		.byte	0
 4293 2503 00       		.byte	0
 4294 2504 15       		.uleb128 0x15
 4295 2505 4C696246 		.ascii "LibFileSystemVolumeLabelInfo\0"
 4295      696C6553 
 4295      79737465 
 4295      6D566F6C 
 4295      756D654C 
 4296 2522 9101     		.word	0x191
 4297 2524 B9250000 		.long	0x25b9
 4298 2528 85050000 		.quad	.LFB8
 4298      00000000 
 4299 2530 64000000 		.quad	.LFE8-.LFB8
 4299      00000000 
 4300 2538 01       		.uleb128 0x1
 4301 2539 9C       		.byte	0x9c
 4302 253a B9250000 		.long	0x25b9
 4303 253e 1F       		.uleb128 0x1f
 4304 253f 4648616E 		.ascii "FHand\0"
 4304      6400
 4305 2545 9201     		.word	0x192
 4306 2547 1D       		.byte	0x1d
 4307 2548 1D0E0000 		.long	0xe1d
 4308 254c A7010000 		.secrel32	.LLST23
 4309 2550 A1010000 		.secrel32	.LVUS23
 4310 2554 0E       		.uleb128 0xe
 4311 2555 44000000 		.secrel32	.LASF6
 4312 2559 9501     		.word	0x195
 4313 255b 27       		.byte	0x27
 4314 255c 4C030000 		.long	0x34c
 4315 2560 02       		.uleb128 0x2
 4316 2561 91       		.byte	0x91
 4317 2562 68       		.sleb128 -24
 4318 2563 0E       		.uleb128 0xe
 4319 2564 06000000 		.secrel32	.LASF8
 4320 2568 9601     		.word	0x196
 4321 256a 28       		.byte	0x28
 4322 256b B9250000 		.long	0x25b9
 4323 256f 02       		.uleb128 0x2
 4324 2570 91       		.byte	0x91
 4325 2571 60       		.sleb128 -32
 4326 2572 0E       		.uleb128 0xe
 4327 2573 58000000 		.secrel32	.LASF7
 4328 2577 9701     		.word	0x197
 4329 2579 27       		.byte	0x27
 4330 257a 25030000 		.long	0x325
 4331 257e 02       		.uleb128 0x2
 4332 257f 91       		.byte	0x91
 4333 2580 58       		.sleb128 -40
 4334 2581 0D       		.uleb128 0xd
 4335 2582 C1050000 		.quad	.LVL93
 4335      00000000 
 4336 258a 9E250000 		.long	0x259e
 4337 258e 07       		.uleb128 0x7
 4338 258f 01       		.uleb128 0x1
 4339 2590 52       		.byte	0x52
 4340 2591 02       		.uleb128 0x2
 4341 2592 73       		.byte	0x73
 4342 2593 00       		.sleb128 0
 4343 2594 10       		.uleb128 0x10
 4344 2595 01       		.uleb128 0x1
 4345 2596 51       		.byte	0x51
 4346 2597 07       		.uleb128 0x7
 4347 2598 01       		.uleb128 0x1
 4348 2599 58       		.byte	0x58
 4349 259a 02       		.uleb128 0x2
 4350 259b 91       		.byte	0x91
 4351 259c 58       		.sleb128 -40
 4352 259d 00       		.byte	0
 4353 259e 20       		.uleb128 0x20
 4354 259f DA050000 		.quad	.LVL94
 4354      00000000 
 4355 25a7 0B220000 		.long	0x220b
 4356 25ab 07       		.uleb128 0x7
 4357 25ac 01       		.uleb128 0x1
 4358 25ad 52       		.byte	0x52
 4359 25ae 02       		.uleb128 0x2
 4360 25af 91       		.byte	0x91
 4361 25b0 68       		.sleb128 -24
 4362 25b1 07       		.uleb128 0x7
 4363 25b2 01       		.uleb128 0x1
 4364 25b3 51       		.byte	0x51
 4365 25b4 02       		.uleb128 0x2
 4366 25b5 91       		.byte	0x91
 4367 25b6 60       		.sleb128 -32
 4368 25b7 00       		.byte	0
 4369 25b8 00       		.byte	0
 4370 25b9 02       		.uleb128 0x2
 4371 25ba A70F0000 		.long	0xfa7
 4372 25be 15       		.uleb128 0x15
 4373 25bf 4C696246 		.ascii "LibFileSystemInfo\0"
 4373      696C6553 
 4373      79737465 
 4373      6D496E66 
 4373      6F00
 4374 25d1 6E01     		.word	0x16e
 4375 25d3 68260000 		.long	0x2668
 4376 25d7 21050000 		.quad	.LFB7
 4376      00000000 
 4377 25df 64000000 		.quad	.LFE7-.LFB7
 4377      00000000 
 4378 25e7 01       		.uleb128 0x1
 4379 25e8 9C       		.byte	0x9c
 4380 25e9 68260000 		.long	0x2668
 4381 25ed 1F       		.uleb128 0x1f
 4382 25ee 4648616E 		.ascii "FHand\0"
 4382      6400
 4383 25f4 6F01     		.word	0x16f
 4384 25f6 1D       		.byte	0x1d
 4385 25f7 1D0E0000 		.long	0xe1d
 4386 25fb C6010000 		.secrel32	.LLST22
 4387 25ff C0010000 		.secrel32	.LVUS22
 4388 2603 0E       		.uleb128 0xe
 4389 2604 44000000 		.secrel32	.LASF6
 4390 2608 7201     		.word	0x172
 4391 260a 1D       		.byte	0x1d
 4392 260b 4C030000 		.long	0x34c
 4393 260f 02       		.uleb128 0x2
 4394 2610 91       		.byte	0x91
 4395 2611 68       		.sleb128 -24
 4396 2612 0E       		.uleb128 0xe
 4397 2613 06000000 		.secrel32	.LASF8
 4398 2617 7301     		.word	0x173
 4399 2619 1E       		.byte	0x1e
 4400 261a 68260000 		.long	0x2668
 4401 261e 02       		.uleb128 0x2
 4402 261f 91       		.byte	0x91
 4403 2620 60       		.sleb128 -32
 4404 2621 0E       		.uleb128 0xe
 4405 2622 58000000 		.secrel32	.LASF7
 4406 2626 7401     		.word	0x174
 4407 2628 1D       		.byte	0x1d
 4408 2629 25030000 		.long	0x325
 4409 262d 02       		.uleb128 0x2
 4410 262e 91       		.byte	0x91
 4411 262f 58       		.sleb128 -40
 4412 2630 0D       		.uleb128 0xd
 4413 2631 5D050000 		.quad	.LVL88
 4413      00000000 
 4414 2639 4D260000 		.long	0x264d
 4415 263d 07       		.uleb128 0x7
 4416 263e 01       		.uleb128 0x1
 4417 263f 52       		.byte	0x52
 4418 2640 02       		.uleb128 0x2
 4419 2641 73       		.byte	0x73
 4420 2642 00       		.sleb128 0
 4421 2643 10       		.uleb128 0x10
 4422 2644 01       		.uleb128 0x1
 4423 2645 51       		.byte	0x51
 4424 2646 07       		.uleb128 0x7
 4425 2647 01       		.uleb128 0x1
 4426 2648 58       		.byte	0x58
 4427 2649 02       		.uleb128 0x2
 4428 264a 91       		.byte	0x91
 4429 264b 58       		.sleb128 -40
 4430 264c 00       		.byte	0
 4431 264d 20       		.uleb128 0x20
 4432 264e 76050000 		.quad	.LVL89
 4432      00000000 
 4433 2656 0B220000 		.long	0x220b
 4434 265a 07       		.uleb128 0x7
 4435 265b 01       		.uleb128 0x1
 4436 265c 52       		.byte	0x52
 4437 265d 02       		.uleb128 0x2
 4438 265e 91       		.byte	0x91
 4439 265f 68       		.sleb128 -24
 4440 2660 07       		.uleb128 0x7
 4441 2661 01       		.uleb128 0x1
 4442 2662 51       		.byte	0x51
 4443 2663 02       		.uleb128 0x2
 4444 2664 91       		.byte	0x91
 4445 2665 60       		.sleb128 -32
 4446 2666 00       		.byte	0
 4447 2667 00       		.byte	0
 4448 2668 02       		.uleb128 0x2
 4449 2669 710F0000 		.long	0xf71
 4450 266d 15       		.uleb128 0x15
 4451 266e 4C696246 		.ascii "LibFileInfo\0"
 4451      696C6549 
 4451      6E666F00 
 4452 267a 4A01     		.word	0x14a
 4453 267c F4200000 		.long	0x20f4
 4454 2680 BD040000 		.quad	.LFB6
 4454      00000000 
 4455 2688 64000000 		.quad	.LFE6-.LFB6
 4455      00000000 
 4456 2690 01       		.uleb128 0x1
 4457 2691 9C       		.byte	0x9c
 4458 2692 11270000 		.long	0x2711
 4459 2696 1F       		.uleb128 0x1f
 4460 2697 4648616E 		.ascii "FHand\0"
 4460      6400
 4461 269d 4B01     		.word	0x14b
 4462 269f 1D       		.byte	0x1d
 4463 26a0 1D0E0000 		.long	0xe1d
 4464 26a4 E5010000 		.secrel32	.LLST21
 4465 26a8 DF010000 		.secrel32	.LVUS21
 4466 26ac 0E       		.uleb128 0xe
 4467 26ad 44000000 		.secrel32	.LASF6
 4468 26b1 4E01     		.word	0x14e
 4469 26b3 1D       		.byte	0x1d
 4470 26b4 4C030000 		.long	0x34c
 4471 26b8 02       		.uleb128 0x2
 4472 26b9 91       		.byte	0x91
 4473 26ba 68       		.sleb128 -24
 4474 26bb 0E       		.uleb128 0xe
 4475 26bc 06000000 		.secrel32	.LASF8
 4476 26c0 4F01     		.word	0x14f
 4477 26c2 1E       		.byte	0x1e
 4478 26c3 F4200000 		.long	0x20f4
 4479 26c7 02       		.uleb128 0x2
 4480 26c8 91       		.byte	0x91
 4481 26c9 60       		.sleb128 -32
 4482 26ca 0E       		.uleb128 0xe
 4483 26cb 58000000 		.secrel32	.LASF7
 4484 26cf 5001     		.word	0x150
 4485 26d1 1D       		.byte	0x1d
 4486 26d2 25030000 		.long	0x325
 4487 26d6 02       		.uleb128 0x2
 4488 26d7 91       		.byte	0x91
 4489 26d8 58       		.sleb128 -40
 4490 26d9 0D       		.uleb128 0xd
 4491 26da F9040000 		.quad	.LVL83
 4491      00000000 
 4492 26e2 F6260000 		.long	0x26f6
 4493 26e6 07       		.uleb128 0x7
 4494 26e7 01       		.uleb128 0x1
 4495 26e8 52       		.byte	0x52
 4496 26e9 02       		.uleb128 0x2
 4497 26ea 73       		.byte	0x73
 4498 26eb 00       		.sleb128 0
 4499 26ec 10       		.uleb128 0x10
 4500 26ed 01       		.uleb128 0x1
 4501 26ee 51       		.byte	0x51
 4502 26ef 07       		.uleb128 0x7
 4503 26f0 01       		.uleb128 0x1
 4504 26f1 58       		.byte	0x58
 4505 26f2 02       		.uleb128 0x2
 4506 26f3 91       		.byte	0x91
 4507 26f4 58       		.sleb128 -40
 4508 26f5 00       		.byte	0
 4509 26f6 20       		.uleb128 0x20
 4510 26f7 12050000 		.quad	.LVL84
 4510      00000000 
 4511 26ff 0B220000 		.long	0x220b
 4512 2703 07       		.uleb128 0x7
 4513 2704 01       		.uleb128 0x1
 4514 2705 52       		.byte	0x52
 4515 2706 02       		.uleb128 0x2
 4516 2707 91       		.byte	0x91
 4517 2708 68       		.sleb128 -24
 4518 2709 07       		.uleb128 0x7
 4519 270a 01       		.uleb128 0x1
 4520 270b 51       		.byte	0x51
 4521 270c 02       		.uleb128 0x2
 4522 270d 91       		.byte	0x91
 4523 270e 60       		.sleb128 -32
 4524 270f 00       		.byte	0
 4525 2710 00       		.byte	0
 4526 2711 15       		.uleb128 0x15
 4527 2712 4C69624F 		.ascii "LibOpenRoot\0"
 4527      70656E52 
 4527      6F6F7400 
 4528 271e 2B01     		.word	0x12b
 4529 2720 1D0E0000 		.long	0xe1d
 4530 2724 6B040000 		.quad	.LFB5
 4530      00000000 
 4531 272c 52000000 		.quad	.LFE5-.LFB5
 4531      00000000 
 4532 2734 01       		.uleb128 0x1
 4533 2735 9C       		.byte	0x9c
 4534 2736 BC270000 		.long	0x27bc
 4535 273a 1F       		.uleb128 0x1f
 4536 273b 44657669 		.ascii "DeviceHandle\0"
 4536      63654861 
 4536      6E646C65 
 4536      00
 4537 2748 2C01     		.word	0x12c
 4538 274a 21       		.byte	0x21
 4539 274b 6F030000 		.long	0x36f
 4540 274f 02020000 		.secrel32	.LLST19
 4541 2753 FE010000 		.secrel32	.LVUS19
 4542 2757 17       		.uleb128 0x17
 4543 2758 44000000 		.secrel32	.LASF6
 4544 275c 2F01     		.word	0x12f
 4545 275e 21       		.byte	0x21
 4546 275f 4C030000 		.long	0x34c
 4547 2763 1C020000 		.secrel32	.LLST20
 4548 2767 14020000 		.secrel32	.LVUS20
 4549 276b 16       		.uleb128 0x16
 4550 276c 566F6C75 		.ascii "Volume\0"
 4550      6D6500
 4551 2773 3001     		.word	0x130
 4552 2775 22       		.byte	0x22
 4553 2776 BC270000 		.long	0x27bc
 4554 277a 02       		.uleb128 0x2
 4555 277b 91       		.byte	0x91
 4556 277c 68       		.sleb128 -24
 4557 277d 16       		.uleb128 0x16
 4558 277e 46696C65 		.ascii "File\0"
 4558      00
 4559 2783 3101     		.word	0x131
 4560 2785 21       		.byte	0x21
 4561 2786 1D0E0000 		.long	0xe1d
 4562 278a 02       		.uleb128 0x2
 4563 278b 91       		.byte	0x91
 4564 278c 60       		.sleb128 -32
 4565 278d 0D       		.uleb128 0xd
 4566 278e 8B040000 		.quad	.LVL73
 4566      00000000 
 4567 2796 AB270000 		.long	0x27ab
 4568 279a 07       		.uleb128 0x7
 4569 279b 01       		.uleb128 0x1
 4570 279c 52       		.byte	0x52
 4571 279d 03       		.uleb128 0x3
 4572 279e A3       		.byte	0xa3
 4573 279f 01       		.uleb128 0x1
 4574 27a0 52       		.byte	0x52
 4575 27a1 10       		.uleb128 0x10
 4576 27a2 01       		.uleb128 0x1
 4577 27a3 51       		.byte	0x51
 4578 27a4 07       		.uleb128 0x7
 4579 27a5 01       		.uleb128 0x1
 4580 27a6 58       		.byte	0x58
 4581 27a7 02       		.uleb128 0x2
 4582 27a8 91       		.byte	0x91
 4583 27a9 68       		.sleb128 -24
 4584 27aa 00       		.byte	0
 4585 27ab 1E       		.uleb128 0x1e
 4586 27ac A0040000 		.quad	.LVL75
 4586      00000000 
 4587 27b4 07       		.uleb128 0x7
 4588 27b5 01       		.uleb128 0x1
 4589 27b6 51       		.byte	0x51
 4590 27b7 02       		.uleb128 0x2
 4591 27b8 91       		.byte	0x91
 4592 27b9 60       		.sleb128 -32
 4593 27ba 00       		.byte	0
 4594 27bb 00       		.byte	0
 4595 27bc 02       		.uleb128 0x2
 4596 27bd 100B0000 		.long	0xb10
 4597 27c1 2E       		.uleb128 0x2e
 4598 27c2 4C69624C 		.ascii "LibLocateHandleByDiskSignature\0"
 4598      6F636174 
 4598      6548616E 
 4598      646C6542 
 4598      79446973 
 4599 27e1 69       		.byte	0x69
 4600 27e2 4C030000 		.long	0x34c
 4601 27e6 3D010000 		.quad	.LFB4
 4601      00000000 
 4602 27ee 2E030000 		.quad	.LFE4-.LFB4
 4602      00000000 
 4603 27f6 01       		.uleb128 0x1
 4604 27f7 9C       		.byte	0x9c
 4605 27f8 352A0000 		.long	0x2a35
 4606 27fc 21       		.uleb128 0x21
 4607 27fd 4D425254 		.ascii "MBRType\0"
 4607      79706500 
 4608 2805 6A       		.byte	0x6a
 4609 2806 25       		.byte	0x25
 4610 2807 FC020000 		.long	0x2fc
 4611 280b 3D020000 		.secrel32	.LLST8
 4612 280f 39020000 		.secrel32	.LVUS8
 4613 2813 11       		.uleb128 0x11
 4614 2814 21000000 		.secrel32	.LASF4
 4615 2818 6B       		.byte	0x6b
 4616 2819 25       		.byte	0x25
 4617 281a FC020000 		.long	0x2fc
 4618 281e 52020000 		.secrel32	.LLST9
 4619 2822 4E020000 		.secrel32	.LVUS9
 4620 2826 11       		.uleb128 0x11
 4621 2827 0D000000 		.secrel32	.LASF3
 4622 282b 6C       		.byte	0x6c
 4623 282c 26       		.byte	0x26
 4624 282d 82030000 		.long	0x382
 4625 2831 67020000 		.secrel32	.LLST10
 4626 2835 63020000 		.secrel32	.LVUS10
 4627 2839 11       		.uleb128 0x11
 4628 283a 6D000000 		.secrel32	.LASF16
 4629 283e 6D       		.byte	0x6d
 4630 283f 26       		.byte	0x26
 4631 2840 26090000 		.long	0x926
 4632 2844 7F020000 		.secrel32	.LLST11
 4633 2848 77020000 		.secrel32	.LVUS11
 4634 284c 2F       		.uleb128 0x2f
 4635 284d 06000000 		.secrel32	.LASF8
 4636 2851 6E       		.byte	0x6e
 4637 2852 53170000 		.long	0x1753
 4638 2856 02       		.uleb128 0x2
 4639 2857 91       		.byte	0x91
 4640 2858 20       		.sleb128 32
 4641 2859 22       		.uleb128 0x22
 4642 285a 44000000 		.secrel32	.LASF6
 4643 285e 72       		.byte	0x72
 4644 285f 1B       		.byte	0x1b
 4645 2860 4C030000 		.long	0x34c
 4646 2864 03       		.uleb128 0x3
 4647 2865 91       		.byte	0x91
 4648 2866 A87F     		.sleb128 -88
 4649 2868 22       		.uleb128 0x22
 4650 2869 58000000 		.secrel32	.LASF7
 4651 286d 73       		.byte	0x73
 4652 286e 1B       		.byte	0x1b
 4653 286f 25030000 		.long	0x325
 4654 2873 03       		.uleb128 0x3
 4655 2874 91       		.byte	0x91
 4656 2875 A07F     		.sleb128 -96
 4657 2877 12       		.uleb128 0x12
 4658 2878 4E6F426C 		.ascii "NoBlockIoHandles\0"
 4658      6F636B49 
 4658      6F48616E 
 4658      646C6573 
 4658      00
 4659 2889 74       		.byte	0x74
 4660 288a 1B       		.byte	0x1b
 4661 288b 25030000 		.long	0x325
 4662 288f A3020000 		.secrel32	.LLST12
 4663 2893 9F020000 		.secrel32	.LVUS12
 4664 2897 23       		.uleb128 0x23
 4665 2898 426C6F63 		.ascii "BlockIoBuffer\0"
 4665      6B496F42 
 4665      75666665 
 4665      7200
 4666 28a6 75       		.byte	0x75
 4667 28a7 1C       		.byte	0x1c
 4668 28a8 DC0F0000 		.long	0xfdc
 4669 28ac 03       		.uleb128 0x3
 4670 28ad 91       		.byte	0x91
 4671 28ae 987F     		.sleb128 -104
 4672 28b0 23       		.uleb128 0x23
 4673 28b1 44657669 		.ascii "DevicePath\0"
 4673      63655061 
 4673      746800
 4674 28bc 76       		.byte	0x76
 4675 28bd 1C       		.byte	0x1c
 4676 28be CD0F0000 		.long	0xfcd
 4677 28c2 03       		.uleb128 0x3
 4678 28c3 91       		.byte	0x91
 4679 28c4 907F     		.sleb128 -112
 4680 28c6 29       		.uleb128 0x29
 4681 28c7 00000000 		.secrel32	.LASF13
 4682 28cb 77       		.byte	0x77
 4683 28cc 1B       		.byte	0x1b
 4684 28cd 25030000 		.long	0x325
 4685 28d1 BC020000 		.secrel32	.LLST13
 4686 28d5 B2020000 		.secrel32	.LVUS13
 4687 28d9 12       		.uleb128 0x12
 4688 28da 4E657874 		.ascii "Next\0"
 4688      00
 4689 28df 78       		.byte	0x78
 4690 28e0 1C       		.byte	0x1c
 4691 28e1 CD0F0000 		.long	0xfcd
 4692 28e5 FE020000 		.secrel32	.LLST14
 4693 28e9 E2020000 		.secrel32	.LVUS14
 4694 28ed 12       		.uleb128 0x12
 4695 28ee 44657650 		.ascii "DevPath\0"
 4695      61746800 
 4696 28f6 78       		.byte	0x78
 4697 28f7 23       		.byte	0x23
 4698 28f8 CD0F0000 		.long	0xfcd
 4699 28fc 92040000 		.secrel32	.LLST15
 4700 2900 8E040000 		.secrel32	.LVUS15
 4701 2904 12       		.uleb128 0x12
 4702 2905 48617264 		.ascii "HardDriveDevicePath\0"
 4702      44726976 
 4702      65446576 
 4702      69636550 
 4702      61746800 
 4703 2919 79       		.byte	0x79
 4704 291a 1C       		.byte	0x1c
 4705 291b 1C090000 		.long	0x91c
 4706 291f A3040000 		.secrel32	.LLST16
 4707 2923 A1040000 		.secrel32	.LVUS16
 4708 2927 12       		.uleb128 0x12
 4709 2928 4D617463 		.ascii "Match\0"
 4709      6800
 4710 292e 7A       		.byte	0x7a
 4711 292f 1B       		.byte	0x1b
 4712 2930 33030000 		.long	0x333
 4713 2934 B5040000 		.secrel32	.LLST17
 4714 2938 AB040000 		.secrel32	.LVUS17
 4715 293c 12       		.uleb128 0x12
 4716 293d 50726576 		.ascii "PreviousNodeIsHardDriveDevicePath\0"
 4716      696F7573 
 4716      4E6F6465 
 4716      49734861 
 4716      72644472 
 4717 295f 7B       		.byte	0x7b
 4718 2960 1B       		.byte	0x1b
 4719 2961 33030000 		.long	0x333
 4720 2965 E2040000 		.secrel32	.LLST18
 4721 2969 DA040000 		.secrel32	.LVUS18
 4722 296d 0D       		.uleb128 0xd
 4723 296e B9010000 		.quad	.LVL26
 4723      00000000 
 4724 2976 8F290000 		.long	0x298f
 4725 297a 07       		.uleb128 0x7
 4726 297b 01       		.uleb128 0x1
 4727 297c 52       		.byte	0x52
 4728 297d 01       		.uleb128 0x1
 4729 297e 32       		.byte	0x32
 4730 297f 10       		.uleb128 0x10
 4731 2980 01       		.uleb128 0x1
 4732 2981 51       		.byte	0x51
 4733 2982 07       		.uleb128 0x7
 4734 2983 01       		.uleb128 0x1
 4735 2984 58       		.byte	0x58
 4736 2985 01       		.uleb128 0x1
 4737 2986 30       		.byte	0x30
 4738 2987 07       		.uleb128 0x7
 4739 2988 01       		.uleb128 0x1
 4740 2989 59       		.byte	0x59
 4741 298a 03       		.uleb128 0x3
 4742 298b 91       		.byte	0x91
 4743 298c A07F     		.sleb128 -96
 4744 298e 00       		.byte	0
 4745 298f 24       		.uleb128 0x24
 4746 2990 D2010000 		.quad	.LVL27
 4746      00000000 
 4747 2998 0B220000 		.long	0x220b
 4748 299c AF290000 		.long	0x29af
 4749 29a0 07       		.uleb128 0x7
 4750 29a1 01       		.uleb128 0x1
 4751 29a2 52       		.byte	0x52
 4752 29a3 03       		.uleb128 0x3
 4753 29a4 91       		.byte	0x91
 4754 29a5 A87F     		.sleb128 -88
 4755 29a7 07       		.uleb128 0x7
 4756 29a8 01       		.uleb128 0x1
 4757 29a9 51       		.byte	0x51
 4758 29aa 03       		.uleb128 0x3
 4759 29ab 91       		.byte	0x91
 4760 29ac 987F     		.sleb128 -104
 4761 29ae 00       		.byte	0
 4762 29af 19       		.uleb128 0x19
 4763 29b0 0E020000 		.quad	.LVL31
 4763      00000000 
 4764 29b8 31220000 		.long	0x2231
 4765 29bc 24       		.uleb128 0x24
 4766 29bd CC020000 		.quad	.LVL50
 4766      00000000 
 4767 29c5 E9210000 		.long	0x21e9
 4768 29c9 DB290000 		.long	0x29db
 4769 29cd 07       		.uleb128 0x7
 4770 29ce 01       		.uleb128 0x1
 4771 29cf 52       		.byte	0x52
 4772 29d0 03       		.uleb128 0x3
 4773 29d1 91       		.byte	0x91
 4774 29d2 10       		.sleb128 16
 4775 29d3 06       		.byte	0x6
 4776 29d4 07       		.uleb128 0x7
 4777 29d5 01       		.uleb128 0x1
 4778 29d6 51       		.byte	0x51
 4779 29d7 02       		.uleb128 0x2
 4780 29d8 73       		.byte	0x73
 4781 29d9 18       		.sleb128 24
 4782 29da 00       		.byte	0
 4783 29db 0D       		.uleb128 0xd
 4784 29dc 7A030000 		.quad	.LVL60
 4784      00000000 
 4785 29e4 F3290000 		.long	0x29f3
 4786 29e8 10       		.uleb128 0x10
 4787 29e9 01       		.uleb128 0x1
 4788 29ea 51       		.byte	0x51
 4789 29eb 07       		.uleb128 0x7
 4790 29ec 01       		.uleb128 0x1
 4791 29ed 58       		.byte	0x58
 4792 29ee 03       		.uleb128 0x3
 4793 29ef 91       		.byte	0x91
 4794 29f0 907F     		.sleb128 -112
 4795 29f2 00       		.byte	0
 4796 29f3 24       		.uleb128 0x24
 4797 29f4 B4030000 		.quad	.LVL64
 4797      00000000 
 4798 29fc D2210000 		.long	0x21d2
 4799 2a00 0D2A0000 		.long	0x2a0d
 4800 2a04 07       		.uleb128 0x7
 4801 2a05 01       		.uleb128 0x1
 4802 2a06 52       		.byte	0x52
 4803 2a07 04       		.uleb128 0x4
 4804 2a08 73       		.byte	0x73
 4805 2a09 00       		.sleb128 0
 4806 2a0a 33       		.byte	0x33
 4807 2a0b 24       		.byte	0x24
 4808 2a0c 00       		.byte	0
 4809 2a0d 19       		.uleb128 0x19
 4810 2a0e D5030000 		.quad	.LVL67
 4810      00000000 
 4811 2a16 31220000 		.long	0x2231
 4812 2a1a 19       		.uleb128 0x19
 4813 2a1b F3030000 		.quad	.LVL68
 4813      00000000 
 4814 2a23 31220000 		.long	0x2231
 4815 2a27 19       		.uleb128 0x19
 4816 2a28 61040000 		.quad	.LVL71
 4816      00000000 
 4817 2a30 31220000 		.long	0x2231
 4818 2a34 00       		.byte	0
 4819 2a35 2E       		.uleb128 0x2e
 4820 2a36 4C69624C 		.ascii "LibLocateHandle\0"
 4820      6F636174 
 4820      6548616E 
 4820      646C6500 
 4821 2a46 3A       		.byte	0x3a
 4822 2a47 4C030000 		.long	0x34c
 4823 2a4b 00000000 		.quad	.LFB3
 4823      00000000 
 4824 2a53 AA000000 		.quad	.LFE3-.LFB3
 4824      00000000 
 4825 2a5b 01       		.uleb128 0x1
 4826 2a5c 9C       		.byte	0x9c
 4827 2a5d 242B0000 		.long	0x2b24
 4828 2a61 21       		.uleb128 0x21
 4829 2a62 53656172 		.ascii "SearchType\0"
 4829      63685479 
 4829      706500
 4830 2a6d 3B       		.byte	0x3b
 4831 2a6e 25       		.byte	0x25
 4832 2a6f E9160000 		.long	0x16e9
 4833 2a73 07050000 		.secrel32	.LLST0
 4834 2a77 FF040000 		.secrel32	.LVUS0
 4835 2a7b 11       		.uleb128 0x11
 4836 2a7c 87000000 		.secrel32	.LASF12
 4837 2a80 3C       		.byte	0x3c
 4838 2a81 26       		.byte	0x26
 4839 2a82 AE0C0000 		.long	0xcae
 4840 2a86 2C050000 		.secrel32	.LLST1
 4841 2a8a 24050000 		.secrel32	.LVUS1
 4842 2a8e 21       		.uleb128 0x21
 4843 2a8f 53656172 		.ascii "SearchKey\0"
 4843      63684B65 
 4843      7900
 4844 2a99 3D       		.byte	0x3d
 4845 2a9a 26       		.byte	0x26
 4846 2a9b 82030000 		.long	0x382
 4847 2a9f 51050000 		.secrel32	.LLST2
 4848 2aa3 49050000 		.secrel32	.LVUS2
 4849 2aa7 11       		.uleb128 0x11
 4850 2aa8 6D000000 		.secrel32	.LASF16
 4851 2aac 3E       		.byte	0x3e
 4852 2aad 26       		.byte	0x26
 4853 2aae 26090000 		.long	0x926
 4854 2ab2 76050000 		.secrel32	.LLST3
 4855 2ab6 6E050000 		.secrel32	.LVUS3
 4856 2aba 2F       		.uleb128 0x2f
 4857 2abb 06000000 		.secrel32	.LASF8
 4858 2abf 3F       		.byte	0x3f
 4859 2ac0 53170000 		.long	0x1753
 4860 2ac4 02       		.uleb128 0x2
 4861 2ac5 91       		.byte	0x91
 4862 2ac6 20       		.sleb128 32
 4863 2ac7 22       		.uleb128 0x22
 4864 2ac8 44000000 		.secrel32	.LASF6
 4865 2acc 43       		.byte	0x43
 4866 2acd 19       		.byte	0x19
 4867 2ace 4C030000 		.long	0x34c
 4868 2ad2 02       		.uleb128 0x2
 4869 2ad3 91       		.byte	0x91
 4870 2ad4 48       		.sleb128 -56
 4871 2ad5 22       		.uleb128 0x22
 4872 2ad6 58000000 		.secrel32	.LASF7
 4873 2ada 44       		.byte	0x44
 4874 2adb 19       		.byte	0x19
 4875 2adc 25030000 		.long	0x325
 4876 2ae0 02       		.uleb128 0x2
 4877 2ae1 91       		.byte	0x91
 4878 2ae2 40       		.sleb128 -64
 4879 2ae3 0D       		.uleb128 0xd
 4880 2ae4 60000000 		.quad	.LVL2
 4880      00000000 
 4881 2aec 092B0000 		.long	0x2b09
 4882 2af0 07       		.uleb128 0x7
 4883 2af1 01       		.uleb128 0x1
 4884 2af2 52       		.byte	0x52
 4885 2af3 02       		.uleb128 0x2
 4886 2af4 76       		.byte	0x76
 4887 2af5 00       		.sleb128 0
 4888 2af6 07       		.uleb128 0x7
 4889 2af7 01       		.uleb128 0x1
 4890 2af8 51       		.byte	0x51
 4891 2af9 02       		.uleb128 0x2
 4892 2afa 75       		.byte	0x75
 4893 2afb 00       		.sleb128 0
 4894 2afc 07       		.uleb128 0x7
 4895 2afd 01       		.uleb128 0x1
 4896 2afe 58       		.byte	0x58
 4897 2aff 02       		.uleb128 0x2
 4898 2b00 74       		.byte	0x74
 4899 2b01 00       		.sleb128 0
 4900 2b02 07       		.uleb128 0x7
 4901 2b03 01       		.uleb128 0x1
 4902 2b04 59       		.byte	0x59
 4903 2b05 02       		.uleb128 0x2
 4904 2b06 91       		.byte	0x91
 4905 2b07 40       		.sleb128 -64
 4906 2b08 00       		.byte	0
 4907 2b09 20       		.uleb128 0x20
 4908 2b0a 77000000 		.quad	.LVL3
 4908      00000000 
 4909 2b12 0B220000 		.long	0x220b
 4910 2b16 07       		.uleb128 0x7
 4911 2b17 01       		.uleb128 0x1
 4912 2b18 52       		.byte	0x52
 4913 2b19 02       		.uleb128 0x2
 4914 2b1a 91       		.byte	0x91
 4915 2b1b 48       		.sleb128 -56
 4916 2b1c 07       		.uleb128 0x7
 4917 2b1d 01       		.uleb128 0x1
 4918 2b1e 51       		.byte	0x51
 4919 2b1f 02       		.uleb128 0x2
 4920 2b20 73       		.byte	0x73
 4921 2b21 00       		.sleb128 0
 4922 2b22 00       		.byte	0
 4923 2b23 00       		.byte	0
 4924 2b24 3A       		.uleb128 0x3a
 4925 2b25 4C69624C 		.ascii "LibLocateProtocol\0"
 4925      6F636174 
 4925      6550726F 
 4925      746F636F 
 4925      6C00
 4926 2b37 01       		.byte	0x1
 4927 2b38 17       		.byte	0x17
 4928 2b39 01       		.byte	0x1
 4929 2b3a 4C030000 		.long	0x34c
 4930 2b3e AA000000 		.quad	.LFB2
 4930      00000000 
 4931 2b46 93000000 		.quad	.LFE2-.LFB2
 4931      00000000 
 4932 2b4e 01       		.uleb128 0x1
 4933 2b4f 9C       		.byte	0x9c
 4934 2b50 21       		.uleb128 0x21
 4935 2b51 50726F74 		.ascii "ProtocolGuid\0"
 4935      6F636F6C 
 4935      47756964 
 4935      00
 4936 2b5e 18       		.byte	0x18
 4937 2b5f 16       		.byte	0x16
 4938 2b60 AE0C0000 		.long	0xcae
 4939 2b64 9B050000 		.secrel32	.LLST4
 4940 2b68 93050000 		.secrel32	.LVUS4
 4941 2b6c 11       		.uleb128 0x11
 4942 2b6d 63000000 		.secrel32	.LASF15
 4943 2b71 19       		.byte	0x19
 4944 2b72 17       		.byte	0x17
 4945 2b73 30090000 		.long	0x930
 4946 2b77 C1050000 		.secrel32	.LLST5
 4947 2b7b BB050000 		.secrel32	.LVUS5
 4948 2b7f 29       		.uleb128 0x29
 4949 2b80 44000000 		.secrel32	.LASF6
 4950 2b84 1F       		.byte	0x1f
 4951 2b85 15       		.byte	0x15
 4952 2b86 4C030000 		.long	0x34c
 4953 2b8a E4050000 		.secrel32	.LLST6
 4954 2b8e DA050000 		.secrel32	.LVUS6
 4955 2b92 23       		.uleb128 0x23
 4956 2b93 4E756D62 		.ascii "NumberHandles\0"
 4956      65724861 
 4956      6E646C65 
 4956      7300
 4957 2ba1 20       		.byte	0x20
 4958 2ba2 15       		.byte	0x15
 4959 2ba3 25030000 		.long	0x325
 4960 2ba7 02       		.uleb128 0x2
 4961 2ba8 91       		.byte	0x91
 4962 2ba9 48       		.sleb128 -56
 4963 2baa 29       		.uleb128 0x29
 4964 2bab 00000000 		.secrel32	.LASF13
 4965 2baf 20       		.byte	0x20
 4966 2bb0 24       		.byte	0x24
 4967 2bb1 25030000 		.long	0x325
 4968 2bb5 0E060000 		.secrel32	.LLST7
 4969 2bb9 08060000 		.secrel32	.LVUS7
 4970 2bbd 23       		.uleb128 0x23
 4971 2bbe 48616E64 		.ascii "Handles\0"
 4971      6C657300 
 4972 2bc6 21       		.byte	0x21
 4973 2bc7 16       		.byte	0x16
 4974 2bc8 DC0F0000 		.long	0xfdc
 4975 2bcc 02       		.uleb128 0x2
 4976 2bcd 91       		.byte	0x91
 4977 2bce 40       		.sleb128 -64
 4978 2bcf 24       		.uleb128 0x24
 4979 2bd0 E1000000 		.quad	.LVL12
 4979      00000000 
 4980 2bd8 352A0000 		.long	0x2a35
 4981 2bdc FE2B0000 		.long	0x2bfe
 4982 2be0 07       		.uleb128 0x7
 4983 2be1 01       		.uleb128 0x1
 4984 2be2 52       		.byte	0x52
 4985 2be3 01       		.uleb128 0x1
 4986 2be4 32       		.byte	0x32
 4987 2be5 07       		.uleb128 0x7
 4988 2be6 01       		.uleb128 0x1
 4989 2be7 51       		.byte	0x51
 4990 2be8 02       		.uleb128 0x2
 4991 2be9 75       		.byte	0x75
 4992 2bea 00       		.sleb128 0
 4993 2beb 07       		.uleb128 0x7
 4994 2bec 01       		.uleb128 0x1
 4995 2bed 58       		.byte	0x58
 4996 2bee 01       		.uleb128 0x1
 4997 2bef 30       		.byte	0x30
 4998 2bf0 07       		.uleb128 0x7
 4999 2bf1 01       		.uleb128 0x1
 5000 2bf2 59       		.byte	0x59
 5001 2bf3 02       		.uleb128 0x2
 5002 2bf4 91       		.byte	0x91
 5003 2bf5 48       		.sleb128 -56
 5004 2bf6 07       		.uleb128 0x7
 5005 2bf7 02       		.uleb128 0x2
 5006 2bf8 77       		.byte	0x77
 5007 2bf9 20       		.sleb128 32
 5008 2bfa 02       		.uleb128 0x2
 5009 2bfb 91       		.byte	0x91
 5010 2bfc 40       		.sleb128 -64
 5011 2bfd 00       		.byte	0
 5012 2bfe 0D       		.uleb128 0xd
 5013 2bff 14010000 		.quad	.LVL16
 5013      00000000 
 5014 2c07 182C0000 		.long	0x2c18
 5015 2c0b 07       		.uleb128 0x7
 5016 2c0c 01       		.uleb128 0x1
 5017 2c0d 51       		.byte	0x51
 5018 2c0e 02       		.uleb128 0x2
 5019 2c0f 75       		.byte	0x75
 5020 2c10 00       		.sleb128 0
 5021 2c11 07       		.uleb128 0x7
 5022 2c12 01       		.uleb128 0x1
 5023 2c13 58       		.byte	0x58
 5024 2c14 02       		.uleb128 0x2
 5025 2c15 76       		.byte	0x76
 5026 2c16 00       		.sleb128 0
 5027 2c17 00       		.byte	0
 5028 2c18 19       		.uleb128 0x19
 5029 2c19 31010000 		.quad	.LVL20
 5029      00000000 
 5030 2c21 31220000 		.long	0x2231
 5031 2c25 00       		.byte	0
 5032 2c26 00       		.byte	0
 5033              		.section	.debug_abbrev,"dr"
 5034              	.Ldebug_abbrev0:
 5035 0000 01       		.uleb128 0x1
 5036 0001 05       		.uleb128 0x5
 5037 0002 00       		.byte	0
 5038 0003 49       		.uleb128 0x49
 5039 0004 13       		.uleb128 0x13
 5040 0005 00       		.byte	0
 5041 0006 00       		.byte	0
 5042 0007 02       		.uleb128 0x2
 5043 0008 0F       		.uleb128 0xf
 5044 0009 00       		.byte	0
 5045 000a 0B       		.uleb128 0xb
 5046 000b 21       		.uleb128 0x21
 5047 000c 08       		.sleb128 8
 5048 000d 49       		.uleb128 0x49
 5049 000e 13       		.uleb128 0x13
 5050 000f 00       		.byte	0
 5051 0010 00       		.byte	0
 5052 0011 03       		.uleb128 0x3
 5053 0012 0D       		.uleb128 0xd
 5054 0013 00       		.byte	0
 5055 0014 03       		.uleb128 0x3
 5056 0015 08       		.uleb128 0x8
 5057 0016 3A       		.uleb128 0x3a
 5058 0017 0B       		.uleb128 0xb
 5059 0018 3B       		.uleb128 0x3b
 5060 0019 05       		.uleb128 0x5
 5061 001a 39       		.uleb128 0x39
 5062 001b 0B       		.uleb128 0xb
 5063 001c 49       		.uleb128 0x49
 5064 001d 13       		.uleb128 0x13
 5065 001e 38       		.uleb128 0x38
 5066 001f 0B       		.uleb128 0xb
 5067 0020 00       		.byte	0
 5068 0021 00       		.byte	0
 5069 0022 04       		.uleb128 0x4
 5070 0023 16       		.uleb128 0x16
 5071 0024 00       		.byte	0
 5072 0025 03       		.uleb128 0x3
 5073 0026 08       		.uleb128 0x8
 5074 0027 3A       		.uleb128 0x3a
 5075 0028 0B       		.uleb128 0xb
 5076 0029 3B       		.uleb128 0x3b
 5077 002a 05       		.uleb128 0x5
 5078 002b 39       		.uleb128 0x39
 5079 002c 0B       		.uleb128 0xb
 5080 002d 49       		.uleb128 0x49
 5081 002e 13       		.uleb128 0x13
 5082 002f 00       		.byte	0
 5083 0030 00       		.byte	0
 5084 0031 05       		.uleb128 0x5
 5085 0032 15       		.uleb128 0x15
 5086 0033 01       		.byte	0x1
 5087 0034 27       		.uleb128 0x27
 5088 0035 19       		.uleb128 0x19
 5089 0036 49       		.uleb128 0x49
 5090 0037 13       		.uleb128 0x13
 5091 0038 01       		.uleb128 0x1
 5092 0039 13       		.uleb128 0x13
 5093 003a 00       		.byte	0
 5094 003b 00       		.byte	0
 5095 003c 06       		.uleb128 0x6
 5096 003d 16       		.uleb128 0x16
 5097 003e 00       		.byte	0
 5098 003f 03       		.uleb128 0x3
 5099 0040 08       		.uleb128 0x8
 5100 0041 3A       		.uleb128 0x3a
 5101 0042 0B       		.uleb128 0xb
 5102 0043 3B       		.uleb128 0x3b
 5103 0044 0B       		.uleb128 0xb
 5104 0045 39       		.uleb128 0x39
 5105 0046 0B       		.uleb128 0xb
 5106 0047 49       		.uleb128 0x49
 5107 0048 13       		.uleb128 0x13
 5108 0049 00       		.byte	0
 5109 004a 00       		.byte	0
 5110 004b 07       		.uleb128 0x7
 5111 004c 49       		.uleb128 0x49
 5112 004d 00       		.byte	0
 5113 004e 02       		.uleb128 0x2
 5114 004f 18       		.uleb128 0x18
 5115 0050 7E       		.uleb128 0x7e
 5116 0051 18       		.uleb128 0x18
 5117 0052 00       		.byte	0
 5118 0053 00       		.byte	0
 5119 0054 08       		.uleb128 0x8
 5120 0055 28       		.uleb128 0x28
 5121 0056 00       		.byte	0
 5122 0057 03       		.uleb128 0x3
 5123 0058 08       		.uleb128 0x8
 5124 0059 1C       		.uleb128 0x1c
 5125 005a 0B       		.uleb128 0xb
 5126 005b 00       		.byte	0
 5127 005c 00       		.byte	0
 5128 005d 09       		.uleb128 0x9
 5129 005e 0D       		.uleb128 0xd
 5130 005f 00       		.byte	0
 5131 0060 03       		.uleb128 0x3
 5132 0061 08       		.uleb128 0x8
 5133 0062 3A       		.uleb128 0x3a
 5134 0063 0B       		.uleb128 0xb
 5135 0064 3B       		.uleb128 0x3b
 5136 0065 0B       		.uleb128 0xb
 5137 0066 39       		.uleb128 0x39
 5138 0067 0B       		.uleb128 0xb
 5139 0068 49       		.uleb128 0x49
 5140 0069 13       		.uleb128 0x13
 5141 006a 38       		.uleb128 0x38
 5142 006b 0B       		.uleb128 0xb
 5143 006c 00       		.byte	0
 5144 006d 00       		.byte	0
 5145 006e 0A       		.uleb128 0xa
 5146 006f 0D       		.uleb128 0xd
 5147 0070 00       		.byte	0
 5148 0071 03       		.uleb128 0x3
 5149 0072 08       		.uleb128 0x8
 5150 0073 3A       		.uleb128 0x3a
 5151 0074 21       		.uleb128 0x21
 5152 0075 09       		.sleb128 9
 5153 0076 3B       		.uleb128 0x3b
 5154 0077 05       		.uleb128 0x5
 5155 0078 39       		.uleb128 0x39
 5156 0079 0B       		.uleb128 0xb
 5157 007a 49       		.uleb128 0x49
 5158 007b 13       		.uleb128 0x13
 5159 007c 38       		.uleb128 0x38
 5160 007d 05       		.uleb128 0x5
 5161 007e 00       		.byte	0
 5162 007f 00       		.byte	0
 5163 0080 0B       		.uleb128 0xb
 5164 0081 0D       		.uleb128 0xd
 5165 0082 00       		.byte	0
 5166 0083 03       		.uleb128 0x3
 5167 0084 0E       		.uleb128 0xe
 5168 0085 3A       		.uleb128 0x3a
 5169 0086 0B       		.uleb128 0xb
 5170 0087 3B       		.uleb128 0x3b
 5171 0088 05       		.uleb128 0x5
 5172 0089 39       		.uleb128 0x39
 5173 008a 0B       		.uleb128 0xb
 5174 008b 49       		.uleb128 0x49
 5175 008c 13       		.uleb128 0x13
 5176 008d 38       		.uleb128 0x38
 5177 008e 0B       		.uleb128 0xb
 5178 008f 00       		.byte	0
 5179 0090 00       		.byte	0
 5180 0091 0C       		.uleb128 0xc
 5181 0092 24       		.uleb128 0x24
 5182 0093 00       		.byte	0
 5183 0094 0B       		.uleb128 0xb
 5184 0095 0B       		.uleb128 0xb
 5185 0096 3E       		.uleb128 0x3e
 5186 0097 0B       		.uleb128 0xb
 5187 0098 03       		.uleb128 0x3
 5188 0099 08       		.uleb128 0x8
 5189 009a 00       		.byte	0
 5190 009b 00       		.byte	0
 5191 009c 0D       		.uleb128 0xd
 5192 009d 48       		.uleb128 0x48
 5193 009e 01       		.byte	0x1
 5194 009f 7D       		.uleb128 0x7d
 5195 00a0 01       		.uleb128 0x1
 5196 00a1 01       		.uleb128 0x1
 5197 00a2 13       		.uleb128 0x13
 5198 00a3 00       		.byte	0
 5199 00a4 00       		.byte	0
 5200 00a5 0E       		.uleb128 0xe
 5201 00a6 34       		.uleb128 0x34
 5202 00a7 00       		.byte	0
 5203 00a8 03       		.uleb128 0x3
 5204 00a9 0E       		.uleb128 0xe
 5205 00aa 3A       		.uleb128 0x3a
 5206 00ab 21       		.uleb128 0x21
 5207 00ac 01       		.sleb128 1
 5208 00ad 3B       		.uleb128 0x3b
 5209 00ae 05       		.uleb128 0x5
 5210 00af 39       		.uleb128 0x39
 5211 00b0 0B       		.uleb128 0xb
 5212 00b1 49       		.uleb128 0x49
 5213 00b2 13       		.uleb128 0x13
 5214 00b3 02       		.uleb128 0x2
 5215 00b4 18       		.uleb128 0x18
 5216 00b5 00       		.byte	0
 5217 00b6 00       		.byte	0
 5218 00b7 0F       		.uleb128 0xf
 5219 00b8 34       		.uleb128 0x34
 5220 00b9 00       		.byte	0
 5221 00ba 03       		.uleb128 0x3
 5222 00bb 08       		.uleb128 0x8
 5223 00bc 3A       		.uleb128 0x3a
 5224 00bd 21       		.uleb128 0x21
 5225 00be 0A       		.sleb128 10
 5226 00bf 3B       		.uleb128 0x3b
 5227 00c0 0B       		.uleb128 0xb
 5228 00c1 39       		.uleb128 0x39
 5229 00c2 0B       		.uleb128 0xb
 5230 00c3 49       		.uleb128 0x49
 5231 00c4 13       		.uleb128 0x13
 5232 00c5 3F       		.uleb128 0x3f
 5233 00c6 19       		.uleb128 0x19
 5234 00c7 3C       		.uleb128 0x3c
 5235 00c8 19       		.uleb128 0x19
 5236 00c9 00       		.byte	0
 5237 00ca 00       		.byte	0
 5238 00cb 10       		.uleb128 0x10
 5239 00cc 49       		.uleb128 0x49
 5240 00cd 00       		.byte	0
 5241 00ce 02       		.uleb128 0x2
 5242 00cf 18       		.uleb128 0x18
 5243 00d0 00       		.byte	0
 5244 00d1 00       		.byte	0
 5245 00d2 11       		.uleb128 0x11
 5246 00d3 05       		.uleb128 0x5
 5247 00d4 00       		.byte	0
 5248 00d5 03       		.uleb128 0x3
 5249 00d6 0E       		.uleb128 0xe
 5250 00d7 3A       		.uleb128 0x3a
 5251 00d8 21       		.uleb128 0x21
 5252 00d9 01       		.sleb128 1
 5253 00da 3B       		.uleb128 0x3b
 5254 00db 0B       		.uleb128 0xb
 5255 00dc 39       		.uleb128 0x39
 5256 00dd 0B       		.uleb128 0xb
 5257 00de 49       		.uleb128 0x49
 5258 00df 13       		.uleb128 0x13
 5259 00e0 02       		.uleb128 0x2
 5260 00e1 17       		.uleb128 0x17
 5261 00e2 B742     		.uleb128 0x2137
 5262 00e4 17       		.uleb128 0x17
 5263 00e5 00       		.byte	0
 5264 00e6 00       		.byte	0
 5265 00e7 12       		.uleb128 0x12
 5266 00e8 34       		.uleb128 0x34
 5267 00e9 00       		.byte	0
 5268 00ea 03       		.uleb128 0x3
 5269 00eb 08       		.uleb128 0x8
 5270 00ec 3A       		.uleb128 0x3a
 5271 00ed 21       		.uleb128 0x21
 5272 00ee 01       		.sleb128 1
 5273 00ef 3B       		.uleb128 0x3b
 5274 00f0 0B       		.uleb128 0xb
 5275 00f1 39       		.uleb128 0x39
 5276 00f2 0B       		.uleb128 0xb
 5277 00f3 49       		.uleb128 0x49
 5278 00f4 13       		.uleb128 0x13
 5279 00f5 02       		.uleb128 0x2
 5280 00f6 17       		.uleb128 0x17
 5281 00f7 B742     		.uleb128 0x2137
 5282 00f9 17       		.uleb128 0x17
 5283 00fa 00       		.byte	0
 5284 00fb 00       		.byte	0
 5285 00fc 13       		.uleb128 0x13
 5286 00fd 13       		.uleb128 0x13
 5287 00fe 01       		.byte	0x1
 5288 00ff 0B       		.uleb128 0xb
 5289 0100 0B       		.uleb128 0xb
 5290 0101 3A       		.uleb128 0x3a
 5291 0102 0B       		.uleb128 0xb
 5292 0103 3B       		.uleb128 0x3b
 5293 0104 05       		.uleb128 0x5
 5294 0105 39       		.uleb128 0x39
 5295 0106 21       		.uleb128 0x21
 5296 0107 09       		.sleb128 9
 5297 0108 01       		.uleb128 0x1
 5298 0109 13       		.uleb128 0x13
 5299 010a 00       		.byte	0
 5300 010b 00       		.byte	0
 5301 010c 14       		.uleb128 0x14
 5302 010d 18       		.uleb128 0x18
 5303 010e 00       		.byte	0
 5304 010f 00       		.byte	0
 5305 0110 00       		.byte	0
 5306 0111 15       		.uleb128 0x15
 5307 0112 2E       		.uleb128 0x2e
 5308 0113 01       		.byte	0x1
 5309 0114 3F       		.uleb128 0x3f
 5310 0115 19       		.uleb128 0x19
 5311 0116 03       		.uleb128 0x3
 5312 0117 08       		.uleb128 0x8
 5313 0118 3A       		.uleb128 0x3a
 5314 0119 21       		.uleb128 0x21
 5315 011a 01       		.sleb128 1
 5316 011b 3B       		.uleb128 0x3b
 5317 011c 05       		.uleb128 0x5
 5318 011d 39       		.uleb128 0x39
 5319 011e 21       		.uleb128 0x21
 5320 011f 01       		.sleb128 1
 5321 0120 27       		.uleb128 0x27
 5322 0121 19       		.uleb128 0x19
 5323 0122 49       		.uleb128 0x49
 5324 0123 13       		.uleb128 0x13
 5325 0124 11       		.uleb128 0x11
 5326 0125 01       		.uleb128 0x1
 5327 0126 12       		.uleb128 0x12
 5328 0127 07       		.uleb128 0x7
 5329 0128 40       		.uleb128 0x40
 5330 0129 18       		.uleb128 0x18
 5331 012a 7A       		.uleb128 0x7a
 5332 012b 19       		.uleb128 0x19
 5333 012c 01       		.uleb128 0x1
 5334 012d 13       		.uleb128 0x13
 5335 012e 00       		.byte	0
 5336 012f 00       		.byte	0
 5337 0130 16       		.uleb128 0x16
 5338 0131 34       		.uleb128 0x34
 5339 0132 00       		.byte	0
 5340 0133 03       		.uleb128 0x3
 5341 0134 08       		.uleb128 0x8
 5342 0135 3A       		.uleb128 0x3a
 5343 0136 21       		.uleb128 0x21
 5344 0137 01       		.sleb128 1
 5345 0138 3B       		.uleb128 0x3b
 5346 0139 05       		.uleb128 0x5
 5347 013a 39       		.uleb128 0x39
 5348 013b 0B       		.uleb128 0xb
 5349 013c 49       		.uleb128 0x49
 5350 013d 13       		.uleb128 0x13
 5351 013e 02       		.uleb128 0x2
 5352 013f 18       		.uleb128 0x18
 5353 0140 00       		.byte	0
 5354 0141 00       		.byte	0
 5355 0142 17       		.uleb128 0x17
 5356 0143 34       		.uleb128 0x34
 5357 0144 00       		.byte	0
 5358 0145 03       		.uleb128 0x3
 5359 0146 0E       		.uleb128 0xe
 5360 0147 3A       		.uleb128 0x3a
 5361 0148 21       		.uleb128 0x21
 5362 0149 01       		.sleb128 1
 5363 014a 3B       		.uleb128 0x3b
 5364 014b 05       		.uleb128 0x5
 5365 014c 39       		.uleb128 0x39
 5366 014d 0B       		.uleb128 0xb
 5367 014e 49       		.uleb128 0x49
 5368 014f 13       		.uleb128 0x13
 5369 0150 02       		.uleb128 0x2
 5370 0151 17       		.uleb128 0x17
 5371 0152 B742     		.uleb128 0x2137
 5372 0154 17       		.uleb128 0x17
 5373 0155 00       		.byte	0
 5374 0156 00       		.byte	0
 5375 0157 18       		.uleb128 0x18
 5376 0158 34       		.uleb128 0x34
 5377 0159 00       		.byte	0
 5378 015a 03       		.uleb128 0x3
 5379 015b 0E       		.uleb128 0xe
 5380 015c 3A       		.uleb128 0x3a
 5381 015d 21       		.uleb128 0x21
 5382 015e 01       		.sleb128 1
 5383 015f 3B       		.uleb128 0x3b
 5384 0160 05       		.uleb128 0x5
 5385 0161 39       		.uleb128 0x39
 5386 0162 0B       		.uleb128 0xb
 5387 0163 49       		.uleb128 0x49
 5388 0164 13       		.uleb128 0x13
 5389 0165 00       		.byte	0
 5390 0166 00       		.byte	0
 5391 0167 19       		.uleb128 0x19
 5392 0168 48       		.uleb128 0x48
 5393 0169 00       		.byte	0
 5394 016a 7D       		.uleb128 0x7d
 5395 016b 01       		.uleb128 0x1
 5396 016c 7F       		.uleb128 0x7f
 5397 016d 13       		.uleb128 0x13
 5398 016e 00       		.byte	0
 5399 016f 00       		.byte	0
 5400 0170 1A       		.uleb128 0x1a
 5401 0171 01       		.uleb128 0x1
 5402 0172 01       		.byte	0x1
 5403 0173 49       		.uleb128 0x49
 5404 0174 13       		.uleb128 0x13
 5405 0175 01       		.uleb128 0x1
 5406 0176 13       		.uleb128 0x13
 5407 0177 00       		.byte	0
 5408 0178 00       		.byte	0
 5409 0179 1B       		.uleb128 0x1b
 5410 017a 21       		.uleb128 0x21
 5411 017b 00       		.byte	0
 5412 017c 49       		.uleb128 0x49
 5413 017d 13       		.uleb128 0x13
 5414 017e 2F       		.uleb128 0x2f
 5415 017f 0B       		.uleb128 0xb
 5416 0180 00       		.byte	0
 5417 0181 00       		.byte	0
 5418 0182 1C       		.uleb128 0x1c
 5419 0183 13       		.uleb128 0x13
 5420 0184 01       		.byte	0x1
 5421 0185 03       		.uleb128 0x3
 5422 0186 08       		.uleb128 0x8
 5423 0187 0B       		.uleb128 0xb
 5424 0188 0B       		.uleb128 0xb
 5425 0189 3A       		.uleb128 0x3a
 5426 018a 0B       		.uleb128 0xb
 5427 018b 3B       		.uleb128 0x3b
 5428 018c 05       		.uleb128 0x5
 5429 018d 39       		.uleb128 0x39
 5430 018e 21       		.uleb128 0x21
 5431 018f 10       		.sleb128 16
 5432 0190 01       		.uleb128 0x1
 5433 0191 13       		.uleb128 0x13
 5434 0192 00       		.byte	0
 5435 0193 00       		.byte	0
 5436 0194 1D       		.uleb128 0x1d
 5437 0195 15       		.uleb128 0x15
 5438 0196 01       		.byte	0x1
 5439 0197 27       		.uleb128 0x27
 5440 0198 19       		.uleb128 0x19
 5441 0199 01       		.uleb128 0x1
 5442 019a 13       		.uleb128 0x13
 5443 019b 00       		.byte	0
 5444 019c 00       		.byte	0
 5445 019d 1E       		.uleb128 0x1e
 5446 019e 48       		.uleb128 0x48
 5447 019f 01       		.byte	0x1
 5448 01a0 7D       		.uleb128 0x7d
 5449 01a1 01       		.uleb128 0x1
 5450 01a2 00       		.byte	0
 5451 01a3 00       		.byte	0
 5452 01a4 1F       		.uleb128 0x1f
 5453 01a5 05       		.uleb128 0x5
 5454 01a6 00       		.byte	0
 5455 01a7 03       		.uleb128 0x3
 5456 01a8 08       		.uleb128 0x8
 5457 01a9 3A       		.uleb128 0x3a
 5458 01aa 21       		.uleb128 0x21
 5459 01ab 01       		.sleb128 1
 5460 01ac 3B       		.uleb128 0x3b
 5461 01ad 05       		.uleb128 0x5
 5462 01ae 39       		.uleb128 0x39
 5463 01af 0B       		.uleb128 0xb
 5464 01b0 49       		.uleb128 0x49
 5465 01b1 13       		.uleb128 0x13
 5466 01b2 02       		.uleb128 0x2
 5467 01b3 17       		.uleb128 0x17
 5468 01b4 B742     		.uleb128 0x2137
 5469 01b6 17       		.uleb128 0x17
 5470 01b7 00       		.byte	0
 5471 01b8 00       		.byte	0
 5472 01b9 20       		.uleb128 0x20
 5473 01ba 48       		.uleb128 0x48
 5474 01bb 01       		.byte	0x1
 5475 01bc 7D       		.uleb128 0x7d
 5476 01bd 01       		.uleb128 0x1
 5477 01be 7F       		.uleb128 0x7f
 5478 01bf 13       		.uleb128 0x13
 5479 01c0 00       		.byte	0
 5480 01c1 00       		.byte	0
 5481 01c2 21       		.uleb128 0x21
 5482 01c3 05       		.uleb128 0x5
 5483 01c4 00       		.byte	0
 5484 01c5 03       		.uleb128 0x3
 5485 01c6 08       		.uleb128 0x8
 5486 01c7 3A       		.uleb128 0x3a
 5487 01c8 21       		.uleb128 0x21
 5488 01c9 01       		.sleb128 1
 5489 01ca 3B       		.uleb128 0x3b
 5490 01cb 0B       		.uleb128 0xb
 5491 01cc 39       		.uleb128 0x39
 5492 01cd 0B       		.uleb128 0xb
 5493 01ce 49       		.uleb128 0x49
 5494 01cf 13       		.uleb128 0x13
 5495 01d0 02       		.uleb128 0x2
 5496 01d1 17       		.uleb128 0x17
 5497 01d2 B742     		.uleb128 0x2137
 5498 01d4 17       		.uleb128 0x17
 5499 01d5 00       		.byte	0
 5500 01d6 00       		.byte	0
 5501 01d7 22       		.uleb128 0x22
 5502 01d8 34       		.uleb128 0x34
 5503 01d9 00       		.byte	0
 5504 01da 03       		.uleb128 0x3
 5505 01db 0E       		.uleb128 0xe
 5506 01dc 3A       		.uleb128 0x3a
 5507 01dd 21       		.uleb128 0x21
 5508 01de 01       		.sleb128 1
 5509 01df 3B       		.uleb128 0x3b
 5510 01e0 0B       		.uleb128 0xb
 5511 01e1 39       		.uleb128 0x39
 5512 01e2 0B       		.uleb128 0xb
 5513 01e3 49       		.uleb128 0x49
 5514 01e4 13       		.uleb128 0x13
 5515 01e5 02       		.uleb128 0x2
 5516 01e6 18       		.uleb128 0x18
 5517 01e7 00       		.byte	0
 5518 01e8 00       		.byte	0
 5519 01e9 23       		.uleb128 0x23
 5520 01ea 34       		.uleb128 0x34
 5521 01eb 00       		.byte	0
 5522 01ec 03       		.uleb128 0x3
 5523 01ed 08       		.uleb128 0x8
 5524 01ee 3A       		.uleb128 0x3a
 5525 01ef 21       		.uleb128 0x21
 5526 01f0 01       		.sleb128 1
 5527 01f1 3B       		.uleb128 0x3b
 5528 01f2 0B       		.uleb128 0xb
 5529 01f3 39       		.uleb128 0x39
 5530 01f4 0B       		.uleb128 0xb
 5531 01f5 49       		.uleb128 0x49
 5532 01f6 13       		.uleb128 0x13
 5533 01f7 02       		.uleb128 0x2
 5534 01f8 18       		.uleb128 0x18
 5535 01f9 00       		.byte	0
 5536 01fa 00       		.byte	0
 5537 01fb 24       		.uleb128 0x24
 5538 01fc 48       		.uleb128 0x48
 5539 01fd 01       		.byte	0x1
 5540 01fe 7D       		.uleb128 0x7d
 5541 01ff 01       		.uleb128 0x1
 5542 0200 7F       		.uleb128 0x7f
 5543 0201 13       		.uleb128 0x13
 5544 0202 01       		.uleb128 0x1
 5545 0203 13       		.uleb128 0x13
 5546 0204 00       		.byte	0
 5547 0205 00       		.byte	0
 5548 0206 25       		.uleb128 0x25
 5549 0207 13       		.uleb128 0x13
 5550 0208 01       		.byte	0x1
 5551 0209 0B       		.uleb128 0xb
 5552 020a 0B       		.uleb128 0xb
 5553 020b 3A       		.uleb128 0x3a
 5554 020c 21       		.uleb128 0x21
 5555 020d 06       		.sleb128 6
 5556 020e 3B       		.uleb128 0x3b
 5557 020f 0B       		.uleb128 0xb
 5558 0210 39       		.uleb128 0x39
 5559 0211 21       		.uleb128 0x21
 5560 0212 09       		.sleb128 9
 5561 0213 01       		.uleb128 0x1
 5562 0214 13       		.uleb128 0x13
 5563 0215 00       		.byte	0
 5564 0216 00       		.byte	0
 5565 0217 26       		.uleb128 0x26
 5566 0218 04       		.uleb128 0x4
 5567 0219 01       		.byte	0x1
 5568 021a 3E       		.uleb128 0x3e
 5569 021b 21       		.uleb128 0x21
 5570 021c 07       		.sleb128 7
 5571 021d 0B       		.uleb128 0xb
 5572 021e 21       		.uleb128 0x21
 5573 021f 04       		.sleb128 4
 5574 0220 49       		.uleb128 0x49
 5575 0221 13       		.uleb128 0x13
 5576 0222 3A       		.uleb128 0x3a
 5577 0223 0B       		.uleb128 0xb
 5578 0224 3B       		.uleb128 0x3b
 5579 0225 0B       		.uleb128 0xb
 5580 0226 39       		.uleb128 0x39
 5581 0227 21       		.uleb128 0x21
 5582 0228 0E       		.sleb128 14
 5583 0229 01       		.uleb128 0x1
 5584 022a 13       		.uleb128 0x13
 5585 022b 00       		.byte	0
 5586 022c 00       		.byte	0
 5587 022d 27       		.uleb128 0x27
 5588 022e 05       		.uleb128 0x5
 5589 022f 00       		.byte	0
 5590 0230 03       		.uleb128 0x3
 5591 0231 0E       		.uleb128 0xe
 5592 0232 3A       		.uleb128 0x3a
 5593 0233 21       		.uleb128 0x21
 5594 0234 01       		.sleb128 1
 5595 0235 3B       		.uleb128 0x3b
 5596 0236 05       		.uleb128 0x5
 5597 0237 39       		.uleb128 0x39
 5598 0238 0B       		.uleb128 0xb
 5599 0239 49       		.uleb128 0x49
 5600 023a 13       		.uleb128 0x13
 5601 023b 02       		.uleb128 0x2
 5602 023c 17       		.uleb128 0x17
 5603 023d B742     		.uleb128 0x2137
 5604 023f 17       		.uleb128 0x17
 5605 0240 00       		.byte	0
 5606 0241 00       		.byte	0
 5607 0242 28       		.uleb128 0x28
 5608 0243 34       		.uleb128 0x34
 5609 0244 00       		.byte	0
 5610 0245 03       		.uleb128 0x3
 5611 0246 08       		.uleb128 0x8
 5612 0247 3A       		.uleb128 0x3a
 5613 0248 21       		.uleb128 0x21
 5614 0249 01       		.sleb128 1
 5615 024a 3B       		.uleb128 0x3b
 5616 024b 05       		.uleb128 0x5
 5617 024c 39       		.uleb128 0x39
 5618 024d 21       		.uleb128 0x21
 5619 024e 15       		.sleb128 21
 5620 024f 49       		.uleb128 0x49
 5621 0250 13       		.uleb128 0x13
 5622 0251 02       		.uleb128 0x2
 5623 0252 17       		.uleb128 0x17
 5624 0253 B742     		.uleb128 0x2137
 5625 0255 17       		.uleb128 0x17
 5626 0256 00       		.byte	0
 5627 0257 00       		.byte	0
 5628 0258 29       		.uleb128 0x29
 5629 0259 34       		.uleb128 0x34
 5630 025a 00       		.byte	0
 5631 025b 03       		.uleb128 0x3
 5632 025c 0E       		.uleb128 0xe
 5633 025d 3A       		.uleb128 0x3a
 5634 025e 21       		.uleb128 0x21
 5635 025f 01       		.sleb128 1
 5636 0260 3B       		.uleb128 0x3b
 5637 0261 0B       		.uleb128 0xb
 5638 0262 39       		.uleb128 0x39
 5639 0263 0B       		.uleb128 0xb
 5640 0264 49       		.uleb128 0x49
 5641 0265 13       		.uleb128 0x13
 5642 0266 02       		.uleb128 0x2
 5643 0267 17       		.uleb128 0x17
 5644 0268 B742     		.uleb128 0x2137
 5645 026a 17       		.uleb128 0x17
 5646 026b 00       		.byte	0
 5647 026c 00       		.byte	0
 5648 026d 2A       		.uleb128 0x2a
 5649 026e 26       		.uleb128 0x26
 5650 026f 00       		.byte	0
 5651 0270 49       		.uleb128 0x49
 5652 0271 13       		.uleb128 0x13
 5653 0272 00       		.byte	0
 5654 0273 00       		.byte	0
 5655 0274 2B       		.uleb128 0x2b
 5656 0275 04       		.uleb128 0x4
 5657 0276 01       		.byte	0x1
 5658 0277 3E       		.uleb128 0x3e
 5659 0278 21       		.uleb128 0x21
 5660 0279 07       		.sleb128 7
 5661 027a 0B       		.uleb128 0xb
 5662 027b 21       		.uleb128 0x21
 5663 027c 04       		.sleb128 4
 5664 027d 49       		.uleb128 0x49
 5665 027e 13       		.uleb128 0x13
 5666 027f 3A       		.uleb128 0x3a
 5667 0280 21       		.uleb128 0x21
 5668 0281 09       		.sleb128 9
 5669 0282 3B       		.uleb128 0x3b
 5670 0283 05       		.uleb128 0x5
 5671 0284 39       		.uleb128 0x39
 5672 0285 21       		.uleb128 0x21
 5673 0286 0E       		.sleb128 14
 5674 0287 01       		.uleb128 0x1
 5675 0288 13       		.uleb128 0x13
 5676 0289 00       		.byte	0
 5677 028a 00       		.byte	0
 5678 028b 2C       		.uleb128 0x2c
 5679 028c 2E       		.uleb128 0x2e
 5680 028d 01       		.byte	0x1
 5681 028e 3F       		.uleb128 0x3f
 5682 028f 19       		.uleb128 0x19
 5683 0290 03       		.uleb128 0x3
 5684 0291 08       		.uleb128 0x8
 5685 0292 3A       		.uleb128 0x3a
 5686 0293 21       		.uleb128 0x21
 5687 0294 0A       		.sleb128 10
 5688 0295 3B       		.uleb128 0x3b
 5689 0296 05       		.uleb128 0x5
 5690 0297 39       		.uleb128 0x39
 5691 0298 21       		.uleb128 0x21
 5692 0299 01       		.sleb128 1
 5693 029a 27       		.uleb128 0x27
 5694 029b 19       		.uleb128 0x19
 5695 029c 49       		.uleb128 0x49
 5696 029d 13       		.uleb128 0x13
 5697 029e 3C       		.uleb128 0x3c
 5698 029f 19       		.uleb128 0x19
 5699 02a0 01       		.uleb128 0x1
 5700 02a1 13       		.uleb128 0x13
 5701 02a2 00       		.byte	0
 5702 02a3 00       		.byte	0
 5703 02a4 2D       		.uleb128 0x2d
 5704 02a5 34       		.uleb128 0x34
 5705 02a6 00       		.byte	0
 5706 02a7 03       		.uleb128 0x3
 5707 02a8 08       		.uleb128 0x8
 5708 02a9 3A       		.uleb128 0x3a
 5709 02aa 21       		.uleb128 0x21
 5710 02ab 01       		.sleb128 1
 5711 02ac 3B       		.uleb128 0x3b
 5712 02ad 21       		.uleb128 0x21
 5713 02ae BA04     		.sleb128 570
 5714 02b0 39       		.uleb128 0x39
 5715 02b1 0B       		.uleb128 0xb
 5716 02b2 49       		.uleb128 0x49
 5717 02b3 13       		.uleb128 0x13
 5718 02b4 00       		.byte	0
 5719 02b5 00       		.byte	0
 5720 02b6 2E       		.uleb128 0x2e
 5721 02b7 2E       		.uleb128 0x2e
 5722 02b8 01       		.byte	0x1
 5723 02b9 3F       		.uleb128 0x3f
 5724 02ba 19       		.uleb128 0x19
 5725 02bb 03       		.uleb128 0x3
 5726 02bc 08       		.uleb128 0x8
 5727 02bd 3A       		.uleb128 0x3a
 5728 02be 21       		.uleb128 0x21
 5729 02bf 01       		.sleb128 1
 5730 02c0 3B       		.uleb128 0x3b
 5731 02c1 0B       		.uleb128 0xb
 5732 02c2 39       		.uleb128 0x39
 5733 02c3 21       		.uleb128 0x21
 5734 02c4 01       		.sleb128 1
 5735 02c5 27       		.uleb128 0x27
 5736 02c6 19       		.uleb128 0x19
 5737 02c7 49       		.uleb128 0x49
 5738 02c8 13       		.uleb128 0x13
 5739 02c9 11       		.uleb128 0x11
 5740 02ca 01       		.uleb128 0x1
 5741 02cb 12       		.uleb128 0x12
 5742 02cc 07       		.uleb128 0x7
 5743 02cd 40       		.uleb128 0x40
 5744 02ce 18       		.uleb128 0x18
 5745 02cf 7A       		.uleb128 0x7a
 5746 02d0 19       		.uleb128 0x19
 5747 02d1 01       		.uleb128 0x1
 5748 02d2 13       		.uleb128 0x13
 5749 02d3 00       		.byte	0
 5750 02d4 00       		.byte	0
 5751 02d5 2F       		.uleb128 0x2f
 5752 02d6 05       		.uleb128 0x5
 5753 02d7 00       		.byte	0
 5754 02d8 03       		.uleb128 0x3
 5755 02d9 0E       		.uleb128 0xe
 5756 02da 3A       		.uleb128 0x3a
 5757 02db 21       		.uleb128 0x21
 5758 02dc 01       		.sleb128 1
 5759 02dd 3B       		.uleb128 0x3b
 5760 02de 0B       		.uleb128 0xb
 5761 02df 39       		.uleb128 0x39
 5762 02e0 21       		.uleb128 0x21
 5763 02e1 27       		.sleb128 39
 5764 02e2 49       		.uleb128 0x49
 5765 02e3 13       		.uleb128 0x13
 5766 02e4 02       		.uleb128 0x2
 5767 02e5 18       		.uleb128 0x18
 5768 02e6 00       		.byte	0
 5769 02e7 00       		.byte	0
 5770 02e8 30       		.uleb128 0x30
 5771 02e9 11       		.uleb128 0x11
 5772 02ea 01       		.byte	0x1
 5773 02eb 25       		.uleb128 0x25
 5774 02ec 08       		.uleb128 0x8
 5775 02ed 13       		.uleb128 0x13
 5776 02ee 0B       		.uleb128 0xb
 5777 02ef 03       		.uleb128 0x3
 5778 02f0 1F       		.uleb128 0x1f
 5779 02f1 1B       		.uleb128 0x1b
 5780 02f2 1F       		.uleb128 0x1f
 5781 02f3 11       		.uleb128 0x11
 5782 02f4 01       		.uleb128 0x1
 5783 02f5 12       		.uleb128 0x12
 5784 02f6 07       		.uleb128 0x7
 5785 02f7 10       		.uleb128 0x10
 5786 02f8 17       		.uleb128 0x17
 5787 02f9 79       		.uleb128 0x79
 5788 02fa 17       		.uleb128 0x17
 5789 02fb 00       		.byte	0
 5790 02fc 00       		.byte	0
 5791 02fd 31       		.uleb128 0x31
 5792 02fe 0F       		.uleb128 0xf
 5793 02ff 00       		.byte	0
 5794 0300 0B       		.uleb128 0xb
 5795 0301 0B       		.uleb128 0xb
 5796 0302 03       		.uleb128 0x3
 5797 0303 08       		.uleb128 0x8
 5798 0304 49       		.uleb128 0x49
 5799 0305 13       		.uleb128 0x13
 5800 0306 00       		.byte	0
 5801 0307 00       		.byte	0
 5802 0308 32       		.uleb128 0x32
 5803 0309 16       		.uleb128 0x16
 5804 030a 00       		.byte	0
 5805 030b 03       		.uleb128 0x3
 5806 030c 08       		.uleb128 0x8
 5807 030d 3A       		.uleb128 0x3a
 5808 030e 0B       		.uleb128 0xb
 5809 030f 3B       		.uleb128 0x3b
 5810 0310 0B       		.uleb128 0xb
 5811 0311 39       		.uleb128 0x39
 5812 0312 0B       		.uleb128 0xb
 5813 0313 00       		.byte	0
 5814 0314 00       		.byte	0
 5815 0315 33       		.uleb128 0x33
 5816 0316 0D       		.uleb128 0xd
 5817 0317 00       		.byte	0
 5818 0318 03       		.uleb128 0x3
 5819 0319 0E       		.uleb128 0xe
 5820 031a 3A       		.uleb128 0x3a
 5821 031b 0B       		.uleb128 0xb
 5822 031c 3B       		.uleb128 0x3b
 5823 031d 0B       		.uleb128 0xb
 5824 031e 39       		.uleb128 0x39
 5825 031f 0B       		.uleb128 0xb
 5826 0320 49       		.uleb128 0x49
 5827 0321 13       		.uleb128 0x13
 5828 0322 38       		.uleb128 0x38
 5829 0323 0B       		.uleb128 0xb
 5830 0324 00       		.byte	0
 5831 0325 00       		.byte	0
 5832 0326 34       		.uleb128 0x34
 5833 0327 13       		.uleb128 0x13
 5834 0328 01       		.byte	0x1
 5835 0329 03       		.uleb128 0x3
 5836 032a 08       		.uleb128 0x8
 5837 032b 0B       		.uleb128 0xb
 5838 032c 0B       		.uleb128 0xb
 5839 032d 3A       		.uleb128 0x3a
 5840 032e 0B       		.uleb128 0xb
 5841 032f 3B       		.uleb128 0x3b
 5842 0330 0B       		.uleb128 0xb
 5843 0331 39       		.uleb128 0x39
 5844 0332 0B       		.uleb128 0xb
 5845 0333 01       		.uleb128 0x1
 5846 0334 13       		.uleb128 0x13
 5847 0335 00       		.byte	0
 5848 0336 00       		.byte	0
 5849 0337 35       		.uleb128 0x35
 5850 0338 13       		.uleb128 0x13
 5851 0339 01       		.byte	0x1
 5852 033a 03       		.uleb128 0x3
 5853 033b 08       		.uleb128 0x8
 5854 033c 0B       		.uleb128 0xb
 5855 033d 05       		.uleb128 0x5
 5856 033e 3A       		.uleb128 0x3a
 5857 033f 0B       		.uleb128 0xb
 5858 0340 3B       		.uleb128 0x3b
 5859 0341 05       		.uleb128 0x5
 5860 0342 39       		.uleb128 0x39
 5861 0343 0B       		.uleb128 0xb
 5862 0344 01       		.uleb128 0x1
 5863 0345 13       		.uleb128 0x13
 5864 0346 00       		.byte	0
 5865 0347 00       		.byte	0
 5866 0348 36       		.uleb128 0x36
 5867 0349 2E       		.uleb128 0x2e
 5868 034a 01       		.byte	0x1
 5869 034b 3F       		.uleb128 0x3f
 5870 034c 19       		.uleb128 0x19
 5871 034d 03       		.uleb128 0x3
 5872 034e 0E       		.uleb128 0xe
 5873 034f 3A       		.uleb128 0x3a
 5874 0350 0B       		.uleb128 0xb
 5875 0351 3B       		.uleb128 0x3b
 5876 0352 05       		.uleb128 0x5
 5877 0353 39       		.uleb128 0x39
 5878 0354 0B       		.uleb128 0xb
 5879 0355 27       		.uleb128 0x27
 5880 0356 19       		.uleb128 0x19
 5881 0357 49       		.uleb128 0x49
 5882 0358 13       		.uleb128 0x13
 5883 0359 3C       		.uleb128 0x3c
 5884 035a 19       		.uleb128 0x19
 5885 035b 01       		.uleb128 0x1
 5886 035c 13       		.uleb128 0x13
 5887 035d 00       		.byte	0
 5888 035e 00       		.byte	0
 5889 035f 37       		.uleb128 0x37
 5890 0360 2E       		.uleb128 0x2e
 5891 0361 01       		.byte	0x1
 5892 0362 3F       		.uleb128 0x3f
 5893 0363 19       		.uleb128 0x19
 5894 0364 03       		.uleb128 0x3
 5895 0365 0E       		.uleb128 0xe
 5896 0366 3A       		.uleb128 0x3a
 5897 0367 0B       		.uleb128 0xb
 5898 0368 3B       		.uleb128 0x3b
 5899 0369 05       		.uleb128 0x5
 5900 036a 39       		.uleb128 0x39
 5901 036b 0B       		.uleb128 0xb
 5902 036c 27       		.uleb128 0x27
 5903 036d 19       		.uleb128 0x19
 5904 036e 3C       		.uleb128 0x3c
 5905 036f 19       		.uleb128 0x19
 5906 0370 01       		.uleb128 0x1
 5907 0371 13       		.uleb128 0x13
 5908 0372 00       		.byte	0
 5909 0373 00       		.byte	0
 5910 0374 38       		.uleb128 0x38
 5911 0375 2E       		.uleb128 0x2e
 5912 0376 01       		.byte	0x1
 5913 0377 3F       		.uleb128 0x3f
 5914 0378 19       		.uleb128 0x19
 5915 0379 03       		.uleb128 0x3
 5916 037a 08       		.uleb128 0x8
 5917 037b 3A       		.uleb128 0x3a
 5918 037c 0B       		.uleb128 0xb
 5919 037d 3B       		.uleb128 0x3b
 5920 037e 05       		.uleb128 0x5
 5921 037f 39       		.uleb128 0x39
 5922 0380 0B       		.uleb128 0xb
 5923 0381 27       		.uleb128 0x27
 5924 0382 19       		.uleb128 0x19
 5925 0383 11       		.uleb128 0x11
 5926 0384 01       		.uleb128 0x1
 5927 0385 12       		.uleb128 0x12
 5928 0386 07       		.uleb128 0x7
 5929 0387 40       		.uleb128 0x40
 5930 0388 18       		.uleb128 0x18
 5931 0389 7A       		.uleb128 0x7a
 5932 038a 19       		.uleb128 0x19
 5933 038b 01       		.uleb128 0x1
 5934 038c 13       		.uleb128 0x13
 5935 038d 00       		.byte	0
 5936 038e 00       		.byte	0
 5937 038f 39       		.uleb128 0x39
 5938 0390 2E       		.uleb128 0x2e
 5939 0391 01       		.byte	0x1
 5940 0392 3F       		.uleb128 0x3f
 5941 0393 19       		.uleb128 0x19
 5942 0394 03       		.uleb128 0x3
 5943 0395 08       		.uleb128 0x8
 5944 0396 3A       		.uleb128 0x3a
 5945 0397 0B       		.uleb128 0xb
 5946 0398 3B       		.uleb128 0x3b
 5947 0399 05       		.uleb128 0x5
 5948 039a 39       		.uleb128 0x39
 5949 039b 0B       		.uleb128 0xb
 5950 039c 27       		.uleb128 0x27
 5951 039d 19       		.uleb128 0x19
 5952 039e 49       		.uleb128 0x49
 5953 039f 13       		.uleb128 0x13
 5954 03a0 11       		.uleb128 0x11
 5955 03a1 01       		.uleb128 0x1
 5956 03a2 12       		.uleb128 0x12
 5957 03a3 07       		.uleb128 0x7
 5958 03a4 40       		.uleb128 0x40
 5959 03a5 18       		.uleb128 0x18
 5960 03a6 7C       		.uleb128 0x7c
 5961 03a7 19       		.uleb128 0x19
 5962 03a8 01       		.uleb128 0x1
 5963 03a9 13       		.uleb128 0x13
 5964 03aa 00       		.byte	0
 5965 03ab 00       		.byte	0
 5966 03ac 3A       		.uleb128 0x3a
 5967 03ad 2E       		.uleb128 0x2e
 5968 03ae 01       		.byte	0x1
 5969 03af 3F       		.uleb128 0x3f
 5970 03b0 19       		.uleb128 0x19
 5971 03b1 03       		.uleb128 0x3
 5972 03b2 08       		.uleb128 0x8
 5973 03b3 3A       		.uleb128 0x3a
 5974 03b4 0B       		.uleb128 0xb
 5975 03b5 3B       		.uleb128 0x3b
 5976 03b6 0B       		.uleb128 0xb
 5977 03b7 39       		.uleb128 0x39
 5978 03b8 0B       		.uleb128 0xb
 5979 03b9 27       		.uleb128 0x27
 5980 03ba 19       		.uleb128 0x19
 5981 03bb 49       		.uleb128 0x49
 5982 03bc 13       		.uleb128 0x13
 5983 03bd 11       		.uleb128 0x11
 5984 03be 01       		.uleb128 0x1
 5985 03bf 12       		.uleb128 0x12
 5986 03c0 07       		.uleb128 0x7
 5987 03c1 40       		.uleb128 0x40
 5988 03c2 18       		.uleb128 0x18
 5989 03c3 7A       		.uleb128 0x7a
 5990 03c4 19       		.uleb128 0x19
 5991 03c5 00       		.byte	0
 5992 03c6 00       		.byte	0
 5993 03c7 00       		.byte	0
 5994              		.section	.debug_loclists,"dr"
 5995 0000 22060000 		.long	.Ldebug_loc3-.Ldebug_loc2
 5996              	.Ldebug_loc2:
 5997 0004 0500     		.word	0x5
 5998 0006 08       		.byte	0x8
 5999 0007 00       		.byte	0
 6000 0008 00000000 		.long	0
 6001              	.Ldebug_loc0:
 6002              	.LVUS30:
 6003 000c 00       		.uleb128 0
 6004 000d 00       		.uleb128 .LVU395
 6005 000e 00       		.uleb128 .LVU395
 6006 000f 00       		.uleb128 .LVU427
 6007 0010 00       		.uleb128 .LVU427
 6008 0011 00       		.uleb128 .LVU429
 6009 0012 00       		.uleb128 .LVU429
 6010 0013 00       		.uleb128 0
 6011              	.LLST30:
 6012 0014 04       		.byte	0x4
 6013 0015 D80E     		.uleb128 .LVL122-.Ltext0
 6014 0017 810F     		.uleb128 .LVL123-.Ltext0
 6015 0019 01       		.uleb128 0x1
 6016 001a 52       		.byte	0x52
 6017 001b 04       		.byte	0x4
 6018 001c 810F     		.uleb128 .LVL123-.Ltext0
 6019 001e 9510     		.uleb128 .LVL135-.Ltext0
 6020 0020 01       		.uleb128 0x1
 6021 0021 55       		.byte	0x55
 6022 0022 04       		.byte	0x4
 6023 0023 9510     		.uleb128 .LVL135-.Ltext0
 6024 0025 9710     		.uleb128 .LVL137-.Ltext0
 6025 0027 04       		.uleb128 0x4
 6026 0028 A3       		.byte	0xa3
 6027 0029 01       		.uleb128 0x1
 6028 002a 52       		.byte	0x52
 6029 002b 9F       		.byte	0x9f
 6030 002c 04       		.byte	0x4
 6031 002d 9710     		.uleb128 .LVL137-.Ltext0
 6032 002f EB10     		.uleb128 .LFE11-.Ltext0
 6033 0031 01       		.uleb128 0x1
 6034 0032 55       		.byte	0x55
 6035 0033 00       		.byte	0
 6036              	.LVUS31:
 6037 0034 02       		.uleb128 .LVU398
 6038 0035 00       		.uleb128 .LVU404
 6039 0036 00       		.uleb128 .LVU404
 6040 0037 00       		.uleb128 .LVU406
 6041 0038 00       		.uleb128 .LVU406
 6042 0039 00       		.uleb128 .LVU417
 6043 003a 00       		.uleb128 .LVU417
 6044 003b 00       		.uleb128 .LVU419
 6045 003c 00       		.uleb128 .LVU419
 6046 003d 00       		.uleb128 .LVU425
 6047 003e 00       		.uleb128 .LVU425
 6048 003f 00       		.uleb128 .LVU429
 6049 0040 00       		.uleb128 .LVU429
 6050 0041 00       		.uleb128 0
 6051              	.LLST31:
 6052 0042 04       		.byte	0x4
 6053 0043 870F     		.uleb128 .LVL125-.Ltext0
 6054 0045 9D0F     		.uleb128 .LVL127-.Ltext0
 6055 0047 02       		.uleb128 0x2
 6056 0048 30       		.byte	0x30
 6057 0049 9F       		.byte	0x9f
 6058 004a 04       		.byte	0x4
 6059 004b 9D0F     		.uleb128 .LVL127-.Ltext0
 6060 004d A10F     		.uleb128 .LVL128-.Ltext0
 6061 004f 01       		.uleb128 0x1
 6062 0050 50       		.byte	0x50
 6063 0051 04       		.byte	0x4
 6064 0052 A10F     		.uleb128 .LVL128-.Ltext0
 6065 0054 F10F     		.uleb128 .LVL130-.Ltext0
 6066 0056 01       		.uleb128 0x1
 6067 0057 53       		.byte	0x53
 6068 0058 04       		.byte	0x4
 6069 0059 F10F     		.uleb128 .LVL130-.Ltext0
 6070 005b F60F     		.uleb128 .LVL131-.Ltext0
 6071 005d 01       		.uleb128 0x1
 6072 005e 50       		.byte	0x50
 6073 005f 04       		.byte	0x4
 6074 0060 F60F     		.uleb128 .LVL131-.Ltext0
 6075 0062 9310     		.uleb128 .LVL133-.Ltext0
 6076 0064 01       		.uleb128 0x1
 6077 0065 53       		.byte	0x53
 6078 0066 04       		.byte	0x4
 6079 0067 9310     		.uleb128 .LVL133-.Ltext0
 6080 0069 9710     		.uleb128 .LVL137-.Ltext0
 6081 006b 01       		.uleb128 0x1
 6082 006c 50       		.byte	0x50
 6083 006d 04       		.byte	0x4
 6084 006e 9710     		.uleb128 .LVL137-.Ltext0
 6085 0070 EB10     		.uleb128 .LFE11-.Ltext0
 6086 0072 01       		.uleb128 0x1
 6087 0073 53       		.byte	0x53
 6088 0074 00       		.byte	0
 6089              	.LVUS32:
 6090 0075 00       		.uleb128 .LVU396
 6091 0076 00       		.uleb128 .LVU399
 6092 0077 00       		.uleb128 .LVU399
 6093 0078 00       		.uleb128 .LVU428
 6094 0079 00       		.uleb128 .LVU429
 6095 007a 00       		.uleb128 0
 6096              	.LLST32:
 6097 007b 04       		.byte	0x4
 6098 007c 870F     		.uleb128 .LVL125-.Ltext0
 6099 007e 8C0F     		.uleb128 .LVL126-.Ltext0
 6100 0080 01       		.uleb128 0x1
 6101 0081 50       		.byte	0x50
 6102 0082 04       		.byte	0x4
 6103 0083 8C0F     		.uleb128 .LVL126-.Ltext0
 6104 0085 9610     		.uleb128 .LVL136-.Ltext0
 6105 0087 01       		.uleb128 0x1
 6106 0088 56       		.byte	0x56
 6107 0089 04       		.byte	0x4
 6108 008a 9710     		.uleb128 .LVL137-.Ltext0
 6109 008c EB10     		.uleb128 .LFE11-.Ltext0
 6110 008e 01       		.uleb128 0x1
 6111 008f 56       		.byte	0x56
 6112 0090 00       		.byte	0
 6113              	.LVUS33:
 6114 0091 01       		.uleb128 .LVU397
 6115 0092 00       		.uleb128 .LVU404
 6116 0093 00       		.uleb128 .LVU404
 6117 0094 00       		.uleb128 .LVU426
 6118 0095 00       		.uleb128 .LVU429
 6119 0096 00       		.uleb128 .LVU441
 6120 0097 00       		.uleb128 .LVU441
 6121 0098 00       		.uleb128 0
 6122              	.LLST33:
 6123 0099 04       		.byte	0x4
 6124 009a 870F     		.uleb128 .LVL125-.Ltext0
 6125 009c 9D0F     		.uleb128 .LVL127-.Ltext0
 6126 009e 02       		.uleb128 0x2
 6127 009f 30       		.byte	0x30
 6128 00a0 9F       		.byte	0x9f
 6129 00a1 04       		.byte	0x4
 6130 00a2 9D0F     		.uleb128 .LVL127-.Ltext0
 6131 00a4 9410     		.uleb128 .LVL134-.Ltext0
 6132 00a6 01       		.uleb128 0x1
 6133 00a7 54       		.byte	0x54
 6134 00a8 04       		.byte	0x4
 6135 00a9 9710     		.uleb128 .LVL137-.Ltext0
 6136 00ab E910     		.uleb128 .LVL140-.Ltext0
 6137 00ad 01       		.uleb128 0x1
 6138 00ae 54       		.byte	0x54
 6139 00af 04       		.byte	0x4
 6140 00b0 E910     		.uleb128 .LVL140-.Ltext0
 6141 00b2 EB10     		.uleb128 .LFE11-.Ltext0
 6142 00b4 03       		.uleb128 0x3
 6143 00b5 74       		.byte	0x74
 6144 00b6 01       		.sleb128 1
 6145 00b7 9F       		.byte	0x9f
 6146 00b8 00       		.byte	0
 6147              	.LVUS29:
 6148 00b9 00       		.uleb128 0
 6149 00ba 00       		.uleb128 .LVU370
 6150 00bb 00       		.uleb128 .LVU370
 6151 00bc 00       		.uleb128 .LVU384
 6152 00bd 00       		.uleb128 .LVU384
 6153 00be 00       		.uleb128 0
 6154              	.LLST29:
 6155 00bf 04       		.byte	0x4
 6156 00c0 F40D     		.uleb128 .LVL118-.Ltext0
 6157 00c2 950E     		.uleb128 .LVL119-.Ltext0
 6158 00c4 01       		.uleb128 0x1
 6159 00c5 52       		.byte	0x52
 6160 00c6 04       		.byte	0x4
 6161 00c7 950E     		.uleb128 .LVL119-.Ltext0
 6162 00c9 D70E     		.uleb128 .LVL121-.Ltext0
 6163 00cb 01       		.uleb128 0x1
 6164 00cc 53       		.byte	0x53
 6165 00cd 04       		.byte	0x4
 6166 00ce D70E     		.uleb128 .LVL121-.Ltext0
 6167 00d0 D80E     		.uleb128 .LFE10-.Ltext0
 6168 00d2 04       		.uleb128 0x4
 6169 00d3 A3       		.byte	0xa3
 6170 00d4 01       		.uleb128 0x1
 6171 00d5 52       		.byte	0x52
 6172 00d6 9F       		.byte	0x9f
 6173 00d7 00       		.byte	0
 6174              	.LVUS24:
 6175 00d8 00       		.uleb128 0
 6176 00d9 00       		.uleb128 .LVU313
 6177 00da 00       		.uleb128 .LVU313
 6178 00db 00       		.uleb128 .LVU346
 6179 00dc 00       		.uleb128 .LVU346
 6180 00dd 00       		.uleb128 .LVU349
 6181 00de 00       		.uleb128 .LVU349
 6182 00df 00       		.uleb128 0
 6183              	.LLST24:
 6184 00e0 04       		.byte	0x4
 6185 00e1 E90B     		.uleb128 .LVL96-.Ltext0
 6186 00e3 940C     		.uleb128 .LVL97-.Ltext0
 6187 00e5 01       		.uleb128 0x1
 6188 00e6 52       		.byte	0x52
 6189 00e7 04       		.byte	0x4
 6190 00e8 940C     		.uleb128 .LVL97-.Ltext0
 6191 00ea A40D     		.uleb128 .LVL110-.Ltext0
 6192 00ec 01       		.uleb128 0x1
 6193 00ed 55       		.byte	0x55
 6194 00ee 04       		.byte	0x4
 6195 00ef A40D     		.uleb128 .LVL110-.Ltext0
 6196 00f1 A80D     		.uleb128 .LVL113-.Ltext0
 6197 00f3 04       		.uleb128 0x4
 6198 00f4 A3       		.byte	0xa3
 6199 00f5 01       		.uleb128 0x1
 6200 00f6 52       		.byte	0x52
 6201 00f7 9F       		.byte	0x9f
 6202 00f8 04       		.byte	0x4
 6203 00f9 A80D     		.uleb128 .LVL113-.Ltext0
 6204 00fb F40D     		.uleb128 .LFE9-.Ltext0
 6205 00fd 01       		.uleb128 0x1
 6206 00fe 55       		.byte	0x55
 6207 00ff 00       		.byte	0
 6208              	.LVUS25:
 6209 0100 02       		.uleb128 .LVU318
 6210 0101 00       		.uleb128 .LVU324
 6211 0102 00       		.uleb128 .LVU324
 6212 0103 00       		.uleb128 .LVU326
 6213 0104 00       		.uleb128 .LVU326
 6214 0105 00       		.uleb128 .LVU336
 6215 0106 00       		.uleb128 .LVU336
 6216 0107 00       		.uleb128 .LVU338
 6217 0108 00       		.uleb128 .LVU338
 6218 0109 00       		.uleb128 .LVU344
 6219 010a 00       		.uleb128 .LVU344
 6220 010b 00       		.uleb128 .LVU349
 6221 010c 00       		.uleb128 .LVU349
 6222 010d 00       		.uleb128 0
 6223              	.LLST25:
 6224 010e 04       		.byte	0x4
 6225 010f 9D0C     		.uleb128 .LVL100-.Ltext0
 6226 0111 B30C     		.uleb128 .LVL102-.Ltext0
 6227 0113 02       		.uleb128 0x2
 6228 0114 30       		.byte	0x30
 6229 0115 9F       		.byte	0x9f
 6230 0116 04       		.byte	0x4
 6231 0117 B30C     		.uleb128 .LVL102-.Ltext0
 6232 0119 B70C     		.uleb128 .LVL103-.Ltext0
 6233 011b 01       		.uleb128 0x1
 6234 011c 50       		.byte	0x50
 6235 011d 04       		.byte	0x4
 6236 011e B70C     		.uleb128 .LVL103-.Ltext0
 6237 0120 800D     		.uleb128 .LVL105-.Ltext0
 6238 0122 01       		.uleb128 0x1
 6239 0123 53       		.byte	0x53
 6240 0124 04       		.byte	0x4
 6241 0125 800D     		.uleb128 .LVL105-.Ltext0
 6242 0127 850D     		.uleb128 .LVL106-.Ltext0
 6243 0129 01       		.uleb128 0x1
 6244 012a 50       		.byte	0x50
 6245 012b 04       		.byte	0x4
 6246 012c 850D     		.uleb128 .LVL106-.Ltext0
 6247 012e A20D     		.uleb128 .LVL108-.Ltext0
 6248 0130 01       		.uleb128 0x1
 6249 0131 53       		.byte	0x53
 6250 0132 04       		.byte	0x4
 6251 0133 A20D     		.uleb128 .LVL108-.Ltext0
 6252 0135 A80D     		.uleb128 .LVL113-.Ltext0
 6253 0137 01       		.uleb128 0x1
 6254 0138 50       		.byte	0x50
 6255 0139 04       		.byte	0x4
 6256 013a A80D     		.uleb128 .LVL113-.Ltext0
 6257 013c F40D     		.uleb128 .LFE9-.Ltext0
 6258 013e 01       		.uleb128 0x1
 6259 013f 53       		.byte	0x53
 6260 0140 00       		.byte	0
 6261              	.LVUS26:
 6262 0141 00       		.uleb128 .LVU314
 6263 0142 00       		.uleb128 .LVU319
 6264 0143 00       		.uleb128 .LVU319
 6265 0144 00       		.uleb128 .LVU347
 6266 0145 00       		.uleb128 .LVU349
 6267 0146 00       		.uleb128 0
 6268              	.LLST26:
 6269 0147 04       		.byte	0x4
 6270 0148 9A0C     		.uleb128 .LVL99-.Ltext0
 6271 014a A20C     		.uleb128 .LVL101-.Ltext0
 6272 014c 01       		.uleb128 0x1
 6273 014d 50       		.byte	0x50
 6274 014e 04       		.byte	0x4
 6275 014f A20C     		.uleb128 .LVL101-.Ltext0
 6276 0151 A50D     		.uleb128 .LVL111-.Ltext0
 6277 0153 01       		.uleb128 0x1
 6278 0154 56       		.byte	0x56
 6279 0155 04       		.byte	0x4
 6280 0156 A80D     		.uleb128 .LVL113-.Ltext0
 6281 0158 F40D     		.uleb128 .LFE9-.Ltext0
 6282 015a 01       		.uleb128 0x1
 6283 015b 56       		.byte	0x56
 6284 015c 00       		.byte	0
 6285              	.LVUS27:
 6286 015d 01       		.uleb128 .LVU317
 6287 015e 00       		.uleb128 .LVU324
 6288 015f 00       		.uleb128 .LVU324
 6289 0160 00       		.uleb128 .LVU345
 6290 0161 00       		.uleb128 .LVU349
 6291 0162 00       		.uleb128 .LVU359
 6292 0163 00       		.uleb128 .LVU359
 6293 0164 00       		.uleb128 .LVU360
 6294 0165 00       		.uleb128 .LVU360
 6295 0166 00       		.uleb128 0
 6296              	.LLST27:
 6297 0167 04       		.byte	0x4
 6298 0168 9D0C     		.uleb128 .LVL100-.Ltext0
 6299 016a B30C     		.uleb128 .LVL102-.Ltext0
 6300 016c 02       		.uleb128 0x2
 6301 016d 30       		.byte	0x30
 6302 016e 9F       		.byte	0x9f
 6303 016f 04       		.byte	0x4
 6304 0170 B30C     		.uleb128 .LVL102-.Ltext0
 6305 0172 A30D     		.uleb128 .LVL109-.Ltext0
 6306 0174 01       		.uleb128 0x1
 6307 0175 54       		.byte	0x54
 6308 0176 04       		.byte	0x4
 6309 0177 A80D     		.uleb128 .LVL113-.Ltext0
 6310 0179 ED0D     		.uleb128 .LVL116-.Ltext0
 6311 017b 01       		.uleb128 0x1
 6312 017c 54       		.byte	0x54
 6313 017d 04       		.byte	0x4
 6314 017e ED0D     		.uleb128 .LVL116-.Ltext0
 6315 0180 EF0D     		.uleb128 .LVL117-.Ltext0
 6316 0182 03       		.uleb128 0x3
 6317 0183 74       		.byte	0x74
 6318 0184 01       		.sleb128 1
 6319 0185 9F       		.byte	0x9f
 6320 0186 04       		.byte	0x4
 6321 0187 EF0D     		.uleb128 .LVL117-.Ltext0
 6322 0189 F40D     		.uleb128 .LFE9-.Ltext0
 6323 018b 01       		.uleb128 0x1
 6324 018c 54       		.byte	0x54
 6325 018d 00       		.byte	0
 6326              	.LVUS28:
 6327 018e 00       		.uleb128 .LVU316
 6328 018f 00       		.uleb128 .LVU348
 6329 0190 00       		.uleb128 .LVU349
 6330 0191 00       		.uleb128 0
 6331              	.LLST28:
 6332 0192 04       		.byte	0x4
 6333 0193 9D0C     		.uleb128 .LVL100-.Ltext0
 6334 0195 A70D     		.uleb128 .LVL112-.Ltext0
 6335 0197 01       		.uleb128 0x1
 6336 0198 5C       		.byte	0x5c
 6337 0199 04       		.byte	0x4
 6338 019a A80D     		.uleb128 .LVL113-.Ltext0
 6339 019c F40D     		.uleb128 .LFE9-.Ltext0
 6340 019e 01       		.uleb128 0x1
 6341 019f 5C       		.byte	0x5c
 6342 01a0 00       		.byte	0
 6343              	.LVUS23:
 6344 01a1 00       		.uleb128 0
 6345 01a2 00       		.uleb128 .LVU294
 6346 01a3 00       		.uleb128 .LVU294
 6347 01a4 00       		.uleb128 .LVU301
 6348 01a5 00       		.uleb128 .LVU301
 6349 01a6 00       		.uleb128 0
 6350              	.LLST23:
 6351 01a7 04       		.byte	0x4
 6352 01a8 850B     		.uleb128 .LVL91-.Ltext0
 6353 01aa AA0B     		.uleb128 .LVL92-.Ltext0
 6354 01ac 01       		.uleb128 0x1
 6355 01ad 52       		.byte	0x52
 6356 01ae 04       		.byte	0x4
 6357 01af AA0B     		.uleb128 .LVL92-.Ltext0
 6358 01b1 E80B     		.uleb128 .LVL95-.Ltext0
 6359 01b3 01       		.uleb128 0x1
 6360 01b4 53       		.byte	0x53
 6361 01b5 04       		.byte	0x4
 6362 01b6 E80B     		.uleb128 .LVL95-.Ltext0
 6363 01b8 E90B     		.uleb128 .LFE8-.Ltext0
 6364 01ba 04       		.uleb128 0x4
 6365 01bb A3       		.byte	0xa3
 6366 01bc 01       		.uleb128 0x1
 6367 01bd 52       		.byte	0x52
 6368 01be 9F       		.byte	0x9f
 6369 01bf 00       		.byte	0
 6370              	.LVUS22:
 6371 01c0 00       		.uleb128 0
 6372 01c1 00       		.uleb128 .LVU273
 6373 01c2 00       		.uleb128 .LVU273
 6374 01c3 00       		.uleb128 .LVU280
 6375 01c4 00       		.uleb128 .LVU280
 6376 01c5 00       		.uleb128 0
 6377              	.LLST22:
 6378 01c6 04       		.byte	0x4
 6379 01c7 A10A     		.uleb128 .LVL86-.Ltext0
 6380 01c9 C60A     		.uleb128 .LVL87-.Ltext0
 6381 01cb 01       		.uleb128 0x1
 6382 01cc 52       		.byte	0x52
 6383 01cd 04       		.byte	0x4
 6384 01ce C60A     		.uleb128 .LVL87-.Ltext0
 6385 01d0 840B     		.uleb128 .LVL90-.Ltext0
 6386 01d2 01       		.uleb128 0x1
 6387 01d3 53       		.byte	0x53
 6388 01d4 04       		.byte	0x4
 6389 01d5 840B     		.uleb128 .LVL90-.Ltext0
 6390 01d7 850B     		.uleb128 .LFE7-.Ltext0
 6391 01d9 04       		.uleb128 0x4
 6392 01da A3       		.byte	0xa3
 6393 01db 01       		.uleb128 0x1
 6394 01dc 52       		.byte	0x52
 6395 01dd 9F       		.byte	0x9f
 6396 01de 00       		.byte	0
 6397              	.LVUS21:
 6398 01df 00       		.uleb128 0
 6399 01e0 00       		.uleb128 .LVU252
 6400 01e1 00       		.uleb128 .LVU252
 6401 01e2 00       		.uleb128 .LVU259
 6402 01e3 00       		.uleb128 .LVU259
 6403 01e4 00       		.uleb128 0
 6404              	.LLST21:
 6405 01e5 04       		.byte	0x4
 6406 01e6 BD09     		.uleb128 .LVL81-.Ltext0
 6407 01e8 E209     		.uleb128 .LVL82-.Ltext0
 6408 01ea 01       		.uleb128 0x1
 6409 01eb 52       		.byte	0x52
 6410 01ec 04       		.byte	0x4
 6411 01ed E209     		.uleb128 .LVL82-.Ltext0
 6412 01ef A00A     		.uleb128 .LVL85-.Ltext0
 6413 01f1 01       		.uleb128 0x1
 6414 01f2 53       		.byte	0x53
 6415 01f3 04       		.byte	0x4
 6416 01f4 A00A     		.uleb128 .LVL85-.Ltext0
 6417 01f6 A10A     		.uleb128 .LFE6-.Ltext0
 6418 01f8 04       		.uleb128 0x4
 6419 01f9 A3       		.byte	0xa3
 6420 01fa 01       		.uleb128 0x1
 6421 01fb 52       		.byte	0x52
 6422 01fc 9F       		.byte	0x9f
 6423 01fd 00       		.byte	0
 6424              	.LVUS19:
 6425 01fe 00       		.uleb128 0
 6426 01ff 00       		.uleb128 .LVU226
 6427 0200 00       		.uleb128 .LVU226
 6428 0201 00       		.uleb128 0
 6429              	.LLST19:
 6430 0202 04       		.byte	0x4
 6431 0203 EB08     		.uleb128 .LVL72-.Ltext0
 6432 0205 8A09     		.uleb128 .LVL73-1-.Ltext0
 6433 0207 01       		.uleb128 0x1
 6434 0208 52       		.byte	0x52
 6435 0209 04       		.byte	0x4
 6436 020a 8A09     		.uleb128 .LVL73-1-.Ltext0
 6437 020c BD09     		.uleb128 .LFE5-.Ltext0
 6438 020e 04       		.uleb128 0x4
 6439 020f A3       		.byte	0xa3
 6440 0210 01       		.uleb128 0x1
 6441 0211 52       		.byte	0x52
 6442 0212 9F       		.byte	0x9f
 6443 0213 00       		.byte	0
 6444              	.LVUS20:
 6445 0214 00       		.uleb128 .LVU226
 6446 0215 00       		.uleb128 .LVU230
 6447 0216 00       		.uleb128 .LVU231
 6448 0217 00       		.uleb128 .LVU234
 6449 0218 00       		.uleb128 .LVU235
 6450 0219 00       		.uleb128 .LVU236
 6451 021a 00       		.uleb128 .LVU237
 6452 021b 00       		.uleb128 .LVU238
 6453              	.LLST20:
 6454 021c 04       		.byte	0x4
 6455 021d 8B09     		.uleb128 .LVL73-.Ltext0
 6456 021f 9509     		.uleb128 .LVL74-.Ltext0
 6457 0221 01       		.uleb128 0x1
 6458 0222 50       		.byte	0x50
 6459 0223 04       		.byte	0x4
 6460 0224 A009     		.uleb128 .LVL75-.Ltext0
 6461 0226 AA09     		.uleb128 .LVL76-.Ltext0
 6462 0228 01       		.uleb128 0x1
 6463 0229 50       		.byte	0x50
 6464 022a 04       		.byte	0x4
 6465 022b AF09     		.uleb128 .LVL77-.Ltext0
 6466 022d B409     		.uleb128 .LVL78-.Ltext0
 6467 022f 01       		.uleb128 0x1
 6468 0230 50       		.byte	0x50
 6469 0231 04       		.byte	0x4
 6470 0232 B609     		.uleb128 .LVL79-.Ltext0
 6471 0234 BB09     		.uleb128 .LVL80-.Ltext0
 6472 0236 01       		.uleb128 0x1
 6473 0237 50       		.byte	0x50
 6474 0238 00       		.byte	0
 6475              	.LVUS8:
 6476 0239 00       		.uleb128 0
 6477 023a 00       		.uleb128 .LVU81
 6478 023b 00       		.uleb128 .LVU81
 6479 023c 00       		.uleb128 0
 6480              	.LLST8:
 6481 023d 04       		.byte	0x4
 6482 023e BD02     		.uleb128 .LVL24-.Ltext0
 6483 0240 8503     		.uleb128 .LVL25-.Ltext0
 6484 0242 01       		.uleb128 0x1
 6485 0243 52       		.byte	0x52
 6486 0244 04       		.byte	0x4
 6487 0245 8503     		.uleb128 .LVL25-.Ltext0
 6488 0247 EB08     		.uleb128 .LFE4-.Ltext0
 6489 0249 03       		.uleb128 0x3
 6490 024a 91       		.byte	0x91
 6491 024b 8E7F     		.sleb128 -114
 6492 024d 00       		.byte	0
 6493              	.LVUS9:
 6494 024e 00       		.uleb128 0
 6495 024f 00       		.uleb128 .LVU81
 6496 0250 00       		.uleb128 .LVU81
 6497 0251 00       		.uleb128 0
 6498              	.LLST9:
 6499 0252 04       		.byte	0x4
 6500 0253 BD02     		.uleb128 .LVL24-.Ltext0
 6501 0255 8503     		.uleb128 .LVL25-.Ltext0
 6502 0257 01       		.uleb128 0x1
 6503 0258 51       		.byte	0x51
 6504 0259 04       		.byte	0x4
 6505 025a 8503     		.uleb128 .LVL25-.Ltext0
 6506 025c EB08     		.uleb128 .LFE4-.Ltext0
 6507 025e 03       		.uleb128 0x3
 6508 025f 91       		.byte	0x91
 6509 0260 8F7F     		.sleb128 -113
 6510 0262 00       		.byte	0
 6511              	.LVUS10:
 6512 0263 00       		.uleb128 0
 6513 0264 00       		.uleb128 .LVU81
 6514 0265 00       		.uleb128 .LVU81
 6515 0266 00       		.uleb128 0
 6516              	.LLST10:
 6517 0267 04       		.byte	0x4
 6518 0268 BD02     		.uleb128 .LVL24-.Ltext0
 6519 026a 8503     		.uleb128 .LVL25-.Ltext0
 6520 026c 01       		.uleb128 0x1
 6521 026d 58       		.byte	0x58
 6522 026e 04       		.byte	0x4
 6523 026f 8503     		.uleb128 .LVL25-.Ltext0
 6524 0271 EB08     		.uleb128 .LFE4-.Ltext0
 6525 0273 02       		.uleb128 0x2
 6526 0274 91       		.byte	0x91
 6527 0275 10       		.sleb128 16
 6528 0276 00       		.byte	0
 6529              	.LVUS11:
 6530 0277 00       		.uleb128 0
 6531 0278 00       		.uleb128 .LVU81
 6532 0279 00       		.uleb128 .LVU81
 6533 027a 00       		.uleb128 .LVU106
 6534 027b 00       		.uleb128 .LVU106
 6535 027c 00       		.uleb128 .LVU107
 6536 027d 00       		.uleb128 .LVU107
 6537 027e 00       		.uleb128 0
 6538              	.LLST11:
 6539 027f 04       		.byte	0x4
 6540 0280 BD02     		.uleb128 .LVL24-.Ltext0
 6541 0282 8503     		.uleb128 .LVL25-.Ltext0
 6542 0284 01       		.uleb128 0x1
 6543 0285 59       		.byte	0x59
 6544 0286 04       		.byte	0x4
 6545 0287 8503     		.uleb128 .LVL25-.Ltext0
 6546 0289 AF04     		.uleb128 .LVL32-.Ltext0
 6547 028b 01       		.uleb128 0x1
 6548 028c 5C       		.byte	0x5c
 6549 028d 04       		.byte	0x4
 6550 028e AF04     		.uleb128 .LVL32-.Ltext0
 6551 0290 B604     		.uleb128 .LVL33-.Ltext0
 6552 0292 04       		.uleb128 0x4
 6553 0293 A3       		.byte	0xa3
 6554 0294 01       		.uleb128 0x1
 6555 0295 59       		.byte	0x59
 6556 0296 9F       		.byte	0x9f
 6557 0297 04       		.byte	0x4
 6558 0298 B604     		.uleb128 .LVL33-.Ltext0
 6559 029a EB08     		.uleb128 .LFE4-.Ltext0
 6560 029c 01       		.uleb128 0x1
 6561 029d 5C       		.byte	0x5c
 6562 029e 00       		.byte	0
 6563              	.LVUS12:
 6564 029f 00       		.uleb128 .LVU89
 6565 02a0 00       		.uleb128 .LVU98
 6566 02a1 00       		.uleb128 .LVU107
 6567 02a2 00       		.uleb128 0
 6568              	.LLST12:
 6569 02a3 04       		.byte	0x4
 6570 02a4 E403     		.uleb128 .LVL28-.Ltext0
 6571 02a6 8404     		.uleb128 .LVL30-.Ltext0
 6572 02a8 01       		.uleb128 0x1
 6573 02a9 5D       		.byte	0x5d
 6574 02aa 04       		.byte	0x4
 6575 02ab B604     		.uleb128 .LVL33-.Ltext0
 6576 02ad EB08     		.uleb128 .LFE4-.Ltext0
 6577 02af 01       		.uleb128 0x1
 6578 02b0 5D       		.byte	0x5d
 6579 02b1 00       		.byte	0
 6580              	.LVUS13:
 6581 02b2 01       		.uleb128 .LVU96
 6582 02b3 00       		.uleb128 .LVU98
 6583 02b4 00       		.uleb128 .LVU107
 6584 02b5 01       		.uleb128 .LVU188
 6585 02b6 01       		.uleb128 .LVU188
 6586 02b7 00       		.uleb128 .LVU190
 6587 02b8 00       		.uleb128 .LVU190
 6588 02b9 00       		.uleb128 .LVU204
 6589 02ba 00       		.uleb128 .LVU204
 6590 02bb 00       		.uleb128 .LVU217
 6591              	.LLST13:
 6592 02bc 04       		.byte	0x4
 6593 02bd FA03     		.uleb128 .LVL29-.Ltext0
 6594 02bf 8404     		.uleb128 .LVL30-.Ltext0
 6595 02c1 02       		.uleb128 0x2
 6596 02c2 30       		.byte	0x30
 6597 02c3 9F       		.byte	0x9f
 6598 02c4 04       		.byte	0x4
 6599 02c5 B604     		.uleb128 .LVL33-.Ltext0
 6600 02c7 C407     		.uleb128 .LVL65-.Ltext0
 6601 02c9 01       		.uleb128 0x1
 6602 02ca 56       		.byte	0x56
 6603 02cb 04       		.byte	0x4
 6604 02cc C407     		.uleb128 .LVL65-.Ltext0
 6605 02ce CB07     		.uleb128 .LVL66-.Ltext0
 6606 02d0 02       		.uleb128 0x2
 6607 02d1 30       		.byte	0x30
 6608 02d2 9F       		.byte	0x9f
 6609 02d3 04       		.byte	0x4
 6610 02d4 CB07     		.uleb128 .LVL66-.Ltext0
 6611 02d6 9108     		.uleb128 .LVL69-.Ltext0
 6612 02d8 01       		.uleb128 0x1
 6613 02d9 56       		.byte	0x56
 6614 02da 04       		.byte	0x4
 6615 02db 9108     		.uleb128 .LVL69-.Ltext0
 6616 02dd E008     		.uleb128 .LVL71-1-.Ltext0
 6617 02df 01       		.uleb128 0x1
 6618 02e0 50       		.byte	0x50
 6619 02e1 00       		.byte	0
 6620              	.LVUS14:
 6621 02e2 00       		.uleb128 .LVU116
 6622 02e3 00       		.uleb128 .LVU118
 6623 02e4 00       		.uleb128 .LVU118
 6624 02e5 00       		.uleb128 .LVU120
 6625 02e6 00       		.uleb128 .LVU120
 6626 02e7 00       		.uleb128 .LVU121
 6627 02e8 00       		.uleb128 .LVU121
 6628 02e9 00       		.uleb128 .LVU124
 6629 02ea 00       		.uleb128 .LVU124
 6630 02eb 00       		.uleb128 .LVU125
 6631 02ec 00       		.uleb128 .LVU125
 6632 02ed 00       		.uleb128 .LVU127
 6633 02ee 00       		.uleb128 .LVU127
 6634 02ef 00       		.uleb128 .LVU128
 6635 02f0 00       		.uleb128 .LVU128
 6636 02f1 00       		.uleb128 .LVU129
 6637 02f2 00       		.uleb128 .LVU129
 6638 02f3 00       		.uleb128 .LVU130
 6639 02f4 00       		.uleb128 .LVU130
 6640 02f5 00       		.uleb128 .LVU132
 6641 02f6 00       		.uleb128 .LVU132
 6642 02f7 00       		.uleb128 .LVU134
 6643 02f8 00       		.uleb128 .LVU134
 6644 02f9 00       		.uleb128 .LVU136
 6645 02fa 00       		.uleb128 .LVU136
 6646 02fb 00       		.uleb128 .LVU137
 6647 02fc 00       		.uleb128 .LVU139
 6648 02fd 00       		.uleb128 .LVU142
 6649              	.LLST14:
 6650 02fe 04       		.byte	0x4
 6651 02ff DA04     		.uleb128 .LVL37-.Ltext0
 6652 0301 DE04     		.uleb128 .LVL38-.Ltext0
 6653 0303 06       		.uleb128 0x6
 6654 0304 73       		.byte	0x73
 6655 0305 00       		.sleb128 0
 6656 0306 70       		.byte	0x70
 6657 0307 00       		.sleb128 0
 6658 0308 22       		.byte	0x22
 6659 0309 9F       		.byte	0x9f
 6660 030a 04       		.byte	0x4
 6661 030b DE04     		.uleb128 .LVL38-.Ltext0
 6662 030d E904     		.uleb128 .LVL39-.Ltext0
 6663 030f 14       		.uleb128 0x14
 6664 0310 73       		.byte	0x73
 6665 0311 02       		.sleb128 2
 6666 0312 94       		.byte	0x94
 6667 0313 01       		.byte	0x1
 6668 0314 08       		.byte	0x8
 6669 0315 FF       		.byte	0xff
 6670 0316 1A       		.byte	0x1a
 6671 0317 71       		.byte	0x71
 6672 0318 00       		.sleb128 0
 6673 0319 21       		.byte	0x21
 6674 031a 08       		.byte	0x8
 6675 031b 20       		.byte	0x20
 6676 031c 24       		.byte	0x24
 6677 031d 08       		.byte	0x8
 6678 031e 20       		.byte	0x20
 6679 031f 26       		.byte	0x26
 6680 0320 73       		.byte	0x73
 6681 0321 00       		.sleb128 0
 6682 0322 22       		.byte	0x22
 6683 0323 9F       		.byte	0x9f
 6684 0324 04       		.byte	0x4
 6685 0325 E904     		.uleb128 .LVL39-.Ltext0
 6686 0327 EE04     		.uleb128 .LVL40-.Ltext0
 6687 0329 1B       		.uleb128 0x1b
 6688 032a 73       		.byte	0x73
 6689 032b 03       		.sleb128 3
 6690 032c 94       		.byte	0x94
 6691 032d 01       		.byte	0x1
 6692 032e 08       		.byte	0x8
 6693 032f FF       		.byte	0xff
 6694 0330 1A       		.byte	0x1a
 6695 0331 38       		.byte	0x38
 6696 0332 24       		.byte	0x24
 6697 0333 73       		.byte	0x73
 6698 0334 02       		.sleb128 2
 6699 0335 94       		.byte	0x94
 6700 0336 01       		.byte	0x1
 6701 0337 08       		.byte	0x8
 6702 0338 FF       		.byte	0xff
 6703 0339 1A       		.byte	0x1a
 6704 033a 21       		.byte	0x21
 6705 033b 0C       		.byte	0xc
 6706 033c FFFFFFFF 		.long	0xffffffff
 6707 0340 1A       		.byte	0x1a
 6708 0341 73       		.byte	0x73
 6709 0342 00       		.sleb128 0
 6710 0343 22       		.byte	0x22
 6711 0344 9F       		.byte	0x9f
 6712 0345 04       		.byte	0x4
 6713 0346 EE04     		.uleb128 .LVL40-.Ltext0
 6714 0348 FD04     		.uleb128 .LVL41-.Ltext0
 6715 034a 14       		.uleb128 0x14
 6716 034b 73       		.byte	0x73
 6717 034c 02       		.sleb128 2
 6718 034d 94       		.byte	0x94
 6719 034e 01       		.byte	0x1
 6720 034f 08       		.byte	0x8
 6721 0350 FF       		.byte	0xff
 6722 0351 1A       		.byte	0x1a
 6723 0352 71       		.byte	0x71
 6724 0353 00       		.sleb128 0
 6725 0354 21       		.byte	0x21
 6726 0355 08       		.byte	0x8
 6727 0356 20       		.byte	0x20
 6728 0357 24       		.byte	0x24
 6729 0358 08       		.byte	0x8
 6730 0359 20       		.byte	0x20
 6731 035a 26       		.byte	0x26
 6732 035b 73       		.byte	0x73
 6733 035c 00       		.sleb128 0
 6734 035d 22       		.byte	0x22
 6735 035e 9F       		.byte	0x9f
 6736 035f 04       		.byte	0x4
 6737 0360 FD04     		.uleb128 .LVL41-.Ltext0
 6738 0362 8205     		.uleb128 .LVL42-.Ltext0
 6739 0364 1B       		.uleb128 0x1b
 6740 0365 73       		.byte	0x73
 6741 0366 03       		.sleb128 3
 6742 0367 94       		.byte	0x94
 6743 0368 01       		.byte	0x1
 6744 0369 08       		.byte	0x8
 6745 036a FF       		.byte	0xff
 6746 036b 1A       		.byte	0x1a
 6747 036c 38       		.byte	0x38
 6748 036d 24       		.byte	0x24
 6749 036e 73       		.byte	0x73
 6750 036f 02       		.sleb128 2
 6751 0370 94       		.byte	0x94
 6752 0371 01       		.byte	0x1
 6753 0372 08       		.byte	0x8
 6754 0373 FF       		.byte	0xff
 6755 0374 1A       		.byte	0x1a
 6756 0375 21       		.byte	0x21
 6757 0376 0C       		.byte	0xc
 6758 0377 FFFFFFFF 		.long	0xffffffff
 6759 037b 1A       		.byte	0x1a
 6760 037c 73       		.byte	0x73
 6761 037d 00       		.sleb128 0
 6762 037e 22       		.byte	0x22
 6763 037f 9F       		.byte	0x9f
 6764 0380 04       		.byte	0x4
 6765 0381 8205     		.uleb128 .LVL42-.Ltext0
 6766 0383 9105     		.uleb128 .LVL43-.Ltext0
 6767 0385 14       		.uleb128 0x14
 6768 0386 73       		.byte	0x73
 6769 0387 02       		.sleb128 2
 6770 0388 94       		.byte	0x94
 6771 0389 01       		.byte	0x1
 6772 038a 08       		.byte	0x8
 6773 038b FF       		.byte	0xff
 6774 038c 1A       		.byte	0x1a
 6775 038d 71       		.byte	0x71
 6776 038e 00       		.sleb128 0
 6777 038f 21       		.byte	0x21
 6778 0390 08       		.byte	0x8
 6779 0391 20       		.byte	0x20
 6780 0392 24       		.byte	0x24
 6781 0393 08       		.byte	0x8
 6782 0394 20       		.byte	0x20
 6783 0395 26       		.byte	0x26
 6784 0396 73       		.byte	0x73
 6785 0397 00       		.sleb128 0
 6786 0398 22       		.byte	0x22
 6787 0399 9F       		.byte	0x9f
 6788 039a 04       		.byte	0x4
 6789 039b 9105     		.uleb128 .LVL43-.Ltext0
 6790 039d 9605     		.uleb128 .LVL44-.Ltext0
 6791 039f 1B       		.uleb128 0x1b
 6792 03a0 73       		.byte	0x73
 6793 03a1 03       		.sleb128 3
 6794 03a2 94       		.byte	0x94
 6795 03a3 01       		.byte	0x1
 6796 03a4 08       		.byte	0x8
 6797 03a5 FF       		.byte	0xff
 6798 03a6 1A       		.byte	0x1a
 6799 03a7 38       		.byte	0x38
 6800 03a8 24       		.byte	0x24
 6801 03a9 73       		.byte	0x73
 6802 03aa 02       		.sleb128 2
 6803 03ab 94       		.byte	0x94
 6804 03ac 01       		.byte	0x1
 6805 03ad 08       		.byte	0x8
 6806 03ae FF       		.byte	0xff
 6807 03af 1A       		.byte	0x1a
 6808 03b0 21       		.byte	0x21
 6809 03b1 0C       		.byte	0xc
 6810 03b2 FFFFFFFF 		.long	0xffffffff
 6811 03b6 1A       		.byte	0x1a
 6812 03b7 73       		.byte	0x73
 6813 03b8 00       		.sleb128 0
 6814 03b9 22       		.byte	0x22
 6815 03ba 9F       		.byte	0x9f
 6816 03bb 04       		.byte	0x4
 6817 03bc 9605     		.uleb128 .LVL44-.Ltext0
 6818 03be A305     		.uleb128 .LVL45-.Ltext0
 6819 03c0 14       		.uleb128 0x14
 6820 03c1 73       		.byte	0x73
 6821 03c2 02       		.sleb128 2
 6822 03c3 94       		.byte	0x94
 6823 03c4 01       		.byte	0x1
 6824 03c5 08       		.byte	0x8
 6825 03c6 FF       		.byte	0xff
 6826 03c7 1A       		.byte	0x1a
 6827 03c8 71       		.byte	0x71
 6828 03c9 00       		.sleb128 0
 6829 03ca 21       		.byte	0x21
 6830 03cb 08       		.byte	0x8
 6831 03cc 20       		.byte	0x20
 6832 03cd 24       		.byte	0x24
 6833 03ce 08       		.byte	0x8
 6834 03cf 20       		.byte	0x20
 6835 03d0 26       		.byte	0x26
 6836 03d1 73       		.byte	0x73
 6837 03d2 00       		.sleb128 0
 6838 03d3 22       		.byte	0x22
 6839 03d4 9F       		.byte	0x9f
 6840 03d5 04       		.byte	0x4
 6841 03d6 A305     		.uleb128 .LVL45-.Ltext0
 6842 03d8 A505     		.uleb128 .LVL46-.Ltext0
 6843 03da 1B       		.uleb128 0x1b
 6844 03db 73       		.byte	0x73
 6845 03dc 03       		.sleb128 3
 6846 03dd 94       		.byte	0x94
 6847 03de 01       		.byte	0x1
 6848 03df 08       		.byte	0x8
 6849 03e0 FF       		.byte	0xff
 6850 03e1 1A       		.byte	0x1a
 6851 03e2 38       		.byte	0x38
 6852 03e3 24       		.byte	0x24
 6853 03e4 73       		.byte	0x73
 6854 03e5 02       		.sleb128 2
 6855 03e6 94       		.byte	0x94
 6856 03e7 01       		.byte	0x1
 6857 03e8 08       		.byte	0x8
 6858 03e9 FF       		.byte	0xff
 6859 03ea 1A       		.byte	0x1a
 6860 03eb 21       		.byte	0x21
 6861 03ec 0C       		.byte	0xc
 6862 03ed FFFFFFFF 		.long	0xffffffff
 6863 03f1 1A       		.byte	0x1a
 6864 03f2 73       		.byte	0x73
 6865 03f3 00       		.sleb128 0
 6866 03f4 22       		.byte	0x22
 6867 03f5 9F       		.byte	0x9f
 6868 03f6 04       		.byte	0x4
 6869 03f7 A505     		.uleb128 .LVL46-.Ltext0
 6870 03f9 B005     		.uleb128 .LVL47-.Ltext0
 6871 03fb 14       		.uleb128 0x14
 6872 03fc 73       		.byte	0x73
 6873 03fd 02       		.sleb128 2
 6874 03fe 94       		.byte	0x94
 6875 03ff 01       		.byte	0x1
 6876 0400 08       		.byte	0x8
 6877 0401 FF       		.byte	0xff
 6878 0402 1A       		.byte	0x1a
 6879 0403 71       		.byte	0x71
 6880 0404 00       		.sleb128 0
 6881 0405 21       		.byte	0x21
 6882 0406 08       		.byte	0x8
 6883 0407 20       		.byte	0x20
 6884 0408 24       		.byte	0x24
 6885 0409 08       		.byte	0x8
 6886 040a 20       		.byte	0x20
 6887 040b 26       		.byte	0x26
 6888 040c 73       		.byte	0x73
 6889 040d 00       		.sleb128 0
 6890 040e 22       		.byte	0x22
 6891 040f 9F       		.byte	0x9f
 6892 0410 04       		.byte	0x4
 6893 0411 B005     		.uleb128 .LVL47-.Ltext0
 6894 0413 BB05     		.uleb128 .LVL48-.Ltext0
 6895 0415 1B       		.uleb128 0x1b
 6896 0416 73       		.byte	0x73
 6897 0417 03       		.sleb128 3
 6898 0418 94       		.byte	0x94
 6899 0419 01       		.byte	0x1
 6900 041a 08       		.byte	0x8
 6901 041b FF       		.byte	0xff
 6902 041c 1A       		.byte	0x1a
 6903 041d 38       		.byte	0x38
 6904 041e 24       		.byte	0x24
 6905 041f 73       		.byte	0x73
 6906 0420 02       		.sleb128 2
 6907 0421 94       		.byte	0x94
 6908 0422 01       		.byte	0x1
 6909 0423 08       		.byte	0x8
 6910 0424 FF       		.byte	0xff
 6911 0425 1A       		.byte	0x1a
 6912 0426 21       		.byte	0x21
 6913 0427 0C       		.byte	0xc
 6914 0428 FFFFFFFF 		.long	0xffffffff
 6915 042c 1A       		.byte	0x1a
 6916 042d 73       		.byte	0x73
 6917 042e 00       		.sleb128 0
 6918 042f 22       		.byte	0x22
 6919 0430 9F       		.byte	0x9f
 6920 0431 04       		.byte	0x4
 6921 0432 BB05     		.uleb128 .LVL48-.Ltext0
 6922 0434 BF05     		.uleb128 .LVL49-.Ltext0
 6923 0436 14       		.uleb128 0x14
 6924 0437 73       		.byte	0x73
 6925 0438 02       		.sleb128 2
 6926 0439 94       		.byte	0x94
 6927 043a 01       		.byte	0x1
 6928 043b 08       		.byte	0x8
 6929 043c FF       		.byte	0xff
 6930 043d 1A       		.byte	0x1a
 6931 043e 71       		.byte	0x71
 6932 043f 00       		.sleb128 0
 6933 0440 21       		.byte	0x21
 6934 0441 08       		.byte	0x8
 6935 0442 20       		.byte	0x20
 6936 0443 24       		.byte	0x24
 6937 0444 08       		.byte	0x8
 6938 0445 20       		.byte	0x20
 6939 0446 26       		.byte	0x26
 6940 0447 73       		.byte	0x73
 6941 0448 00       		.sleb128 0
 6942 0449 22       		.byte	0x22
 6943 044a 9F       		.byte	0x9f
 6944 044b 04       		.byte	0x4
 6945 044c BF05     		.uleb128 .LVL49-.Ltext0
 6946 044e CB05     		.uleb128 .LVL50-1-.Ltext0
 6947 0450 1B       		.uleb128 0x1b
 6948 0451 73       		.byte	0x73
 6949 0452 03       		.sleb128 3
 6950 0453 94       		.byte	0x94
 6951 0454 01       		.byte	0x1
 6952 0455 08       		.byte	0x8
 6953 0456 FF       		.byte	0xff
 6954 0457 1A       		.byte	0x1a
 6955 0458 38       		.byte	0x38
 6956 0459 24       		.byte	0x24
 6957 045a 73       		.byte	0x73
 6958 045b 02       		.sleb128 2
 6959 045c 94       		.byte	0x94
 6960 045d 01       		.byte	0x1
 6961 045e 08       		.byte	0x8
 6962 045f FF       		.byte	0xff
 6963 0460 1A       		.byte	0x1a
 6964 0461 21       		.byte	0x21
 6965 0462 0C       		.byte	0xc
 6966 0463 FFFFFFFF 		.long	0xffffffff
 6967 0467 1A       		.byte	0x1a
 6968 0468 73       		.byte	0x73
 6969 0469 00       		.sleb128 0
 6970 046a 22       		.byte	0x22
 6971 046b 9F       		.byte	0x9f
 6972 046c 04       		.byte	0x4
 6973 046d D805     		.uleb128 .LVL51-.Ltext0
 6974 046f E505     		.uleb128 .LVL53-.Ltext0
 6975 0471 1B       		.uleb128 0x1b
 6976 0472 73       		.byte	0x73
 6977 0473 03       		.sleb128 3
 6978 0474 94       		.byte	0x94
 6979 0475 01       		.byte	0x1
 6980 0476 08       		.byte	0x8
 6981 0477 FF       		.byte	0xff
 6982 0478 1A       		.byte	0x1a
 6983 0479 38       		.byte	0x38
 6984 047a 24       		.byte	0x24
 6985 047b 73       		.byte	0x73
 6986 047c 02       		.sleb128 2
 6987 047d 94       		.byte	0x94
 6988 047e 01       		.byte	0x1
 6989 047f 08       		.byte	0x8
 6990 0480 FF       		.byte	0xff
 6991 0481 1A       		.byte	0x1a
 6992 0482 21       		.byte	0x21
 6993 0483 0C       		.byte	0xc
 6994 0484 FFFFFFFF 		.long	0xffffffff
 6995 0488 1A       		.byte	0x1a
 6996 0489 73       		.byte	0x73
 6997 048a 00       		.sleb128 0
 6998 048b 22       		.byte	0x22
 6999 048c 9F       		.byte	0x9f
 7000 048d 00       		.byte	0
 7001              	.LVUS15:
 7002 048e 00       		.uleb128 .LVU107
 7003 048f 00       		.uleb128 .LVU160
 7004 0490 00       		.uleb128 .LVU174
 7005 0491 00       		.uleb128 .LVU177
 7006              	.LLST15:
 7007 0492 04       		.byte	0x4
 7008 0493 B604     		.uleb128 .LVL33-.Ltext0
 7009 0495 B606     		.uleb128 .LVL58-.Ltext0
 7010 0497 01       		.uleb128 0x1
 7011 0498 53       		.byte	0x53
 7012 0499 04       		.byte	0x4
 7013 049a 9007     		.uleb128 .LVL62-.Ltext0
 7014 049c 9E07     		.uleb128 .LVL63-.Ltext0
 7015 049e 01       		.uleb128 0x1
 7016 049f 53       		.byte	0x53
 7017 04a0 00       		.byte	0
 7018              	.LVUS16:
 7019 04a1 01       		.uleb128 .LVU111
 7020 04a2 00       		.uleb128 .LVU145
 7021              	.LLST16:
 7022 04a3 04       		.byte	0x4
 7023 04a4 C304     		.uleb128 .LVL35-.Ltext0
 7024 04a6 F205     		.uleb128 .LVL55-.Ltext0
 7025 04a8 01       		.uleb128 0x1
 7026 04a9 53       		.byte	0x53
 7027 04aa 00       		.byte	0
 7028              	.LVUS17:
 7029 04ab 00       		.uleb128 .LVU107
 7030 04ac 00       		.uleb128 .LVU141
 7031 04ad 00       		.uleb128 .LVU142
 7032 04ae 00       		.uleb128 .LVU144
 7033 04af 00       		.uleb128 .LVU145
 7034 04b0 00       		.uleb128 .LVU160
 7035 04b1 01       		.uleb128 .LVU169
 7036 04b2 00       		.uleb128 .LVU174
 7037 04b3 00       		.uleb128 .LVU174
 7038 04b4 00       		.uleb128 .LVU177
 7039              	.LLST17:
 7040 04b5 04       		.byte	0x4
 7041 04b6 B604     		.uleb128 .LVL33-.Ltext0
 7042 04b8 E305     		.uleb128 .LVL52-.Ltext0
 7043 04ba 01       		.uleb128 0x1
 7044 04bb 5E       		.byte	0x5e
 7045 04bc 04       		.byte	0x4
 7046 04bd E505     		.uleb128 .LVL53-.Ltext0
 7047 04bf F005     		.uleb128 .LVL54-.Ltext0
 7048 04c1 01       		.uleb128 0x1
 7049 04c2 5E       		.byte	0x5e
 7050 04c3 04       		.byte	0x4
 7051 04c4 F205     		.uleb128 .LVL55-.Ltext0
 7052 04c6 B606     		.uleb128 .LVL58-.Ltext0
 7053 04c8 01       		.uleb128 0x1
 7054 04c9 5E       		.byte	0x5e
 7055 04ca 04       		.byte	0x4
 7056 04cb FF06     		.uleb128 .LVL61-.Ltext0
 7057 04cd 9007     		.uleb128 .LVL62-.Ltext0
 7058 04cf 02       		.uleb128 0x2
 7059 04d0 30       		.byte	0x30
 7060 04d1 9F       		.byte	0x9f
 7061 04d2 04       		.byte	0x4
 7062 04d3 9007     		.uleb128 .LVL62-.Ltext0
 7063 04d5 9E07     		.uleb128 .LVL63-.Ltext0
 7064 04d7 01       		.uleb128 0x1
 7065 04d8 5E       		.byte	0x5e
 7066 04d9 00       		.byte	0
 7067              	.LVUS18:
 7068 04da 00       		.uleb128 .LVU107
 7069 04db 00       		.uleb128 .LVU109
 7070 04dc 00       		.uleb128 .LVU110
 7071 04dd 00       		.uleb128 .LVU115
 7072 04de 00       		.uleb128 .LVU145
 7073 04df 00       		.uleb128 .LVU160
 7074 04e0 00       		.uleb128 .LVU174
 7075 04e1 00       		.uleb128 .LVU177
 7076              	.LLST18:
 7077 04e2 04       		.byte	0x4
 7078 04e3 B604     		.uleb128 .LVL33-.Ltext0
 7079 04e5 BE04     		.uleb128 .LVL34-.Ltext0
 7080 04e7 01       		.uleb128 0x1
 7081 04e8 51       		.byte	0x51
 7082 04e9 04       		.byte	0x4
 7083 04ea C304     		.uleb128 .LVL35-.Ltext0
 7084 04ec D304     		.uleb128 .LVL36-.Ltext0
 7085 04ee 01       		.uleb128 0x1
 7086 04ef 51       		.byte	0x51
 7087 04f0 04       		.byte	0x4
 7088 04f1 F205     		.uleb128 .LVL55-.Ltext0
 7089 04f3 B606     		.uleb128 .LVL58-.Ltext0
 7090 04f5 01       		.uleb128 0x1
 7091 04f6 51       		.byte	0x51
 7092 04f7 04       		.byte	0x4
 7093 04f8 9007     		.uleb128 .LVL62-.Ltext0
 7094 04fa 9E07     		.uleb128 .LVL63-.Ltext0
 7095 04fc 01       		.uleb128 0x1
 7096 04fd 51       		.byte	0x51
 7097 04fe 00       		.byte	0
 7098              	.LVUS0:
 7099 04ff 00       		.uleb128 0
 7100 0500 00       		.uleb128 .LVU12
 7101 0501 00       		.uleb128 .LVU12
 7102 0502 00       		.uleb128 .LVU26
 7103 0503 00       		.uleb128 .LVU26
 7104 0504 00       		.uleb128 .LVU28
 7105 0505 00       		.uleb128 .LVU28
 7106 0506 00       		.uleb128 0
 7107              	.LLST0:
 7108 0507 04       		.byte	0x4
 7109 0508 00       		.uleb128 .LVL0-.Ltext0
 7110 0509 38       		.uleb128 .LVL1-.Ltext0
 7111 050a 01       		.uleb128 0x1
 7112 050b 52       		.byte	0x52
 7113 050c 04       		.byte	0x4
 7114 050d 38       		.uleb128 .LVL1-.Ltext0
 7115 050e 9D01     		.uleb128 .LVL6-.Ltext0
 7116 0510 01       		.uleb128 0x1
 7117 0511 56       		.byte	0x56
 7118 0512 04       		.byte	0x4
 7119 0513 9D01     		.uleb128 .LVL6-.Ltext0
 7120 0515 A001     		.uleb128 .LVL8-.Ltext0
 7121 0517 04       		.uleb128 0x4
 7122 0518 A3       		.byte	0xa3
 7123 0519 01       		.uleb128 0x1
 7124 051a 52       		.byte	0x52
 7125 051b 9F       		.byte	0x9f
 7126 051c 04       		.byte	0x4
 7127 051d A001     		.uleb128 .LVL8-.Ltext0
 7128 051f AA01     		.uleb128 .LFE3-.Ltext0
 7129 0521 01       		.uleb128 0x1
 7130 0522 56       		.byte	0x56
 7131 0523 00       		.byte	0
 7132              	.LVUS1:
 7133 0524 00       		.uleb128 0
 7134 0525 00       		.uleb128 .LVU12
 7135 0526 00       		.uleb128 .LVU12
 7136 0527 00       		.uleb128 .LVU25
 7137 0528 00       		.uleb128 .LVU25
 7138 0529 00       		.uleb128 .LVU28
 7139 052a 00       		.uleb128 .LVU28
 7140 052b 00       		.uleb128 0
 7141              	.LLST1:
 7142 052c 04       		.byte	0x4
 7143 052d 00       		.uleb128 .LVL0-.Ltext0
 7144 052e 38       		.uleb128 .LVL1-.Ltext0
 7145 052f 01       		.uleb128 0x1
 7146 0530 51       		.byte	0x51
 7147 0531 04       		.byte	0x4
 7148 0532 38       		.uleb128 .LVL1-.Ltext0
 7149 0533 9C01     		.uleb128 .LVL5-.Ltext0
 7150 0535 01       		.uleb128 0x1
 7151 0536 55       		.byte	0x55
 7152 0537 04       		.byte	0x4
 7153 0538 9C01     		.uleb128 .LVL5-.Ltext0
 7154 053a A001     		.uleb128 .LVL8-.Ltext0
 7155 053c 04       		.uleb128 0x4
 7156 053d A3       		.byte	0xa3
 7157 053e 01       		.uleb128 0x1
 7158 053f 51       		.byte	0x51
 7159 0540 9F       		.byte	0x9f
 7160 0541 04       		.byte	0x4
 7161 0542 A001     		.uleb128 .LVL8-.Ltext0
 7162 0544 AA01     		.uleb128 .LFE3-.Ltext0
 7163 0546 01       		.uleb128 0x1
 7164 0547 55       		.byte	0x55
 7165 0548 00       		.byte	0
 7166              	.LVUS2:
 7167 0549 00       		.uleb128 0
 7168 054a 00       		.uleb128 .LVU12
 7169 054b 00       		.uleb128 .LVU12
 7170 054c 00       		.uleb128 .LVU24
 7171 054d 00       		.uleb128 .LVU24
 7172 054e 00       		.uleb128 .LVU28
 7173 054f 00       		.uleb128 .LVU28
 7174 0550 00       		.uleb128 0
 7175              	.LLST2:
 7176 0551 04       		.byte	0x4
 7177 0552 00       		.uleb128 .LVL0-.Ltext0
 7178 0553 38       		.uleb128 .LVL1-.Ltext0
 7179 0554 01       		.uleb128 0x1
 7180 0555 58       		.byte	0x58
 7181 0556 04       		.byte	0x4
 7182 0557 38       		.uleb128 .LVL1-.Ltext0
 7183 0558 9B01     		.uleb128 .LVL4-.Ltext0
 7184 055a 01       		.uleb128 0x1
 7185 055b 54       		.byte	0x54
 7186 055c 04       		.byte	0x4
 7187 055d 9B01     		.uleb128 .LVL4-.Ltext0
 7188 055f A001     		.uleb128 .LVL8-.Ltext0
 7189 0561 04       		.uleb128 0x4
 7190 0562 A3       		.byte	0xa3
 7191 0563 01       		.uleb128 0x1
 7192 0564 58       		.byte	0x58
 7193 0565 9F       		.byte	0x9f
 7194 0566 04       		.byte	0x4
 7195 0567 A001     		.uleb128 .LVL8-.Ltext0
 7196 0569 AA01     		.uleb128 .LFE3-.Ltext0
 7197 056b 01       		.uleb128 0x1
 7198 056c 54       		.byte	0x54
 7199 056d 00       		.byte	0
 7200              	.LVUS3:
 7201 056e 00       		.uleb128 0
 7202 056f 00       		.uleb128 .LVU12
 7203 0570 00       		.uleb128 .LVU12
 7204 0571 00       		.uleb128 .LVU27
 7205 0572 00       		.uleb128 .LVU27
 7206 0573 00       		.uleb128 .LVU28
 7207 0574 00       		.uleb128 .LVU28
 7208 0575 00       		.uleb128 0
 7209              	.LLST3:
 7210 0576 04       		.byte	0x4
 7211 0577 00       		.uleb128 .LVL0-.Ltext0
 7212 0578 38       		.uleb128 .LVL1-.Ltext0
 7213 0579 01       		.uleb128 0x1
 7214 057a 59       		.byte	0x59
 7215 057b 04       		.byte	0x4
 7216 057c 38       		.uleb128 .LVL1-.Ltext0
 7217 057d 9F01     		.uleb128 .LVL7-.Ltext0
 7218 057f 01       		.uleb128 0x1
 7219 0580 5C       		.byte	0x5c
 7220 0581 04       		.byte	0x4
 7221 0582 9F01     		.uleb128 .LVL7-.Ltext0
 7222 0584 A001     		.uleb128 .LVL8-.Ltext0
 7223 0586 04       		.uleb128 0x4
 7224 0587 A3       		.byte	0xa3
 7225 0588 01       		.uleb128 0x1
 7226 0589 59       		.byte	0x59
 7227 058a 9F       		.byte	0x9f
 7228 058b 04       		.byte	0x4
 7229 058c A001     		.uleb128 .LVL8-.Ltext0
 7230 058e AA01     		.uleb128 .LFE3-.Ltext0
 7231 0590 01       		.uleb128 0x1
 7232 0591 5C       		.byte	0x5c
 7233 0592 00       		.byte	0
 7234              	.LVUS4:
 7235 0593 00       		.uleb128 0
 7236 0594 00       		.uleb128 .LVU40
 7237 0595 00       		.uleb128 .LVU40
 7238 0596 00       		.uleb128 .LVU41
 7239 0597 00       		.uleb128 .LVU41
 7240 0598 00       		.uleb128 .LVU59
 7241 0599 00       		.uleb128 .LVU59
 7242 059a 00       		.uleb128 0
 7243              	.LLST4:
 7244 059b 04       		.byte	0x4
 7245 059c AA01     		.uleb128 .LVL9-.Ltext0
 7246 059e DC01     		.uleb128 .LVL11-.Ltext0
 7247 05a0 01       		.uleb128 0x1
 7248 05a1 52       		.byte	0x52
 7249 05a2 04       		.byte	0x4
 7250 05a3 DC01     		.uleb128 .LVL11-.Ltext0
 7251 05a5 E001     		.uleb128 .LVL12-1-.Ltext0
 7252 05a7 01       		.uleb128 0x1
 7253 05a8 51       		.byte	0x51
 7254 05a9 04       		.byte	0x4
 7255 05aa E001     		.uleb128 .LVL12-1-.Ltext0
 7256 05ac BB02     		.uleb128 .LVL22-.Ltext0
 7257 05ae 01       		.uleb128 0x1
 7258 05af 55       		.byte	0x55
 7259 05b0 04       		.byte	0x4
 7260 05b1 BB02     		.uleb128 .LVL22-.Ltext0
 7261 05b3 BD02     		.uleb128 .LFE2-.Ltext0
 7262 05b5 04       		.uleb128 0x4
 7263 05b6 A3       		.byte	0xa3
 7264 05b7 01       		.uleb128 0x1
 7265 05b8 52       		.byte	0x52
 7266 05b9 9F       		.byte	0x9f
 7267 05ba 00       		.byte	0
 7268              	.LVUS5:
 7269 05bb 00       		.uleb128 0
 7270 05bc 00       		.uleb128 .LVU39
 7271 05bd 00       		.uleb128 .LVU39
 7272 05be 00       		.uleb128 .LVU60
 7273 05bf 00       		.uleb128 .LVU60
 7274 05c0 00       		.uleb128 0
 7275              	.LLST5:
 7276 05c1 04       		.byte	0x4
 7277 05c2 AA01     		.uleb128 .LVL9-.Ltext0
 7278 05c4 D701     		.uleb128 .LVL10-.Ltext0
 7279 05c6 01       		.uleb128 0x1
 7280 05c7 51       		.byte	0x51
 7281 05c8 04       		.byte	0x4
 7282 05c9 D701     		.uleb128 .LVL10-.Ltext0
 7283 05cb BC02     		.uleb128 .LVL23-.Ltext0
 7284 05cd 01       		.uleb128 0x1
 7285 05ce 56       		.byte	0x56
 7286 05cf 04       		.byte	0x4
 7287 05d0 BC02     		.uleb128 .LVL23-.Ltext0
 7288 05d2 BD02     		.uleb128 .LFE2-.Ltext0
 7289 05d4 04       		.uleb128 0x4
 7290 05d5 A3       		.byte	0xa3
 7291 05d6 01       		.uleb128 0x1
 7292 05d7 51       		.byte	0x51
 7293 05d8 9F       		.byte	0x9f
 7294 05d9 00       		.byte	0
 7295              	.LVUS6:
 7296 05da 00       		.uleb128 .LVU42
 7297 05db 00       		.uleb128 .LVU48
 7298 05dc 00       		.uleb128 .LVU48
 7299 05dd 00       		.uleb128 .LVU49
 7300 05de 00       		.uleb128 .LVU49
 7301 05df 00       		.uleb128 .LVU57
 7302 05e0 00       		.uleb128 .LVU57
 7303 05e1 00       		.uleb128 .LVU58
 7304 05e2 00       		.uleb128 .LVU58
 7305 05e3 00       		.uleb128 0
 7306              	.LLST6:
 7307 05e4 04       		.byte	0x4
 7308 05e5 E401     		.uleb128 .LVL13-.Ltext0
 7309 05e7 FC01     		.uleb128 .LVL15-.Ltext0
 7310 05e9 01       		.uleb128 0x1
 7311 05ea 50       		.byte	0x50
 7312 05eb 04       		.byte	0x4
 7313 05ec FC01     		.uleb128 .LVL15-.Ltext0
 7314 05ee 9702     		.uleb128 .LVL17-.Ltext0
 7315 05f0 01       		.uleb128 0x1
 7316 05f1 53       		.byte	0x53
 7317 05f2 04       		.byte	0x4
 7318 05f3 9702     		.uleb128 .LVL17-.Ltext0
 7319 05f5 B002     		.uleb128 .LVL20-1-.Ltext0
 7320 05f7 01       		.uleb128 0x1
 7321 05f8 50       		.byte	0x50
 7322 05f9 04       		.byte	0x4
 7323 05fa B002     		.uleb128 .LVL20-1-.Ltext0
 7324 05fc B902     		.uleb128 .LVL21-.Ltext0
 7325 05fe 01       		.uleb128 0x1
 7326 05ff 53       		.byte	0x53
 7327 0600 04       		.byte	0x4
 7328 0601 B902     		.uleb128 .LVL21-.Ltext0
 7329 0603 BD02     		.uleb128 .LFE2-.Ltext0
 7330 0605 01       		.uleb128 0x1
 7331 0606 50       		.byte	0x50
 7332 0607 00       		.byte	0
 7333              	.LVUS7:
 7334 0608 00       		.uleb128 .LVU45
 7335 0609 00       		.uleb128 .LVU52
 7336 060a 00       		.uleb128 .LVU52
 7337 060b 00       		.uleb128 .LVU53
 7338 060c 00       		.uleb128 .LVU53
 7339 060d 00       		.uleb128 .LVU57
 7340              	.LLST7:
 7341 060e 04       		.byte	0x4
 7342 060f EE01     		.uleb128 .LVL14-.Ltext0
 7343 0611 A002     		.uleb128 .LVL18-.Ltext0
 7344 0613 01       		.uleb128 0x1
 7345 0614 54       		.byte	0x54
 7346 0615 04       		.byte	0x4
 7347 0616 A002     		.uleb128 .LVL18-.Ltext0
 7348 0618 A202     		.uleb128 .LVL19-.Ltext0
 7349 061a 03       		.uleb128 0x3
 7350 061b 74       		.byte	0x74
 7351 061c 7F       		.sleb128 -1
 7352 061d 9F       		.byte	0x9f
 7353 061e 04       		.byte	0x4
 7354 061f A202     		.uleb128 .LVL19-.Ltext0
 7355 0621 B102     		.uleb128 .LVL20-.Ltext0
 7356 0623 01       		.uleb128 0x1
 7357 0624 54       		.byte	0x54
 7358 0625 00       		.byte	0
 7359              	.Ldebug_loc3:
 7360              		.section	.debug_aranges,"dr"
 7361 0000 2C000000 		.long	0x2c
 7362 0004 0200     		.word	0x2
 7363 0006 00000000 		.secrel32	.Ldebug_info0
 7364 000a 08       		.byte	0x8
 7365 000b 00       		.byte	0
 7366 000c 0000     		.word	0
 7367 000e 0000     		.word	0
 7368 0010 00000000 		.quad	.Ltext0
 7368      00000000 
 7369 0018 6B080000 		.quad	.Letext0-.Ltext0
 7369      00000000 
 7370 0020 00000000 		.quad	0
 7370      00000000 
 7371 0028 00000000 		.quad	0
 7371      00000000 
 7372              		.section	.debug_macro,"dr"
 7373              	.Ldebug_macro0:
 7374 0000 0500     		.word	0x5
 7375 0002 02       		.byte	0x2
 7376 0003 00000000 		.secrel32	.Ldebug_line0
 7377 0007 01       		.byte	0x1
 7378 0008 00       		.uleb128 0
 7379 0009 5F5F5354 		.ascii "__STDC__ 1\0"
 7379      44435F5F 
 7379      203100
 7380 0014 01       		.byte	0x1
 7381 0015 00       		.uleb128 0
 7382 0016 5F5F5354 		.ascii "__STDC_VERSION__ 201112L\0"
 7382      44435F56 
 7382      45525349 
 7382      4F4E5F5F 
 7382      20323031 
 7383 002f 01       		.byte	0x1
 7384 0030 00       		.uleb128 0
 7385 0031 5F5F5354 		.ascii "__STDC_UTF_16__ 1\0"
 7385      44435F55 
 7385      54465F31 
 7385      365F5F20 
 7385      3100
 7386 0043 01       		.byte	0x1
 7387 0044 00       		.uleb128 0
 7388 0045 5F5F5354 		.ascii "__STDC_UTF_32__ 1\0"
 7388      44435F55 
 7388      54465F33 
 7388      325F5F20 
 7388      3100
 7389 0057 01       		.byte	0x1
 7390 0058 00       		.uleb128 0
 7391 0059 5F5F5354 		.ascii "__STDC_HOSTED__ 0\0"
 7391      44435F48 
 7391      4F535445 
 7391      445F5F20 
 7391      3000
 7392 006b 01       		.byte	0x1
 7393 006c 00       		.uleb128 0
 7394 006d 5F5F474E 		.ascii "__GNUC__ 14\0"
 7394      55435F5F 
 7394      20313400 
 7395 0079 01       		.byte	0x1
 7396 007a 00       		.uleb128 0
 7397 007b 5F5F474E 		.ascii "__GNUC_MINOR__ 2\0"
 7397      55435F4D 
 7397      494E4F52 
 7397      5F5F2032 
 7397      00
 7398 008c 01       		.byte	0x1
 7399 008d 00       		.uleb128 0
 7400 008e 5F5F474E 		.ascii "__GNUC_PATCHLEVEL__ 0\0"
 7400      55435F50 
 7400      41544348 
 7400      4C455645 
 7400      4C5F5F20 
 7401 00a4 01       		.byte	0x1
 7402 00a5 00       		.uleb128 0
 7403 00a6 5F5F5645 		.ascii "__VERSION__ \"14.2.0\"\0"
 7403      5253494F 
 7403      4E5F5F20 
 7403      2231342E 
 7403      322E3022 
 7404 00bb 01       		.byte	0x1
 7405 00bc 00       		.uleb128 0
 7406 00bd 5F5F4154 		.ascii "__ATOMIC_RELAXED 0\0"
 7406      4F4D4943 
 7406      5F52454C 
 7406      41584544 
 7406      203000
 7407 00d0 01       		.byte	0x1
 7408 00d1 00       		.uleb128 0
 7409 00d2 5F5F4154 		.ascii "__ATOMIC_SEQ_CST 5\0"
 7409      4F4D4943 
 7409      5F534551 
 7409      5F435354 
 7409      203500
 7410 00e5 01       		.byte	0x1
 7411 00e6 00       		.uleb128 0
 7412 00e7 5F5F4154 		.ascii "__ATOMIC_ACQUIRE 2\0"
 7412      4F4D4943 
 7412      5F414351 
 7412      55495245 
 7412      203200
 7413 00fa 01       		.byte	0x1
 7414 00fb 00       		.uleb128 0
 7415 00fc 5F5F4154 		.ascii "__ATOMIC_RELEASE 3\0"
 7415      4F4D4943 
 7415      5F52454C 
 7415      45415345 
 7415      203300
 7416 010f 01       		.byte	0x1
 7417 0110 00       		.uleb128 0
 7418 0111 5F5F4154 		.ascii "__ATOMIC_ACQ_REL 4\0"
 7418      4F4D4943 
 7418      5F414351 
 7418      5F52454C 
 7418      203400
 7419 0124 01       		.byte	0x1
 7420 0125 00       		.uleb128 0
 7421 0126 5F5F4154 		.ascii "__ATOMIC_CONSUME 1\0"
 7421      4F4D4943 
 7421      5F434F4E 
 7421      53554D45 
 7421      203100
 7422 0139 01       		.byte	0x1
 7423 013a 00       		.uleb128 0
 7424 013b 5F5F7069 		.ascii "__pic__ 1\0"
 7424      635F5F20 
 7424      3100
 7425 0145 01       		.byte	0x1
 7426 0146 00       		.uleb128 0
 7427 0147 5F5F5049 		.ascii "__PIC__ 1\0"
 7427      435F5F20 
 7427      3100
 7428 0151 01       		.byte	0x1
 7429 0152 00       		.uleb128 0
 7430 0153 5F5F4F50 		.ascii "__OPTIMIZE__ 1\0"
 7430      54494D49 
 7430      5A455F5F 
 7430      203100
 7431 0162 01       		.byte	0x1
 7432 0163 00       		.uleb128 0
 7433 0164 5F5F4649 		.ascii "__FINITE_MATH_ONLY__ 0\0"
 7433      4E495445 
 7433      5F4D4154 
 7433      485F4F4E 
 7433      4C595F5F 
 7434 017b 01       		.byte	0x1
 7435 017c 00       		.uleb128 0
 7436 017d 5F5F5349 		.ascii "__SIZEOF_INT__ 4\0"
 7436      5A454F46 
 7436      5F494E54 
 7436      5F5F2034 
 7436      00
 7437 018e 01       		.byte	0x1
 7438 018f 00       		.uleb128 0
 7439 0190 5F5F5349 		.ascii "__SIZEOF_LONG__ 4\0"
 7439      5A454F46 
 7439      5F4C4F4E 
 7439      475F5F20 
 7439      3400
 7440 01a2 01       		.byte	0x1
 7441 01a3 00       		.uleb128 0
 7442 01a4 5F5F5349 		.ascii "__SIZEOF_LONG_LONG__ 8\0"
 7442      5A454F46 
 7442      5F4C4F4E 
 7442      475F4C4F 
 7442      4E475F5F 
 7443 01bb 01       		.byte	0x1
 7444 01bc 00       		.uleb128 0
 7445 01bd 5F5F5349 		.ascii "__SIZEOF_SHORT__ 2\0"
 7445      5A454F46 
 7445      5F53484F 
 7445      52545F5F 
 7445      203200
 7446 01d0 01       		.byte	0x1
 7447 01d1 00       		.uleb128 0
 7448 01d2 5F5F5349 		.ascii "__SIZEOF_FLOAT__ 4\0"
 7448      5A454F46 
 7448      5F464C4F 
 7448      41545F5F 
 7448      203400
 7449 01e5 01       		.byte	0x1
 7450 01e6 00       		.uleb128 0
 7451 01e7 5F5F5349 		.ascii "__SIZEOF_DOUBLE__ 8\0"
 7451      5A454F46 
 7451      5F444F55 
 7451      424C455F 
 7451      5F203800 
 7452 01fb 01       		.byte	0x1
 7453 01fc 00       		.uleb128 0
 7454 01fd 5F5F5349 		.ascii "__SIZEOF_LONG_DOUBLE__ 16\0"
 7454      5A454F46 
 7454      5F4C4F4E 
 7454      475F444F 
 7454      55424C45 
 7455 0217 01       		.byte	0x1
 7456 0218 00       		.uleb128 0
 7457 0219 5F5F5349 		.ascii "__SIZEOF_SIZE_T__ 8\0"
 7457      5A454F46 
 7457      5F53495A 
 7457      455F545F 
 7457      5F203800 
 7458 022d 01       		.byte	0x1
 7459 022e 00       		.uleb128 0
 7460 022f 5F5F4348 		.ascii "__CHAR_BIT__ 8\0"
 7460      41525F42 
 7460      49545F5F 
 7460      203800
 7461 023e 01       		.byte	0x1
 7462 023f 00       		.uleb128 0
 7463 0240 5F5F4249 		.ascii "__BIGGEST_ALIGNMENT__ 16\0"
 7463      47474553 
 7463      545F414C 
 7463      49474E4D 
 7463      454E545F 
 7464 0259 01       		.byte	0x1
 7465 025a 00       		.uleb128 0
 7466 025b 5F5F4F52 		.ascii "__ORDER_LITTLE_ENDIAN__ 1234\0"
 7466      4445525F 
 7466      4C495454 
 7466      4C455F45 
 7466      4E444941 
 7467 0278 01       		.byte	0x1
 7468 0279 00       		.uleb128 0
 7469 027a 5F5F4F52 		.ascii "__ORDER_BIG_ENDIAN__ 4321\0"
 7469      4445525F 
 7469      4249475F 
 7469      454E4449 
 7469      414E5F5F 
 7470 0294 01       		.byte	0x1
 7471 0295 00       		.uleb128 0
 7472 0296 5F5F4F52 		.ascii "__ORDER_PDP_ENDIAN__ 3412\0"
 7472      4445525F 
 7472      5044505F 
 7472      454E4449 
 7472      414E5F5F 
 7473 02b0 01       		.byte	0x1
 7474 02b1 00       		.uleb128 0
 7475 02b2 5F5F4259 		.ascii "__BYTE_ORDER__ __ORDER_LITTLE_ENDIAN__\0"
 7475      54455F4F 
 7475      52444552 
 7475      5F5F205F 
 7475      5F4F5244 
 7476 02d9 01       		.byte	0x1
 7477 02da 00       		.uleb128 0
 7478 02db 5F5F464C 		.ascii "__FLOAT_WORD_ORDER__ __ORDER_LITTLE_ENDIAN__\0"
 7478      4F41545F 
 7478      574F5244 
 7478      5F4F5244 
 7478      45525F5F 
 7479 0308 01       		.byte	0x1
 7480 0309 00       		.uleb128 0
 7481 030a 5F5F5349 		.ascii "__SIZEOF_POINTER__ 8\0"
 7481      5A454F46 
 7481      5F504F49 
 7481      4E544552 
 7481      5F5F2038 
 7482 031f 01       		.byte	0x1
 7483 0320 00       		.uleb128 0
 7484 0321 5F5F474E 		.ascii "__GNUC_EXECUTION_CHARSET_NAME \"UTF-8\"\0"
 7484      55435F45 
 7484      58454355 
 7484      54494F4E 
 7484      5F434841 
 7485 0347 01       		.byte	0x1
 7486 0348 00       		.uleb128 0
 7487 0349 5F5F474E 		.ascii "__GNUC_WIDE_EXECUTION_CHARSET_NAME \"UTF-16LE\"\0"
 7487      55435F57 
 7487      4944455F 
 7487      45584543 
 7487      5554494F 
 7488 0377 01       		.byte	0x1
 7489 0378 00       		.uleb128 0
 7490 0379 5F5F5349 		.ascii "__SIZE_TYPE__ long long unsigned int\0"
 7490      5A455F54 
 7490      5950455F 
 7490      5F206C6F 
 7490      6E67206C 
 7491 039e 01       		.byte	0x1
 7492 039f 00       		.uleb128 0
 7493 03a0 5F5F5054 		.ascii "__PTRDIFF_TYPE__ long long int\0"
 7493      52444946 
 7493      465F5459 
 7493      50455F5F 
 7493      206C6F6E 
 7494 03bf 01       		.byte	0x1
 7495 03c0 00       		.uleb128 0
 7496 03c1 5F5F5743 		.ascii "__WCHAR_TYPE__ short unsigned int\0"
 7496      4841525F 
 7496      54595045 
 7496      5F5F2073 
 7496      686F7274 
 7497 03e3 01       		.byte	0x1
 7498 03e4 00       		.uleb128 0
 7499 03e5 5F5F5749 		.ascii "__WINT_TYPE__ short unsigned int\0"
 7499      4E545F54 
 7499      5950455F 
 7499      5F207368 
 7499      6F727420 
 7500 0406 01       		.byte	0x1
 7501 0407 00       		.uleb128 0
 7502 0408 5F5F494E 		.ascii "__INTMAX_TYPE__ long long int\0"
 7502      544D4158 
 7502      5F545950 
 7502      455F5F20 
 7502      6C6F6E67 
 7503 0426 01       		.byte	0x1
 7504 0427 00       		.uleb128 0
 7505 0428 5F5F5549 		.ascii "__UINTMAX_TYPE__ long long unsigned int\0"
 7505      4E544D41 
 7505      585F5459 
 7505      50455F5F 
 7505      206C6F6E 
 7506 0450 01       		.byte	0x1
 7507 0451 00       		.uleb128 0
 7508 0452 5F5F4348 		.ascii "__CHAR16_TYPE__ short unsigned int\0"
 7508      41523136 
 7508      5F545950 
 7508      455F5F20 
 7508      73686F72 
 7509 0475 01       		.byte	0x1
 7510 0476 00       		.uleb128 0
 7511 0477 5F5F4348 		.ascii "__CHAR32_TYPE__ unsigned int\0"
 7511      41523332 
 7511      5F545950 
 7511      455F5F20 
 7511      756E7369 
 7512 0494 01       		.byte	0x1
 7513 0495 00       		.uleb128 0
 7514 0496 5F5F5349 		.ascii "__SIG_ATOMIC_TYPE__ int\0"
 7514      475F4154 
 7514      4F4D4943 
 7514      5F545950 
 7514      455F5F20 
 7515 04ae 01       		.byte	0x1
 7516 04af 00       		.uleb128 0
 7517 04b0 5F5F494E 		.ascii "__INT8_TYPE__ signed char\0"
 7517      54385F54 
 7517      5950455F 
 7517      5F207369 
 7517      676E6564 
 7518 04ca 01       		.byte	0x1
 7519 04cb 00       		.uleb128 0
 7520 04cc 5F5F494E 		.ascii "__INT16_TYPE__ short int\0"
 7520      5431365F 
 7520      54595045 
 7520      5F5F2073 
 7520      686F7274 
 7521 04e5 01       		.byte	0x1
 7522 04e6 00       		.uleb128 0
 7523 04e7 5F5F494E 		.ascii "__INT32_TYPE__ int\0"
 7523      5433325F 
 7523      54595045 
 7523      5F5F2069 
 7523      6E7400
 7524 04fa 01       		.byte	0x1
 7525 04fb 00       		.uleb128 0
 7526 04fc 5F5F494E 		.ascii "__INT64_TYPE__ long long int\0"
 7526      5436345F 
 7526      54595045 
 7526      5F5F206C 
 7526      6F6E6720 
 7527 0519 01       		.byte	0x1
 7528 051a 00       		.uleb128 0
 7529 051b 5F5F5549 		.ascii "__UINT8_TYPE__ unsigned char\0"
 7529      4E54385F 
 7529      54595045 
 7529      5F5F2075 
 7529      6E736967 
 7530 0538 01       		.byte	0x1
 7531 0539 00       		.uleb128 0
 7532 053a 5F5F5549 		.ascii "__UINT16_TYPE__ short unsigned int\0"
 7532      4E543136 
 7532      5F545950 
 7532      455F5F20 
 7532      73686F72 
 7533 055d 01       		.byte	0x1
 7534 055e 00       		.uleb128 0
 7535 055f 5F5F5549 		.ascii "__UINT32_TYPE__ unsigned int\0"
 7535      4E543332 
 7535      5F545950 
 7535      455F5F20 
 7535      756E7369 
 7536 057c 01       		.byte	0x1
 7537 057d 00       		.uleb128 0
 7538 057e 5F5F5549 		.ascii "__UINT64_TYPE__ long long unsigned int\0"
 7538      4E543634 
 7538      5F545950 
 7538      455F5F20 
 7538      6C6F6E67 
 7539 05a5 01       		.byte	0x1
 7540 05a6 00       		.uleb128 0
 7541 05a7 5F5F494E 		.ascii "__INT_LEAST8_TYPE__ signed char\0"
 7541      545F4C45 
 7541      41535438 
 7541      5F545950 
 7541      455F5F20 
 7542 05c7 01       		.byte	0x1
 7543 05c8 00       		.uleb128 0
 7544 05c9 5F5F494E 		.ascii "__INT_LEAST16_TYPE__ short int\0"
 7544      545F4C45 
 7544      41535431 
 7544      365F5459 
 7544      50455F5F 
 7545 05e8 01       		.byte	0x1
 7546 05e9 00       		.uleb128 0
 7547 05ea 5F5F494E 		.ascii "__INT_LEAST32_TYPE__ int\0"
 7547      545F4C45 
 7547      41535433 
 7547      325F5459 
 7547      50455F5F 
 7548 0603 01       		.byte	0x1
 7549 0604 00       		.uleb128 0
 7550 0605 5F5F494E 		.ascii "__INT_LEAST64_TYPE__ long long int\0"
 7550      545F4C45 
 7550      41535436 
 7550      345F5459 
 7550      50455F5F 
 7551 0628 01       		.byte	0x1
 7552 0629 00       		.uleb128 0
 7553 062a 5F5F5549 		.ascii "__UINT_LEAST8_TYPE__ unsigned char\0"
 7553      4E545F4C 
 7553      45415354 
 7553      385F5459 
 7553      50455F5F 
 7554 064d 01       		.byte	0x1
 7555 064e 00       		.uleb128 0
 7556 064f 5F5F5549 		.ascii "__UINT_LEAST16_TYPE__ short unsigned int\0"
 7556      4E545F4C 
 7556      45415354 
 7556      31365F54 
 7556      5950455F 
 7557 0678 01       		.byte	0x1
 7558 0679 00       		.uleb128 0
 7559 067a 5F5F5549 		.ascii "__UINT_LEAST32_TYPE__ unsigned int\0"
 7559      4E545F4C 
 7559      45415354 
 7559      33325F54 
 7559      5950455F 
 7560 069d 01       		.byte	0x1
 7561 069e 00       		.uleb128 0
 7562 069f 5F5F5549 		.ascii "__UINT_LEAST64_TYPE__ long long unsigned int\0"
 7562      4E545F4C 
 7562      45415354 
 7562      36345F54 
 7562      5950455F 
 7563 06cc 01       		.byte	0x1
 7564 06cd 00       		.uleb128 0
 7565 06ce 5F5F494E 		.ascii "__INT_FAST8_TYPE__ signed char\0"
 7565      545F4641 
 7565      5354385F 
 7565      54595045 
 7565      5F5F2073 
 7566 06ed 01       		.byte	0x1
 7567 06ee 00       		.uleb128 0
 7568 06ef 5F5F494E 		.ascii "__INT_FAST16_TYPE__ short int\0"
 7568      545F4641 
 7568      53543136 
 7568      5F545950 
 7568      455F5F20 
 7569 070d 01       		.byte	0x1
 7570 070e 00       		.uleb128 0
 7571 070f 5F5F494E 		.ascii "__INT_FAST32_TYPE__ int\0"
 7571      545F4641 
 7571      53543332 
 7571      5F545950 
 7571      455F5F20 
 7572 0727 01       		.byte	0x1
 7573 0728 00       		.uleb128 0
 7574 0729 5F5F494E 		.ascii "__INT_FAST64_TYPE__ long long int\0"
 7574      545F4641 
 7574      53543634 
 7574      5F545950 
 7574      455F5F20 
 7575 074b 01       		.byte	0x1
 7576 074c 00       		.uleb128 0
 7577 074d 5F5F5549 		.ascii "__UINT_FAST8_TYPE__ unsigned char\0"
 7577      4E545F46 
 7577      41535438 
 7577      5F545950 
 7577      455F5F20 
 7578 076f 01       		.byte	0x1
 7579 0770 00       		.uleb128 0
 7580 0771 5F5F5549 		.ascii "__UINT_FAST16_TYPE__ short unsigned int\0"
 7580      4E545F46 
 7580      41535431 
 7580      365F5459 
 7580      50455F5F 
 7581 0799 01       		.byte	0x1
 7582 079a 00       		.uleb128 0
 7583 079b 5F5F5549 		.ascii "__UINT_FAST32_TYPE__ unsigned int\0"
 7583      4E545F46 
 7583      41535433 
 7583      325F5459 
 7583      50455F5F 
 7584 07bd 01       		.byte	0x1
 7585 07be 00       		.uleb128 0
 7586 07bf 5F5F5549 		.ascii "__UINT_FAST64_TYPE__ long long unsigned int\0"
 7586      4E545F46 
 7586      41535436 
 7586      345F5459 
 7586      50455F5F 
 7587 07eb 01       		.byte	0x1
 7588 07ec 00       		.uleb128 0
 7589 07ed 5F5F494E 		.ascii "__INTPTR_TYPE__ long long int\0"
 7589      54505452 
 7589      5F545950 
 7589      455F5F20 
 7589      6C6F6E67 
 7590 080b 01       		.byte	0x1
 7591 080c 00       		.uleb128 0
 7592 080d 5F5F5549 		.ascii "__UINTPTR_TYPE__ long long unsigned int\0"
 7592      4E545054 
 7592      525F5459 
 7592      50455F5F 
 7592      206C6F6E 
 7593 0835 01       		.byte	0x1
 7594 0836 00       		.uleb128 0
 7595 0837 5F5F4758 		.ascii "__GXX_ABI_VERSION 1019\0"
 7595      585F4142 
 7595      495F5645 
 7595      5253494F 
 7595      4E203130 
 7596 084e 01       		.byte	0x1
 7597 084f 00       		.uleb128 0
 7598 0850 5F5F5343 		.ascii "__SCHAR_MAX__ 0x7f\0"
 7598      4841525F 
 7598      4D41585F 
 7598      5F203078 
 7598      376600
 7599 0863 01       		.byte	0x1
 7600 0864 00       		.uleb128 0
 7601 0865 5F5F5348 		.ascii "__SHRT_MAX__ 0x7fff\0"
 7601      52545F4D 
 7601      41585F5F 
 7601      20307837 
 7601      66666600 
 7602 0879 01       		.byte	0x1
 7603 087a 00       		.uleb128 0
 7604 087b 5F5F494E 		.ascii "__INT_MAX__ 0x7fffffff\0"
 7604      545F4D41 
 7604      585F5F20 
 7604      30783766 
 7604      66666666 
 7605 0892 01       		.byte	0x1
 7606 0893 00       		.uleb128 0
 7607 0894 5F5F4C4F 		.ascii "__LONG_MAX__ 0x7fffffffL\0"
 7607      4E475F4D 
 7607      41585F5F 
 7607      20307837 
 7607      66666666 
 7608 08ad 01       		.byte	0x1
 7609 08ae 00       		.uleb128 0
 7610 08af 5F5F4C4F 		.ascii "__LONG_LONG_MAX__ 0x7fffffffffffffffLL\0"
 7610      4E475F4C 
 7610      4F4E475F 
 7610      4D41585F 
 7610      5F203078 
 7611 08d6 01       		.byte	0x1
 7612 08d7 00       		.uleb128 0
 7613 08d8 5F5F5743 		.ascii "__WCHAR_MAX__ 0xffff\0"
 7613      4841525F 
 7613      4D41585F 
 7613      5F203078 
 7613      66666666 
 7614 08ed 01       		.byte	0x1
 7615 08ee 00       		.uleb128 0
 7616 08ef 5F5F5743 		.ascii "__WCHAR_MIN__ 0\0"
 7616      4841525F 
 7616      4D494E5F 
 7616      5F203000 
 7617 08ff 01       		.byte	0x1
 7618 0900 00       		.uleb128 0
 7619 0901 5F5F5749 		.ascii "__WINT_MAX__ 0xffff\0"
 7619      4E545F4D 
 7619      41585F5F 
 7619      20307866 
 7619      66666600 
 7620 0915 01       		.byte	0x1
 7621 0916 00       		.uleb128 0
 7622 0917 5F5F5749 		.ascii "__WINT_MIN__ 0\0"
 7622      4E545F4D 
 7622      494E5F5F 
 7622      203000
 7623 0926 01       		.byte	0x1
 7624 0927 00       		.uleb128 0
 7625 0928 5F5F5054 		.ascii "__PTRDIFF_MAX__ 0x7fffffffffffffffLL\0"
 7625      52444946 
 7625      465F4D41 
 7625      585F5F20 
 7625      30783766 
 7626 094d 01       		.byte	0x1
 7627 094e 00       		.uleb128 0
 7628 094f 5F5F5349 		.ascii "__SIZE_MAX__ 0xffffffffffffffffULL\0"
 7628      5A455F4D 
 7628      41585F5F 
 7628      20307866 
 7628      66666666 
 7629 0972 01       		.byte	0x1
 7630 0973 00       		.uleb128 0
 7631 0974 5F5F5343 		.ascii "__SCHAR_WIDTH__ 8\0"
 7631      4841525F 
 7631      57494454 
 7631      485F5F20 
 7631      3800
 7632 0986 01       		.byte	0x1
 7633 0987 00       		.uleb128 0
 7634 0988 5F5F5348 		.ascii "__SHRT_WIDTH__ 16\0"
 7634      52545F57 
 7634      49445448 
 7634      5F5F2031 
 7634      3600
 7635 099a 01       		.byte	0x1
 7636 099b 00       		.uleb128 0
 7637 099c 5F5F494E 		.ascii "__INT_WIDTH__ 32\0"
 7637      545F5749 
 7637      4454485F 
 7637      5F203332 
 7637      00
 7638 09ad 01       		.byte	0x1
 7639 09ae 00       		.uleb128 0
 7640 09af 5F5F4C4F 		.ascii "__LONG_WIDTH__ 32\0"
 7640      4E475F57 
 7640      49445448 
 7640      5F5F2033 
 7640      3200
 7641 09c1 01       		.byte	0x1
 7642 09c2 00       		.uleb128 0
 7643 09c3 5F5F4C4F 		.ascii "__LONG_LONG_WIDTH__ 64\0"
 7643      4E475F4C 
 7643      4F4E475F 
 7643      57494454 
 7643      485F5F20 
 7644 09da 01       		.byte	0x1
 7645 09db 00       		.uleb128 0
 7646 09dc 5F5F5743 		.ascii "__WCHAR_WIDTH__ 16\0"
 7646      4841525F 
 7646      57494454 
 7646      485F5F20 
 7646      313600
 7647 09ef 01       		.byte	0x1
 7648 09f0 00       		.uleb128 0
 7649 09f1 5F5F5749 		.ascii "__WINT_WIDTH__ 16\0"
 7649      4E545F57 
 7649      49445448 
 7649      5F5F2031 
 7649      3600
 7650 0a03 01       		.byte	0x1
 7651 0a04 00       		.uleb128 0
 7652 0a05 5F5F5054 		.ascii "__PTRDIFF_WIDTH__ 64\0"
 7652      52444946 
 7652      465F5749 
 7652      4454485F 
 7652      5F203634 
 7653 0a1a 01       		.byte	0x1
 7654 0a1b 00       		.uleb128 0
 7655 0a1c 5F5F5349 		.ascii "__SIZE_WIDTH__ 64\0"
 7655      5A455F57 
 7655      49445448 
 7655      5F5F2036 
 7655      3400
 7656 0a2e 01       		.byte	0x1
 7657 0a2f 00       		.uleb128 0
 7658 0a30 5F5F4249 		.ascii "__BITINT_MAXWIDTH__ 65535\0"
 7658      54494E54 
 7658      5F4D4158 
 7658      57494454 
 7658      485F5F20 
 7659 0a4a 01       		.byte	0x1
 7660 0a4b 00       		.uleb128 0
 7661 0a4c 5F5F494E 		.ascii "__INTMAX_MAX__ 0x7fffffffffffffffLL\0"
 7661      544D4158 
 7661      5F4D4158 
 7661      5F5F2030 
 7661      78376666 
 7662 0a70 01       		.byte	0x1
 7663 0a71 00       		.uleb128 0
 7664 0a72 5F5F494E 		.ascii "__INTMAX_C(c) c ## LL\0"
 7664      544D4158 
 7664      5F432863 
 7664      29206320 
 7664      2323204C 
 7665 0a88 01       		.byte	0x1
 7666 0a89 00       		.uleb128 0
 7667 0a8a 5F5F5549 		.ascii "__UINTMAX_MAX__ 0xffffffffffffffffULL\0"
 7667      4E544D41 
 7667      585F4D41 
 7667      585F5F20 
 7667      30786666 
 7668 0ab0 01       		.byte	0x1
 7669 0ab1 00       		.uleb128 0
 7670 0ab2 5F5F5549 		.ascii "__UINTMAX_C(c) c ## ULL\0"
 7670      4E544D41 
 7670      585F4328 
 7670      63292063 
 7670      20232320 
 7671 0aca 01       		.byte	0x1
 7672 0acb 00       		.uleb128 0
 7673 0acc 5F5F494E 		.ascii "__INTMAX_WIDTH__ 64\0"
 7673      544D4158 
 7673      5F574944 
 7673      54485F5F 
 7673      20363400 
 7674 0ae0 01       		.byte	0x1
 7675 0ae1 00       		.uleb128 0
 7676 0ae2 5F5F5349 		.ascii "__SIG_ATOMIC_MAX__ 0x7fffffff\0"
 7676      475F4154 
 7676      4F4D4943 
 7676      5F4D4158 
 7676      5F5F2030 
 7677 0b00 01       		.byte	0x1
 7678 0b01 00       		.uleb128 0
 7679 0b02 5F5F5349 		.ascii "__SIG_ATOMIC_MIN__ (-__SIG_ATOMIC_MAX__ - 1)\0"
 7679      475F4154 
 7679      4F4D4943 
 7679      5F4D494E 
 7679      5F5F2028 
 7680 0b2f 01       		.byte	0x1
 7681 0b30 00       		.uleb128 0
 7682 0b31 5F5F5349 		.ascii "__SIG_ATOMIC_WIDTH__ 32\0"
 7682      475F4154 
 7682      4F4D4943 
 7682      5F574944 
 7682      54485F5F 
 7683 0b49 01       		.byte	0x1
 7684 0b4a 00       		.uleb128 0
 7685 0b4b 5F5F494E 		.ascii "__INT8_MAX__ 0x7f\0"
 7685      54385F4D 
 7685      41585F5F 
 7685      20307837 
 7685      6600
 7686 0b5d 01       		.byte	0x1
 7687 0b5e 00       		.uleb128 0
 7688 0b5f 5F5F494E 		.ascii "__INT16_MAX__ 0x7fff\0"
 7688      5431365F 
 7688      4D41585F 
 7688      5F203078 
 7688      37666666 
 7689 0b74 01       		.byte	0x1
 7690 0b75 00       		.uleb128 0
 7691 0b76 5F5F494E 		.ascii "__INT32_MAX__ 0x7fffffff\0"
 7691      5433325F 
 7691      4D41585F 
 7691      5F203078 
 7691      37666666 
 7692 0b8f 01       		.byte	0x1
 7693 0b90 00       		.uleb128 0
 7694 0b91 5F5F494E 		.ascii "__INT64_MAX__ 0x7fffffffffffffffLL\0"
 7694      5436345F 
 7694      4D41585F 
 7694      5F203078 
 7694      37666666 
 7695 0bb4 01       		.byte	0x1
 7696 0bb5 00       		.uleb128 0
 7697 0bb6 5F5F5549 		.ascii "__UINT8_MAX__ 0xff\0"
 7697      4E54385F 
 7697      4D41585F 
 7697      5F203078 
 7697      666600
 7698 0bc9 01       		.byte	0x1
 7699 0bca 00       		.uleb128 0
 7700 0bcb 5F5F5549 		.ascii "__UINT16_MAX__ 0xffff\0"
 7700      4E543136 
 7700      5F4D4158 
 7700      5F5F2030 
 7700      78666666 
 7701 0be1 01       		.byte	0x1
 7702 0be2 00       		.uleb128 0
 7703 0be3 5F5F5549 		.ascii "__UINT32_MAX__ 0xffffffffU\0"
 7703      4E543332 
 7703      5F4D4158 
 7703      5F5F2030 
 7703      78666666 
 7704 0bfe 01       		.byte	0x1
 7705 0bff 00       		.uleb128 0
 7706 0c00 5F5F5549 		.ascii "__UINT64_MAX__ 0xffffffffffffffffULL\0"
 7706      4E543634 
 7706      5F4D4158 
 7706      5F5F2030 
 7706      78666666 
 7707 0c25 01       		.byte	0x1
 7708 0c26 00       		.uleb128 0
 7709 0c27 5F5F494E 		.ascii "__INT_LEAST8_MAX__ 0x7f\0"
 7709      545F4C45 
 7709      41535438 
 7709      5F4D4158 
 7709      5F5F2030 
 7710 0c3f 01       		.byte	0x1
 7711 0c40 00       		.uleb128 0
 7712 0c41 5F5F494E 		.ascii "__INT8_C(c) c\0"
 7712      54385F43 
 7712      28632920 
 7712      6300
 7713 0c4f 01       		.byte	0x1
 7714 0c50 00       		.uleb128 0
 7715 0c51 5F5F494E 		.ascii "__INT_LEAST8_WIDTH__ 8\0"
 7715      545F4C45 
 7715      41535438 
 7715      5F574944 
 7715      54485F5F 
 7716 0c68 01       		.byte	0x1
 7717 0c69 00       		.uleb128 0
 7718 0c6a 5F5F494E 		.ascii "__INT_LEAST16_MAX__ 0x7fff\0"
 7718      545F4C45 
 7718      41535431 
 7718      365F4D41 
 7718      585F5F20 
 7719 0c85 01       		.byte	0x1
 7720 0c86 00       		.uleb128 0
 7721 0c87 5F5F494E 		.ascii "__INT16_C(c) c\0"
 7721      5431365F 
 7721      43286329 
 7721      206300
 7722 0c96 01       		.byte	0x1
 7723 0c97 00       		.uleb128 0
 7724 0c98 5F5F494E 		.ascii "__INT_LEAST16_WIDTH__ 16\0"
 7724      545F4C45 
 7724      41535431 
 7724      365F5749 
 7724      4454485F 
 7725 0cb1 01       		.byte	0x1
 7726 0cb2 00       		.uleb128 0
 7727 0cb3 5F5F494E 		.ascii "__INT_LEAST32_MAX__ 0x7fffffff\0"
 7727      545F4C45 
 7727      41535433 
 7727      325F4D41 
 7727      585F5F20 
 7728 0cd2 01       		.byte	0x1
 7729 0cd3 00       		.uleb128 0
 7730 0cd4 5F5F494E 		.ascii "__INT32_C(c) c\0"
 7730      5433325F 
 7730      43286329 
 7730      206300
 7731 0ce3 01       		.byte	0x1
 7732 0ce4 00       		.uleb128 0
 7733 0ce5 5F5F494E 		.ascii "__INT_LEAST32_WIDTH__ 32\0"
 7733      545F4C45 
 7733      41535433 
 7733      325F5749 
 7733      4454485F 
 7734 0cfe 01       		.byte	0x1
 7735 0cff 00       		.uleb128 0
 7736 0d00 5F5F494E 		.ascii "__INT_LEAST64_MAX__ 0x7fffffffffffffffLL\0"
 7736      545F4C45 
 7736      41535436 
 7736      345F4D41 
 7736      585F5F20 
 7737 0d29 01       		.byte	0x1
 7738 0d2a 00       		.uleb128 0
 7739 0d2b 5F5F494E 		.ascii "__INT64_C(c) c ## LL\0"
 7739      5436345F 
 7739      43286329 
 7739      20632023 
 7739      23204C4C 
 7740 0d40 01       		.byte	0x1
 7741 0d41 00       		.uleb128 0
 7742 0d42 5F5F494E 		.ascii "__INT_LEAST64_WIDTH__ 64\0"
 7742      545F4C45 
 7742      41535436 
 7742      345F5749 
 7742      4454485F 
 7743 0d5b 01       		.byte	0x1
 7744 0d5c 00       		.uleb128 0
 7745 0d5d 5F5F5549 		.ascii "__UINT_LEAST8_MAX__ 0xff\0"
 7745      4E545F4C 
 7745      45415354 
 7745      385F4D41 
 7745      585F5F20 
 7746 0d76 01       		.byte	0x1
 7747 0d77 00       		.uleb128 0
 7748 0d78 5F5F5549 		.ascii "__UINT8_C(c) c\0"
 7748      4E54385F 
 7748      43286329 
 7748      206300
 7749 0d87 01       		.byte	0x1
 7750 0d88 00       		.uleb128 0
 7751 0d89 5F5F5549 		.ascii "__UINT_LEAST16_MAX__ 0xffff\0"
 7751      4E545F4C 
 7751      45415354 
 7751      31365F4D 
 7751      41585F5F 
 7752 0da5 01       		.byte	0x1
 7753 0da6 00       		.uleb128 0
 7754 0da7 5F5F5549 		.ascii "__UINT16_C(c) c\0"
 7754      4E543136 
 7754      5F432863 
 7754      29206300 
 7755 0db7 01       		.byte	0x1
 7756 0db8 00       		.uleb128 0
 7757 0db9 5F5F5549 		.ascii "__UINT_LEAST32_MAX__ 0xffffffffU\0"
 7757      4E545F4C 
 7757      45415354 
 7757      33325F4D 
 7757      41585F5F 
 7758 0dda 01       		.byte	0x1
 7759 0ddb 00       		.uleb128 0
 7760 0ddc 5F5F5549 		.ascii "__UINT32_C(c) c ## U\0"
 7760      4E543332 
 7760      5F432863 
 7760      29206320 
 7760      23232055 
 7761 0df1 01       		.byte	0x1
 7762 0df2 00       		.uleb128 0
 7763 0df3 5F5F5549 		.ascii "__UINT_LEAST64_MAX__ 0xffffffffffffffffULL\0"
 7763      4E545F4C 
 7763      45415354 
 7763      36345F4D 
 7763      41585F5F 
 7764 0e1e 01       		.byte	0x1
 7765 0e1f 00       		.uleb128 0
 7766 0e20 5F5F5549 		.ascii "__UINT64_C(c) c ## ULL\0"
 7766      4E543634 
 7766      5F432863 
 7766      29206320 
 7766      23232055 
 7767 0e37 01       		.byte	0x1
 7768 0e38 00       		.uleb128 0
 7769 0e39 5F5F494E 		.ascii "__INT_FAST8_MAX__ 0x7f\0"
 7769      545F4641 
 7769      5354385F 
 7769      4D41585F 
 7769      5F203078 
 7770 0e50 01       		.byte	0x1
 7771 0e51 00       		.uleb128 0
 7772 0e52 5F5F494E 		.ascii "__INT_FAST8_WIDTH__ 8\0"
 7772      545F4641 
 7772      5354385F 
 7772      57494454 
 7772      485F5F20 
 7773 0e68 01       		.byte	0x1
 7774 0e69 00       		.uleb128 0
 7775 0e6a 5F5F494E 		.ascii "__INT_FAST16_MAX__ 0x7fff\0"
 7775      545F4641 
 7775      53543136 
 7775      5F4D4158 
 7775      5F5F2030 
 7776 0e84 01       		.byte	0x1
 7777 0e85 00       		.uleb128 0
 7778 0e86 5F5F494E 		.ascii "__INT_FAST16_WIDTH__ 16\0"
 7778      545F4641 
 7778      53543136 
 7778      5F574944 
 7778      54485F5F 
 7779 0e9e 01       		.byte	0x1
 7780 0e9f 00       		.uleb128 0
 7781 0ea0 5F5F494E 		.ascii "__INT_FAST32_MAX__ 0x7fffffff\0"
 7781      545F4641 
 7781      53543332 
 7781      5F4D4158 
 7781      5F5F2030 
 7782 0ebe 01       		.byte	0x1
 7783 0ebf 00       		.uleb128 0
 7784 0ec0 5F5F494E 		.ascii "__INT_FAST32_WIDTH__ 32\0"
 7784      545F4641 
 7784      53543332 
 7784      5F574944 
 7784      54485F5F 
 7785 0ed8 01       		.byte	0x1
 7786 0ed9 00       		.uleb128 0
 7787 0eda 5F5F494E 		.ascii "__INT_FAST64_MAX__ 0x7fffffffffffffffLL\0"
 7787      545F4641 
 7787      53543634 
 7787      5F4D4158 
 7787      5F5F2030 
 7788 0f02 01       		.byte	0x1
 7789 0f03 00       		.uleb128 0
 7790 0f04 5F5F494E 		.ascii "__INT_FAST64_WIDTH__ 64\0"
 7790      545F4641 
 7790      53543634 
 7790      5F574944 
 7790      54485F5F 
 7791 0f1c 01       		.byte	0x1
 7792 0f1d 00       		.uleb128 0
 7793 0f1e 5F5F5549 		.ascii "__UINT_FAST8_MAX__ 0xff\0"
 7793      4E545F46 
 7793      41535438 
 7793      5F4D4158 
 7793      5F5F2030 
 7794 0f36 01       		.byte	0x1
 7795 0f37 00       		.uleb128 0
 7796 0f38 5F5F5549 		.ascii "__UINT_FAST16_MAX__ 0xffff\0"
 7796      4E545F46 
 7796      41535431 
 7796      365F4D41 
 7796      585F5F20 
 7797 0f53 01       		.byte	0x1
 7798 0f54 00       		.uleb128 0
 7799 0f55 5F5F5549 		.ascii "__UINT_FAST32_MAX__ 0xffffffffU\0"
 7799      4E545F46 
 7799      41535433 
 7799      325F4D41 
 7799      585F5F20 
 7800 0f75 01       		.byte	0x1
 7801 0f76 00       		.uleb128 0
 7802 0f77 5F5F5549 		.ascii "__UINT_FAST64_MAX__ 0xffffffffffffffffULL\0"
 7802      4E545F46 
 7802      41535436 
 7802      345F4D41 
 7802      585F5F20 
 7803 0fa1 01       		.byte	0x1
 7804 0fa2 00       		.uleb128 0
 7805 0fa3 5F5F494E 		.ascii "__INTPTR_MAX__ 0x7fffffffffffffffLL\0"
 7805      54505452 
 7805      5F4D4158 
 7805      5F5F2030 
 7805      78376666 
 7806 0fc7 01       		.byte	0x1
 7807 0fc8 00       		.uleb128 0
 7808 0fc9 5F5F494E 		.ascii "__INTPTR_WIDTH__ 64\0"
 7808      54505452 
 7808      5F574944 
 7808      54485F5F 
 7808      20363400 
 7809 0fdd 01       		.byte	0x1
 7810 0fde 00       		.uleb128 0
 7811 0fdf 5F5F5549 		.ascii "__UINTPTR_MAX__ 0xffffffffffffffffULL\0"
 7811      4E545054 
 7811      525F4D41 
 7811      585F5F20 
 7811      30786666 
 7812 1005 01       		.byte	0x1
 7813 1006 00       		.uleb128 0
 7814 1007 5F5F4743 		.ascii "__GCC_IEC_559 2\0"
 7814      435F4945 
 7814      435F3535 
 7814      39203200 
 7815 1017 01       		.byte	0x1
 7816 1018 00       		.uleb128 0
 7817 1019 5F5F4743 		.ascii "__GCC_IEC_559_COMPLEX 2\0"
 7817      435F4945 
 7817      435F3535 
 7817      395F434F 
 7817      4D504C45 
 7818 1031 01       		.byte	0x1
 7819 1032 00       		.uleb128 0
 7820 1033 5F5F464C 		.ascii "__FLT_EVAL_METHOD__ 0\0"
 7820      545F4556 
 7820      414C5F4D 
 7820      4554484F 
 7820      445F5F20 
 7821 1049 01       		.byte	0x1
 7822 104a 00       		.uleb128 0
 7823 104b 5F5F464C 		.ascii "__FLT_EVAL_METHOD_TS_18661_3__ 0\0"
 7823      545F4556 
 7823      414C5F4D 
 7823      4554484F 
 7823      445F5453 
 7824 106c 01       		.byte	0x1
 7825 106d 00       		.uleb128 0
 7826 106e 5F5F4445 		.ascii "__DEC_EVAL_METHOD__ 2\0"
 7826      435F4556 
 7826      414C5F4D 
 7826      4554484F 
 7826      445F5F20 
 7827 1084 01       		.byte	0x1
 7828 1085 00       		.uleb128 0
 7829 1086 5F5F464C 		.ascii "__FLT_RADIX__ 2\0"
 7829      545F5241 
 7829      4449585F 
 7829      5F203200 
 7830 1096 01       		.byte	0x1
 7831 1097 00       		.uleb128 0
 7832 1098 5F5F464C 		.ascii "__FLT_MANT_DIG__ 24\0"
 7832      545F4D41 
 7832      4E545F44 
 7832      49475F5F 
 7832      20323400 
 7833 10ac 01       		.byte	0x1
 7834 10ad 00       		.uleb128 0
 7835 10ae 5F5F464C 		.ascii "__FLT_DIG__ 6\0"
 7835      545F4449 
 7835      475F5F20 
 7835      3600
 7836 10bc 01       		.byte	0x1
 7837 10bd 00       		.uleb128 0
 7838 10be 5F5F464C 		.ascii "__FLT_MIN_EXP__ (-125)\0"
 7838      545F4D49 
 7838      4E5F4558 
 7838      505F5F20 
 7838      282D3132 
 7839 10d5 01       		.byte	0x1
 7840 10d6 00       		.uleb128 0
 7841 10d7 5F5F464C 		.ascii "__FLT_MIN_10_EXP__ (-37)\0"
 7841      545F4D49 
 7841      4E5F3130 
 7841      5F455850 
 7841      5F5F2028 
 7842 10f0 01       		.byte	0x1
 7843 10f1 00       		.uleb128 0
 7844 10f2 5F5F464C 		.ascii "__FLT_MAX_EXP__ 128\0"
 7844      545F4D41 
 7844      585F4558 
 7844      505F5F20 
 7844      31323800 
 7845 1106 01       		.byte	0x1
 7846 1107 00       		.uleb128 0
 7847 1108 5F5F464C 		.ascii "__FLT_MAX_10_EXP__ 38\0"
 7847      545F4D41 
 7847      585F3130 
 7847      5F455850 
 7847      5F5F2033 
 7848 111e 01       		.byte	0x1
 7849 111f 00       		.uleb128 0
 7850 1120 5F5F464C 		.ascii "__FLT_DECIMAL_DIG__ 9\0"
 7850      545F4445 
 7850      43494D41 
 7850      4C5F4449 
 7850      475F5F20 
 7851 1136 01       		.byte	0x1
 7852 1137 00       		.uleb128 0
 7853 1138 5F5F464C 		.ascii "__FLT_MAX__ 3.40282346638528859811704183484516925e+38F\0"
 7853      545F4D41 
 7853      585F5F20 
 7853      332E3430 
 7853      32383233 
 7854 116f 01       		.byte	0x1
 7855 1170 00       		.uleb128 0
 7856 1171 5F5F464C 		.ascii "__FLT_NORM_MAX__ 3.40282346638528859811704183484516925e+38F\0"
 7856      545F4E4F 
 7856      524D5F4D 
 7856      41585F5F 
 7856      20332E34 
 7857 11ad 01       		.byte	0x1
 7858 11ae 00       		.uleb128 0
 7859 11af 5F5F464C 		.ascii "__FLT_MIN__ 1.17549435082228750796873653722224568e-38F\0"
 7859      545F4D49 
 7859      4E5F5F20 
 7859      312E3137 
 7859      35343934 
 7860 11e6 01       		.byte	0x1
 7861 11e7 00       		.uleb128 0
 7862 11e8 5F5F464C 		.ascii "__FLT_EPSILON__ 1.19209289550781250000000000000000000e-7F\0"
 7862      545F4550 
 7862      53494C4F 
 7862      4E5F5F20 
 7862      312E3139 
 7863 1222 01       		.byte	0x1
 7864 1223 00       		.uleb128 0
 7865 1224 5F5F464C 		.ascii "__FLT_DENORM_MIN__ 1.40129846432481707092372958328991613e-45F\0"
 7865      545F4445 
 7865      4E4F524D 
 7865      5F4D494E 
 7865      5F5F2031 
 7866 1262 01       		.byte	0x1
 7867 1263 00       		.uleb128 0
 7868 1264 5F5F464C 		.ascii "__FLT_HAS_DENORM__ 1\0"
 7868      545F4841 
 7868      535F4445 
 7868      4E4F524D 
 7868      5F5F2031 
 7869 1279 01       		.byte	0x1
 7870 127a 00       		.uleb128 0
 7871 127b 5F5F464C 		.ascii "__FLT_HAS_INFINITY__ 1\0"
 7871      545F4841 
 7871      535F494E 
 7871      46494E49 
 7871      54595F5F 
 7872 1292 01       		.byte	0x1
 7873 1293 00       		.uleb128 0
 7874 1294 5F5F464C 		.ascii "__FLT_HAS_QUIET_NAN__ 1\0"
 7874      545F4841 
 7874      535F5155 
 7874      4945545F 
 7874      4E414E5F 
 7875 12ac 01       		.byte	0x1
 7876 12ad 00       		.uleb128 0
 7877 12ae 5F5F464C 		.ascii "__FLT_IS_IEC_60559__ 1\0"
 7877      545F4953 
 7877      5F494543 
 7877      5F363035 
 7877      35395F5F 
 7878 12c5 01       		.byte	0x1
 7879 12c6 00       		.uleb128 0
 7880 12c7 5F5F4442 		.ascii "__DBL_MANT_DIG__ 53\0"
 7880      4C5F4D41 
 7880      4E545F44 
 7880      49475F5F 
 7880      20353300 
 7881 12db 01       		.byte	0x1
 7882 12dc 00       		.uleb128 0
 7883 12dd 5F5F4442 		.ascii "__DBL_DIG__ 15\0"
 7883      4C5F4449 
 7883      475F5F20 
 7883      313500
 7884 12ec 01       		.byte	0x1
 7885 12ed 00       		.uleb128 0
 7886 12ee 5F5F4442 		.ascii "__DBL_MIN_EXP__ (-1021)\0"
 7886      4C5F4D49 
 7886      4E5F4558 
 7886      505F5F20 
 7886      282D3130 
 7887 1306 01       		.byte	0x1
 7888 1307 00       		.uleb128 0
 7889 1308 5F5F4442 		.ascii "__DBL_MIN_10_EXP__ (-307)\0"
 7889      4C5F4D49 
 7889      4E5F3130 
 7889      5F455850 
 7889      5F5F2028 
 7890 1322 01       		.byte	0x1
 7891 1323 00       		.uleb128 0
 7892 1324 5F5F4442 		.ascii "__DBL_MAX_EXP__ 1024\0"
 7892      4C5F4D41 
 7892      585F4558 
 7892      505F5F20 
 7892      31303234 
 7893 1339 01       		.byte	0x1
 7894 133a 00       		.uleb128 0
 7895 133b 5F5F4442 		.ascii "__DBL_MAX_10_EXP__ 308\0"
 7895      4C5F4D41 
 7895      585F3130 
 7895      5F455850 
 7895      5F5F2033 
 7896 1352 01       		.byte	0x1
 7897 1353 00       		.uleb128 0
 7898 1354 5F5F4442 		.ascii "__DBL_DECIMAL_DIG__ 17\0"
 7898      4C5F4445 
 7898      43494D41 
 7898      4C5F4449 
 7898      475F5F20 
 7899 136b 01       		.byte	0x1
 7900 136c 00       		.uleb128 0
 7901 136d 5F5F4442 		.ascii "__DBL_MAX__ ((double)1.79769313486231570814527423731704357e+308L)\0"
 7901      4C5F4D41 
 7901      585F5F20 
 7901      2828646F 
 7901      75626C65 
 7902 13af 01       		.byte	0x1
 7903 13b0 00       		.uleb128 0
 7904 13b1 5F5F4442 		.ascii "__DBL_NORM_MAX__ ((double)1.79769313486231570814527423731704357e+308L)\0"
 7904      4C5F4E4F 
 7904      524D5F4D 
 7904      41585F5F 
 7904      20282864 
 7905 13f8 01       		.byte	0x1
 7906 13f9 00       		.uleb128 0
 7907 13fa 5F5F4442 		.ascii "__DBL_MIN__ ((double)2.22507385850720138309023271733240406e-308L)\0"
 7907      4C5F4D49 
 7907      4E5F5F20 
 7907      2828646F 
 7907      75626C65 
 7908 143c 01       		.byte	0x1
 7909 143d 00       		.uleb128 0
 7910 143e 5F5F4442 		.ascii "__DBL_EPSILON__ ((double)2.22044604925031308084726333618164062e-16L)\0"
 7910      4C5F4550 
 7910      53494C4F 
 7910      4E5F5F20 
 7910      2828646F 
 7911 1483 01       		.byte	0x1
 7912 1484 00       		.uleb128 0
 7913 1485 5F5F4442 		.ascii "__DBL_DENORM_MIN__ ((double)4.94065645841246544176568792868221372e-324L)\0"
 7913      4C5F4445 
 7913      4E4F524D 
 7913      5F4D494E 
 7913      5F5F2028 
 7914 14ce 01       		.byte	0x1
 7915 14cf 00       		.uleb128 0
 7916 14d0 5F5F4442 		.ascii "__DBL_HAS_DENORM__ 1\0"
 7916      4C5F4841 
 7916      535F4445 
 7916      4E4F524D 
 7916      5F5F2031 
 7917 14e5 01       		.byte	0x1
 7918 14e6 00       		.uleb128 0
 7919 14e7 5F5F4442 		.ascii "__DBL_HAS_INFINITY__ 1\0"
 7919      4C5F4841 
 7919      535F494E 
 7919      46494E49 
 7919      54595F5F 
 7920 14fe 01       		.byte	0x1
 7921 14ff 00       		.uleb128 0
 7922 1500 5F5F4442 		.ascii "__DBL_HAS_QUIET_NAN__ 1\0"
 7922      4C5F4841 
 7922      535F5155 
 7922      4945545F 
 7922      4E414E5F 
 7923 1518 01       		.byte	0x1
 7924 1519 00       		.uleb128 0
 7925 151a 5F5F4442 		.ascii "__DBL_IS_IEC_60559__ 1\0"
 7925      4C5F4953 
 7925      5F494543 
 7925      5F363035 
 7925      35395F5F 
 7926 1531 01       		.byte	0x1
 7927 1532 00       		.uleb128 0
 7928 1533 5F5F4C44 		.ascii "__LDBL_MANT_DIG__ 64\0"
 7928      424C5F4D 
 7928      414E545F 
 7928      4449475F 
 7928      5F203634 
 7929 1548 01       		.byte	0x1
 7930 1549 00       		.uleb128 0
 7931 154a 5F5F4C44 		.ascii "__LDBL_DIG__ 18\0"
 7931      424C5F44 
 7931      49475F5F 
 7931      20313800 
 7932 155a 01       		.byte	0x1
 7933 155b 00       		.uleb128 0
 7934 155c 5F5F4C44 		.ascii "__LDBL_MIN_EXP__ (-16381)\0"
 7934      424C5F4D 
 7934      494E5F45 
 7934      58505F5F 
 7934      20282D31 
 7935 1576 01       		.byte	0x1
 7936 1577 00       		.uleb128 0
 7937 1578 5F5F4C44 		.ascii "__LDBL_MIN_10_EXP__ (-4931)\0"
 7937      424C5F4D 
 7937      494E5F31 
 7937      305F4558 
 7937      505F5F20 
 7938 1594 01       		.byte	0x1
 7939 1595 00       		.uleb128 0
 7940 1596 5F5F4C44 		.ascii "__LDBL_MAX_EXP__ 16384\0"
 7940      424C5F4D 
 7940      41585F45 
 7940      58505F5F 
 7940      20313633 
 7941 15ad 01       		.byte	0x1
 7942 15ae 00       		.uleb128 0
 7943 15af 5F5F4C44 		.ascii "__LDBL_MAX_10_EXP__ 4932\0"
 7943      424C5F4D 
 7943      41585F31 
 7943      305F4558 
 7943      505F5F20 
 7944 15c8 01       		.byte	0x1
 7945 15c9 00       		.uleb128 0
 7946 15ca 5F5F4445 		.ascii "__DECIMAL_DIG__ 21\0"
 7946      43494D41 
 7946      4C5F4449 
 7946      475F5F20 
 7946      323100
 7947 15dd 01       		.byte	0x1
 7948 15de 00       		.uleb128 0
 7949 15df 5F5F4C44 		.ascii "__LDBL_DECIMAL_DIG__ 21\0"
 7949      424C5F44 
 7949      4543494D 
 7949      414C5F44 
 7949      49475F5F 
 7950 15f7 01       		.byte	0x1
 7951 15f8 00       		.uleb128 0
 7952 15f9 5F5F4C44 		.ascii "__LDBL_MAX__ 1.18973149535723176502126385303097021e+4932L\0"
 7952      424C5F4D 
 7952      41585F5F 
 7952      20312E31 
 7952      38393733 
 7953 1633 01       		.byte	0x1
 7954 1634 00       		.uleb128 0
 7955 1635 5F5F4C44 		.ascii "__LDBL_NORM_MAX__ 1.18973149535723176502126385303097021e+4932L\0"
 7955      424C5F4E 
 7955      4F524D5F 
 7955      4D41585F 
 7955      5F20312E 
 7956 1674 01       		.byte	0x1
 7957 1675 00       		.uleb128 0
 7958 1676 5F5F4C44 		.ascii "__LDBL_MIN__ 3.36210314311209350626267781732175260e-4932L\0"
 7958      424C5F4D 
 7958      494E5F5F 
 7958      20332E33 
 7958      36323130 
 7959 16b0 01       		.byte	0x1
 7960 16b1 00       		.uleb128 0
 7961 16b2 5F5F4C44 		.ascii "__LDBL_EPSILON__ 1.08420217248550443400745280086994171e-19L\0"
 7961      424C5F45 
 7961      5053494C 
 7961      4F4E5F5F 
 7961      20312E30 
 7962 16ee 01       		.byte	0x1
 7963 16ef 00       		.uleb128 0
 7964 16f0 5F5F4C44 		.ascii "__LDBL_DENORM_MIN__ 3.64519953188247460252840593361941982e-4951L\0"
 7964      424C5F44 
 7964      454E4F52 
 7964      4D5F4D49 
 7964      4E5F5F20 
 7965 1731 01       		.byte	0x1
 7966 1732 00       		.uleb128 0
 7967 1733 5F5F4C44 		.ascii "__LDBL_HAS_DENORM__ 1\0"
 7967      424C5F48 
 7967      41535F44 
 7967      454E4F52 
 7967      4D5F5F20 
 7968 1749 01       		.byte	0x1
 7969 174a 00       		.uleb128 0
 7970 174b 5F5F4C44 		.ascii "__LDBL_HAS_INFINITY__ 1\0"
 7970      424C5F48 
 7970      41535F49 
 7970      4E46494E 
 7970      4954595F 
 7971 1763 01       		.byte	0x1
 7972 1764 00       		.uleb128 0
 7973 1765 5F5F4C44 		.ascii "__LDBL_HAS_QUIET_NAN__ 1\0"
 7973      424C5F48 
 7973      41535F51 
 7973      55494554 
 7973      5F4E414E 
 7974 177e 01       		.byte	0x1
 7975 177f 00       		.uleb128 0
 7976 1780 5F5F4C44 		.ascii "__LDBL_IS_IEC_60559__ 1\0"
 7976      424C5F49 
 7976      535F4945 
 7976      435F3630 
 7976      3535395F 
 7977 1798 01       		.byte	0x1
 7978 1799 00       		.uleb128 0
 7979 179a 5F5F464C 		.ascii "__FLT16_MANT_DIG__ 11\0"
 7979      5431365F 
 7979      4D414E54 
 7979      5F444947 
 7979      5F5F2031 
 7980 17b0 01       		.byte	0x1
 7981 17b1 00       		.uleb128 0
 7982 17b2 5F5F464C 		.ascii "__FLT16_DIG__ 3\0"
 7982      5431365F 
 7982      4449475F 
 7982      5F203300 
 7983 17c2 01       		.byte	0x1
 7984 17c3 00       		.uleb128 0
 7985 17c4 5F5F464C 		.ascii "__FLT16_MIN_EXP__ (-13)\0"
 7985      5431365F 
 7985      4D494E5F 
 7985      4558505F 
 7985      5F20282D 
 7986 17dc 01       		.byte	0x1
 7987 17dd 00       		.uleb128 0
 7988 17de 5F5F464C 		.ascii "__FLT16_MIN_10_EXP__ (-4)\0"
 7988      5431365F 
 7988      4D494E5F 
 7988      31305F45 
 7988      58505F5F 
 7989 17f8 01       		.byte	0x1
 7990 17f9 00       		.uleb128 0
 7991 17fa 5F5F464C 		.ascii "__FLT16_MAX_EXP__ 16\0"
 7991      5431365F 
 7991      4D41585F 
 7991      4558505F 
 7991      5F203136 
 7992 180f 01       		.byte	0x1
 7993 1810 00       		.uleb128 0
 7994 1811 5F5F464C 		.ascii "__FLT16_MAX_10_EXP__ 4\0"
 7994      5431365F 
 7994      4D41585F 
 7994      31305F45 
 7994      58505F5F 
 7995 1828 01       		.byte	0x1
 7996 1829 00       		.uleb128 0
 7997 182a 5F5F464C 		.ascii "__FLT16_DECIMAL_DIG__ 5\0"
 7997      5431365F 
 7997      44454349 
 7997      4D414C5F 
 7997      4449475F 
 7998 1842 01       		.byte	0x1
 7999 1843 00       		.uleb128 0
 8000 1844 5F5F464C 		.ascii "__FLT16_MAX__ 6.55040000000000000000000000000000000e+4F16\0"
 8000      5431365F 
 8000      4D41585F 
 8000      5F20362E 
 8000      35353034 
 8001 187e 01       		.byte	0x1
 8002 187f 00       		.uleb128 0
 8003 1880 5F5F464C 		.ascii "__FLT16_NORM_MAX__ 6.55040000000000000000000000000000000e+4F16\0"
 8003      5431365F 
 8003      4E4F524D 
 8003      5F4D4158 
 8003      5F5F2036 
 8004 18bf 01       		.byte	0x1
 8005 18c0 00       		.uleb128 0
 8006 18c1 5F5F464C 		.ascii "__FLT16_MIN__ 6.10351562500000000000000000000000000e-5F16\0"
 8006      5431365F 
 8006      4D494E5F 
 8006      5F20362E 
 8006      31303335 
 8007 18fb 01       		.byte	0x1
 8008 18fc 00       		.uleb128 0
 8009 18fd 5F5F464C 		.ascii "__FLT16_EPSILON__ 9.76562500000000000000000000000000000e-4F16\0"
 8009      5431365F 
 8009      45505349 
 8009      4C4F4E5F 
 8009      5F20392E 
 8010 193b 01       		.byte	0x1
 8011 193c 00       		.uleb128 0
 8012 193d 5F5F464C 		.ascii "__FLT16_DENORM_MIN__ 5.96046447753906250000000000000000000e-8F16\0"
 8012      5431365F 
 8012      44454E4F 
 8012      524D5F4D 
 8012      494E5F5F 
 8013 197e 01       		.byte	0x1
 8014 197f 00       		.uleb128 0
 8015 1980 5F5F464C 		.ascii "__FLT16_HAS_DENORM__ 1\0"
 8015      5431365F 
 8015      4841535F 
 8015      44454E4F 
 8015      524D5F5F 
 8016 1997 01       		.byte	0x1
 8017 1998 00       		.uleb128 0
 8018 1999 5F5F464C 		.ascii "__FLT16_HAS_INFINITY__ 1\0"
 8018      5431365F 
 8018      4841535F 
 8018      494E4649 
 8018      4E495459 
 8019 19b2 01       		.byte	0x1
 8020 19b3 00       		.uleb128 0
 8021 19b4 5F5F464C 		.ascii "__FLT16_HAS_QUIET_NAN__ 1\0"
 8021      5431365F 
 8021      4841535F 
 8021      51554945 
 8021      545F4E41 
 8022 19ce 01       		.byte	0x1
 8023 19cf 00       		.uleb128 0
 8024 19d0 5F5F464C 		.ascii "__FLT16_IS_IEC_60559__ 1\0"
 8024      5431365F 
 8024      49535F49 
 8024      45435F36 
 8024      30353539 
 8025 19e9 01       		.byte	0x1
 8026 19ea 00       		.uleb128 0
 8027 19eb 5F5F464C 		.ascii "__FLT32_MANT_DIG__ 24\0"
 8027      5433325F 
 8027      4D414E54 
 8027      5F444947 
 8027      5F5F2032 
 8028 1a01 01       		.byte	0x1
 8029 1a02 00       		.uleb128 0
 8030 1a03 5F5F464C 		.ascii "__FLT32_DIG__ 6\0"
 8030      5433325F 
 8030      4449475F 
 8030      5F203600 
 8031 1a13 01       		.byte	0x1
 8032 1a14 00       		.uleb128 0
 8033 1a15 5F5F464C 		.ascii "__FLT32_MIN_EXP__ (-125)\0"
 8033      5433325F 
 8033      4D494E5F 
 8033      4558505F 
 8033      5F20282D 
 8034 1a2e 01       		.byte	0x1
 8035 1a2f 00       		.uleb128 0
 8036 1a30 5F5F464C 		.ascii "__FLT32_MIN_10_EXP__ (-37)\0"
 8036      5433325F 
 8036      4D494E5F 
 8036      31305F45 
 8036      58505F5F 
 8037 1a4b 01       		.byte	0x1
 8038 1a4c 00       		.uleb128 0
 8039 1a4d 5F5F464C 		.ascii "__FLT32_MAX_EXP__ 128\0"
 8039      5433325F 
 8039      4D41585F 
 8039      4558505F 
 8039      5F203132 
 8040 1a63 01       		.byte	0x1
 8041 1a64 00       		.uleb128 0
 8042 1a65 5F5F464C 		.ascii "__FLT32_MAX_10_EXP__ 38\0"
 8042      5433325F 
 8042      4D41585F 
 8042      31305F45 
 8042      58505F5F 
 8043 1a7d 01       		.byte	0x1
 8044 1a7e 00       		.uleb128 0
 8045 1a7f 5F5F464C 		.ascii "__FLT32_DECIMAL_DIG__ 9\0"
 8045      5433325F 
 8045      44454349 
 8045      4D414C5F 
 8045      4449475F 
 8046 1a97 01       		.byte	0x1
 8047 1a98 00       		.uleb128 0
 8048 1a99 5F5F464C 		.ascii "__FLT32_MAX__ 3.40282346638528859811704183484516925e+38F32\0"
 8048      5433325F 
 8048      4D41585F 
 8048      5F20332E 
 8048      34303238 
 8049 1ad4 01       		.byte	0x1
 8050 1ad5 00       		.uleb128 0
 8051 1ad6 5F5F464C 		.ascii "__FLT32_NORM_MAX__ 3.40282346638528859811704183484516925e+38F32\0"
 8051      5433325F 
 8051      4E4F524D 
 8051      5F4D4158 
 8051      5F5F2033 
 8052 1b16 01       		.byte	0x1
 8053 1b17 00       		.uleb128 0
 8054 1b18 5F5F464C 		.ascii "__FLT32_MIN__ 1.17549435082228750796873653722224568e-38F32\0"
 8054      5433325F 
 8054      4D494E5F 
 8054      5F20312E 
 8054      31373534 
 8055 1b53 01       		.byte	0x1
 8056 1b54 00       		.uleb128 0
 8057 1b55 5F5F464C 		.ascii "__FLT32_EPSILON__ 1.19209289550781250000000000000000000e-7F32\0"
 8057      5433325F 
 8057      45505349 
 8057      4C4F4E5F 
 8057      5F20312E 
 8058 1b93 01       		.byte	0x1
 8059 1b94 00       		.uleb128 0
 8060 1b95 5F5F464C 		.ascii "__FLT32_DENORM_MIN__ 1.40129846432481707092372958328991613e-45F32\0"
 8060      5433325F 
 8060      44454E4F 
 8060      524D5F4D 
 8060      494E5F5F 
 8061 1bd7 01       		.byte	0x1
 8062 1bd8 00       		.uleb128 0
 8063 1bd9 5F5F464C 		.ascii "__FLT32_HAS_DENORM__ 1\0"
 8063      5433325F 
 8063      4841535F 
 8063      44454E4F 
 8063      524D5F5F 
 8064 1bf0 01       		.byte	0x1
 8065 1bf1 00       		.uleb128 0
 8066 1bf2 5F5F464C 		.ascii "__FLT32_HAS_INFINITY__ 1\0"
 8066      5433325F 
 8066      4841535F 
 8066      494E4649 
 8066      4E495459 
 8067 1c0b 01       		.byte	0x1
 8068 1c0c 00       		.uleb128 0
 8069 1c0d 5F5F464C 		.ascii "__FLT32_HAS_QUIET_NAN__ 1\0"
 8069      5433325F 
 8069      4841535F 
 8069      51554945 
 8069      545F4E41 
 8070 1c27 01       		.byte	0x1
 8071 1c28 00       		.uleb128 0
 8072 1c29 5F5F464C 		.ascii "__FLT32_IS_IEC_60559__ 1\0"
 8072      5433325F 
 8072      49535F49 
 8072      45435F36 
 8072      30353539 
 8073 1c42 01       		.byte	0x1
 8074 1c43 00       		.uleb128 0
 8075 1c44 5F5F464C 		.ascii "__FLT64_MANT_DIG__ 53\0"
 8075      5436345F 
 8075      4D414E54 
 8075      5F444947 
 8075      5F5F2035 
 8076 1c5a 01       		.byte	0x1
 8077 1c5b 00       		.uleb128 0
 8078 1c5c 5F5F464C 		.ascii "__FLT64_DIG__ 15\0"
 8078      5436345F 
 8078      4449475F 
 8078      5F203135 
 8078      00
 8079 1c6d 01       		.byte	0x1
 8080 1c6e 00       		.uleb128 0
 8081 1c6f 5F5F464C 		.ascii "__FLT64_MIN_EXP__ (-1021)\0"
 8081      5436345F 
 8081      4D494E5F 
 8081      4558505F 
 8081      5F20282D 
 8082 1c89 01       		.byte	0x1
 8083 1c8a 00       		.uleb128 0
 8084 1c8b 5F5F464C 		.ascii "__FLT64_MIN_10_EXP__ (-307)\0"
 8084      5436345F 
 8084      4D494E5F 
 8084      31305F45 
 8084      58505F5F 
 8085 1ca7 01       		.byte	0x1
 8086 1ca8 00       		.uleb128 0
 8087 1ca9 5F5F464C 		.ascii "__FLT64_MAX_EXP__ 1024\0"
 8087      5436345F 
 8087      4D41585F 
 8087      4558505F 
 8087      5F203130 
 8088 1cc0 01       		.byte	0x1
 8089 1cc1 00       		.uleb128 0
 8090 1cc2 5F5F464C 		.ascii "__FLT64_MAX_10_EXP__ 308\0"
 8090      5436345F 
 8090      4D41585F 
 8090      31305F45 
 8090      58505F5F 
 8091 1cdb 01       		.byte	0x1
 8092 1cdc 00       		.uleb128 0
 8093 1cdd 5F5F464C 		.ascii "__FLT64_DECIMAL_DIG__ 17\0"
 8093      5436345F 
 8093      44454349 
 8093      4D414C5F 
 8093      4449475F 
 8094 1cf6 01       		.byte	0x1
 8095 1cf7 00       		.uleb128 0
 8096 1cf8 5F5F464C 		.ascii "__FLT64_MAX__ 1.79769313486231570814527423731704357e+308F64\0"
 8096      5436345F 
 8096      4D41585F 
 8096      5F20312E 
 8096      37393736 
 8097 1d34 01       		.byte	0x1
 8098 1d35 00       		.uleb128 0
 8099 1d36 5F5F464C 		.ascii "__FLT64_NORM_MAX__ 1.79769313486231570814527423731704357e+308F64\0"
 8099      5436345F 
 8099      4E4F524D 
 8099      5F4D4158 
 8099      5F5F2031 
 8100 1d77 01       		.byte	0x1
 8101 1d78 00       		.uleb128 0
 8102 1d79 5F5F464C 		.ascii "__FLT64_MIN__ 2.22507385850720138309023271733240406e-308F64\0"
 8102      5436345F 
 8102      4D494E5F 
 8102      5F20322E 
 8102      32323530 
 8103 1db5 01       		.byte	0x1
 8104 1db6 00       		.uleb128 0
 8105 1db7 5F5F464C 		.ascii "__FLT64_EPSILON__ 2.22044604925031308084726333618164062e-16F64\0"
 8105      5436345F 
 8105      45505349 
 8105      4C4F4E5F 
 8105      5F20322E 
 8106 1df6 01       		.byte	0x1
 8107 1df7 00       		.uleb128 0
 8108 1df8 5F5F464C 		.ascii "__FLT64_DENORM_MIN__ 4.94065645841246544176568792868221372e-324F64\0"
 8108      5436345F 
 8108      44454E4F 
 8108      524D5F4D 
 8108      494E5F5F 
 8109 1e3b 01       		.byte	0x1
 8110 1e3c 00       		.uleb128 0
 8111 1e3d 5F5F464C 		.ascii "__FLT64_HAS_DENORM__ 1\0"
 8111      5436345F 
 8111      4841535F 
 8111      44454E4F 
 8111      524D5F5F 
 8112 1e54 01       		.byte	0x1
 8113 1e55 00       		.uleb128 0
 8114 1e56 5F5F464C 		.ascii "__FLT64_HAS_INFINITY__ 1\0"
 8114      5436345F 
 8114      4841535F 
 8114      494E4649 
 8114      4E495459 
 8115 1e6f 01       		.byte	0x1
 8116 1e70 00       		.uleb128 0
 8117 1e71 5F5F464C 		.ascii "__FLT64_HAS_QUIET_NAN__ 1\0"
 8117      5436345F 
 8117      4841535F 
 8117      51554945 
 8117      545F4E41 
 8118 1e8b 01       		.byte	0x1
 8119 1e8c 00       		.uleb128 0
 8120 1e8d 5F5F464C 		.ascii "__FLT64_IS_IEC_60559__ 1\0"
 8120      5436345F 
 8120      49535F49 
 8120      45435F36 
 8120      30353539 
 8121 1ea6 01       		.byte	0x1
 8122 1ea7 00       		.uleb128 0
 8123 1ea8 5F5F464C 		.ascii "__FLT128_MANT_DIG__ 113\0"
 8123      54313238 
 8123      5F4D414E 
 8123      545F4449 
 8123      475F5F20 
 8124 1ec0 01       		.byte	0x1
 8125 1ec1 00       		.uleb128 0
 8126 1ec2 5F5F464C 		.ascii "__FLT128_DIG__ 33\0"
 8126      54313238 
 8126      5F444947 
 8126      5F5F2033 
 8126      3300
 8127 1ed4 01       		.byte	0x1
 8128 1ed5 00       		.uleb128 0
 8129 1ed6 5F5F464C 		.ascii "__FLT128_MIN_EXP__ (-16381)\0"
 8129      54313238 
 8129      5F4D494E 
 8129      5F455850 
 8129      5F5F2028 
 8130 1ef2 01       		.byte	0x1
 8131 1ef3 00       		.uleb128 0
 8132 1ef4 5F5F464C 		.ascii "__FLT128_MIN_10_EXP__ (-4931)\0"
 8132      54313238 
 8132      5F4D494E 
 8132      5F31305F 
 8132      4558505F 
 8133 1f12 01       		.byte	0x1
 8134 1f13 00       		.uleb128 0
 8135 1f14 5F5F464C 		.ascii "__FLT128_MAX_EXP__ 16384\0"
 8135      54313238 
 8135      5F4D4158 
 8135      5F455850 
 8135      5F5F2031 
 8136 1f2d 01       		.byte	0x1
 8137 1f2e 00       		.uleb128 0
 8138 1f2f 5F5F464C 		.ascii "__FLT128_MAX_10_EXP__ 4932\0"
 8138      54313238 
 8138      5F4D4158 
 8138      5F31305F 
 8138      4558505F 
 8139 1f4a 01       		.byte	0x1
 8140 1f4b 00       		.uleb128 0
 8141 1f4c 5F5F464C 		.ascii "__FLT128_DECIMAL_DIG__ 36\0"
 8141      54313238 
 8141      5F444543 
 8141      494D414C 
 8141      5F444947 
 8142 1f66 01       		.byte	0x1
 8143 1f67 00       		.uleb128 0
 8144 1f68 5F5F464C 		.ascii "__FLT128_MAX__ 1.18973149535723176508575932662800702e+4932F128\0"
 8144      54313238 
 8144      5F4D4158 
 8144      5F5F2031 
 8144      2E313839 
 8145 1fa7 01       		.byte	0x1
 8146 1fa8 00       		.uleb128 0
 8147 1fa9 5F5F464C 		.ascii "__FLT128_NORM_MAX__ 1.18973149535723176508575932662800702e+4932F128\0"
 8147      54313238 
 8147      5F4E4F52 
 8147      4D5F4D41 
 8147      585F5F20 
 8148 1fed 01       		.byte	0x1
 8149 1fee 00       		.uleb128 0
 8150 1fef 5F5F464C 		.ascii "__FLT128_MIN__ 3.36210314311209350626267781732175260e-4932F128\0"
 8150      54313238 
 8150      5F4D494E 
 8150      5F5F2033 
 8150      2E333632 
 8151 202e 01       		.byte	0x1
 8152 202f 00       		.uleb128 0
 8153 2030 5F5F464C 		.ascii "__FLT128_EPSILON__ 1.92592994438723585305597794258492732e-34F128\0"
 8153      54313238 
 8153      5F455053 
 8153      494C4F4E 
 8153      5F5F2031 
 8154 2071 01       		.byte	0x1
 8155 2072 00       		.uleb128 0
 8156 2073 5F5F464C 		.ascii "__FLT128_DENORM_MIN__ 6.47517511943802511092443895822764655e-4966F128\0"
 8156      54313238 
 8156      5F44454E 
 8156      4F524D5F 
 8156      4D494E5F 
 8157 20b9 01       		.byte	0x1
 8158 20ba 00       		.uleb128 0
 8159 20bb 5F5F464C 		.ascii "__FLT128_HAS_DENORM__ 1\0"
 8159      54313238 
 8159      5F484153 
 8159      5F44454E 
 8159      4F524D5F 
 8160 20d3 01       		.byte	0x1
 8161 20d4 00       		.uleb128 0
 8162 20d5 5F5F464C 		.ascii "__FLT128_HAS_INFINITY__ 1\0"
 8162      54313238 
 8162      5F484153 
 8162      5F494E46 
 8162      494E4954 
 8163 20ef 01       		.byte	0x1
 8164 20f0 00       		.uleb128 0
 8165 20f1 5F5F464C 		.ascii "__FLT128_HAS_QUIET_NAN__ 1\0"
 8165      54313238 
 8165      5F484153 
 8165      5F515549 
 8165      45545F4E 
 8166 210c 01       		.byte	0x1
 8167 210d 00       		.uleb128 0
 8168 210e 5F5F464C 		.ascii "__FLT128_IS_IEC_60559__ 1\0"
 8168      54313238 
 8168      5F49535F 
 8168      4945435F 
 8168      36303535 
 8169 2128 01       		.byte	0x1
 8170 2129 00       		.uleb128 0
 8171 212a 5F5F464C 		.ascii "__FLT32X_MANT_DIG__ 53\0"
 8171      54333258 
 8171      5F4D414E 
 8171      545F4449 
 8171      475F5F20 
 8172 2141 01       		.byte	0x1
 8173 2142 00       		.uleb128 0
 8174 2143 5F5F464C 		.ascii "__FLT32X_DIG__ 15\0"
 8174      54333258 
 8174      5F444947 
 8174      5F5F2031 
 8174      3500
 8175 2155 01       		.byte	0x1
 8176 2156 00       		.uleb128 0
 8177 2157 5F5F464C 		.ascii "__FLT32X_MIN_EXP__ (-1021)\0"
 8177      54333258 
 8177      5F4D494E 
 8177      5F455850 
 8177      5F5F2028 
 8178 2172 01       		.byte	0x1
 8179 2173 00       		.uleb128 0
 8180 2174 5F5F464C 		.ascii "__FLT32X_MIN_10_EXP__ (-307)\0"
 8180      54333258 
 8180      5F4D494E 
 8180      5F31305F 
 8180      4558505F 
 8181 2191 01       		.byte	0x1
 8182 2192 00       		.uleb128 0
 8183 2193 5F5F464C 		.ascii "__FLT32X_MAX_EXP__ 1024\0"
 8183      54333258 
 8183      5F4D4158 
 8183      5F455850 
 8183      5F5F2031 
 8184 21ab 01       		.byte	0x1
 8185 21ac 00       		.uleb128 0
 8186 21ad 5F5F464C 		.ascii "__FLT32X_MAX_10_EXP__ 308\0"
 8186      54333258 
 8186      5F4D4158 
 8186      5F31305F 
 8186      4558505F 
 8187 21c7 01       		.byte	0x1
 8188 21c8 00       		.uleb128 0
 8189 21c9 5F5F464C 		.ascii "__FLT32X_DECIMAL_DIG__ 17\0"
 8189      54333258 
 8189      5F444543 
 8189      494D414C 
 8189      5F444947 
 8190 21e3 01       		.byte	0x1
 8191 21e4 00       		.uleb128 0
 8192 21e5 5F5F464C 		.ascii "__FLT32X_MAX__ 1.79769313486231570814527423731704357e+308F32x\0"
 8192      54333258 
 8192      5F4D4158 
 8192      5F5F2031 
 8192      2E373937 
 8193 2223 01       		.byte	0x1
 8194 2224 00       		.uleb128 0
 8195 2225 5F5F464C 		.ascii "__FLT32X_NORM_MAX__ 1.79769313486231570814527423731704357e+308F32x\0"
 8195      54333258 
 8195      5F4E4F52 
 8195      4D5F4D41 
 8195      585F5F20 
 8196 2268 01       		.byte	0x1
 8197 2269 00       		.uleb128 0
 8198 226a 5F5F464C 		.ascii "__FLT32X_MIN__ 2.22507385850720138309023271733240406e-308F32x\0"
 8198      54333258 
 8198      5F4D494E 
 8198      5F5F2032 
 8198      2E323235 
 8199 22a8 01       		.byte	0x1
 8200 22a9 00       		.uleb128 0
 8201 22aa 5F5F464C 		.ascii "__FLT32X_EPSILON__ 2.22044604925031308084726333618164062e-16F32x\0"
 8201      54333258 
 8201      5F455053 
 8201      494C4F4E 
 8201      5F5F2032 
 8202 22eb 01       		.byte	0x1
 8203 22ec 00       		.uleb128 0
 8204 22ed 5F5F464C 		.ascii "__FLT32X_DENORM_MIN__ 4.94065645841246544176568792868221372e-324F32x\0"
 8204      54333258 
 8204      5F44454E 
 8204      4F524D5F 
 8204      4D494E5F 
 8205 2332 01       		.byte	0x1
 8206 2333 00       		.uleb128 0
 8207 2334 5F5F464C 		.ascii "__FLT32X_HAS_DENORM__ 1\0"
 8207      54333258 
 8207      5F484153 
 8207      5F44454E 
 8207      4F524D5F 
 8208 234c 01       		.byte	0x1
 8209 234d 00       		.uleb128 0
 8210 234e 5F5F464C 		.ascii "__FLT32X_HAS_INFINITY__ 1\0"
 8210      54333258 
 8210      5F484153 
 8210      5F494E46 
 8210      494E4954 
 8211 2368 01       		.byte	0x1
 8212 2369 00       		.uleb128 0
 8213 236a 5F5F464C 		.ascii "__FLT32X_HAS_QUIET_NAN__ 1\0"
 8213      54333258 
 8213      5F484153 
 8213      5F515549 
 8213      45545F4E 
 8214 2385 01       		.byte	0x1
 8215 2386 00       		.uleb128 0
 8216 2387 5F5F464C 		.ascii "__FLT32X_IS_IEC_60559__ 1\0"
 8216      54333258 
 8216      5F49535F 
 8216      4945435F 
 8216      36303535 
 8217 23a1 01       		.byte	0x1
 8218 23a2 00       		.uleb128 0
 8219 23a3 5F5F464C 		.ascii "__FLT64X_MANT_DIG__ 64\0"
 8219      54363458 
 8219      5F4D414E 
 8219      545F4449 
 8219      475F5F20 
 8220 23ba 01       		.byte	0x1
 8221 23bb 00       		.uleb128 0
 8222 23bc 5F5F464C 		.ascii "__FLT64X_DIG__ 18\0"
 8222      54363458 
 8222      5F444947 
 8222      5F5F2031 
 8222      3800
 8223 23ce 01       		.byte	0x1
 8224 23cf 00       		.uleb128 0
 8225 23d0 5F5F464C 		.ascii "__FLT64X_MIN_EXP__ (-16381)\0"
 8225      54363458 
 8225      5F4D494E 
 8225      5F455850 
 8225      5F5F2028 
 8226 23ec 01       		.byte	0x1
 8227 23ed 00       		.uleb128 0
 8228 23ee 5F5F464C 		.ascii "__FLT64X_MIN_10_EXP__ (-4931)\0"
 8228      54363458 
 8228      5F4D494E 
 8228      5F31305F 
 8228      4558505F 
 8229 240c 01       		.byte	0x1
 8230 240d 00       		.uleb128 0
 8231 240e 5F5F464C 		.ascii "__FLT64X_MAX_EXP__ 16384\0"
 8231      54363458 
 8231      5F4D4158 
 8231      5F455850 
 8231      5F5F2031 
 8232 2427 01       		.byte	0x1
 8233 2428 00       		.uleb128 0
 8234 2429 5F5F464C 		.ascii "__FLT64X_MAX_10_EXP__ 4932\0"
 8234      54363458 
 8234      5F4D4158 
 8234      5F31305F 
 8234      4558505F 
 8235 2444 01       		.byte	0x1
 8236 2445 00       		.uleb128 0
 8237 2446 5F5F464C 		.ascii "__FLT64X_DECIMAL_DIG__ 21\0"
 8237      54363458 
 8237      5F444543 
 8237      494D414C 
 8237      5F444947 
 8238 2460 01       		.byte	0x1
 8239 2461 00       		.uleb128 0
 8240 2462 5F5F464C 		.ascii "__FLT64X_MAX__ 1.18973149535723176502126385303097021e+4932F64x\0"
 8240      54363458 
 8240      5F4D4158 
 8240      5F5F2031 
 8240      2E313839 
 8241 24a1 01       		.byte	0x1
 8242 24a2 00       		.uleb128 0
 8243 24a3 5F5F464C 		.ascii "__FLT64X_NORM_MAX__ 1.18973149535723176502126385303097021e+4932F64x\0"
 8243      54363458 
 8243      5F4E4F52 
 8243      4D5F4D41 
 8243      585F5F20 
 8244 24e7 01       		.byte	0x1
 8245 24e8 00       		.uleb128 0
 8246 24e9 5F5F464C 		.ascii "__FLT64X_MIN__ 3.36210314311209350626267781732175260e-4932F64x\0"
 8246      54363458 
 8246      5F4D494E 
 8246      5F5F2033 
 8246      2E333632 
 8247 2528 01       		.byte	0x1
 8248 2529 00       		.uleb128 0
 8249 252a 5F5F464C 		.ascii "__FLT64X_EPSILON__ 1.08420217248550443400745280086994171e-19F64x\0"
 8249      54363458 
 8249      5F455053 
 8249      494C4F4E 
 8249      5F5F2031 
 8250 256b 01       		.byte	0x1
 8251 256c 00       		.uleb128 0
 8252 256d 5F5F464C 		.ascii "__FLT64X_DENORM_MIN__ 3.64519953188247460252840593361941982e-4951F64x\0"
 8252      54363458 
 8252      5F44454E 
 8252      4F524D5F 
 8252      4D494E5F 
 8253 25b3 01       		.byte	0x1
 8254 25b4 00       		.uleb128 0
 8255 25b5 5F5F464C 		.ascii "__FLT64X_HAS_DENORM__ 1\0"
 8255      54363458 
 8255      5F484153 
 8255      5F44454E 
 8255      4F524D5F 
 8256 25cd 01       		.byte	0x1
 8257 25ce 00       		.uleb128 0
 8258 25cf 5F5F464C 		.ascii "__FLT64X_HAS_INFINITY__ 1\0"
 8258      54363458 
 8258      5F484153 
 8258      5F494E46 
 8258      494E4954 
 8259 25e9 01       		.byte	0x1
 8260 25ea 00       		.uleb128 0
 8261 25eb 5F5F464C 		.ascii "__FLT64X_HAS_QUIET_NAN__ 1\0"
 8261      54363458 
 8261      5F484153 
 8261      5F515549 
 8261      45545F4E 
 8262 2606 01       		.byte	0x1
 8263 2607 00       		.uleb128 0
 8264 2608 5F5F464C 		.ascii "__FLT64X_IS_IEC_60559__ 1\0"
 8264      54363458 
 8264      5F49535F 
 8264      4945435F 
 8264      36303535 
 8265 2622 01       		.byte	0x1
 8266 2623 00       		.uleb128 0
 8267 2624 5F5F4246 		.ascii "__BFLT16_MANT_DIG__ 8\0"
 8267      4C543136 
 8267      5F4D414E 
 8267      545F4449 
 8267      475F5F20 
 8268 263a 01       		.byte	0x1
 8269 263b 00       		.uleb128 0
 8270 263c 5F5F4246 		.ascii "__BFLT16_DIG__ 2\0"
 8270      4C543136 
 8270      5F444947 
 8270      5F5F2032 
 8270      00
 8271 264d 01       		.byte	0x1
 8272 264e 00       		.uleb128 0
 8273 264f 5F5F4246 		.ascii "__BFLT16_MIN_EXP__ (-125)\0"
 8273      4C543136 
 8273      5F4D494E 
 8273      5F455850 
 8273      5F5F2028 
 8274 2669 01       		.byte	0x1
 8275 266a 00       		.uleb128 0
 8276 266b 5F5F4246 		.ascii "__BFLT16_MIN_10_EXP__ (-37)\0"
 8276      4C543136 
 8276      5F4D494E 
 8276      5F31305F 
 8276      4558505F 
 8277 2687 01       		.byte	0x1
 8278 2688 00       		.uleb128 0
 8279 2689 5F5F4246 		.ascii "__BFLT16_MAX_EXP__ 128\0"
 8279      4C543136 
 8279      5F4D4158 
 8279      5F455850 
 8279      5F5F2031 
 8280 26a0 01       		.byte	0x1
 8281 26a1 00       		.uleb128 0
 8282 26a2 5F5F4246 		.ascii "__BFLT16_MAX_10_EXP__ 38\0"
 8282      4C543136 
 8282      5F4D4158 
 8282      5F31305F 
 8282      4558505F 
 8283 26bb 01       		.byte	0x1
 8284 26bc 00       		.uleb128 0
 8285 26bd 5F5F4246 		.ascii "__BFLT16_DECIMAL_DIG__ 4\0"
 8285      4C543136 
 8285      5F444543 
 8285      494D414C 
 8285      5F444947 
 8286 26d6 01       		.byte	0x1
 8287 26d7 00       		.uleb128 0
 8288 26d8 5F5F4246 		.ascii "__BFLT16_MAX__ 3.38953138925153547590470800371487867e+38BF16\0"
 8288      4C543136 
 8288      5F4D4158 
 8288      5F5F2033 
 8288      2E333839 
 8289 2715 01       		.byte	0x1
 8290 2716 00       		.uleb128 0
 8291 2717 5F5F4246 		.ascii "__BFLT16_NORM_MAX__ 3.38953138925153547590470800371487867e+38BF16\0"
 8291      4C543136 
 8291      5F4E4F52 
 8291      4D5F4D41 
 8291      585F5F20 
 8292 2759 01       		.byte	0x1
 8293 275a 00       		.uleb128 0
 8294 275b 5F5F4246 		.ascii "__BFLT16_MIN__ 1.17549435082228750796873653722224568e-38BF16\0"
 8294      4C543136 
 8294      5F4D494E 
 8294      5F5F2031 
 8294      2E313735 
 8295 2798 01       		.byte	0x1
 8296 2799 00       		.uleb128 0
 8297 279a 5F5F4246 		.ascii "__BFLT16_EPSILON__ 7.81250000000000000000000000000000000e-3BF16\0"
 8297      4C543136 
 8297      5F455053 
 8297      494C4F4E 
 8297      5F5F2037 
 8298 27da 01       		.byte	0x1
 8299 27db 00       		.uleb128 0
 8300 27dc 5F5F4246 		.ascii "__BFLT16_DENORM_MIN__ 9.18354961579912115600575419704879436e-41BF16\0"
 8300      4C543136 
 8300      5F44454E 
 8300      4F524D5F 
 8300      4D494E5F 
 8301 2820 01       		.byte	0x1
 8302 2821 00       		.uleb128 0
 8303 2822 5F5F4246 		.ascii "__BFLT16_HAS_DENORM__ 1\0"
 8303      4C543136 
 8303      5F484153 
 8303      5F44454E 
 8303      4F524D5F 
 8304 283a 01       		.byte	0x1
 8305 283b 00       		.uleb128 0
 8306 283c 5F5F4246 		.ascii "__BFLT16_HAS_INFINITY__ 1\0"
 8306      4C543136 
 8306      5F484153 
 8306      5F494E46 
 8306      494E4954 
 8307 2856 01       		.byte	0x1
 8308 2857 00       		.uleb128 0
 8309 2858 5F5F4246 		.ascii "__BFLT16_HAS_QUIET_NAN__ 1\0"
 8309      4C543136 
 8309      5F484153 
 8309      5F515549 
 8309      45545F4E 
 8310 2873 01       		.byte	0x1
 8311 2874 00       		.uleb128 0
 8312 2875 5F5F4246 		.ascii "__BFLT16_IS_IEC_60559__ 0\0"
 8312      4C543136 
 8312      5F49535F 
 8312      4945435F 
 8312      36303535 
 8313 288f 01       		.byte	0x1
 8314 2890 00       		.uleb128 0
 8315 2891 5F5F4445 		.ascii "__DEC32_MANT_DIG__ 7\0"
 8315      4333325F 
 8315      4D414E54 
 8315      5F444947 
 8315      5F5F2037 
 8316 28a6 01       		.byte	0x1
 8317 28a7 00       		.uleb128 0
 8318 28a8 5F5F4445 		.ascii "__DEC32_MIN_EXP__ (-94)\0"
 8318      4333325F 
 8318      4D494E5F 
 8318      4558505F 
 8318      5F20282D 
 8319 28c0 01       		.byte	0x1
 8320 28c1 00       		.uleb128 0
 8321 28c2 5F5F4445 		.ascii "__DEC32_MAX_EXP__ 97\0"
 8321      4333325F 
 8321      4D41585F 
 8321      4558505F 
 8321      5F203937 
 8322 28d7 01       		.byte	0x1
 8323 28d8 00       		.uleb128 0
 8324 28d9 5F5F4445 		.ascii "__DEC32_MIN__ 1E-95DF\0"
 8324      4333325F 
 8324      4D494E5F 
 8324      5F203145 
 8324      2D393544 
 8325 28ef 01       		.byte	0x1
 8326 28f0 00       		.uleb128 0
 8327 28f1 5F5F4445 		.ascii "__DEC32_MAX__ 9.999999E96DF\0"
 8327      4333325F 
 8327      4D41585F 
 8327      5F20392E 
 8327      39393939 
 8328 290d 01       		.byte	0x1
 8329 290e 00       		.uleb128 0
 8330 290f 5F5F4445 		.ascii "__DEC32_EPSILON__ 1E-6DF\0"
 8330      4333325F 
 8330      45505349 
 8330      4C4F4E5F 
 8330      5F203145 
 8331 2928 01       		.byte	0x1
 8332 2929 00       		.uleb128 0
 8333 292a 5F5F4445 		.ascii "__DEC32_SUBNORMAL_MIN__ 0.000001E-95DF\0"
 8333      4333325F 
 8333      5355424E 
 8333      4F524D41 
 8333      4C5F4D49 
 8334 2951 01       		.byte	0x1
 8335 2952 00       		.uleb128 0
 8336 2953 5F5F4445 		.ascii "__DEC64_MANT_DIG__ 16\0"
 8336      4336345F 
 8336      4D414E54 
 8336      5F444947 
 8336      5F5F2031 
 8337 2969 01       		.byte	0x1
 8338 296a 00       		.uleb128 0
 8339 296b 5F5F4445 		.ascii "__DEC64_MIN_EXP__ (-382)\0"
 8339      4336345F 
 8339      4D494E5F 
 8339      4558505F 
 8339      5F20282D 
 8340 2984 01       		.byte	0x1
 8341 2985 00       		.uleb128 0
 8342 2986 5F5F4445 		.ascii "__DEC64_MAX_EXP__ 385\0"
 8342      4336345F 
 8342      4D41585F 
 8342      4558505F 
 8342      5F203338 
 8343 299c 01       		.byte	0x1
 8344 299d 00       		.uleb128 0
 8345 299e 5F5F4445 		.ascii "__DEC64_MIN__ 1E-383DD\0"
 8345      4336345F 
 8345      4D494E5F 
 8345      5F203145 
 8345      2D333833 
 8346 29b5 01       		.byte	0x1
 8347 29b6 00       		.uleb128 0
 8348 29b7 5F5F4445 		.ascii "__DEC64_MAX__ 9.999999999999999E384DD\0"
 8348      4336345F 
 8348      4D41585F 
 8348      5F20392E 
 8348      39393939 
 8349 29dd 01       		.byte	0x1
 8350 29de 00       		.uleb128 0
 8351 29df 5F5F4445 		.ascii "__DEC64_EPSILON__ 1E-15DD\0"
 8351      4336345F 
 8351      45505349 
 8351      4C4F4E5F 
 8351      5F203145 
 8352 29f9 01       		.byte	0x1
 8353 29fa 00       		.uleb128 0
 8354 29fb 5F5F4445 		.ascii "__DEC64_SUBNORMAL_MIN__ 0.000000000000001E-383DD\0"
 8354      4336345F 
 8354      5355424E 
 8354      4F524D41 
 8354      4C5F4D49 
 8355 2a2c 01       		.byte	0x1
 8356 2a2d 00       		.uleb128 0
 8357 2a2e 5F5F4445 		.ascii "__DEC128_MANT_DIG__ 34\0"
 8357      43313238 
 8357      5F4D414E 
 8357      545F4449 
 8357      475F5F20 
 8358 2a45 01       		.byte	0x1
 8359 2a46 00       		.uleb128 0
 8360 2a47 5F5F4445 		.ascii "__DEC128_MIN_EXP__ (-6142)\0"
 8360      43313238 
 8360      5F4D494E 
 8360      5F455850 
 8360      5F5F2028 
 8361 2a62 01       		.byte	0x1
 8362 2a63 00       		.uleb128 0
 8363 2a64 5F5F4445 		.ascii "__DEC128_MAX_EXP__ 6145\0"
 8363      43313238 
 8363      5F4D4158 
 8363      5F455850 
 8363      5F5F2036 
 8364 2a7c 01       		.byte	0x1
 8365 2a7d 00       		.uleb128 0
 8366 2a7e 5F5F4445 		.ascii "__DEC128_MIN__ 1E-6143DL\0"
 8366      43313238 
 8366      5F4D494E 
 8366      5F5F2031 
 8366      452D3631 
 8367 2a97 01       		.byte	0x1
 8368 2a98 00       		.uleb128 0
 8369 2a99 5F5F4445 		.ascii "__DEC128_MAX__ 9.999999999999999999999999999999999E6144DL\0"
 8369      43313238 
 8369      5F4D4158 
 8369      5F5F2039 
 8369      2E393939 
 8370 2ad3 01       		.byte	0x1
 8371 2ad4 00       		.uleb128 0
 8372 2ad5 5F5F4445 		.ascii "__DEC128_EPSILON__ 1E-33DL\0"
 8372      43313238 
 8372      5F455053 
 8372      494C4F4E 
 8372      5F5F2031 
 8373 2af0 01       		.byte	0x1
 8374 2af1 00       		.uleb128 0
 8375 2af2 5F5F4445 		.ascii "__DEC128_SUBNORMAL_MIN__ 0.000000000000000000000000000000001E-6143DL\0"
 8375      43313238 
 8375      5F535542 
 8375      4E4F524D 
 8375      414C5F4D 
 8376 2b37 01       		.byte	0x1
 8377 2b38 00       		.uleb128 0
 8378 2b39 5F5F5245 		.ascii "__REGISTER_PREFIX__ \0"
 8378      47495354 
 8378      45525F50 
 8378      52454649 
 8378      585F5F20 
 8379 2b4e 01       		.byte	0x1
 8380 2b4f 00       		.uleb128 0
 8381 2b50 5F5F5553 		.ascii "__USER_LABEL_PREFIX__ \0"
 8381      45525F4C 
 8381      4142454C 
 8381      5F505245 
 8381      4649585F 
 8382 2b67 01       		.byte	0x1
 8383 2b68 00       		.uleb128 0
 8384 2b69 5F5F474E 		.ascii "__GNUC_STDC_INLINE__ 1\0"
 8384      55435F53 
 8384      5444435F 
 8384      494E4C49 
 8384      4E455F5F 
 8385 2b80 01       		.byte	0x1
 8386 2b81 00       		.uleb128 0
 8387 2b82 5F5F5354 		.ascii "__STRICT_ANSI__ 1\0"
 8387      52494354 
 8387      5F414E53 
 8387      495F5F20 
 8387      3100
 8388 2b94 01       		.byte	0x1
 8389 2b95 00       		.uleb128 0
 8390 2b96 5F5F4743 		.ascii "__GCC_HAVE_SYNC_COMPARE_AND_SWAP_1 1\0"
 8390      435F4841 
 8390      56455F53 
 8390      594E435F 
 8390      434F4D50 
 8391 2bbb 01       		.byte	0x1
 8392 2bbc 00       		.uleb128 0
 8393 2bbd 5F5F4743 		.ascii "__GCC_HAVE_SYNC_COMPARE_AND_SWAP_2 1\0"
 8393      435F4841 
 8393      56455F53 
 8393      594E435F 
 8393      434F4D50 
 8394 2be2 01       		.byte	0x1
 8395 2be3 00       		.uleb128 0
 8396 2be4 5F5F4743 		.ascii "__GCC_HAVE_SYNC_COMPARE_AND_SWAP_4 1\0"
 8396      435F4841 
 8396      56455F53 
 8396      594E435F 
 8396      434F4D50 
 8397 2c09 01       		.byte	0x1
 8398 2c0a 00       		.uleb128 0
 8399 2c0b 5F5F4743 		.ascii "__GCC_HAVE_SYNC_COMPARE_AND_SWAP_8 1\0"
 8399      435F4841 
 8399      56455F53 
 8399      594E435F 
 8399      434F4D50 
 8400 2c30 01       		.byte	0x1
 8401 2c31 00       		.uleb128 0
 8402 2c32 5F5F4743 		.ascii "__GCC_HAVE_SYNC_COMPARE_AND_SWAP_16 1\0"
 8402      435F4841 
 8402      56455F53 
 8402      594E435F 
 8402      434F4D50 
 8403 2c58 01       		.byte	0x1
 8404 2c59 00       		.uleb128 0
 8405 2c5a 5F5F4743 		.ascii "__GCC_ATOMIC_BOOL_LOCK_FREE 2\0"
 8405      435F4154 
 8405      4F4D4943 
 8405      5F424F4F 
 8405      4C5F4C4F 
 8406 2c78 01       		.byte	0x1
 8407 2c79 00       		.uleb128 0
 8408 2c7a 5F5F4743 		.ascii "__GCC_ATOMIC_CHAR_LOCK_FREE 2\0"
 8408      435F4154 
 8408      4F4D4943 
 8408      5F434841 
 8408      525F4C4F 
 8409 2c98 01       		.byte	0x1
 8410 2c99 00       		.uleb128 0
 8411 2c9a 5F5F4743 		.ascii "__GCC_ATOMIC_CHAR16_T_LOCK_FREE 2\0"
 8411      435F4154 
 8411      4F4D4943 
 8411      5F434841 
 8411      5231365F 
 8412 2cbc 01       		.byte	0x1
 8413 2cbd 00       		.uleb128 0
 8414 2cbe 5F5F4743 		.ascii "__GCC_ATOMIC_CHAR32_T_LOCK_FREE 2\0"
 8414      435F4154 
 8414      4F4D4943 
 8414      5F434841 
 8414      5233325F 
 8415 2ce0 01       		.byte	0x1
 8416 2ce1 00       		.uleb128 0
 8417 2ce2 5F5F4743 		.ascii "__GCC_ATOMIC_WCHAR_T_LOCK_FREE 2\0"
 8417      435F4154 
 8417      4F4D4943 
 8417      5F574348 
 8417      41525F54 
 8418 2d03 01       		.byte	0x1
 8419 2d04 00       		.uleb128 0
 8420 2d05 5F5F4743 		.ascii "__GCC_ATOMIC_SHORT_LOCK_FREE 2\0"
 8420      435F4154 
 8420      4F4D4943 
 8420      5F53484F 
 8420      52545F4C 
 8421 2d24 01       		.byte	0x1
 8422 2d25 00       		.uleb128 0
 8423 2d26 5F5F4743 		.ascii "__GCC_ATOMIC_INT_LOCK_FREE 2\0"
 8423      435F4154 
 8423      4F4D4943 
 8423      5F494E54 
 8423      5F4C4F43 
 8424 2d43 01       		.byte	0x1
 8425 2d44 00       		.uleb128 0
 8426 2d45 5F5F4743 		.ascii "__GCC_ATOMIC_LONG_LOCK_FREE 2\0"
 8426      435F4154 
 8426      4F4D4943 
 8426      5F4C4F4E 
 8426      475F4C4F 
 8427 2d63 01       		.byte	0x1
 8428 2d64 00       		.uleb128 0
 8429 2d65 5F5F4743 		.ascii "__GCC_ATOMIC_LLONG_LOCK_FREE 2\0"
 8429      435F4154 
 8429      4F4D4943 
 8429      5F4C4C4F 
 8429      4E475F4C 
 8430 2d84 01       		.byte	0x1
 8431 2d85 00       		.uleb128 0
 8432 2d86 5F5F4743 		.ascii "__GCC_ATOMIC_TEST_AND_SET_TRUEVAL 1\0"
 8432      435F4154 
 8432      4F4D4943 
 8432      5F544553 
 8432      545F414E 
 8433 2daa 01       		.byte	0x1
 8434 2dab 00       		.uleb128 0
 8435 2dac 5F5F4743 		.ascii "__GCC_DESTRUCTIVE_SIZE 64\0"
 8435      435F4445 
 8435      53545255 
 8435      43544956 
 8435      455F5349 
 8436 2dc6 01       		.byte	0x1
 8437 2dc7 00       		.uleb128 0
 8438 2dc8 5F5F4743 		.ascii "__GCC_CONSTRUCTIVE_SIZE 64\0"
 8438      435F434F 
 8438      4E535452 
 8438      55435449 
 8438      56455F53 
 8439 2de3 01       		.byte	0x1
 8440 2de4 00       		.uleb128 0
 8441 2de5 5F5F4743 		.ascii "__GCC_ATOMIC_POINTER_LOCK_FREE 2\0"
 8441      435F4154 
 8441      4F4D4943 
 8441      5F504F49 
 8441      4E544552 
 8442 2e06 01       		.byte	0x1
 8443 2e07 00       		.uleb128 0
 8444 2e08 5F5F4841 		.ascii "__HAVE_SPECULATION_SAFE_VALUE 1\0"
 8444      56455F53 
 8444      50454355 
 8444      4C415449 
 8444      4F4E5F53 
 8445 2e28 01       		.byte	0x1
 8446 2e29 00       		.uleb128 0
 8447 2e2a 5F5F4743 		.ascii "__GCC_HAVE_DWARF2_CFI_ASM 1\0"
 8447      435F4841 
 8447      56455F44 
 8447      57415246 
 8447      325F4346 
 8448 2e46 01       		.byte	0x1
 8449 2e47 00       		.uleb128 0
 8450 2e48 5F5F5052 		.ascii "__PRAGMA_REDEFINE_EXTNAME 1\0"
 8450      41474D41 
 8450      5F524544 
 8450      4546494E 
 8450      455F4558 
 8451 2e64 01       		.byte	0x1
 8452 2e65 00       		.uleb128 0
 8453 2e66 5F5F5349 		.ascii "__SIZEOF_INT128__ 16\0"
 8453      5A454F46 
 8453      5F494E54 
 8453      3132385F 
 8453      5F203136 
 8454 2e7b 01       		.byte	0x1
 8455 2e7c 00       		.uleb128 0
 8456 2e7d 5F5F5349 		.ascii "__SIZEOF_WCHAR_T__ 2\0"
 8456      5A454F46 
 8456      5F574348 
 8456      41525F54 
 8456      5F5F2032 
 8457 2e92 01       		.byte	0x1
 8458 2e93 00       		.uleb128 0
 8459 2e94 5F5F5349 		.ascii "__SIZEOF_WINT_T__ 2\0"
 8459      5A454F46 
 8459      5F57494E 
 8459      545F545F 
 8459      5F203200 
 8460 2ea8 01       		.byte	0x1
 8461 2ea9 00       		.uleb128 0
 8462 2eaa 5F5F5349 		.ascii "__SIZEOF_PTRDIFF_T__ 8\0"
 8462      5A454F46 
 8462      5F505452 
 8462      44494646 
 8462      5F545F5F 
 8463 2ec1 01       		.byte	0x1
 8464 2ec2 00       		.uleb128 0
 8465 2ec3 5F5F616D 		.ascii "__amd64 1\0"
 8465      64363420 
 8465      3100
 8466 2ecd 01       		.byte	0x1
 8467 2ece 00       		.uleb128 0
 8468 2ecf 5F5F616D 		.ascii "__amd64__ 1\0"
 8468      6436345F 
 8468      5F203100 
 8469 2edb 01       		.byte	0x1
 8470 2edc 00       		.uleb128 0
 8471 2edd 5F5F7838 		.ascii "__x86_64 1\0"
 8471      365F3634 
 8471      203100
 8472 2ee8 01       		.byte	0x1
 8473 2ee9 00       		.uleb128 0
 8474 2eea 5F5F7838 		.ascii "__x86_64__ 1\0"
 8474      365F3634 
 8474      5F5F2031 
 8474      00
 8475 2ef7 01       		.byte	0x1
 8476 2ef8 00       		.uleb128 0
 8477 2ef9 5F5F5349 		.ascii "__SIZEOF_FLOAT80__ 16\0"
 8477      5A454F46 
 8477      5F464C4F 
 8477      41543830 
 8477      5F5F2031 
 8478 2f0f 01       		.byte	0x1
 8479 2f10 00       		.uleb128 0
 8480 2f11 5F5F5349 		.ascii "__SIZEOF_FLOAT128__ 16\0"
 8480      5A454F46 
 8480      5F464C4F 
 8480      41543132 
 8480      385F5F20 
 8481 2f28 01       		.byte	0x1
 8482 2f29 00       		.uleb128 0
 8483 2f2a 5F5F4154 		.ascii "__ATOMIC_HLE_ACQUIRE 65536\0"
 8483      4F4D4943 
 8483      5F484C45 
 8483      5F414351 
 8483      55495245 
 8484 2f45 01       		.byte	0x1
 8485 2f46 00       		.uleb128 0
 8486 2f47 5F5F4154 		.ascii "__ATOMIC_HLE_RELEASE 131072\0"
 8486      4F4D4943 
 8486      5F484C45 
 8486      5F52454C 
 8486      45415345 
 8487 2f63 01       		.byte	0x1
 8488 2f64 00       		.uleb128 0
 8489 2f65 5F5F4743 		.ascii "__GCC_ASM_FLAG_OUTPUTS__ 1\0"
 8489      435F4153 
 8489      4D5F464C 
 8489      41475F4F 
 8489      55545055 
 8490 2f80 01       		.byte	0x1
 8491 2f81 00       		.uleb128 0
 8492 2f82 5F5F6E6F 		.ascii "__nocona 1\0"
 8492      636F6E61 
 8492      203100
 8493 2f8d 01       		.byte	0x1
 8494 2f8e 00       		.uleb128 0
 8495 2f8f 5F5F6E6F 		.ascii "__nocona__ 1\0"
 8495      636F6E61 
 8495      5F5F2031 
 8495      00
 8496 2f9c 01       		.byte	0x1
 8497 2f9d 00       		.uleb128 0
 8498 2f9e 5F5F636F 		.ascii "__code_model_medium__ 1\0"
 8498      64655F6D 
 8498      6F64656C 
 8498      5F6D6564 
 8498      69756D5F 
 8499 2fb6 01       		.byte	0x1
 8500 2fb7 00       		.uleb128 0
 8501 2fb8 5F5F4D4D 		.ascii "__MMX__ 1\0"
 8501      585F5F20 
 8501      3100
 8502 2fc2 01       		.byte	0x1
 8503 2fc3 00       		.uleb128 0
 8504 2fc4 5F5F5353 		.ascii "__SSE__ 1\0"
 8504      455F5F20 
 8504      3100
 8505 2fce 01       		.byte	0x1
 8506 2fcf 00       		.uleb128 0
 8507 2fd0 5F5F5353 		.ascii "__SSE2__ 1\0"
 8507      45325F5F 
 8507      203100
 8508 2fdb 01       		.byte	0x1
 8509 2fdc 00       		.uleb128 0
 8510 2fdd 5F5F5353 		.ascii "__SSE3__ 1\0"
 8510      45335F5F 
 8510      203100
 8511 2fe8 01       		.byte	0x1
 8512 2fe9 00       		.uleb128 0
 8513 2fea 5F5F4658 		.ascii "__FXSR__ 1\0"
 8513      53525F5F 
 8513      203100
 8514 2ff5 01       		.byte	0x1
 8515 2ff6 00       		.uleb128 0
 8516 2ff7 5F5F5353 		.ascii "__SSE_MATH__ 1\0"
 8516      455F4D41 
 8516      54485F5F 
 8516      203100
 8517 3006 01       		.byte	0x1
 8518 3007 00       		.uleb128 0
 8519 3008 5F5F5353 		.ascii "__SSE2_MATH__ 1\0"
 8519      45325F4D 
 8519      4154485F 
 8519      5F203100 
 8520 3018 01       		.byte	0x1
 8521 3019 00       		.uleb128 0
 8522 301a 5F5F4D4D 		.ascii "__MMX_WITH_SSE__ 1\0"
 8522      585F5749 
 8522      54485F53 
 8522      53455F5F 
 8522      203100
 8523 302d 01       		.byte	0x1
 8524 302e 00       		.uleb128 0
 8525 302f 5F5F5345 		.ascii "__SEG_FS 1\0"
 8525      475F4653 
 8525      203100
 8526 303a 01       		.byte	0x1
 8527 303b 00       		.uleb128 0
 8528 303c 5F5F5345 		.ascii "__SEG_GS 1\0"
 8528      475F4753 
 8528      203100
 8529 3047 01       		.byte	0x1
 8530 3048 00       		.uleb128 0
 8531 3049 5F5F5345 		.ascii "__SEH__ 1\0"
 8531      485F5F20 
 8531      3100
 8532 3053 01       		.byte	0x1
 8533 3054 00       		.uleb128 0
 8534 3055 5F5F7374 		.ascii "__stdcall __attribute__((__stdcall__))\0"
 8534      6463616C 
 8534      6C205F5F 
 8534      61747472 
 8534      69627574 
 8535 307c 01       		.byte	0x1
 8536 307d 00       		.uleb128 0
 8537 307e 5F5F6661 		.ascii "__fastcall __attribute__((__fastcall__))\0"
 8537      73746361 
 8537      6C6C205F 
 8537      5F617474 
 8537      72696275 
 8538 30a7 01       		.byte	0x1
 8539 30a8 00       		.uleb128 0
 8540 30a9 5F5F7468 		.ascii "__thiscall __attribute__((__thiscall__))\0"
 8540      69736361 
 8540      6C6C205F 
 8540      5F617474 
 8540      72696275 
 8541 30d2 01       		.byte	0x1
 8542 30d3 00       		.uleb128 0
 8543 30d4 5F5F6364 		.ascii "__cdecl __attribute__((__cdecl__))\0"
 8543      65636C20 
 8543      5F5F6174 
 8543      74726962 
 8543      7574655F 
 8544 30f7 01       		.byte	0x1
 8545 30f8 00       		.uleb128 0
 8546 30f9 5F5F4758 		.ascii "__GXX_MERGED_TYPEINFO_NAMES 0\0"
 8546      585F4D45 
 8546      52474544 
 8546      5F545950 
 8546      45494E46 
 8547 3117 01       		.byte	0x1
 8548 3118 00       		.uleb128 0
 8549 3119 5F5F4758 		.ascii "__GXX_TYPEINFO_EQUALITY_INLINE 0\0"
 8549      585F5459 
 8549      5045494E 
 8549      464F5F45 
 8549      5155414C 
 8550 313a 01       		.byte	0x1
 8551 313b 00       		.uleb128 0
 8552 313c 5F5F4D53 		.ascii "__MSVCRT__ 1\0"
 8552      56435254 
 8552      5F5F2031 
 8552      00
 8553 3149 01       		.byte	0x1
 8554 314a 00       		.uleb128 0
 8555 314b 5F5F4D49 		.ascii "__MINGW32__ 1\0"
 8555      4E475733 
 8555      325F5F20 
 8555      3100
 8556 3159 01       		.byte	0x1
 8557 315a 00       		.uleb128 0
 8558 315b 5F57494E 		.ascii "_WIN32 1\0"
 8558      33322031 
 8558      00
 8559 3164 01       		.byte	0x1
 8560 3165 00       		.uleb128 0
 8561 3166 5F5F5749 		.ascii "__WIN32 1\0"
 8561      4E333220 
 8561      3100
 8562 3170 01       		.byte	0x1
 8563 3171 00       		.uleb128 0
 8564 3172 5F5F5749 		.ascii "__WIN32__ 1\0"
 8564      4E33325F 
 8564      5F203100 
 8565 317e 01       		.byte	0x1
 8566 317f 00       		.uleb128 0
 8567 3180 5F5F5749 		.ascii "__WINNT 1\0"
 8567      4E4E5420 
 8567      3100
 8568 318a 01       		.byte	0x1
 8569 318b 00       		.uleb128 0
 8570 318c 5F5F5749 		.ascii "__WINNT__ 1\0"
 8570      4E4E545F 
 8570      5F203100 
 8571 3198 01       		.byte	0x1
 8572 3199 00       		.uleb128 0
 8573 319a 5F494E54 		.ascii "_INTEGRAL_MAX_BITS 64\0"
 8573      45475241 
 8573      4C5F4D41 
 8573      585F4249 
 8573      54532036 
 8574 31b0 01       		.byte	0x1
 8575 31b1 00       		.uleb128 0
 8576 31b2 5F5F4D49 		.ascii "__MINGW64__ 1\0"
 8576      4E475736 
 8576      345F5F20 
 8576      3100
 8577 31c0 01       		.byte	0x1
 8578 31c1 00       		.uleb128 0
 8579 31c2 5F5F5749 		.ascii "__WIN64 1\0"
 8579      4E363420 
 8579      3100
 8580 31cc 01       		.byte	0x1
 8581 31cd 00       		.uleb128 0
 8582 31ce 5F5F5749 		.ascii "__WIN64__ 1\0"
 8582      4E36345F 
 8582      5F203100 
 8583 31da 01       		.byte	0x1
 8584 31db 00       		.uleb128 0
 8585 31dc 5F57494E 		.ascii "_WIN64 1\0"
 8585      36342031 
 8585      00
 8586 31e5 01       		.byte	0x1
 8587 31e6 00       		.uleb128 0
 8588 31e7 5F5F6465 		.ascii "__declspec(x) __attribute__((x))\0"
 8588      636C7370 
 8588      65632878 
 8588      29205F5F 
 8588      61747472 
 8589 3208 01       		.byte	0x1
 8590 3209 00       		.uleb128 0
 8591 320a 5F5F4445 		.ascii "__DECIMAL_BID_FORMAT__ 1\0"
 8591      43494D41 
 8591      4C5F4249 
 8591      445F464F 
 8591      524D4154 
 8592 3223 01       		.byte	0x1
 8593 3224 00       		.uleb128 0
 8594 3225 5F524545 		.ascii "_REENTRANT 1\0"
 8594      4E545241 
 8594      4E542031 
 8594      00
 8595 3232 01       		.byte	0x1
 8596 3233 00       		.uleb128 0
 8597 3234 474E555F 		.ascii "GNU_EFI_USE_MS_ABI 1\0"
 8597      4546495F 
 8597      5553455F 
 8597      4D535F41 
 8597      42492031 
 8598 3249 03       		.byte	0x3
 8599 324a 00       		.uleb128 0
 8600 324b 01       		.uleb128 0x1
 8601              		.file 11 "gnu-efi-3.0.18/inc/lib.h"
 8602 324c 03       		.byte	0x3
 8603 324d 12       		.uleb128 0x12
 8604 324e 0B       		.uleb128 0xb
 8605              		.file 12 "gnu-efi-3.0.18/inc/efi.h"
 8606 324f 03       		.byte	0x3
 8607 3250 17       		.uleb128 0x17
 8608 3251 0C       		.uleb128 0xc
 8609 3252 01       		.byte	0x1
 8610 3253 16       		.uleb128 0x16
 8611 3254 5F474E55 		.ascii "_GNU_EFI \0"
 8611      5F454649 
 8611      2000
 8612 325e 01       		.byte	0x1
 8613 325f 22       		.uleb128 0x22
 8614 3260 5F454649 		.ascii "_EFI_INCLUDE_ \0"
 8614      5F494E43 
 8614      4C554445 
 8614      5F2000
 8615 326f 01       		.byte	0x1
 8616 3270 28       		.uleb128 0x28
 8617 3271 4546495F 		.ascii "EFI_FIRMWARE_VENDOR L\"INTEL\"\0"
 8617      4649524D 
 8617      57415245 
 8617      5F56454E 
 8617      444F5220 
 8618 328e 01       		.byte	0x1
 8619 328f 29       		.uleb128 0x29
 8620 3290 4546495F 		.ascii "EFI_FIRMWARE_MAJOR_REVISION 12\0"
 8620      4649524D 
 8620      57415245 
 8620      5F4D414A 
 8620      4F525F52 
 8621 32af 01       		.byte	0x1
 8622 32b0 2A       		.uleb128 0x2a
 8623 32b1 4546495F 		.ascii "EFI_FIRMWARE_MINOR_REVISION 33\0"
 8623      4649524D 
 8623      57415245 
 8623      5F4D494E 
 8623      4F525F52 
 8624 32d0 01       		.byte	0x1
 8625 32d1 2B       		.uleb128 0x2b
 8626 32d2 4546495F 		.ascii "EFI_FIRMWARE_REVISION ((EFI_FIRMWARE_MAJOR_REVISION <<16) | (EFI_FIRMWARE_MINOR_REVISION))
 8626      4649524D 
 8626      57415245 
 8626      5F524556 
 8626      4953494F 
 8627 332d 03       		.byte	0x3
 8628 332e 2E       		.uleb128 0x2e
 8629 332f 05       		.uleb128 0x5
 8630 3330 01       		.byte	0x1
 8631 3331 14       		.uleb128 0x14
 8632 3332 5838365F 		.ascii "X86_64_EFI_BIND \0"
 8632      36345F45 
 8632      46495F42 
 8632      494E4420 
 8632      00
 8633 3343 01       		.byte	0x1
 8634 3344 1D       		.uleb128 0x1d
 8635 3345 48415645 		.ascii "HAVE_USE_MS_ABI 1\0"
 8635      5F555345 
 8635      5F4D535F 
 8635      41424920 
 8635      3100
 8636              		.file 13 "C:/Users/victim/source/repos/Paranyok/UEFI/Backend/mingw64/lib/gcc/x86_64-w64-mingw32/14
 8637 3357 03       		.byte	0x3
 8638 3358 5C       		.uleb128 0x5c
 8639 3359 0D       		.uleb128 0xd
 8640 335a 03       		.byte	0x3
 8641 335b 0B       		.uleb128 0xb
 8642 335c 02       		.uleb128 0x2
 8643 335d 01       		.byte	0x1
 8644 335e 1D       		.uleb128 0x1d
 8645 335f 5F474343 		.ascii "_GCC_STDINT_H \0"
 8645      5F535444 
 8645      494E545F 
 8645      482000
 8646 336e 02       		.byte	0x2
 8647 336f 64       		.uleb128 0x64
 8648 3370 494E5438 		.ascii "INT8_MAX\0"
 8648      5F4D4158 
 8648      00
 8649 3379 01       		.byte	0x1
 8650 337a 65       		.uleb128 0x65
 8651 337b 494E5438 		.ascii "INT8_MAX __INT8_MAX__\0"
 8651      5F4D4158 
 8651      205F5F49 
 8651      4E54385F 
 8651      4D41585F 
 8652 3391 02       		.byte	0x2
 8653 3392 66       		.uleb128 0x66
 8654 3393 494E5438 		.ascii "INT8_MIN\0"
 8654      5F4D494E 
 8654      00
 8655 339c 01       		.byte	0x1
 8656 339d 67       		.uleb128 0x67
 8657 339e 494E5438 		.ascii "INT8_MIN (-INT8_MAX - 1)\0"
 8657      5F4D494E 
 8657      20282D49 
 8657      4E54385F 
 8657      4D415820 
 8658 33b7 02       		.byte	0x2
 8659 33b8 6A       		.uleb128 0x6a
 8660 33b9 55494E54 		.ascii "UINT8_MAX\0"
 8660      385F4D41 
 8660      5800
 8661 33c3 01       		.byte	0x1
 8662 33c4 6B       		.uleb128 0x6b
 8663 33c5 55494E54 		.ascii "UINT8_MAX __UINT8_MAX__\0"
 8663      385F4D41 
 8663      58205F5F 
 8663      55494E54 
 8663      385F4D41 
 8664 33dd 02       		.byte	0x2
 8665 33de 6E       		.uleb128 0x6e
 8666 33df 494E5431 		.ascii "INT16_MAX\0"
 8666      365F4D41 
 8666      5800
 8667 33e9 01       		.byte	0x1
 8668 33ea 6F       		.uleb128 0x6f
 8669 33eb 494E5431 		.ascii "INT16_MAX __INT16_MAX__\0"
 8669      365F4D41 
 8669      58205F5F 
 8669      494E5431 
 8669      365F4D41 
 8670 3403 02       		.byte	0x2
 8671 3404 70       		.uleb128 0x70
 8672 3405 494E5431 		.ascii "INT16_MIN\0"
 8672      365F4D49 
 8672      4E00
 8673 340f 01       		.byte	0x1
 8674 3410 71       		.uleb128 0x71
 8675 3411 494E5431 		.ascii "INT16_MIN (-INT16_MAX - 1)\0"
 8675      365F4D49 
 8675      4E20282D 
 8675      494E5431 
 8675      365F4D41 
 8676 342c 02       		.byte	0x2
 8677 342d 74       		.uleb128 0x74
 8678 342e 55494E54 		.ascii "UINT16_MAX\0"
 8678      31365F4D 
 8678      415800
 8679 3439 01       		.byte	0x1
 8680 343a 75       		.uleb128 0x75
 8681 343b 55494E54 		.ascii "UINT16_MAX __UINT16_MAX__\0"
 8681      31365F4D 
 8681      4158205F 
 8681      5F55494E 
 8681      5431365F 
 8682 3455 02       		.byte	0x2
 8683 3456 78       		.uleb128 0x78
 8684 3457 494E5433 		.ascii "INT32_MAX\0"
 8684      325F4D41 
 8684      5800
 8685 3461 01       		.byte	0x1
 8686 3462 79       		.uleb128 0x79
 8687 3463 494E5433 		.ascii "INT32_MAX __INT32_MAX__\0"
 8687      325F4D41 
 8687      58205F5F 
 8687      494E5433 
 8687      325F4D41 
 8688 347b 02       		.byte	0x2
 8689 347c 7A       		.uleb128 0x7a
 8690 347d 494E5433 		.ascii "INT32_MIN\0"
 8690      325F4D49 
 8690      4E00
 8691 3487 01       		.byte	0x1
 8692 3488 7B       		.uleb128 0x7b
 8693 3489 494E5433 		.ascii "INT32_MIN (-INT32_MAX - 1)\0"
 8693      325F4D49 
 8693      4E20282D 
 8693      494E5433 
 8693      325F4D41 
 8694 34a4 02       		.byte	0x2
 8695 34a5 7E       		.uleb128 0x7e
 8696 34a6 55494E54 		.ascii "UINT32_MAX\0"
 8696      33325F4D 
 8696      415800
 8697 34b1 01       		.byte	0x1
 8698 34b2 7F       		.uleb128 0x7f
 8699 34b3 55494E54 		.ascii "UINT32_MAX __UINT32_MAX__\0"
 8699      33325F4D 
 8699      4158205F 
 8699      5F55494E 
 8699      5433325F 
 8700 34cd 02       		.byte	0x2
 8701 34ce 8201     		.uleb128 0x82
 8702 34d0 494E5436 		.ascii "INT64_MAX\0"
 8702      345F4D41 
 8702      5800
 8703 34da 01       		.byte	0x1
 8704 34db 8301     		.uleb128 0x83
 8705 34dd 494E5436 		.ascii "INT64_MAX __INT64_MAX__\0"
 8705      345F4D41 
 8705      58205F5F 
 8705      494E5436 
 8705      345F4D41 
 8706 34f5 02       		.byte	0x2
 8707 34f6 8401     		.uleb128 0x84
 8708 34f8 494E5436 		.ascii "INT64_MIN\0"
 8708      345F4D49 
 8708      4E00
 8709 3502 01       		.byte	0x1
 8710 3503 8501     		.uleb128 0x85
 8711 3505 494E5436 		.ascii "INT64_MIN (-INT64_MAX - 1)\0"
 8711      345F4D49 
 8711      4E20282D 
 8711      494E5436 
 8711      345F4D41 
 8712 3520 02       		.byte	0x2
 8713 3521 8801     		.uleb128 0x88
 8714 3523 55494E54 		.ascii "UINT64_MAX\0"
 8714      36345F4D 
 8714      415800
 8715 352e 01       		.byte	0x1
 8716 352f 8901     		.uleb128 0x89
 8717 3531 55494E54 		.ascii "UINT64_MAX __UINT64_MAX__\0"
 8717      36345F4D 
 8717      4158205F 
 8717      5F55494E 
 8717      5436345F 
 8718 354b 02       		.byte	0x2
 8719 354c 8C01     		.uleb128 0x8c
 8720 354e 494E545F 		.ascii "INT_LEAST8_MAX\0"
 8720      4C454153 
 8720      54385F4D 
 8720      415800
 8721 355d 01       		.byte	0x1
 8722 355e 8D01     		.uleb128 0x8d
 8723 3560 494E545F 		.ascii "INT_LEAST8_MAX __INT_LEAST8_MAX__\0"
 8723      4C454153 
 8723      54385F4D 
 8723      4158205F 
 8723      5F494E54 
 8724 3582 02       		.byte	0x2
 8725 3583 8E01     		.uleb128 0x8e
 8726 3585 494E545F 		.ascii "INT_LEAST8_MIN\0"
 8726      4C454153 
 8726      54385F4D 
 8726      494E00
 8727 3594 01       		.byte	0x1
 8728 3595 8F01     		.uleb128 0x8f
 8729 3597 494E545F 		.ascii "INT_LEAST8_MIN (-INT_LEAST8_MAX - 1)\0"
 8729      4C454153 
 8729      54385F4D 
 8729      494E2028 
 8729      2D494E54 
 8730 35bc 02       		.byte	0x2
 8731 35bd 9001     		.uleb128 0x90
 8732 35bf 55494E54 		.ascii "UINT_LEAST8_MAX\0"
 8732      5F4C4541 
 8732      5354385F 
 8732      4D415800 
 8733 35cf 01       		.byte	0x1
 8734 35d0 9101     		.uleb128 0x91
 8735 35d2 55494E54 		.ascii "UINT_LEAST8_MAX __UINT_LEAST8_MAX__\0"
 8735      5F4C4541 
 8735      5354385F 
 8735      4D415820 
 8735      5F5F5549 
 8736 35f6 02       		.byte	0x2
 8737 35f7 9201     		.uleb128 0x92
 8738 35f9 494E545F 		.ascii "INT_LEAST16_MAX\0"
 8738      4C454153 
 8738      5431365F 
 8738      4D415800 
 8739 3609 01       		.byte	0x1
 8740 360a 9301     		.uleb128 0x93
 8741 360c 494E545F 		.ascii "INT_LEAST16_MAX __INT_LEAST16_MAX__\0"
 8741      4C454153 
 8741      5431365F 
 8741      4D415820 
 8741      5F5F494E 
 8742 3630 02       		.byte	0x2
 8743 3631 9401     		.uleb128 0x94
 8744 3633 494E545F 		.ascii "INT_LEAST16_MIN\0"
 8744      4C454153 
 8744      5431365F 
 8744      4D494E00 
 8745 3643 01       		.byte	0x1
 8746 3644 9501     		.uleb128 0x95
 8747 3646 494E545F 		.ascii "INT_LEAST16_MIN (-INT_LEAST16_MAX - 1)\0"
 8747      4C454153 
 8747      5431365F 
 8747      4D494E20 
 8747      282D494E 
 8748 366d 02       		.byte	0x2
 8749 366e 9601     		.uleb128 0x96
 8750 3670 55494E54 		.ascii "UINT_LEAST16_MAX\0"
 8750      5F4C4541 
 8750      53543136 
 8750      5F4D4158 
 8750      00
 8751 3681 01       		.byte	0x1
 8752 3682 9701     		.uleb128 0x97
 8753 3684 55494E54 		.ascii "UINT_LEAST16_MAX __UINT_LEAST16_MAX__\0"
 8753      5F4C4541 
 8753      53543136 
 8753      5F4D4158 
 8753      205F5F55 
 8754 36aa 02       		.byte	0x2
 8755 36ab 9801     		.uleb128 0x98
 8756 36ad 494E545F 		.ascii "INT_LEAST32_MAX\0"
 8756      4C454153 
 8756      5433325F 
 8756      4D415800 
 8757 36bd 01       		.byte	0x1
 8758 36be 9901     		.uleb128 0x99
 8759 36c0 494E545F 		.ascii "INT_LEAST32_MAX __INT_LEAST32_MAX__\0"
 8759      4C454153 
 8759      5433325F 
 8759      4D415820 
 8759      5F5F494E 
 8760 36e4 02       		.byte	0x2
 8761 36e5 9A01     		.uleb128 0x9a
 8762 36e7 494E545F 		.ascii "INT_LEAST32_MIN\0"
 8762      4C454153 
 8762      5433325F 
 8762      4D494E00 
 8763 36f7 01       		.byte	0x1
 8764 36f8 9B01     		.uleb128 0x9b
 8765 36fa 494E545F 		.ascii "INT_LEAST32_MIN (-INT_LEAST32_MAX - 1)\0"
 8765      4C454153 
 8765      5433325F 
 8765      4D494E20 
 8765      282D494E 
 8766 3721 02       		.byte	0x2
 8767 3722 9C01     		.uleb128 0x9c
 8768 3724 55494E54 		.ascii "UINT_LEAST32_MAX\0"
 8768      5F4C4541 
 8768      53543332 
 8768      5F4D4158 
 8768      00
 8769 3735 01       		.byte	0x1
 8770 3736 9D01     		.uleb128 0x9d
 8771 3738 55494E54 		.ascii "UINT_LEAST32_MAX __UINT_LEAST32_MAX__\0"
 8771      5F4C4541 
 8771      53543332 
 8771      5F4D4158 
 8771      205F5F55 
 8772 375e 02       		.byte	0x2
 8773 375f 9E01     		.uleb128 0x9e
 8774 3761 494E545F 		.ascii "INT_LEAST64_MAX\0"
 8774      4C454153 
 8774      5436345F 
 8774      4D415800 
 8775 3771 01       		.byte	0x1
 8776 3772 9F01     		.uleb128 0x9f
 8777 3774 494E545F 		.ascii "INT_LEAST64_MAX __INT_LEAST64_MAX__\0"
 8777      4C454153 
 8777      5436345F 
 8777      4D415820 
 8777      5F5F494E 
 8778 3798 02       		.byte	0x2
 8779 3799 A001     		.uleb128 0xa0
 8780 379b 494E545F 		.ascii "INT_LEAST64_MIN\0"
 8780      4C454153 
 8780      5436345F 
 8780      4D494E00 
 8781 37ab 01       		.byte	0x1
 8782 37ac A101     		.uleb128 0xa1
 8783 37ae 494E545F 		.ascii "INT_LEAST64_MIN (-INT_LEAST64_MAX - 1)\0"
 8783      4C454153 
 8783      5436345F 
 8783      4D494E20 
 8783      282D494E 
 8784 37d5 02       		.byte	0x2
 8785 37d6 A201     		.uleb128 0xa2
 8786 37d8 55494E54 		.ascii "UINT_LEAST64_MAX\0"
 8786      5F4C4541 
 8786      53543634 
 8786      5F4D4158 
 8786      00
 8787 37e9 01       		.byte	0x1
 8788 37ea A301     		.uleb128 0xa3
 8789 37ec 55494E54 		.ascii "UINT_LEAST64_MAX __UINT_LEAST64_MAX__\0"
 8789      5F4C4541 
 8789      53543634 
 8789      5F4D4158 
 8789      205F5F55 
 8790 3812 02       		.byte	0x2
 8791 3813 A501     		.uleb128 0xa5
 8792 3815 494E545F 		.ascii "INT_FAST8_MAX\0"
 8792      46415354 
 8792      385F4D41 
 8792      5800
 8793 3823 01       		.byte	0x1
 8794 3824 A601     		.uleb128 0xa6
 8795 3826 494E545F 		.ascii "INT_FAST8_MAX __INT_FAST8_MAX__\0"
 8795      46415354 
 8795      385F4D41 
 8795      58205F5F 
 8795      494E545F 
 8796 3846 02       		.byte	0x2
 8797 3847 A701     		.uleb128 0xa7
 8798 3849 494E545F 		.ascii "INT_FAST8_MIN\0"
 8798      46415354 
 8798      385F4D49 
 8798      4E00
 8799 3857 01       		.byte	0x1
 8800 3858 A801     		.uleb128 0xa8
 8801 385a 494E545F 		.ascii "INT_FAST8_MIN (-INT_FAST8_MAX - 1)\0"
 8801      46415354 
 8801      385F4D49 
 8801      4E20282D 
 8801      494E545F 
 8802 387d 02       		.byte	0x2
 8803 387e A901     		.uleb128 0xa9
 8804 3880 55494E54 		.ascii "UINT_FAST8_MAX\0"
 8804      5F464153 
 8804      54385F4D 
 8804      415800
 8805 388f 01       		.byte	0x1
 8806 3890 AA01     		.uleb128 0xaa
 8807 3892 55494E54 		.ascii "UINT_FAST8_MAX __UINT_FAST8_MAX__\0"
 8807      5F464153 
 8807      54385F4D 
 8807      4158205F 
 8807      5F55494E 
 8808 38b4 02       		.byte	0x2
 8809 38b5 AB01     		.uleb128 0xab
 8810 38b7 494E545F 		.ascii "INT_FAST16_MAX\0"
 8810      46415354 
 8810      31365F4D 
 8810      415800
 8811 38c6 01       		.byte	0x1
 8812 38c7 AC01     		.uleb128 0xac
 8813 38c9 494E545F 		.ascii "INT_FAST16_MAX __INT_FAST16_MAX__\0"
 8813      46415354 
 8813      31365F4D 
 8813      4158205F 
 8813      5F494E54 
 8814 38eb 02       		.byte	0x2
 8815 38ec AD01     		.uleb128 0xad
 8816 38ee 494E545F 		.ascii "INT_FAST16_MIN\0"
 8816      46415354 
 8816      31365F4D 
 8816      494E00
 8817 38fd 01       		.byte	0x1
 8818 38fe AE01     		.uleb128 0xae
 8819 3900 494E545F 		.ascii "INT_FAST16_MIN (-INT_FAST16_MAX - 1)\0"
 8819      46415354 
 8819      31365F4D 
 8819      494E2028 
 8819      2D494E54 
 8820 3925 02       		.byte	0x2
 8821 3926 AF01     		.uleb128 0xaf
 8822 3928 55494E54 		.ascii "UINT_FAST16_MAX\0"
 8822      5F464153 
 8822      5431365F 
 8822      4D415800 
 8823 3938 01       		.byte	0x1
 8824 3939 B001     		.uleb128 0xb0
 8825 393b 55494E54 		.ascii "UINT_FAST16_MAX __UINT_FAST16_MAX__\0"
 8825      5F464153 
 8825      5431365F 
 8825      4D415820 
 8825      5F5F5549 
 8826 395f 02       		.byte	0x2
 8827 3960 B101     		.uleb128 0xb1
 8828 3962 494E545F 		.ascii "INT_FAST32_MAX\0"
 8828      46415354 
 8828      33325F4D 
 8828      415800
 8829 3971 01       		.byte	0x1
 8830 3972 B201     		.uleb128 0xb2
 8831 3974 494E545F 		.ascii "INT_FAST32_MAX __INT_FAST32_MAX__\0"
 8831      46415354 
 8831      33325F4D 
 8831      4158205F 
 8831      5F494E54 
 8832 3996 02       		.byte	0x2
 8833 3997 B301     		.uleb128 0xb3
 8834 3999 494E545F 		.ascii "INT_FAST32_MIN\0"
 8834      46415354 
 8834      33325F4D 
 8834      494E00
 8835 39a8 01       		.byte	0x1
 8836 39a9 B401     		.uleb128 0xb4
 8837 39ab 494E545F 		.ascii "INT_FAST32_MIN (-INT_FAST32_MAX - 1)\0"
 8837      46415354 
 8837      33325F4D 
 8837      494E2028 
 8837      2D494E54 
 8838 39d0 02       		.byte	0x2
 8839 39d1 B501     		.uleb128 0xb5
 8840 39d3 55494E54 		.ascii "UINT_FAST32_MAX\0"
 8840      5F464153 
 8840      5433325F 
 8840      4D415800 
 8841 39e3 01       		.byte	0x1
 8842 39e4 B601     		.uleb128 0xb6
 8843 39e6 55494E54 		.ascii "UINT_FAST32_MAX __UINT_FAST32_MAX__\0"
 8843      5F464153 
 8843      5433325F 
 8843      4D415820 
 8843      5F5F5549 
 8844 3a0a 02       		.byte	0x2
 8845 3a0b B701     		.uleb128 0xb7
 8846 3a0d 494E545F 		.ascii "INT_FAST64_MAX\0"
 8846      46415354 
 8846      36345F4D 
 8846      415800
 8847 3a1c 01       		.byte	0x1
 8848 3a1d B801     		.uleb128 0xb8
 8849 3a1f 494E545F 		.ascii "INT_FAST64_MAX __INT_FAST64_MAX__\0"
 8849      46415354 
 8849      36345F4D 
 8849      4158205F 
 8849      5F494E54 
 8850 3a41 02       		.byte	0x2
 8851 3a42 B901     		.uleb128 0xb9
 8852 3a44 494E545F 		.ascii "INT_FAST64_MIN\0"
 8852      46415354 
 8852      36345F4D 
 8852      494E00
 8853 3a53 01       		.byte	0x1
 8854 3a54 BA01     		.uleb128 0xba
 8855 3a56 494E545F 		.ascii "INT_FAST64_MIN (-INT_FAST64_MAX - 1)\0"
 8855      46415354 
 8855      36345F4D 
 8855      494E2028 
 8855      2D494E54 
 8856 3a7b 02       		.byte	0x2
 8857 3a7c BB01     		.uleb128 0xbb
 8858 3a7e 55494E54 		.ascii "UINT_FAST64_MAX\0"
 8858      5F464153 
 8858      5436345F 
 8858      4D415800 
 8859 3a8e 01       		.byte	0x1
 8860 3a8f BC01     		.uleb128 0xbc
 8861 3a91 55494E54 		.ascii "UINT_FAST64_MAX __UINT_FAST64_MAX__\0"
 8861      5F464153 
 8861      5436345F 
 8861      4D415820 
 8861      5F5F5549 
 8862 3ab5 02       		.byte	0x2
 8863 3ab6 BF01     		.uleb128 0xbf
 8864 3ab8 494E5450 		.ascii "INTPTR_MAX\0"
 8864      54525F4D 
 8864      415800
 8865 3ac3 01       		.byte	0x1
 8866 3ac4 C001     		.uleb128 0xc0
 8867 3ac6 494E5450 		.ascii "INTPTR_MAX __INTPTR_MAX__\0"
 8867      54525F4D 
 8867      4158205F 
 8867      5F494E54 
 8867      5054525F 
 8868 3ae0 02       		.byte	0x2
 8869 3ae1 C101     		.uleb128 0xc1
 8870 3ae3 494E5450 		.ascii "INTPTR_MIN\0"
 8870      54525F4D 
 8870      494E00
 8871 3aee 01       		.byte	0x1
 8872 3aef C201     		.uleb128 0xc2
 8873 3af1 494E5450 		.ascii "INTPTR_MIN (-INTPTR_MAX - 1)\0"
 8873      54525F4D 
 8873      494E2028 
 8873      2D494E54 
 8873      5054525F 
 8874 3b0e 02       		.byte	0x2
 8875 3b0f C501     		.uleb128 0xc5
 8876 3b11 55494E54 		.ascii "UINTPTR_MAX\0"
 8876      5054525F 
 8876      4D415800 
 8877 3b1d 01       		.byte	0x1
 8878 3b1e C601     		.uleb128 0xc6
 8879 3b20 55494E54 		.ascii "UINTPTR_MAX __UINTPTR_MAX__\0"
 8879      5054525F 
 8879      4D415820 
 8879      5F5F5549 
 8879      4E545054 
 8880 3b3c 02       		.byte	0x2
 8881 3b3d C901     		.uleb128 0xc9
 8882 3b3f 494E544D 		.ascii "INTMAX_MAX\0"
 8882      41585F4D 
 8882      415800
 8883 3b4a 01       		.byte	0x1
 8884 3b4b CA01     		.uleb128 0xca
 8885 3b4d 494E544D 		.ascii "INTMAX_MAX __INTMAX_MAX__\0"
 8885      41585F4D 
 8885      4158205F 
 8885      5F494E54 
 8885      4D41585F 
 8886 3b67 02       		.byte	0x2
 8887 3b68 CB01     		.uleb128 0xcb
 8888 3b6a 494E544D 		.ascii "INTMAX_MIN\0"
 8888      41585F4D 
 8888      494E00
 8889 3b75 01       		.byte	0x1
 8890 3b76 CC01     		.uleb128 0xcc
 8891 3b78 494E544D 		.ascii "INTMAX_MIN (-INTMAX_MAX - 1)\0"
 8891      41585F4D 
 8891      494E2028 
 8891      2D494E54 
 8891      4D41585F 
 8892 3b95 02       		.byte	0x2
 8893 3b96 CD01     		.uleb128 0xcd
 8894 3b98 55494E54 		.ascii "UINTMAX_MAX\0"
 8894      4D41585F 
 8894      4D415800 
 8895 3ba4 01       		.byte	0x1
 8896 3ba5 CE01     		.uleb128 0xce
 8897 3ba7 55494E54 		.ascii "UINTMAX_MAX __UINTMAX_MAX__\0"
 8897      4D41585F 
 8897      4D415820 
 8897      5F5F5549 
 8897      4E544D41 
 8898 3bc3 02       		.byte	0x2
 8899 3bc4 D201     		.uleb128 0xd2
 8900 3bc6 50545244 		.ascii "PTRDIFF_MAX\0"
 8900      4946465F 
 8900      4D415800 
 8901 3bd2 01       		.byte	0x1
 8902 3bd3 D301     		.uleb128 0xd3
 8903 3bd5 50545244 		.ascii "PTRDIFF_MAX __PTRDIFF_MAX__\0"
 8903      4946465F 
 8903      4D415820 
 8903      5F5F5054 
 8903      52444946 
 8904 3bf1 02       		.byte	0x2
 8905 3bf2 D401     		.uleb128 0xd4
 8906 3bf4 50545244 		.ascii "PTRDIFF_MIN\0"
 8906      4946465F 
 8906      4D494E00 
 8907 3c00 01       		.byte	0x1
 8908 3c01 D501     		.uleb128 0xd5
 8909 3c03 50545244 		.ascii "PTRDIFF_MIN (-PTRDIFF_MAX - 1)\0"
 8909      4946465F 
 8909      4D494E20 
 8909      282D5054 
 8909      52444946 
 8910 3c22 02       		.byte	0x2
 8911 3c23 D701     		.uleb128 0xd7
 8912 3c25 5349475F 		.ascii "SIG_ATOMIC_MAX\0"
 8912      41544F4D 
 8912      49435F4D 
 8912      415800
 8913 3c34 01       		.byte	0x1
 8914 3c35 D801     		.uleb128 0xd8
 8915 3c37 5349475F 		.ascii "SIG_ATOMIC_MAX __SIG_ATOMIC_MAX__\0"
 8915      41544F4D 
 8915      49435F4D 
 8915      4158205F 
 8915      5F534947 
 8916 3c59 02       		.byte	0x2
 8917 3c5a D901     		.uleb128 0xd9
 8918 3c5c 5349475F 		.ascii "SIG_ATOMIC_MIN\0"
 8918      41544F4D 
 8918      49435F4D 
 8918      494E00
 8919 3c6b 01       		.byte	0x1
 8920 3c6c DA01     		.uleb128 0xda
 8921 3c6e 5349475F 		.ascii "SIG_ATOMIC_MIN __SIG_ATOMIC_MIN__\0"
 8921      41544F4D 
 8921      49435F4D 
 8921      494E205F 
 8921      5F534947 
 8922 3c90 02       		.byte	0x2
 8923 3c91 DC01     		.uleb128 0xdc
 8924 3c93 53495A45 		.ascii "SIZE_MAX\0"
 8924      5F4D4158 
 8924      00
 8925 3c9c 01       		.byte	0x1
 8926 3c9d DD01     		.uleb128 0xdd
 8927 3c9f 53495A45 		.ascii "SIZE_MAX __SIZE_MAX__\0"
 8927      5F4D4158 
 8927      205F5F53 
 8927      495A455F 
 8927      4D41585F 
 8928 3cb5 02       		.byte	0x2
 8929 3cb6 DF01     		.uleb128 0xdf
 8930 3cb8 57434841 		.ascii "WCHAR_MAX\0"
 8930      525F4D41 
 8930      5800
 8931 3cc2 01       		.byte	0x1
 8932 3cc3 E001     		.uleb128 0xe0
 8933 3cc5 57434841 		.ascii "WCHAR_MAX __WCHAR_MAX__\0"
 8933      525F4D41 
 8933      58205F5F 
 8933      57434841 
 8933      525F4D41 
 8934 3cdd 02       		.byte	0x2
 8935 3cde E101     		.uleb128 0xe1
 8936 3ce0 57434841 		.ascii "WCHAR_MIN\0"
 8936      525F4D49 
 8936      4E00
 8937 3cea 01       		.byte	0x1
 8938 3ceb E201     		.uleb128 0xe2
 8939 3ced 57434841 		.ascii "WCHAR_MIN __WCHAR_MIN__\0"
 8939      525F4D49 
 8939      4E205F5F 
 8939      57434841 
 8939      525F4D49 
 8940 3d05 02       		.byte	0x2
 8941 3d06 E401     		.uleb128 0xe4
 8942 3d08 57494E54 		.ascii "WINT_MAX\0"
 8942      5F4D4158 
 8942      00
 8943 3d11 01       		.byte	0x1
 8944 3d12 E501     		.uleb128 0xe5
 8945 3d14 57494E54 		.ascii "WINT_MAX __WINT_MAX__\0"
 8945      5F4D4158 
 8945      205F5F57 
 8945      494E545F 
 8945      4D41585F 
 8946 3d2a 02       		.byte	0x2
 8947 3d2b E601     		.uleb128 0xe6
 8948 3d2d 57494E54 		.ascii "WINT_MIN\0"
 8948      5F4D494E 
 8948      00
 8949 3d36 01       		.byte	0x1
 8950 3d37 E701     		.uleb128 0xe7
 8951 3d39 57494E54 		.ascii "WINT_MIN __WINT_MIN__\0"
 8951      5F4D494E 
 8951      205F5F57 
 8951      494E545F 
 8951      4D494E5F 
 8952 3d4f 02       		.byte	0x2
 8953 3d50 EF01     		.uleb128 0xef
 8954 3d52 494E5438 		.ascii "INT8_C\0"
 8954      5F4300
 8955 3d59 01       		.byte	0x1
 8956 3d5a F001     		.uleb128 0xf0
 8957 3d5c 494E5438 		.ascii "INT8_C(c) __INT8_C(c)\0"
 8957      5F432863 
 8957      29205F5F 
 8957      494E5438 
 8957      5F432863 
 8958 3d72 02       		.byte	0x2
 8959 3d73 F101     		.uleb128 0xf1
 8960 3d75 494E5431 		.ascii "INT16_C\0"
 8960      365F4300 
 8961 3d7d 01       		.byte	0x1
 8962 3d7e F201     		.uleb128 0xf2
 8963 3d80 494E5431 		.ascii "INT16_C(c) __INT16_C(c)\0"
 8963      365F4328 
 8963      6329205F 
 8963      5F494E54 
 8963      31365F43 
 8964 3d98 02       		.byte	0x2
 8965 3d99 F301     		.uleb128 0xf3
 8966 3d9b 494E5433 		.ascii "INT32_C\0"
 8966      325F4300 
 8967 3da3 01       		.byte	0x1
 8968 3da4 F401     		.uleb128 0xf4
 8969 3da6 494E5433 		.ascii "INT32_C(c) __INT32_C(c)\0"
 8969      325F4328 
 8969      6329205F 
 8969      5F494E54 
 8969      33325F43 
 8970 3dbe 02       		.byte	0x2
 8971 3dbf F501     		.uleb128 0xf5
 8972 3dc1 494E5436 		.ascii "INT64_C\0"
 8972      345F4300 
 8973 3dc9 01       		.byte	0x1
 8974 3dca F601     		.uleb128 0xf6
 8975 3dcc 494E5436 		.ascii "INT64_C(c) __INT64_C(c)\0"
 8975      345F4328 
 8975      6329205F 
 8975      5F494E54 
 8975      36345F43 
 8976 3de4 02       		.byte	0x2
 8977 3de5 F701     		.uleb128 0xf7
 8978 3de7 55494E54 		.ascii "UINT8_C\0"
 8978      385F4300 
 8979 3def 01       		.byte	0x1
 8980 3df0 F801     		.uleb128 0xf8
 8981 3df2 55494E54 		.ascii "UINT8_C(c) __UINT8_C(c)\0"
 8981      385F4328 
 8981      6329205F 
 8981      5F55494E 
 8981      54385F43 
 8982 3e0a 02       		.byte	0x2
 8983 3e0b F901     		.uleb128 0xf9
 8984 3e0d 55494E54 		.ascii "UINT16_C\0"
 8984      31365F43 
 8984      00
 8985 3e16 01       		.byte	0x1
 8986 3e17 FA01     		.uleb128 0xfa
 8987 3e19 55494E54 		.ascii "UINT16_C(c) __UINT16_C(c)\0"
 8987      31365F43 
 8987      28632920 
 8987      5F5F5549 
 8987      4E543136 
 8988 3e33 02       		.byte	0x2
 8989 3e34 FB01     		.uleb128 0xfb
 8990 3e36 55494E54 		.ascii "UINT32_C\0"
 8990      33325F43 
 8990      00
 8991 3e3f 01       		.byte	0x1
 8992 3e40 FC01     		.uleb128 0xfc
 8993 3e42 55494E54 		.ascii "UINT32_C(c) __UINT32_C(c)\0"
 8993      33325F43 
 8993      28632920 
 8993      5F5F5549 
 8993      4E543332 
 8994 3e5c 02       		.byte	0x2
 8995 3e5d FD01     		.uleb128 0xfd
 8996 3e5f 55494E54 		.ascii "UINT64_C\0"
 8996      36345F43 
 8996      00
 8997 3e68 01       		.byte	0x1
 8998 3e69 FE01     		.uleb128 0xfe
 8999 3e6b 55494E54 		.ascii "UINT64_C(c) __UINT64_C(c)\0"
 8999      36345F43 
 8999      28632920 
 8999      5F5F5549 
 8999      4E543634 
 9000 3e85 02       		.byte	0x2
 9001 3e86 FF01     		.uleb128 0xff
 9002 3e88 494E544D 		.ascii "INTMAX_C\0"
 9002      41585F43 
 9002      00
 9003 3e91 01       		.byte	0x1
 9004 3e92 8002     		.uleb128 0x100
 9005 3e94 494E544D 		.ascii "INTMAX_C(c) __INTMAX_C(c)\0"
 9005      41585F43 
 9005      28632920 
 9005      5F5F494E 
 9005      544D4158 
 9006 3eae 02       		.byte	0x2
 9007 3eaf 8102     		.uleb128 0x101
 9008 3eb1 55494E54 		.ascii "UINTMAX_C\0"
 9008      4D41585F 
 9008      4300
 9009 3ebb 01       		.byte	0x1
 9010 3ebc 8202     		.uleb128 0x102
 9011 3ebe 55494E54 		.ascii "UINTMAX_C(c) __UINTMAX_C(c)\0"
 9011      4D41585F 
 9011      43286329 
 9011      205F5F55 
 9011      494E544D 
 9012 3eda 04       		.byte	0x4
 9013 3edb 01       		.byte	0x1
 9014 3edc 0D       		.uleb128 0xd
 9015 3edd 5F474343 		.ascii "_GCC_WRAP_STDINT_H \0"
 9015      5F575241 
 9015      505F5354 
 9015      44494E54 
 9015      5F482000 
 9016 3ef1 04       		.byte	0x4
 9017              		.file 14 "C:/Users/victim/source/repos/Paranyok/UEFI/Backend/mingw64/lib/gcc/x86_64-w64-mingw32/14
 9018 3ef2 03       		.byte	0x3
 9019 3ef3 63       		.uleb128 0x63
 9020 3ef4 0E       		.uleb128 0xe
 9021              		.file 15 "C:/Users/victim/source/repos/Paranyok/UEFI/Backend/mingw64/include/stddef.h"
 9022 3ef5 03       		.byte	0x3
 9023 3ef6 01       		.uleb128 0x1
 9024 3ef7 0F       		.uleb128 0xf
 9025              		.file 16 "C:/Users/victim/source/repos/Paranyok/UEFI/Backend/mingw64/include/crtdefs.h"
 9026 3ef8 03       		.byte	0x3
 9027 3ef9 07       		.uleb128 0x7
 9028 3efa 10       		.uleb128 0x10
 9029 3efb 01       		.byte	0x1
 9030 3efc 08       		.uleb128 0x8
 9031 3efd 5F494E43 		.ascii "_INC_CRTDEFS \0"
 9031      5F435254 
 9031      44454653 
 9031      2000
 9032 3f0b 03       		.byte	0x3
 9033 3f0c 0A       		.uleb128 0xa
 9034 3f0d 04       		.uleb128 0x4
 9035 3f0e 01       		.byte	0x1
 9036 3f0f 08       		.uleb128 0x8
 9037 3f10 5F494E43 		.ascii "_INC_CORECRT \0"
 9037      5F434F52 
 9037      45435254 
 9037      2000
 9038              		.file 17 "C:/Users/victim/source/repos/Paranyok/UEFI/Backend/mingw64/include/_mingw.h"
 9039 3f1e 03       		.byte	0x3
 9040 3f1f 0A       		.uleb128 0xa
 9041 3f20 11       		.uleb128 0x11
 9042 3f21 01       		.byte	0x1
 9043 3f22 08       		.uleb128 0x8
 9044 3f23 5F494E43 		.ascii "_INC__MINGW_H \0"
 9044      5F5F4D49 
 9044      4E47575F 
 9044      482000
 9045              		.file 18 "C:/Users/victim/source/repos/Paranyok/UEFI/Backend/mingw64/include/_mingw_mac.h"
 9046 3f32 03       		.byte	0x3
 9047 3f33 0A       		.uleb128 0xa
 9048 3f34 12       		.uleb128 0x12
 9049 3f35 01       		.byte	0x1
 9050 3f36 08       		.uleb128 0x8
 9051 3f37 5F494E43 		.ascii "_INC_CRTDEFS_MACRO \0"
 9051      5F435254 
 9051      44454653 
 9051      5F4D4143 
 9051      524F2000 
 9052 3f4b 01       		.byte	0x1
 9053 3f4c 0A       		.uleb128 0xa
 9054 3f4d 5F5F5354 		.ascii "__STRINGIFY(x) #x\0"
 9054      52494E47 
 9054      49465928 
 9054      78292023 
 9054      7800
 9055 3f5f 01       		.byte	0x1
 9056 3f60 0B       		.uleb128 0xb
 9057 3f61 5F5F4D49 		.ascii "__MINGW64_STRINGIFY(x) __STRINGIFY(x)\0"
 9057      4E475736 
 9057      345F5354 
 9057      52494E47 
 9057      49465928 
 9058 3f87 01       		.byte	0x1
 9059 3f88 0E       		.uleb128 0xe
 9060 3f89 5F5F4D49 		.ascii "__MINGW64_VERSION_MAJOR 13\0"
 9060      4E475736 
 9060      345F5645 
 9060      5253494F 
 9060      4E5F4D41 
 9061 3fa4 01       		.byte	0x1
 9062 3fa5 0F       		.uleb128 0xf
 9063 3fa6 5F5F4D49 		.ascii "__MINGW64_VERSION_MINOR 0\0"
 9063      4E475736 
 9063      345F5645 
 9063      5253494F 
 9063      4E5F4D49 
 9064 3fc0 01       		.byte	0x1
 9065 3fc1 10       		.uleb128 0x10
 9066 3fc2 5F5F4D49 		.ascii "__MINGW64_VERSION_BUGFIX 0\0"
 9066      4E475736 
 9066      345F5645 
 9066      5253494F 
 9066      4E5F4255 
 9067 3fdd 01       		.byte	0x1
 9068 3fde 18       		.uleb128 0x18
 9069 3fdf 5F5F4D49 		.ascii "__MINGW64_VERSION_RC 0\0"
 9069      4E475736 
 9069      345F5645 
 9069      5253494F 
 9069      4E5F5243 
 9070 3ff6 01       		.byte	0x1
 9071 3ff7 1A       		.uleb128 0x1a
 9072 3ff8 5F5F4D49 		.ascii "__MINGW64_VERSION_STR __MINGW64_STRINGIFY(__MINGW64_VERSION_MAJOR) \".\" __MINGW64_STRINGI
 9072      4E475736 
 9072      345F5645 
 9072      5253494F 
 9072      4E5F5354 
 9073 409e 01       		.byte	0x1
 9074 409f 21       		.uleb128 0x21
 9075 40a0 5F5F4D49 		.ascii "__MINGW64_VERSION_STATE \"alpha\"\0"
 9075      4E475736 
 9075      345F5645 
 9075      5253494F 
 9075      4E5F5354 
 9076 40c0 01       		.byte	0x1
 9077 40c1 27       		.uleb128 0x27
 9078 40c2 5F5F4D49 		.ascii "__MINGW32_MAJOR_VERSION 3\0"
 9078      4E475733 
 9078      325F4D41 
 9078      4A4F525F 
 9078      56455253 
 9079 40dc 01       		.byte	0x1
 9080 40dd 28       		.uleb128 0x28
 9081 40de 5F5F4D49 		.ascii "__MINGW32_MINOR_VERSION 11\0"
 9081      4E475733 
 9081      325F4D49 
 9081      4E4F525F 
 9081      56455253 
 9082 40f9 01       		.byte	0x1
 9083 40fa 3E       		.uleb128 0x3e
 9084 40fb 5F4D5F41 		.ascii "_M_AMD64 100\0"
 9084      4D443634 
 9084      20313030 
 9084      00
 9085 4108 01       		.byte	0x1
 9086 4109 3F       		.uleb128 0x3f
 9087 410a 5F4D5F58 		.ascii "_M_X64 100\0"
 9087      36342031 
 9087      303000
 9088 4115 02       		.byte	0x2
 9089 4116 63       		.uleb128 0x63
 9090 4117 5F00     		.ascii "_\0"
 9091 4119 01       		.byte	0x1
 9092 411a 64       		.uleb128 0x64
 9093 411b 5F203100 		.ascii "_ 1\0"
 9094 411f 01       		.byte	0x1
 9095 4120 68       		.uleb128 0x68
 9096 4121 5F5F4D49 		.ascii "__MINGW_USE_UNDERSCORE_PREFIX 0\0"
 9096      4E47575F 
 9096      5553455F 
 9096      554E4445 
 9096      5253434F 
 9097 4141 02       		.byte	0x2
 9098 4142 6A       		.uleb128 0x6a
 9099 4143 5F00     		.ascii "_\0"
 9100 4145 01       		.byte	0x1
 9101 4146 77       		.uleb128 0x77
 9102 4147 5F5F4D49 		.ascii "__MINGW_IMP_SYMBOL(sym) __imp_ ##sym\0"
 9102      4E47575F 
 9102      494D505F 
 9102      53594D42 
 9102      4F4C2873 
 9103 416c 01       		.byte	0x1
 9104 416d 78       		.uleb128 0x78
 9105 416e 5F5F4D49 		.ascii "__MINGW_IMP_LSYMBOL(sym) __imp_ ##sym\0"
 9105      4E47575F 
 9105      494D505F 
 9105      4C53594D 
 9105      424F4C28 
 9106 4194 01       		.byte	0x1
 9107 4195 79       		.uleb128 0x79
 9108 4196 5F5F4D49 		.ascii "__MINGW_USYMBOL(sym) sym\0"
 9108      4E47575F 
 9108      5553594D 
 9108      424F4C28 
 9108      73796D29 
 9109 41af 01       		.byte	0x1
 9110 41b0 7A       		.uleb128 0x7a
 9111 41b1 5F5F4D49 		.ascii "__MINGW_LSYMBOL(sym) _ ##sym\0"
 9111      4E47575F 
 9111      4C53594D 
 9111      424F4C28 
 9111      73796D29 
 9112 41ce 01       		.byte	0x1
 9113 41cf 8201     		.uleb128 0x82
 9114 41d1 5F5F4D49 		.ascii "__MINGW_ASM_CALL(func) __asm__(__MINGW64_STRINGIFY(__MINGW_USYMBOL(func)))\0"
 9114      4E47575F 
 9114      41534D5F 
 9114      43414C4C 
 9114      2866756E 
 9115 421c 01       		.byte	0x1
 9116 421d 8301     		.uleb128 0x83
 9117 421f 5F5F4D49 		.ascii "__MINGW_ASM_CRT_CALL(func) __asm__(__STRINGIFY(func))\0"
 9117      4E47575F 
 9117      41534D5F 
 9117      4352545F 
 9117      43414C4C 
 9118 4255 02       		.byte	0x2
 9119 4256 9D01     		.uleb128 0x9d
 9120 4258 5F5F4D49 		.ascii "__MINGW_EXTENSION\0"
 9120      4E47575F 
 9120      45585445 
 9120      4E53494F 
 9120      4E00
 9121 426a 01       		.byte	0x1
 9122 426b A301     		.uleb128 0xa3
 9123 426d 5F5F4D49 		.ascii "__MINGW_EXTENSION __extension__\0"
 9123      4E47575F 
 9123      45585445 
 9123      4E53494F 
 9123      4E205F5F 
 9124 428d 01       		.byte	0x1
 9125 428e AB01     		.uleb128 0xab
 9126 4290 5F5F4338 		.ascii "__C89_NAMELESS __MINGW_EXTENSION\0"
 9126      395F4E41 
 9126      4D454C45 
 9126      5353205F 
 9126      5F4D494E 
 9127 42b1 01       		.byte	0x1
 9128 42b2 AC01     		.uleb128 0xac
 9129 42b4 5F5F4338 		.ascii "__C89_NAMELESSSTRUCTNAME \0"
 9129      395F4E41 
 9129      4D454C45 
 9129      53535354 
 9129      52554354 
 9130 42ce 01       		.byte	0x1
 9131 42cf AD01     		.uleb128 0xad
 9132 42d1 5F5F4338 		.ascii "__C89_NAMELESSSTRUCTNAME1 \0"
 9132      395F4E41 
 9132      4D454C45 
 9132      53535354 
 9132      52554354 
 9133 42ec 01       		.byte	0x1
 9134 42ed AE01     		.uleb128 0xae
 9135 42ef 5F5F4338 		.ascii "__C89_NAMELESSSTRUCTNAME2 \0"
 9135      395F4E41 
 9135      4D454C45 
 9135      53535354 
 9135      52554354 
 9136 430a 01       		.byte	0x1
 9137 430b AF01     		.uleb128 0xaf
 9138 430d 5F5F4338 		.ascii "__C89_NAMELESSSTRUCTNAME3 \0"
 9138      395F4E41 
 9138      4D454C45 
 9138      53535354 
 9138      52554354 
 9139 4328 01       		.byte	0x1
 9140 4329 B001     		.uleb128 0xb0
 9141 432b 5F5F4338 		.ascii "__C89_NAMELESSSTRUCTNAME4 \0"
 9141      395F4E41 
 9141      4D454C45 
 9141      53535354 
 9141      52554354 
 9142 4346 01       		.byte	0x1
 9143 4347 B101     		.uleb128 0xb1
 9144 4349 5F5F4338 		.ascii "__C89_NAMELESSSTRUCTNAME5 \0"
 9144      395F4E41 
 9144      4D454C45 
 9144      53535354 
 9144      52554354 
 9145 4364 01       		.byte	0x1
 9146 4365 B201     		.uleb128 0xb2
 9147 4367 5F5F4338 		.ascii "__C89_NAMELESSUNIONNAME \0"
 9147      395F4E41 
 9147      4D454C45 
 9147      5353554E 
 9147      494F4E4E 
 9148 4380 01       		.byte	0x1
 9149 4381 B301     		.uleb128 0xb3
 9150 4383 5F5F4338 		.ascii "__C89_NAMELESSUNIONNAME1 \0"
 9150      395F4E41 
 9150      4D454C45 
 9150      5353554E 
 9150      494F4E4E 
 9151 439d 01       		.byte	0x1
 9152 439e B401     		.uleb128 0xb4
 9153 43a0 5F5F4338 		.ascii "__C89_NAMELESSUNIONNAME2 \0"
 9153      395F4E41 
 9153      4D454C45 
 9153      5353554E 
 9153      494F4E4E 
 9154 43ba 01       		.byte	0x1
 9155 43bb B501     		.uleb128 0xb5
 9156 43bd 5F5F4338 		.ascii "__C89_NAMELESSUNIONNAME3 \0"
 9156      395F4E41 
 9156      4D454C45 
 9156      5353554E 
 9156      494F4E4E 
 9157 43d7 01       		.byte	0x1
 9158 43d8 B601     		.uleb128 0xb6
 9159 43da 5F5F4338 		.ascii "__C89_NAMELESSUNIONNAME4 \0"
 9159      395F4E41 
 9159      4D454C45 
 9159      5353554E 
 9159      494F4E4E 
 9160 43f4 01       		.byte	0x1
 9161 43f5 B701     		.uleb128 0xb7
 9162 43f7 5F5F4338 		.ascii "__C89_NAMELESSUNIONNAME5 \0"
 9162      395F4E41 
 9162      4D454C45 
 9162      5353554E 
 9162      494F4E4E 
 9163 4411 01       		.byte	0x1
 9164 4412 B801     		.uleb128 0xb8
 9165 4414 5F5F4338 		.ascii "__C89_NAMELESSUNIONNAME6 \0"
 9165      395F4E41 
 9165      4D454C45 
 9165      5353554E 
 9165      494F4E4E 
 9166 442e 01       		.byte	0x1
 9167 442f B901     		.uleb128 0xb9
 9168 4431 5F5F4338 		.ascii "__C89_NAMELESSUNIONNAME7 \0"
 9168      395F4E41 
 9168      4D454C45 
 9168      5353554E 
 9168      494F4E4E 
 9169 444b 01       		.byte	0x1
 9170 444c BA01     		.uleb128 0xba
 9171 444e 5F5F4338 		.ascii "__C89_NAMELESSUNIONNAME8 \0"
 9171      395F4E41 
 9171      4D454C45 
 9171      5353554E 
 9171      494F4E4E 
 9172 4468 01       		.byte	0x1
 9173 4469 BE01     		.uleb128 0xbe
 9174 446b 5F5F474E 		.ascii "__GNU_EXTENSION __MINGW_EXTENSION\0"
 9174      555F4558 
 9174      54454E53 
 9174      494F4E20 
 9174      5F5F4D49 
 9175 448d 01       		.byte	0x1
 9176 448e C301     		.uleb128 0xc3
 9177 4490 5F5F4D49 		.ascii "__MINGW_HAVE_ANSI_C99_PRINTF 1\0"
 9177      4E47575F 
 9177      48415645 
 9177      5F414E53 
 9177      495F4339 
 9178 44af 01       		.byte	0x1
 9179 44b0 C401     		.uleb128 0xc4
 9180 44b2 5F5F4D49 		.ascii "__MINGW_HAVE_WIDE_C99_PRINTF 1\0"
 9180      4E47575F 
 9180      48415645 
 9180      5F574944 
 9180      455F4339 
 9181 44d1 01       		.byte	0x1
 9182 44d2 C501     		.uleb128 0xc5
 9183 44d4 5F5F4D49 		.ascii "__MINGW_HAVE_ANSI_C99_SCANF 1\0"
 9183      4E47575F 
 9183      48415645 
 9183      5F414E53 
 9183      495F4339 
 9184 44f2 01       		.byte	0x1
 9185 44f3 C601     		.uleb128 0xc6
 9186 44f5 5F5F4D49 		.ascii "__MINGW_HAVE_WIDE_C99_SCANF 1\0"
 9186      4E47575F 
 9186      48415645 
 9186      5F574944 
 9186      455F4339 
 9187 4513 01       		.byte	0x1
 9188 4514 CB01     		.uleb128 0xcb
 9189 4516 5F5F4D49 		.ascii "__MINGW_POISON_NAME(__IFACE) __IFACE ##_layout_has_not_been_verified_and_its_declaration_i
 9189      4E47575F 
 9189      504F4953 
 9189      4F4E5F4E 
 9189      414D4528 
 9190 4588 01       		.byte	0x1
 9191 4589 D101     		.uleb128 0xd1
 9192 458b 5F5F4D53 		.ascii "__MSABI_LONG(x) x ## l\0"
 9192      4142495F 
 9192      4C4F4E47 
 9192      28782920 
 9192      78202323 
 9193 45a2 01       		.byte	0x1
 9194 45a3 D801     		.uleb128 0xd8
 9195 45a5 5F5F4D49 		.ascii "__MINGW_GCC_VERSION (__GNUC__ * 10000 + __GNUC_MINOR__ * 100 + __GNUC_PATCHLEVEL__)\0"
 9195      4E47575F 
 9195      4743435F 
 9195      56455253 
 9195      494F4E20 
 9196 45f9 01       		.byte	0x1
 9197 45fa E001     		.uleb128 0xe0
 9198 45fc 5F5F4D49 		.ascii "__MINGW_GNUC_PREREQ(major,minor) (__GNUC__ > (major) || (__GNUC__ == (major) && __GNUC_MIN
 9198      4E47575F 
 9198      474E5543 
 9198      5F505245 
 9198      52455128 
 9199 4668 01       		.byte	0x1
 9200 4669 EB01     		.uleb128 0xeb
 9201 466b 5F5F4D49 		.ascii "__MINGW_MSC_PREREQ(major,minor) 0\0"
 9201      4E47575F 
 9201      4D53435F 
 9201      50524552 
 9201      4551286D 
 9202 468d 01       		.byte	0x1
 9203 468e F701     		.uleb128 0xf7
 9204 4690 5F5F4D49 		.ascii "__MINGW_ATTRIB_DEPRECATED_STR(X) \0"
 9204      4E47575F 
 9204      41545452 
 9204      49425F44 
 9204      45505245 
 9205 46b2 01       		.byte	0x1
 9206 46b3 FA01     		.uleb128 0xfa
 9207 46b5 5F5F4D49 		.ascii "__MINGW_SEC_WARN_STR \"This function or variable may be unsafe, use _CRT_SECURE_NO_WARNING
 9207      4E47575F 
 9207      5345435F 
 9207      5741524E 
 9207      5F535452 
 9208 4728 01       		.byte	0x1
 9209 4729 FD01     		.uleb128 0xfd
 9210 472b 5F5F4D49 		.ascii "__MINGW_MSVC2005_DEPREC_STR \"This POSIX function is deprecated beginning in Visual C++ 20
 9210      4E47575F 
 9210      4D535643 
 9210      32303035 
 9210      5F444550 
 9211 47be 01       		.byte	0x1
 9212 47bf 8102     		.uleb128 0x101
 9213 47c1 5F5F4D49 		.ascii "__MINGW_ATTRIB_DEPRECATED_MSVC2005 __MINGW_ATTRIB_DEPRECATED_STR(__MINGW_MSVC2005_DEPREC_S
 9213      4E47575F 
 9213      41545452 
 9213      49425F44 
 9213      45505245 
 9214 481f 01       		.byte	0x1
 9215 4820 8802     		.uleb128 0x108
 9216 4822 5F5F4D49 		.ascii "__MINGW_ATTRIB_DEPRECATED_SEC_WARN __MINGW_ATTRIB_DEPRECATED_STR(__MINGW_SEC_WARN_STR)\0"
 9216      4E47575F 
 9216      41545452 
 9216      49425F44 
 9216      45505245 
 9217 4879 01       		.byte	0x1
 9218 487a 9B02     		.uleb128 0x11b
 9219 487c 5F5F4D49 		.ascii "__MINGW_MS_PRINTF(__format,__args) __attribute__((__format__(__ms_printf__, __format,__arg
 9219      4E47575F 
 9219      4D535F50 
 9219      52494E54 
 9219      46285F5F 
 9220 48db 01       		.byte	0x1
 9221 48dc 9E02     		.uleb128 0x11e
 9222 48de 5F5F4D49 		.ascii "__MINGW_MS_SCANF(__format,__args) __attribute__((__format__(__ms_scanf__, __format,__args)
 9222      4E47575F 
 9222      4D535F53 
 9222      43414E46 
 9222      285F5F66 
 9223 493b 01       		.byte	0x1
 9224 493c A102     		.uleb128 0x121
 9225 493e 5F5F4D49 		.ascii "__MINGW_GNU_PRINTF(__format,__args) __attribute__((__format__(__gnu_printf__,__format,__ar
 9225      4E47575F 
 9225      474E555F 
 9225      5052494E 
 9225      5446285F 
 9226 499e 01       		.byte	0x1
 9227 499f A402     		.uleb128 0x124
 9228 49a1 5F5F4D49 		.ascii "__MINGW_GNU_SCANF(__format,__args) __attribute__((__format__(__gnu_scanf__, __format,__arg
 9228      4E47575F 
 9228      474E555F 
 9228      5343414E 
 9228      46285F5F 
 9229 4a00 02       		.byte	0x2
 9230 4a01 A802     		.uleb128 0x128
 9231 4a03 5F5F6D69 		.ascii "__mingw_ovr\0"
 9231      6E67775F 
 9231      6F767200 
 9232 4a0f 01       		.byte	0x1
 9233 4a10 AD02     		.uleb128 0x12d
 9234 4a12 5F5F6D69 		.ascii "__mingw_ovr static __attribute__ ((__unused__)) __inline__ __cdecl\0"
 9234      6E67775F 
 9234      6F767220 
 9234      73746174 
 9234      6963205F 
 9235 4a55 01       		.byte	0x1
 9236 4a56 B402     		.uleb128 0x134
 9237 4a58 5F5F6D69 		.ascii "__mingw_attribute_artificial __attribute__((__artificial__))\0"
 9237      6E67775F 
 9237      61747472 
 9237      69627574 
 9237      655F6172 
 9238 4a95 01       		.byte	0x1
 9239 4a96 BA02     		.uleb128 0x13a
 9240 4a98 5F5F4D49 		.ascii "__MINGW_SELECTANY __attribute__((__selectany__))\0"
 9240      4E47575F 
 9240      53454C45 
 9240      4354414E 
 9240      59205F5F 
 9241 4ac9 01       		.byte	0x1
 9242 4aca D302     		.uleb128 0x153
 9243 4acc 5F5F4D49 		.ascii "__MINGW_FORTIFY_LEVEL 0\0"
 9243      4E47575F 
 9243      464F5254 
 9243      4946595F 
 9243      4C455645 
 9244 4ae4 01       		.byte	0x1
 9245 4ae5 FB02     		.uleb128 0x17b
 9246 4ae7 5F5F6D69 		.ascii "__mingw_bos_ovr __mingw_ovr\0"
 9246      6E67775F 
 9246      626F735F 
 9246      6F767220 
 9246      5F5F6D69 
 9247 4b03 01       		.byte	0x1
 9248 4b04 8803     		.uleb128 0x188
 9249 4b06 5F5F4D49 		.ascii "__MINGW_FORTIFY_VA_ARG 0\0"
 9249      4E47575F 
 9249      464F5254 
 9249      4946595F 
 9249      56415F41 
 9250 4b1f 02       		.byte	0x2
 9251 4b20 8B03     		.uleb128 0x18b
 9252 4b22 5F5F6861 		.ascii "__has_builtin\0"
 9252      735F6275 
 9252      696C7469 
 9252      6E00
 9253 4b30 04       		.byte	0x4
 9254              		.file 19 "C:/Users/victim/source/repos/Paranyok/UEFI/Backend/mingw64/include/_mingw_secapi.h"
 9255 4b31 03       		.byte	0x3
 9256 4b32 0B       		.uleb128 0xb
 9257 4b33 13       		.uleb128 0x13
 9258 4b34 01       		.byte	0x1
 9259 4b35 08       		.uleb128 0x8
 9260 4b36 5F494E43 		.ascii "_INC_MINGW_SECAPI \0"
 9260      5F4D494E 
 9260      47575F53 
 9260      45434150 
 9260      492000
 9261 4b49 02       		.byte	0x2
 9262 4b4a 1D       		.uleb128 0x1d
 9263 4b4b 5F435254 		.ascii "_CRT_SECURE_CPP_OVERLOAD_SECURE_NAMES\0"
 9263      5F534543 
 9263      5552455F 
 9263      4350505F 
 9263      4F564552 
 9264 4b71 02       		.byte	0x2
 9265 4b72 1E       		.uleb128 0x1e
 9266 4b73 5F435254 		.ascii "_CRT_SECURE_CPP_OVERLOAD_SECURE_NAMES_MEMORY\0"
 9266      5F534543 
 9266      5552455F 
 9266      4350505F 
 9266      4F564552 
 9267 4ba0 02       		.byte	0x2
 9268 4ba1 1F       		.uleb128 0x1f
 9269 4ba2 5F435254 		.ascii "_CRT_SECURE_CPP_OVERLOAD_STANDARD_NAMES\0"
 9269      5F534543 
 9269      5552455F 
 9269      4350505F 
 9269      4F564552 
 9270 4bca 02       		.byte	0x2
 9271 4bcb 20       		.uleb128 0x20
 9272 4bcc 5F435254 		.ascii "_CRT_SECURE_CPP_OVERLOAD_STANDARD_NAMES_COUNT\0"
 9272      5F534543 
 9272      5552455F 
 9272      4350505F 
 9272      4F564552 
 9273 4bfa 02       		.byte	0x2
 9274 4bfb 21       		.uleb128 0x21
 9275 4bfc 5F435254 		.ascii "_CRT_SECURE_CPP_OVERLOAD_STANDARD_NAMES_MEMORY\0"
 9275      5F534543 
 9275      5552455F 
 9275      4350505F 
 9275      4F564552 
 9276 4c2b 01       		.byte	0x1
 9277 4c2c 22       		.uleb128 0x22
 9278 4c2d 5F435254 		.ascii "_CRT_SECURE_CPP_OVERLOAD_SECURE_NAMES 0\0"
 9278      5F534543 
 9278      5552455F 
 9278      4350505F 
 9278      4F564552 
 9279 4c55 01       		.byte	0x1
 9280 4c56 23       		.uleb128 0x23
 9281 4c57 5F435254 		.ascii "_CRT_SECURE_CPP_OVERLOAD_SECURE_NAMES_MEMORY 0\0"
 9281      5F534543 
 9281      5552455F 
 9281      4350505F 
 9281      4F564552 
 9282 4c86 01       		.byte	0x1
 9283 4c87 24       		.uleb128 0x24
 9284 4c88 5F435254 		.ascii "_CRT_SECURE_CPP_OVERLOAD_STANDARD_NAMES 0\0"
 9284      5F534543 
 9284      5552455F 
 9284      4350505F 
 9284      4F564552 
 9285 4cb2 01       		.byte	0x1
 9286 4cb3 25       		.uleb128 0x25
 9287 4cb4 5F435254 		.ascii "_CRT_SECURE_CPP_OVERLOAD_STANDARD_NAMES_COUNT 0\0"
 9287      5F534543 
 9287      5552455F 
 9287      4350505F 
 9287      4F564552 
 9288 4ce4 01       		.byte	0x1
 9289 4ce5 26       		.uleb128 0x26
 9290 4ce6 5F435254 		.ascii "_CRT_SECURE_CPP_OVERLOAD_STANDARD_NAMES_MEMORY 0\0"
 9290      5F534543 
 9290      5552455F 
 9290      4350505F 
 9290      4F564552 
 9291 4d17 01       		.byte	0x1
 9292 4d18 29       		.uleb128 0x29
 9293 4d19 5F5F4D49 		.ascii "__MINGW_CRT_NAME_CONCAT2(sym) ::sym ##_s\0"
 9293      4E47575F 
 9293      4352545F 
 9293      4E414D45 
 9293      5F434F4E 
 9294 4d42 01       		.byte	0x1
 9295 4d43 45       		.uleb128 0x45
 9296 4d44 5F5F4352 		.ascii "__CRT_SECURE_CPP_OVERLOAD_STANDARD_NAMES_MEMORY_0_3_(__ret,__func,__type1,__attrib1,__arg1
 9296      545F5345 
 9296      43555245 
 9296      5F435050 
 9296      5F4F5645 
 9297 4e63 04       		.byte	0x4
 9298 4e64 01       		.byte	0x1
 9299 4e65 18       		.uleb128 0x18
 9300 4e66 5F5F4C4F 		.ascii "__LONG32 long\0"
 9300      4E473332 
 9300      206C6F6E 
 9300      6700
 9301 4e74 01       		.byte	0x1
 9302 4e75 2C       		.uleb128 0x2c
 9303 4e76 5F5F4D49 		.ascii "__MINGW_IMPORT extern __attribute__ ((__dllimport__))\0"
 9303      4E47575F 
 9303      494D504F 
 9303      52542065 
 9303      78746572 
 9304 4eac 02       		.byte	0x2
 9305 4ead 2F       		.uleb128 0x2f
 9306 4eae 5F5F5553 		.ascii "__USE_CRTIMP\0"
 9306      455F4352 
 9306      54494D50 
 9306      00
 9307 4ebb 01       		.byte	0x1
 9308 4ebc 31       		.uleb128 0x31
 9309 4ebd 5F5F5553 		.ascii "__USE_CRTIMP 1\0"
 9309      455F4352 
 9309      54494D50 
 9309      203100
 9310 4ecc 01       		.byte	0x1
 9311 4ecd 34       		.uleb128 0x34
 9312 4ece 5F435254 		.ascii "_CRTIMP __attribute__ ((__dllimport__))\0"
 9312      494D5020 
 9312      5F5F6174 
 9312      74726962 
 9312      7574655F 
 9313 4ef6 01       		.byte	0x1
 9314 4ef7 39       		.uleb128 0x39
 9315 4ef8 5F5F4445 		.ascii "__DECLSPEC_SUPPORTED \0"
 9315      434C5350 
 9315      45435F53 
 9315      5550504F 
 9315      52544544 
 9316 4f0e 01       		.byte	0x1
 9317 4f0f 46       		.uleb128 0x46
 9318 4f10 5553455F 		.ascii "USE___UUIDOF 0\0"
 9318      5F5F5555 
 9318      49444F46 
 9318      203000
 9319 4f1f 01       		.byte	0x1
 9320 4f20 4A       		.uleb128 0x4a
 9321 4f21 5F696E6C 		.ascii "_inline __inline\0"
 9321      696E6520 
 9321      5F5F696E 
 9321      6C696E65 
 9321      00
 9322 4f32 01       		.byte	0x1
 9323 4f33 53       		.uleb128 0x53
 9324 4f34 5F5F4352 		.ascii "__CRT_INLINE extern inline __attribute__((__gnu_inline__))\0"
 9324      545F494E 
 9324      4C494E45 
 9324      20657874 
 9324      65726E20 
 9325 4f6f 01       		.byte	0x1
 9326 4f70 5A       		.uleb128 0x5a
 9327 4f71 5F5F4D49 		.ascii "__MINGW_INTRIN_INLINE extern __inline__ __attribute__((__always_inline__,__gnu_inline__))\
 9327      4E47575F 
 9327      494E5452 
 9327      494E5F49 
 9327      4E4C494E 
 9328 4fcb 01       		.byte	0x1
 9329 4fcc 68       		.uleb128 0x68
 9330 4fcd 5F5F554E 		.ascii "__UNUSED_PARAM(x) x __attribute__ ((__unused__))\0"
 9330      55534544 
 9330      5F504152 
 9330      414D2878 
 9330      29207820 
 9331 4ffe 01       		.byte	0x1
 9332 4fff 77       		.uleb128 0x77
 9333 5000 5F5F7265 		.ascii "__restrict_arr __restrict\0"
 9333      73747269 
 9333      63745F61 
 9333      7272205F 
 9333      5F726573 
 9334 501a 01       		.byte	0x1
 9335 501b 8701     		.uleb128 0x87
 9336 501d 5F5F4D49 		.ascii "__MINGW_ATTRIB_NORETURN __attribute__ ((__noreturn__))\0"
 9336      4E47575F 
 9336      41545452 
 9336      49425F4E 
 9336      4F524554 
 9337 5054 01       		.byte	0x1
 9338 5055 8801     		.uleb128 0x88
 9339 5057 5F5F4D49 		.ascii "__MINGW_ATTRIB_CONST __attribute__ ((__const__))\0"
 9339      4E47575F 
 9339      41545452 
 9339      49425F43 
 9339      4F4E5354 
 9340 5088 01       		.byte	0x1
 9341 5089 9201     		.uleb128 0x92
 9342 508b 5F5F4D49 		.ascii "__MINGW_ATTRIB_MALLOC __attribute__ ((__malloc__))\0"
 9342      4E47575F 
 9342      41545452 
 9342      49425F4D 
 9342      414C4C4F 
 9343 50be 01       		.byte	0x1
 9344 50bf 9301     		.uleb128 0x93
 9345 50c1 5F5F4D49 		.ascii "__MINGW_ATTRIB_PURE __attribute__ ((__pure__))\0"
 9345      4E47575F 
 9345      41545452 
 9345      49425F50 
 9345      55524520 
 9346 50f0 01       		.byte	0x1
 9347 50f1 A001     		.uleb128 0xa0
 9348 50f3 5F5F4D49 		.ascii "__MINGW_ATTRIB_NONNULL(arg) __attribute__ ((__nonnull__ (arg)))\0"
 9348      4E47575F 
 9348      41545452 
 9348      49425F4E 
 9348      4F4E4E55 
 9349 5133 01       		.byte	0x1
 9350 5134 A601     		.uleb128 0xa6
 9351 5136 5F5F4D49 		.ascii "__MINGW_ATTRIB_UNUSED __attribute__ ((__unused__))\0"
 9351      4E47575F 
 9351      41545452 
 9351      49425F55 
 9351      4E555345 
 9352 5169 01       		.byte	0x1
 9353 516a AC01     		.uleb128 0xac
 9354 516c 5F5F4D49 		.ascii "__MINGW_ATTRIB_USED __attribute__ ((__used__))\0"
 9354      4E47575F 
 9354      41545452 
 9354      49425F55 
 9354      53454420 
 9355 519b 01       		.byte	0x1
 9356 519c AD01     		.uleb128 0xad
 9357 519e 5F5F4D49 		.ascii "__MINGW_ATTRIB_DEPRECATED __attribute__ ((__deprecated__))\0"
 9357      4E47575F 
 9357      41545452 
 9357      49425F44 
 9357      45505245 
 9358 51d9 01       		.byte	0x1
 9359 51da AF01     		.uleb128 0xaf
 9360 51dc 5F5F4D49 		.ascii "__MINGW_ATTRIB_DEPRECATED_MSG(x) __attribute__ ((__deprecated__(x)))\0"
 9360      4E47575F 
 9360      41545452 
 9360      49425F44 
 9360      45505245 
 9361 5221 01       		.byte	0x1
 9362 5222 BE01     		.uleb128 0xbe
 9363 5224 5F5F4D49 		.ascii "__MINGW_NOTHROW __attribute__ ((__nothrow__))\0"
 9363      4E47575F 
 9363      4E4F5448 
 9363      524F5720 
 9363      5F5F6174 
 9364 5252 01       		.byte	0x1
 9365 5253 C601     		.uleb128 0xc6
 9366 5255 5F5F4D49 		.ascii "__MINGW_ATTRIB_NO_OPTIMIZE __attribute__((__optimize__ (\"0\")))\0"
 9366      4E47575F 
 9366      41545452 
 9366      49425F4E 
 9366      4F5F4F50 
 9367 5294 01       		.byte	0x1
 9368 5295 CC01     		.uleb128 0xcc
 9369 5297 5F5F4D49 		.ascii "__MINGW_PRAGMA_PARAM(x) _Pragma (#x)\0"
 9369      4E47575F 
 9369      50524147 
 9369      4D415F50 
 9369      4152414D 
 9370 52bc 01       		.byte	0x1
 9371 52bd D301     		.uleb128 0xd3
 9372 52bf 5F5F4D49 		.ascii "__MINGW_BROKEN_INTERFACE(x) __MINGW_PRAGMA_PARAM(message (\"Interface \" _CRT_STRINGIZE(x)
 9372      4E47575F 
 9372      42524F4B 
 9372      454E5F49 
 9372      4E544552 
 9373 5334 01       		.byte	0x1
 9374 5335 DE01     		.uleb128 0xde
 9375 5337 5F5F4D53 		.ascii "__MSVCRT_VERSION__ 0x700\0"
 9375      56435254 
 9375      5F564552 
 9375      53494F4E 
 9375      5F5F2030 
 9376 5350 01       		.byte	0x1
 9377 5351 E801     		.uleb128 0xe8
 9378 5353 5F57494E 		.ascii "_WIN32_WINNT 0x601\0"
 9378      33325F57 
 9378      494E4E54 
 9378      20307836 
 9378      303100
 9379 5366 01       		.byte	0x1
 9380 5367 EC01     		.uleb128 0xec
 9381 5369 5F494E54 		.ascii "_INT128_DEFINED \0"
 9381      3132385F 
 9381      44454649 
 9381      4E454420 
 9381      00
 9382 537a 01       		.byte	0x1
 9383 537b EE01     		.uleb128 0xee
 9384 537d 5F5F696E 		.ascii "__int8 char\0"
 9384      74382063 
 9384      68617200 
 9385 5389 01       		.byte	0x1
 9386 538a EF01     		.uleb128 0xef
 9387 538c 5F5F696E 		.ascii "__int16 short\0"
 9387      74313620 
 9387      73686F72 
 9387      7400
 9388 539a 01       		.byte	0x1
 9389 539b F001     		.uleb128 0xf0
 9390 539d 5F5F696E 		.ascii "__int32 int\0"
 9390      74333220 
 9390      696E7400 
 9391 53a9 01       		.byte	0x1
 9392 53aa F101     		.uleb128 0xf1
 9393 53ac 5F5F696E 		.ascii "__int64 long long\0"
 9393      74363420 
 9393      6C6F6E67 
 9393      206C6F6E 
 9393      6700
 9394 53be 01       		.byte	0x1
 9395 53bf FF01     		.uleb128 0xff
 9396 53c1 5F5F7074 		.ascii "__ptr32 \0"
 9396      72333220 
 9396      00
 9397 53ca 01       		.byte	0x1
 9398 53cb 8002     		.uleb128 0x100
 9399 53cd 5F5F7074 		.ascii "__ptr64 \0"
 9399      72363420 
 9399      00
 9400 53d6 01       		.byte	0x1
 9401 53d7 8202     		.uleb128 0x102
 9402 53d9 5F5F756E 		.ascii "__unaligned \0"
 9402      616C6967 
 9402      6E656420 
 9402      00
 9403 53e6 01       		.byte	0x1
 9404 53e7 8502     		.uleb128 0x105
 9405 53e9 5F5F7736 		.ascii "__w64 \0"
 9405      342000
 9406 53f0 01       		.byte	0x1
 9407 53f1 8A02     		.uleb128 0x10a
 9408 53f3 5F5F666F 		.ascii "__forceinline extern __inline__ __attribute__((__always_inline__,__gnu_inline__))\0"
 9408      72636569 
 9408      6E6C696E 
 9408      65206578 
 9408      7465726E 
 9409 5445 01       		.byte	0x1
 9410 5446 9602     		.uleb128 0x116
 9411 5448 5F5F6E6F 		.ascii "__nothrow \0"
 9411      7468726F 
 9411      772000
 9412 5453 03       		.byte	0x3
 9413 5454 9A02     		.uleb128 0x11a
 9414 5456 03       		.uleb128 0x3
 9415 5457 01       		.byte	0x1
 9416 5458 07       		.uleb128 0x7
 9417 5459 5F494E43 		.ascii "_INC_VADEFS \0"
 9417      5F564144 
 9417      45465320 
 9417      00
 9418 5466 03       		.byte	0x3
 9419 5467 09       		.uleb128 0x9
 9420 5468 11       		.uleb128 0x11
 9421 5469 01       		.byte	0x1
 9422 546a 8A05     		.uleb128 0x28a
 9423 546c 4D494E47 		.ascii "MINGW_SDK_INIT \0"
 9423      575F5344 
 9423      4B5F494E 
 9423      49542000 
 9424 547c 01       		.byte	0x1
 9425 547d 8E05     		.uleb128 0x28e
 9426 547f 4D494E47 		.ascii "MINGW_HAS_SECURE_API 1\0"
 9426      575F4841 
 9426      535F5345 
 9426      43555245 
 9426      5F415049 
 9427 5496 01       		.byte	0x1
 9428 5497 9105     		.uleb128 0x291
 9429 5499 5F5F5354 		.ascii "__STDC_SECURE_LIB__ 200411L\0"
 9429      44435F53 
 9429      45435552 
 9429      455F4C49 
 9429      425F5F20 
 9430 54b5 01       		.byte	0x1
 9431 54b6 9205     		.uleb128 0x292
 9432 54b8 5F5F474F 		.ascii "__GOT_SECURE_LIB__ __STDC_SECURE_LIB__\0"
 9432      545F5345 
 9432      43555245 
 9432      5F4C4942 
 9432      5F5F205F 
 9433              		.file 20 "C:/Users/victim/source/repos/Paranyok/UEFI/Backend/mingw64/include/sdks/_mingw_ddk.h"
 9434 54df 03       		.byte	0x3
 9435 54e0 9505     		.uleb128 0x295
 9436 54e2 14       		.uleb128 0x14
 9437 54e3 01       		.byte	0x1
 9438 54e4 02       		.uleb128 0x2
 9439 54e5 4D494E47 		.ascii "MINGW_DDK_H \0"
 9439      575F4444 
 9439      4B5F4820 
 9439      00
 9440 54f2 01       		.byte	0x1
 9441 54f3 04       		.uleb128 0x4
 9442 54f4 4D494E47 		.ascii "MINGW_HAS_DDK_H 1\0"
 9442      575F4841 
 9442      535F4444 
 9442      4B5F4820 
 9442      3100
 9443 5506 04       		.byte	0x4
 9444 5507 04       		.byte	0x4
 9445 5508 02       		.byte	0x2
 9446 5509 0C       		.uleb128 0xc
 9447 550a 5F435254 		.ascii "_CRT_PACKING\0"
 9447      5F504143 
 9447      4B494E47 
 9447      00
 9448 5517 01       		.byte	0x1
 9449 5518 0D       		.uleb128 0xd
 9450 5519 5F435254 		.ascii "_CRT_PACKING 8\0"
 9450      5F504143 
 9450      4B494E47 
 9450      203800
 9451 5528 01       		.byte	0x1
 9452 5529 17       		.uleb128 0x17
 9453 552a 5F5F474E 		.ascii "__GNUC_VA_LIST \0"
 9453      55435F56 
 9453      415F4C49 
 9453      53542000 
 9454 553a 01       		.byte	0x1
 9455 553b 1D       		.uleb128 0x1d
 9456 553c 5F56415F 		.ascii "_VA_LIST_DEFINED \0"
 9456      4C495354 
 9456      5F444546 
 9456      494E4544 
 9456      2000
 9457 554e 01       		.byte	0x1
 9458 554f 2A       		.uleb128 0x2a
 9459 5550 5F414444 		.ascii "_ADDRESSOF(v) (&(v))\0"
 9459      52455353 
 9459      4F462876 
 9459      29202826 
 9459      28762929 
 9460 5565 01       		.byte	0x1
 9461 5566 30       		.uleb128 0x30
 9462 5567 5F637274 		.ascii "_crt_va_start(v,l) __builtin_va_start(v,l)\0"
 9462      5F76615F 
 9462      73746172 
 9462      7428762C 
 9462      6C29205F 
 9463 5592 01       		.byte	0x1
 9464 5593 31       		.uleb128 0x31
 9465 5594 5F637274 		.ascii "_crt_va_arg(v,l) __builtin_va_arg(v,l)\0"
 9465      5F76615F 
 9465      61726728 
 9465      762C6C29 
 9465      205F5F62 
 9466 55bb 01       		.byte	0x1
 9467 55bc 32       		.uleb128 0x32
 9468 55bd 5F637274 		.ascii "_crt_va_end(v) __builtin_va_end(v)\0"
 9468      5F76615F 
 9468      656E6428 
 9468      7629205F 
 9468      5F627569 
 9469 55e0 01       		.byte	0x1
 9470 55e1 33       		.uleb128 0x33
 9471 55e2 5F637274 		.ascii "_crt_va_copy(d,s) __builtin_va_copy(d,s)\0"
 9471      5F76615F 
 9471      636F7079 
 9471      28642C73 
 9471      29205F5F 
 9472 560b 04       		.byte	0x4
 9473 560c 01       		.byte	0x1
 9474 560d 9D02     		.uleb128 0x11d
 9475 560f 5F5F4352 		.ascii "__CRT_STRINGIZE(_Value) #_Value\0"
 9475      545F5354 
 9475      52494E47 
 9475      495A4528 
 9475      5F56616C 
 9476 562f 01       		.byte	0x1
 9477 5630 9E02     		.uleb128 0x11e
 9478 5632 5F435254 		.ascii "_CRT_STRINGIZE(_Value) __CRT_STRINGIZE(_Value)\0"
 9478      5F535452 
 9478      494E4749 
 9478      5A45285F 
 9478      56616C75 
 9479 5661 01       		.byte	0x1
 9480 5662 A202     		.uleb128 0x122
 9481 5664 5F5F4352 		.ascii "__CRT_WIDE(_String) L ## _String\0"
 9481      545F5749 
 9481      4445285F 
 9481      53747269 
 9481      6E672920 
 9482 5685 01       		.byte	0x1
 9483 5686 A302     		.uleb128 0x123
 9484 5688 5F435254 		.ascii "_CRT_WIDE(_String) __CRT_WIDE(_String)\0"
 9484      5F574944 
 9484      45285F53 
 9484      7472696E 
 9484      6729205F 
 9485 56af 01       		.byte	0x1
 9486 56b0 A702     		.uleb128 0x127
 9487 56b2 5F573634 		.ascii "_W64 \0"
 9487      2000
 9488 56b8 01       		.byte	0x1
 9489 56b9 AE02     		.uleb128 0x12e
 9490 56bb 5F435254 		.ascii "_CRTIMP_NOIA64 _CRTIMP\0"
 9490      494D505F 
 9490      4E4F4941 
 9490      3634205F 
 9490      43525449 
 9491 56d2 01       		.byte	0x1
 9492 56d3 B302     		.uleb128 0x133
 9493 56d5 5F435254 		.ascii "_CRTIMP2 _CRTIMP\0"
 9493      494D5032 
 9493      205F4352 
 9493      54494D50 
 9493      00
 9494 56e6 01       		.byte	0x1
 9495 56e7 B702     		.uleb128 0x137
 9496 56e9 5F435254 		.ascii "_CRTIMP_ALTERNATIVE _CRTIMP\0"
 9496      494D505F 
 9496      414C5445 
 9496      524E4154 
 9496      49564520 
 9497 5705 01       		.byte	0x1
 9498 5706 B802     		.uleb128 0x138
 9499 5708 5F435254 		.ascii "_CRT_ALTERNATIVE_IMPORTED \0"
 9499      5F414C54 
 9499      45524E41 
 9499      54495645 
 9499      5F494D50 
 9500 5723 01       		.byte	0x1
 9501 5724 BC02     		.uleb128 0x13c
 9502 5726 5F4D5254 		.ascii "_MRTIMP2 _CRTIMP\0"
 9502      494D5032 
 9502      205F4352 
 9502      54494D50 
 9502      00
 9503 5737 01       		.byte	0x1
 9504 5738 C502     		.uleb128 0x145
 9505 573a 5F444C4C 		.ascii "_DLL \0"
 9505      2000
 9506 5740 01       		.byte	0x1
 9507 5741 C902     		.uleb128 0x149
 9508 5743 5F4D5420 		.ascii "_MT \0"
 9508      00
 9509 5748 01       		.byte	0x1
 9510 5749 CD02     		.uleb128 0x14d
 9511 574b 5F4D4352 		.ascii "_MCRTIMP _CRTIMP\0"
 9511      54494D50 
 9511      205F4352 
 9511      54494D50 
 9511      00
 9512 575c 01       		.byte	0x1
 9513 575d D102     		.uleb128 0x151
 9514 575f 5F435254 		.ascii "_CRTIMP_PURE _CRTIMP\0"
 9514      494D505F 
 9514      50555245 
 9514      205F4352 
 9514      54494D50 
 9515 5774 01       		.byte	0x1
 9516 5775 D502     		.uleb128 0x155
 9517 5777 5F50474C 		.ascii "_PGLOBAL \0"
 9517      4F42414C 
 9517      2000
 9518 5781 01       		.byte	0x1
 9519 5782 D902     		.uleb128 0x159
 9520 5784 5F41474C 		.ascii "_AGLOBAL \0"
 9520      4F42414C 
 9520      2000
 9521 578e 01       		.byte	0x1
 9522 578f DC02     		.uleb128 0x15c
 9523 5791 5F534543 		.ascii "_SECURECRT_FILL_BUFFER_PATTERN 0xFD\0"
 9523      55524543 
 9523      52545F46 
 9523      494C4C5F 
 9523      42554646 
 9524 57b5 01       		.byte	0x1
 9525 57b6 DD02     		.uleb128 0x15d
 9526 57b8 5F435254 		.ascii "_CRT_DEPRECATE_TEXT(_Text) __declspec(deprecated)\0"
 9526      5F444550 
 9526      52454341 
 9526      54455F54 
 9526      45585428 
 9527 57ea 01       		.byte	0x1
 9528 57eb E002     		.uleb128 0x160
 9529 57ed 5F435254 		.ascii "_CRT_INSECURE_DEPRECATE_MEMORY(_Replacement) \0"
 9529      5F494E53 
 9529      45435552 
 9529      455F4445 
 9529      50524543 
 9530 581b 01       		.byte	0x1
 9531 581c E402     		.uleb128 0x164
 9532 581e 5F435254 		.ascii "_CRT_INSECURE_DEPRECATE_GLOBALS(_Replacement) \0"
 9532      5F494E53 
 9532      45435552 
 9532      455F4445 
 9532      50524543 
 9533 584d 01       		.byte	0x1
 9534 584e E802     		.uleb128 0x168
 9535 5850 5F435254 		.ascii "_CRT_MANAGED_HEAP_DEPRECATE \0"
 9535      5F4D414E 
 9535      41474544 
 9535      5F484541 
 9535      505F4445 
 9536 586d 01       		.byte	0x1
 9537 586e EC02     		.uleb128 0x16c
 9538 5870 5F435254 		.ascii "_CRT_OBSOLETE(_NewItem) \0"
 9538      5F4F4253 
 9538      4F4C4554 
 9538      45285F4E 
 9538      65774974 
 9539 5889 01       		.byte	0x1
 9540 588a F802     		.uleb128 0x178
 9541 588c 5F434F4E 		.ascii "_CONST_RETURN \0"
 9541      53545F52 
 9541      45545552 
 9541      4E2000
 9542 589b 01       		.byte	0x1
 9543 589c FD02     		.uleb128 0x17d
 9544 589e 554E414C 		.ascii "UNALIGNED __unaligned\0"
 9544      49474E45 
 9544      44205F5F 
 9544      756E616C 
 9544      69676E65 
 9545 58b4 01       		.byte	0x1
 9546 58b5 8703     		.uleb128 0x187
 9547 58b7 5F435254 		.ascii "_CRT_ALIGN(x) __attribute__ ((__aligned__ (x)))\0"
 9547      5F414C49 
 9547      474E2878 
 9547      29205F5F 
 9547      61747472 
 9548 58e7 01       		.byte	0x1
 9549 58e8 8E03     		.uleb128 0x18e
 9550 58ea 5F5F4352 		.ascii "__CRTDECL __cdecl\0"
 9550      54444543 
 9550      4C205F5F 
 9550      63646563 
 9550      6C00
 9551 58fc 01       		.byte	0x1
 9552 58fd 9103     		.uleb128 0x191
 9553 58ff 5F415247 		.ascii "_ARGMAX 100\0"
 9553      4D415820 
 9553      31303000 
 9554 590b 01       		.byte	0x1
 9555 590c 9403     		.uleb128 0x194
 9556 590e 5F545255 		.ascii "_TRUNCATE ((size_t)-1)\0"
 9556      4E434154 
 9556      45202828 
 9556      73697A65 
 9556      5F74292D 
 9557 5925 01       		.byte	0x1
 9558 5926 9803     		.uleb128 0x198
 9559 5928 5F435254 		.ascii "_CRT_UNUSED(x) (void)x\0"
 9559      5F554E55 
 9559      53454428 
 9559      78292028 
 9559      766F6964 
 9560 593f 01       		.byte	0x1
 9561 5940 AD03     		.uleb128 0x1ad
 9562 5942 5F5F5553 		.ascii "__USE_MINGW_ANSI_STDIO 1\0"
 9562      455F4D49 
 9562      4E47575F 
 9562      414E5349 
 9562      5F535444 
 9563 595b 01       		.byte	0x1
 9564 595c B403     		.uleb128 0x1b4
 9565 595e 5F5F5553 		.ascii "__USE_MINGW_ANSI_STDIO 1\0"
 9565      455F4D49 
 9565      4E47575F 
 9565      414E5349 
 9565      5F535444 
 9566 5977 02       		.byte	0x2
 9567 5978 C603     		.uleb128 0x1c6
 9568 597a 5F435254 		.ascii "_CRT_glob\0"
 9568      5F676C6F 
 9568      6200
 9569 5984 01       		.byte	0x1
 9570 5985 C703     		.uleb128 0x1c7
 9571 5987 5F435254 		.ascii "_CRT_glob _dowildcard\0"
 9571      5F676C6F 
 9571      62205F64 
 9571      6F77696C 
 9571      64636172 
 9572 599d 01       		.byte	0x1
 9573 599e D703     		.uleb128 0x1d7
 9574 59a0 5F5F414E 		.ascii "__ANONYMOUS_DEFINED \0"
 9574      4F4E594D 
 9574      4F55535F 
 9574      44454649 
 9574      4E454420 
 9575 59b5 01       		.byte	0x1
 9576 59b6 D803     		.uleb128 0x1d8
 9577 59b8 5F414E4F 		.ascii "_ANONYMOUS_UNION __MINGW_EXTENSION\0"
 9577      4E594D4F 
 9577      55535F55 
 9577      4E494F4E 
 9577      205F5F4D 
 9578 59db 01       		.byte	0x1
 9579 59dc D903     		.uleb128 0x1d9
 9580 59de 5F414E4F 		.ascii "_ANONYMOUS_STRUCT __MINGW_EXTENSION\0"
 9580      4E594D4F 
 9580      55535F53 
 9580      54525543 
 9580      54205F5F 
 9581 5a02 01       		.byte	0x1
 9582 5a03 DB03     		.uleb128 0x1db
 9583 5a05 5F554E49 		.ascii "_UNION_NAME(x) \0"
 9583      4F4E5F4E 
 9583      414D4528 
 9583      78292000 
 9584 5a15 01       		.byte	0x1
 9585 5a16 DC03     		.uleb128 0x1dc
 9586 5a18 5F535452 		.ascii "_STRUCT_NAME(x) \0"
 9586      5543545F 
 9586      4E414D45 
 9586      28782920 
 9586      00
 9587 5a29 01       		.byte	0x1
 9588 5a2a F003     		.uleb128 0x1f0
 9589 5a2c 44554D4D 		.ascii "DUMMYUNIONNAME \0"
 9589      59554E49 
 9589      4F4E4E41 
 9589      4D452000 
 9590 5a3c 01       		.byte	0x1
 9591 5a3d F103     		.uleb128 0x1f1
 9592 5a3f 44554D4D 		.ascii "DUMMYUNIONNAME1 \0"
 9592      59554E49 
 9592      4F4E4E41 
 9592      4D453120 
 9592      00
 9593 5a50 01       		.byte	0x1
 9594 5a51 F203     		.uleb128 0x1f2
 9595 5a53 44554D4D 		.ascii "DUMMYUNIONNAME2 \0"
 9595      59554E49 
 9595      4F4E4E41 
 9595      4D453220 
 9595      00
 9596 5a64 01       		.byte	0x1
 9597 5a65 F303     		.uleb128 0x1f3
 9598 5a67 44554D4D 		.ascii "DUMMYUNIONNAME3 \0"
 9598      59554E49 
 9598      4F4E4E41 
 9598      4D453320 
 9598      00
 9599 5a78 01       		.byte	0x1
 9600 5a79 F403     		.uleb128 0x1f4
 9601 5a7b 44554D4D 		.ascii "DUMMYUNIONNAME4 \0"
 9601      59554E49 
 9601      4F4E4E41 
 9601      4D453420 
 9601      00
 9602 5a8c 01       		.byte	0x1
 9603 5a8d F503     		.uleb128 0x1f5
 9604 5a8f 44554D4D 		.ascii "DUMMYUNIONNAME5 \0"
 9604      59554E49 
 9604      4F4E4E41 
 9604      4D453520 
 9604      00
 9605 5aa0 01       		.byte	0x1
 9606 5aa1 F603     		.uleb128 0x1f6
 9607 5aa3 44554D4D 		.ascii "DUMMYUNIONNAME6 \0"
 9607      59554E49 
 9607      4F4E4E41 
 9607      4D453620 
 9607      00
 9608 5ab4 01       		.byte	0x1
 9609 5ab5 F703     		.uleb128 0x1f7
 9610 5ab7 44554D4D 		.ascii "DUMMYUNIONNAME7 \0"
 9610      59554E49 
 9610      4F4E4E41 
 9610      4D453720 
 9610      00
 9611 5ac8 01       		.byte	0x1
 9612 5ac9 F803     		.uleb128 0x1f8
 9613 5acb 44554D4D 		.ascii "DUMMYUNIONNAME8 \0"
 9613      59554E49 
 9613      4F4E4E41 
 9613      4D453820 
 9613      00
 9614 5adc 01       		.byte	0x1
 9615 5add F903     		.uleb128 0x1f9
 9616 5adf 44554D4D 		.ascii "DUMMYUNIONNAME9 \0"
 9616      59554E49 
 9616      4F4E4E41 
 9616      4D453920 
 9616      00
 9617 5af0 01       		.byte	0x1
 9618 5af1 8604     		.uleb128 0x206
 9619 5af3 44554D4D 		.ascii "DUMMYSTRUCTNAME \0"
 9619      59535452 
 9619      5543544E 
 9619      414D4520 
 9619      00
 9620 5b04 01       		.byte	0x1
 9621 5b05 8704     		.uleb128 0x207
 9622 5b07 44554D4D 		.ascii "DUMMYSTRUCTNAME1 \0"
 9622      59535452 
 9622      5543544E 
 9622      414D4531 
 9622      2000
 9623 5b19 01       		.byte	0x1
 9624 5b1a 8804     		.uleb128 0x208
 9625 5b1c 44554D4D 		.ascii "DUMMYSTRUCTNAME2 \0"
 9625      59535452 
 9625      5543544E 
 9625      414D4532 
 9625      2000
 9626 5b2e 01       		.byte	0x1
 9627 5b2f 8904     		.uleb128 0x209
 9628 5b31 44554D4D 		.ascii "DUMMYSTRUCTNAME3 \0"
 9628      59535452 
 9628      5543544E 
 9628      414D4533 
 9628      2000
 9629 5b43 01       		.byte	0x1
 9630 5b44 8A04     		.uleb128 0x20a
 9631 5b46 44554D4D 		.ascii "DUMMYSTRUCTNAME4 \0"
 9631      59535452 
 9631      5543544E 
 9631      414D4534 
 9631      2000
 9632 5b58 01       		.byte	0x1
 9633 5b59 8B04     		.uleb128 0x20b
 9634 5b5b 44554D4D 		.ascii "DUMMYSTRUCTNAME5 \0"
 9634      59535452 
 9634      5543544E 
 9634      414D4535 
 9634      2000
 9635 5b6d 01       		.byte	0x1
 9636 5b6e B304     		.uleb128 0x233
 9637 5b70 5F5F4352 		.ascii "__CRT_UUID_DECL(type,l,w1,w2,b1,b2,b3,b4,b5,b6,b7,b8) \0"
 9637      545F5555 
 9637      49445F44 
 9637      45434C28 
 9637      74797065 
 9638 5ba7 01       		.byte	0x1
 9639 5ba8 BF04     		.uleb128 0x23f
 9640 5baa 5F5F4D49 		.ascii "__MINGW_DEBUGBREAK_IMPL !__has_builtin(__debugbreak)\0"
 9640      4E47575F 
 9640      44454255 
 9640      47425245 
 9640      414B5F49 
 9641 5bdf 01       		.byte	0x1
 9642 5be0 D404     		.uleb128 0x254
 9643 5be2 5F5F4D49 		.ascii "__MINGW_FASTFAIL_IMPL !__has_builtin(__fastfail)\0"
 9643      4E47575F 
 9643      46415354 
 9643      4641494C 
 9643      5F494D50 
 9644 5c13 01       		.byte	0x1
 9645 5c14 EC04     		.uleb128 0x26c
 9646 5c16 5F5F4D49 		.ascii "__MINGW_PREFETCH_IMPL !__has_builtin(__prefetch)\0"
 9646      4E47575F 
 9646      50524546 
 9646      45544348 
 9646      5F494D50 
 9647 5c47 04       		.byte	0x4
 9648 5c48 02       		.byte	0x2
 9649 5c49 0D       		.uleb128 0xd
 9650 5c4a 5F435254 		.ascii "_CRT_PACKING\0"
 9650      5F504143 
 9650      4B494E47 
 9650      00
 9651 5c57 01       		.byte	0x1
 9652 5c58 0E       		.uleb128 0xe
 9653 5c59 5F435254 		.ascii "_CRT_PACKING 8\0"
 9653      5F504143 
 9653      4B494E47 
 9653      203800
 9654 5c68 01       		.byte	0x1
 9655 5c69 18       		.uleb128 0x18
 9656 5c6a 5F435254 		.ascii "_CRTNOALIAS \0"
 9656      4E4F414C 
 9656      49415320 
 9656      00
 9657 5c77 01       		.byte	0x1
 9658 5c78 1C       		.uleb128 0x1c
 9659 5c79 5F435254 		.ascii "_CRTRESTRICT \0"
 9659      52455354 
 9659      52494354 
 9659      2000
 9660 5c87 01       		.byte	0x1
 9661 5c88 20       		.uleb128 0x20
 9662 5c89 5F53495A 		.ascii "_SIZE_T_DEFINED \0"
 9662      455F545F 
 9662      44454649 
 9662      4E454420 
 9662      00
 9663 5c9a 02       		.byte	0x2
 9664 5c9b 21       		.uleb128 0x21
 9665 5c9c 73697A65 		.ascii "size_t\0"
 9665      5F7400
 9666 5ca3 01       		.byte	0x1
 9667 5ca4 2A       		.uleb128 0x2a
 9668 5ca5 5F535349 		.ascii "_SSIZE_T_DEFINED \0"
 9668      5A455F54 
 9668      5F444546 
 9668      494E4544 
 9668      2000
 9669 5cb7 02       		.byte	0x2
 9670 5cb8 2B       		.uleb128 0x2b
 9671 5cb9 7373697A 		.ascii "ssize_t\0"
 9671      655F7400 
 9672 5cc1 01       		.byte	0x1
 9673 5cc2 35       		.uleb128 0x35
 9674 5cc3 5F525349 		.ascii "_RSIZE_T_DEFINED \0"
 9674      5A455F54 
 9674      5F444546 
 9674      494E4544 
 9674      2000
 9675 5cd5 01       		.byte	0x1
 9676 5cd6 39       		.uleb128 0x39
 9677 5cd7 5F494E54 		.ascii "_INTPTR_T_DEFINED \0"
 9677      5054525F 
 9677      545F4445 
 9677      46494E45 
 9677      442000
 9678 5cea 01       		.byte	0x1
 9679 5ceb 3B       		.uleb128 0x3b
 9680 5cec 5F5F696E 		.ascii "__intptr_t_defined \0"
 9680      74707472 
 9680      5F745F64 
 9680      6566696E 
 9680      65642000 
 9681 5d00 02       		.byte	0x2
 9682 5d01 3C       		.uleb128 0x3c
 9683 5d02 696E7470 		.ascii "intptr_t\0"
 9683      74725F74 
 9683      00
 9684 5d0b 01       		.byte	0x1
 9685 5d0c 46       		.uleb128 0x46
 9686 5d0d 5F55494E 		.ascii "_UINTPTR_T_DEFINED \0"
 9686      54505452 
 9686      5F545F44 
 9686      4546494E 
 9686      45442000 
 9687 5d21 01       		.byte	0x1
 9688 5d22 48       		.uleb128 0x48
 9689 5d23 5F5F7569 		.ascii "__uintptr_t_defined \0"
 9689      6E747074 
 9689      725F745F 
 9689      64656669 
 9689      6E656420 
 9690 5d38 02       		.byte	0x2
 9691 5d39 49       		.uleb128 0x49
 9692 5d3a 75696E74 		.ascii "uintptr_t\0"
 9692      7074725F 
 9692      7400
 9693 5d44 01       		.byte	0x1
 9694 5d45 53       		.uleb128 0x53
 9695 5d46 5F505452 		.ascii "_PTRDIFF_T_DEFINED \0"
 9695      44494646 
 9695      5F545F44 
 9695      4546494E 
 9695      45442000 
 9696 5d5a 01       		.byte	0x1
 9697 5d5b 55       		.uleb128 0x55
 9698 5d5c 5F505452 		.ascii "_PTRDIFF_T_ \0"
 9698      44494646 
 9698      5F545F20 
 9698      00
 9699 5d69 02       		.byte	0x2
 9700 5d6a 56       		.uleb128 0x56
 9701 5d6b 70747264 		.ascii "ptrdiff_t\0"
 9701      6966665F 
 9701      7400
 9702 5d75 01       		.byte	0x1
 9703 5d76 60       		.uleb128 0x60
 9704 5d77 5F574348 		.ascii "_WCHAR_T_DEFINED \0"
 9704      41525F54 
 9704      5F444546 
 9704      494E4544 
 9704      2000
 9705 5d89 01       		.byte	0x1
 9706 5d8a 67       		.uleb128 0x67
 9707 5d8b 5F574354 		.ascii "_WCTYPE_T_DEFINED \0"
 9707      5950455F 
 9707      545F4445 
 9707      46494E45 
 9707      442000
 9708 5d9e 01       		.byte	0x1
 9709 5d9f 69       		.uleb128 0x69
 9710 5da0 5F57494E 		.ascii "_WINT_T \0"
 9710      545F5420 
 9710      00
 9711 5da9 01       		.byte	0x1
 9712 5daa 70       		.uleb128 0x70
 9713 5dab 5F455252 		.ascii "_ERRCODE_DEFINED \0"
 9713      434F4445 
 9713      5F444546 
 9713      494E4544 
 9713      2000
 9714 5dbd 01       		.byte	0x1
 9715 5dbe 75       		.uleb128 0x75
 9716 5dbf 5F54494D 		.ascii "_TIME32_T_DEFINED \0"
 9716      4533325F 
 9716      545F4445 
 9716      46494E45 
 9716      442000
 9717 5dd2 01       		.byte	0x1
 9718 5dd3 7A       		.uleb128 0x7a
 9719 5dd4 5F54494D 		.ascii "_TIME64_T_DEFINED \0"
 9719      4536345F 
 9719      545F4445 
 9719      46494E45 
 9719      442000
 9720 5de7 01       		.byte	0x1
 9721 5de8 8601     		.uleb128 0x86
 9722 5dea 5F54494D 		.ascii "_TIME_T_DEFINED \0"
 9722      455F545F 
 9722      44454649 
 9722      4E454420 
 9722      00
 9723 5dfb 01       		.byte	0x1
 9724 5dfc 8F01     		.uleb128 0x8f
 9725 5dfe 5F435254 		.ascii "_CRT_SECURE_CPP_NOTHROW throw()\0"
 9725      5F534543 
 9725      5552455F 
 9725      4350505F 
 9725      4E4F5448 
 9726 5e1e 01       		.byte	0x1
 9727 5e1f 8602     		.uleb128 0x106
 9728 5e21 5F5F4445 		.ascii "__DEFINE_CPP_OVERLOAD_SECURE_FUNC_0_0(__ret,__func,__dsttype,__dst) \0"
 9728      46494E45 
 9728      5F435050 
 9728      5F4F5645 
 9728      524C4F41 
 9729 5e66 01       		.byte	0x1
 9730 5e67 8702     		.uleb128 0x107
 9731 5e69 5F5F4445 		.ascii "__DEFINE_CPP_OVERLOAD_SECURE_FUNC_0_1(__ret,__func,__dsttype,__dst,__type1,__arg1) \0"
 9731      46494E45 
 9731      5F435050 
 9731      5F4F5645 
 9731      524C4F41 
 9732 5ebd 01       		.byte	0x1
 9733 5ebe 8802     		.uleb128 0x108
 9734 5ec0 5F5F4445 		.ascii "__DEFINE_CPP_OVERLOAD_SECURE_FUNC_0_2(__ret,__func,__dsttype,__dst,__type1,__arg1,__type2,
 9734      46494E45 
 9734      5F435050 
 9734      5F4F5645 
 9734      524C4F41 
 9735 5f23 01       		.byte	0x1
 9736 5f24 8902     		.uleb128 0x109
 9737 5f26 5F5F4445 		.ascii "__DEFINE_CPP_OVERLOAD_SECURE_FUNC_0_3(__ret,__func,__dsttype,__dst,__type1,__arg1,__type2,
 9737      46494E45 
 9737      5F435050 
 9737      5F4F5645 
 9737      524C4F41 
 9738 5f98 01       		.byte	0x1
 9739 5f99 8A02     		.uleb128 0x10a
 9740 5f9b 5F5F4445 		.ascii "__DEFINE_CPP_OVERLOAD_SECURE_FUNC_0_4(__ret,__func,__dsttype,__dst,__type1,__arg1,__type2,
 9740      46494E45 
 9740      5F435050 
 9740      5F4F5645 
 9740      524C4F41 
 9741 601c 01       		.byte	0x1
 9742 601d 8B02     		.uleb128 0x10b
 9743 601f 5F5F4445 		.ascii "__DEFINE_CPP_OVERLOAD_SECURE_FUNC_1_1(__ret,__func,__type0,__arg0,__dsttype,__dst,__type1,
 9743      46494E45 
 9743      5F435050 
 9743      5F4F5645 
 9743      524C4F41 
 9744 6082 01       		.byte	0x1
 9745 6083 8C02     		.uleb128 0x10c
 9746 6085 5F5F4445 		.ascii "__DEFINE_CPP_OVERLOAD_SECURE_FUNC_1_2(__ret,__func,__type0,__arg0,__dsttype,__dst,__type1,
 9746      46494E45 
 9746      5F435050 
 9746      5F4F5645 
 9746      524C4F41 
 9747 60f7 01       		.byte	0x1
 9748 60f8 8D02     		.uleb128 0x10d
 9749 60fa 5F5F4445 		.ascii "__DEFINE_CPP_OVERLOAD_SECURE_FUNC_1_3(__ret,__func,__type0,__arg0,__dsttype,__dst,__type1,
 9749      46494E45 
 9749      5F435050 
 9749      5F4F5645 
 9749      524C4F41 
 9750 617b 01       		.byte	0x1
 9751 617c 8E02     		.uleb128 0x10e
 9752 617e 5F5F4445 		.ascii "__DEFINE_CPP_OVERLOAD_SECURE_FUNC_2_0(__ret,__func,__type1,__arg1,__type2,__arg2,__dsttype
 9752      46494E45 
 9752      5F435050 
 9752      5F4F5645 
 9752      524C4F41 
 9753 61e1 01       		.byte	0x1
 9754 61e2 8F02     		.uleb128 0x10f
 9755 61e4 5F5F4445 		.ascii "__DEFINE_CPP_OVERLOAD_SECURE_FUNC_0_1_ARGLIST(__ret,__func,__vfunc,__dsttype,__dst,__type1
 9755      46494E45 
 9755      5F435050 
 9755      5F4F5645 
 9755      524C4F41 
 9756 6248 01       		.byte	0x1
 9757 6249 9002     		.uleb128 0x110
 9758 624b 5F5F4445 		.ascii "__DEFINE_CPP_OVERLOAD_SECURE_FUNC_0_2_ARGLIST(__ret,__func,__vfunc,__dsttype,__dst,__type1
 9758      46494E45 
 9758      5F435050 
 9758      5F4F5645 
 9758      524C4F41 
 9759 62be 01       		.byte	0x1
 9760 62bf 9102     		.uleb128 0x111
 9761 62c1 5F5F4445 		.ascii "__DEFINE_CPP_OVERLOAD_SECURE_FUNC_SPLITPATH(__ret,__func,__dsttype,__src) \0"
 9761      46494E45 
 9761      5F435050 
 9761      5F4F5645 
 9761      524C4F41 
 9762 630c 01       		.byte	0x1
 9763 630d 9502     		.uleb128 0x115
 9764 630f 5F5F4445 		.ascii "__DEFINE_CPP_OVERLOAD_STANDARD_FUNC_0_0(__ret_type,__ret_policy,__decl_spec,__name,__dst_a
 9764      46494E45 
 9764      5F435050 
 9764      5F4F5645 
 9764      524C4F41 
 9765 640f 01       		.byte	0x1
 9766 6410 9702     		.uleb128 0x117
 9767 6412 5F5F4445 		.ascii "__DEFINE_CPP_OVERLOAD_STANDARD_FUNC_0_1(__ret_type,__ret_policy,__decl_spec,__name,__dst_a
 9767      46494E45 
 9767      5F435050 
 9767      5F4F5645 
 9767      524C4F41 
 9768 654f 01       		.byte	0x1
 9769 6550 9902     		.uleb128 0x119
 9770 6552 5F5F4445 		.ascii "__DEFINE_CPP_OVERLOAD_STANDARD_FUNC_0_2(__ret_type,__ret_policy,__decl_spec,__name,__dst_a
 9770      46494E45 
 9770      5F435050 
 9770      5F4F5645 
 9770      524C4F41 
 9771 66a2 01       		.byte	0x1
 9772 66a3 9B02     		.uleb128 0x11b
 9773 66a5 5F5F4445 		.ascii "__DEFINE_CPP_OVERLOAD_STANDARD_FUNC_0_3(__ret_type,__ret_policy,__decl_spec,__name,__dst_a
 9773      46494E45 
 9773      5F435050 
 9773      5F4F5645 
 9773      524C4F41 
 9774 681d 01       		.byte	0x1
 9775 681e 9D02     		.uleb128 0x11d
 9776 6820 5F5F4445 		.ascii "__DEFINE_CPP_OVERLOAD_STANDARD_FUNC_0_4(__ret_type,__ret_policy,__decl_spec,__name,__dst_a
 9776      46494E45 
 9776      5F435050 
 9776      5F4F5645 
 9776      524C4F41 
 9777 69c0 01       		.byte	0x1
 9778 69c1 A603     		.uleb128 0x1a6
 9779 69c3 5F5F4445 		.ascii "__DEFINE_CPP_OVERLOAD_STANDARD_FUNC_0_0_EX(__ret_type,__ret_policy,__decl_spec,__name,__se
 9779      46494E45 
 9779      5F435050 
 9779      5F4F5645 
 9779      524C4F41 
 9780 6a42 01       		.byte	0x1
 9781 6a43 A703     		.uleb128 0x1a7
 9782 6a45 5F5F4445 		.ascii "__DEFINE_CPP_OVERLOAD_STANDARD_FUNC_0_1_EX(__ret_type,__ret_policy,__decl_spec,__name,__se
 9782      46494E45 
 9782      5F435050 
 9782      5F4F5645 
 9782      524C4F41 
 9783 6ad7 01       		.byte	0x1
 9784 6ad8 A803     		.uleb128 0x1a8
 9785 6ada 5F5F4445 		.ascii "__DEFINE_CPP_OVERLOAD_STANDARD_FUNC_0_2_EX(__ret_type,__ret_policy,__decl_spec,__name,__se
 9785      46494E45 
 9785      5F435050 
 9785      5F4F5645 
 9785      524C4F41 
 9786 6b7f 01       		.byte	0x1
 9787 6b80 A903     		.uleb128 0x1a9
 9788 6b82 5F5F4445 		.ascii "__DEFINE_CPP_OVERLOAD_STANDARD_FUNC_0_3_EX(__ret_type,__ret_policy,__decl_spec,__name,__se
 9788      46494E45 
 9788      5F435050 
 9788      5F4F5645 
 9788      524C4F41 
 9789 6c3a 01       		.byte	0x1
 9790 6c3b AA03     		.uleb128 0x1aa
 9791 6c3d 5F5F4445 		.ascii "__DEFINE_CPP_OVERLOAD_STANDARD_FUNC_0_4_EX(__ret_type,__ret_policy,__decl_spec,__name,__se
 9791      46494E45 
 9791      5F435050 
 9791      5F4F5645 
 9791      524C4F41 
 9792 6d08 01       		.byte	0x1
 9793 6d09 BA03     		.uleb128 0x1ba
 9794 6d0b 5F544147 		.ascii "_TAGLC_ID_DEFINED \0"
 9794      4C435F49 
 9794      445F4445 
 9794      46494E45 
 9794      442000
 9795 6d1e 01       		.byte	0x1
 9796 6d1f C303     		.uleb128 0x1c3
 9797 6d21 5F544852 		.ascii "_THREADLOCALEINFO \0"
 9797      4541444C 
 9797      4F43414C 
 9797      45494E46 
 9797      4F2000
 9798 6d34 01       		.byte	0x1
 9799 6d35 E603     		.uleb128 0x1e6
 9800 6d37 5F5F6372 		.ascii "__crt_typefix(ctype) \0"
 9800      745F7479 
 9800      70656669 
 9800      78286374 
 9800      79706529 
 9801 6d4d 01       		.byte	0x1
 9802 6d4e F003     		.uleb128 0x1f0
 9803 6d50 5F435254 		.ascii "_CRT_USE_WINAPI_FAMILY_DESKTOP_APP \0"
 9803      5F555345 
 9803      5F57494E 
 9803      4150495F 
 9803      46414D49 
 9804 6d74 04       		.byte	0x4
 9805 6d75 04       		.byte	0x4
 9806 6d76 01       		.byte	0x1
 9807 6d77 0A       		.uleb128 0xa
 9808 6d78 5F494E43 		.ascii "_INC_STDDEF \0"
 9808      5F535444 
 9808      44454620 
 9808      00
 9809 6d85 01       		.byte	0x1
 9810 6d86 11       		.uleb128 0x11
 9811 6d87 5F435254 		.ascii "_CRT_ERRNO_DEFINED \0"
 9811      5F455252 
 9811      4E4F5F44 
 9811      4546494E 
 9811      45442000 
 9812 6d9b 01       		.byte	0x1
 9813 6d9c 13       		.uleb128 0x13
 9814 6d9d 6572726E 		.ascii "errno (*_errno())\0"
 9814      6F20282A 
 9814      5F657272 
 9814      6E6F2829 
 9814      2900
 9815 6daf 01       		.byte	0x1
 9816 6db0 19       		.uleb128 0x19
 9817 6db1 5F746872 		.ascii "_threadid (__threadid())\0"
 9817      65616469 
 9817      6420285F 
 9817      5F746872 
 9817      65616469 
 9818 6dca 01       		.byte	0x1
 9819 6dcb 31       		.uleb128 0x31
 9820 6dcc 5F535444 		.ascii "_STDDEF_H \0"
 9820      4445465F 
 9820      482000
 9821 6dd7 01       		.byte	0x1
 9822 6dd8 32       		.uleb128 0x32
 9823 6dd9 5F535444 		.ascii "_STDDEF_H_ \0"
 9823      4445465F 
 9823      485F2000 
 9824 6de5 01       		.byte	0x1
 9825 6de6 34       		.uleb128 0x34
 9826 6de7 5F414E53 		.ascii "_ANSI_STDDEF_H \0"
 9826      495F5354 
 9826      44444546 
 9826      5F482000 
 9827 6df7 01       		.byte	0x1
 9828 6df8 36       		.uleb128 0x36
 9829 6df9 5F5F5354 		.ascii "__STDDEF_H__ \0"
 9829      44444546 
 9829      5F485F5F 
 9829      2000
 9830 6e07 02       		.byte	0x2
 9831 6e08 A301     		.uleb128 0xa3
 9832 6e0a 5F5F6E65 		.ascii "__need_ptrdiff_t\0"
 9832      65645F70 
 9832      74726469 
 9832      66665F74 
 9832      00
 9833 6e1b 02       		.byte	0x2
 9834 6e1c F001     		.uleb128 0xf0
 9835 6e1e 5F5F6E65 		.ascii "__need_size_t\0"
 9835      65645F73 
 9835      697A655F 
 9835      7400
 9836 6e2c 02       		.byte	0x2
 9837 6e2d D102     		.uleb128 0x151
 9838 6e2f 5F5F6E65 		.ascii "__need_wchar_t\0"
 9838      65645F77 
 9838      63686172 
 9838      5F7400
 9839 6e3e 02       		.byte	0x2
 9840 6e3f 8A03     		.uleb128 0x18a
 9841 6e41 4E554C4C 		.ascii "NULL\0"
 9841      00
 9842 6e46 01       		.byte	0x1
 9843 6e47 8F03     		.uleb128 0x18f
 9844 6e49 4E554C4C 		.ascii "NULL ((void *)0)\0"
 9844      20282876 
 9844      6F696420 
 9844      2A293029 
 9844      00
 9845 6e5a 02       		.byte	0x2
 9846 6e5b 9903     		.uleb128 0x199
 9847 6e5d 5F5F6E65 		.ascii "__need_NULL\0"
 9847      65645F4E 
 9847      554C4C00 
 9848 6e69 01       		.byte	0x1
 9849 6e6a 9E03     		.uleb128 0x19e
 9850 6e6c 6F666673 		.ascii "offsetof(TYPE,MEMBER) __builtin_offsetof (TYPE, MEMBER)\0"
 9850      65746F66 
 9850      28545950 
 9850      452C4D45 
 9850      4D424552 
 9851 6ea4 01       		.byte	0x1
 9852 6ea5 A303     		.uleb128 0x1a3
 9853 6ea7 5F474343 		.ascii "_GCC_MAX_ALIGN_T \0"
 9853      5F4D4158 
 9853      5F414C49 
 9853      474E5F54 
 9853      2000
 9854 6eb9 01       		.byte	0x1
 9855 6eba A403     		.uleb128 0x1a4
 9856 6ebc 5F5F434C 		.ascii "__CLANG_MAX_ALIGN_T_DEFINED \0"
 9856      414E475F 
 9856      4D41585F 
 9856      414C4947 
 9856      4E5F545F 
 9857 6ed9 04       		.byte	0x4
 9858 6eda 04       		.byte	0x4
 9859 6edb 01       		.byte	0x1
 9860 6edc 66       		.uleb128 0x66
 9861 6edd 57434841 		.ascii "WCHAR CHAR16\0"
 9861      52204348 
 9861      41523136 
 9861      00
 9862 6eea 02       		.byte	0x2
 9863 6eeb 77       		.uleb128 0x77
 9864 6eec 564F4944 		.ascii "VOID\0"
 9864      00
 9865 6ef1 01       		.byte	0x1
 9866 6ef2 8401     		.uleb128 0x84
 9867 6ef4 504F5354 		.ascii "POST_CODE(_Data) \0"
 9867      5F434F44 
 9867      45285F44 
 9867      61746129 
 9867      2000
 9868 6f06 01       		.byte	0x1
 9869 6f07 8801     		.uleb128 0x88
 9870 6f09 45464945 		.ascii "EFIERR(a) (0x8000000000000000 | a)\0"
 9870      52522861 
 9870      29202830 
 9870      78383030 
 9870      30303030 
 9871 6f2c 01       		.byte	0x1
 9872 6f2d 8901     		.uleb128 0x89
 9873 6f2f 4546495F 		.ascii "EFI_ERROR_MASK 0x8000000000000000\0"
 9873      4552524F 
 9873      525F4D41 
 9873      534B2030 
 9873      78383030 
 9874 6f51 01       		.byte	0x1
 9875 6f52 8A01     		.uleb128 0x8a
 9876 6f54 45464945 		.ascii "EFIERR_OEM(a) (0xc000000000000000 | a)\0"
 9876      52525F4F 
 9876      454D2861 
 9876      29202830 
 9876      78633030 
 9877 6f7b 01       		.byte	0x1
 9878 6f7c 8D01     		.uleb128 0x8d
 9879 6f7e 4241445F 		.ascii "BAD_POINTER 0xFBFBFBFBFBFBFBFB\0"
 9879      504F494E 
 9879      54455220 
 9879      30784642 
 9879      46424642 
 9880 6f9d 01       		.byte	0x1
 9881 6f9e 8E01     		.uleb128 0x8e
 9882 6fa0 4D41585F 		.ascii "MAX_ADDRESS 0xFFFFFFFFFFFFFFFF\0"
 9882      41444452 
 9882      45535320 
 9882      30784646 
 9882      46464646 
 9883 6fbf 01       		.byte	0x1
 9884 6fc0 9301     		.uleb128 0x93
 9885 6fc2 42524541 		.ascii "BREAKPOINT() while (TRUE);\0"
 9885      4B504F49 
 9885      4E542829 
 9885      20776869 
 9885      6C652028 
 9886 6fdd 01       		.byte	0x1
 9887 6fde 9A01     		.uleb128 0x9a
 9888 6fe0 4D494E5F 		.ascii "MIN_ALIGNMENT_SIZE 4\0"
 9888      414C4947 
 9888      4E4D454E 
 9888      545F5349 
 9888      5A452034 
 9889 6ff5 01       		.byte	0x1
 9890 6ff6 9C01     		.uleb128 0x9c
 9891 6ff8 414C4947 		.ascii "ALIGN_VARIABLE(Value,Adjustment) (UINTN)Adjustment = 0; if((UINTN)Value % MIN_ALIGNMENT_SI
 9891      4E5F5641 
 9891      52494142 
 9891      4C452856 
 9891      616C7565 
 9892 70cd 01       		.byte	0x1
 9893 70ce A701     		.uleb128 0xa7
 9894 70d0 4546495F 		.ascii "EFI_SIGNATURE_16(A,B) ((A) | (B<<8))\0"
 9894      5349474E 
 9894      41545552 
 9894      455F3136 
 9894      28412C42 
 9895 70f5 01       		.byte	0x1
 9896 70f6 A801     		.uleb128 0xa8
 9897 70f8 4546495F 		.ascii "EFI_SIGNATURE_32(A,B,C,D) (EFI_SIGNATURE_16(A,B) | (EFI_SIGNATURE_16(C,D) << 16))\0"
 9897      5349474E 
 9897      41545552 
 9897      455F3332 
 9897      28412C42 
 9898 714a 01       		.byte	0x1
 9899 714b A901     		.uleb128 0xa9
 9900 714d 4546495F 		.ascii "EFI_SIGNATURE_64(A,B,C,D,E,F,G,H) (EFI_SIGNATURE_32(A,B,C,D) | ((UINT64)(EFI_SIGNATURE_32(
 9900      5349474E 
 9900      41545552 
 9900      455F3634 
 9900      28412C42 
 9901 71b9 01       		.byte	0x1
 9902 71ba B101     		.uleb128 0xb1
 9903 71bc 4558504F 		.ascii "EXPORTAPI \0"
 9903      52544150 
 9903      492000
 9904 71c7 01       		.byte	0x1
 9905 71c8 C201     		.uleb128 0xc2
 9906 71ca 45464941 		.ascii "EFIAPI __attribute__((ms_abi))\0"
 9906      5049205F 
 9906      5F617474 
 9906      72696275 
 9906      74655F5F 
 9907 71e9 01       		.byte	0x1
 9908 71ea C801     		.uleb128 0xc8
 9909 71ec 424F4F54 		.ascii "BOOTSERVICE \0"
 9909      53455256 
 9909      49434520 
 9909      00
 9910 71f9 01       		.byte	0x1
 9911 71fa CB01     		.uleb128 0xcb
 9912 71fc 52554E54 		.ascii "RUNTIMESERVICE \0"
 9912      494D4553 
 9912      45525649 
 9912      43452000 
 9913 720c 01       		.byte	0x1
 9914 720d CC01     		.uleb128 0xcc
 9915 720f 52554E54 		.ascii "RUNTIMEFUNCTION \0"
 9915      494D4546 
 9915      554E4354 
 9915      494F4E20 
 9915      00
 9916 7220 01       		.byte	0x1
 9917 7221 CF01     		.uleb128 0xcf
 9918 7223 52554E54 		.ascii "RUNTIME_CODE(a) alloc_text(\"rtcode\", a)\0"
 9918      494D455F 
 9918      434F4445 
 9918      28612920 
 9918      616C6C6F 
 9919 724b 01       		.byte	0x1
 9920 724c D001     		.uleb128 0xd0
 9921 724e 42454749 		.ascii "BEGIN_RUNTIME_DATA() data_seg(\"rtdata\")\0"
 9921      4E5F5255 
 9921      4E54494D 
 9921      455F4441 
 9921      54412829 
 9922 7276 01       		.byte	0x1
 9923 7277 D101     		.uleb128 0xd1
 9924 7279 454E445F 		.ascii "END_RUNTIME_DATA() data_seg(\"\")\0"
 9924      52554E54 
 9924      494D455F 
 9924      44415441 
 9924      28292064 
 9925 7299 01       		.byte	0x1
 9926 729a D301     		.uleb128 0xd3
 9927 729c 564F4C41 		.ascii "VOLATILE volatile\0"
 9927      54494C45 
 9927      20766F6C 
 9927      6174696C 
 9927      6500
 9928 72ae 01       		.byte	0x1
 9929 72af D501     		.uleb128 0xd5
 9930 72b1 4D454D4F 		.ascii "MEMORY_FENCE() \0"
 9930      52595F46 
 9930      454E4345 
 9930      28292000 
 9931 72c1 01       		.byte	0x1
 9932 72c2 8502     		.uleb128 0x105
 9933 72c4 4546495F 		.ascii "EFI_DRIVER_ENTRY_POINT(InitFunction) UINTN InitializeDriver ( VOID *ImageHandle, VOID *Sys
 9933      44524956 
 9933      45525F45 
 9933      4E545259 
 9933      5F504F49 
 9934 73d1 01       		.byte	0x1
 9935 73d2 9702     		.uleb128 0x117
 9936 73d4 4C4F4144 		.ascii "LOAD_INTERNAL_DRIVER(_if,type,name,entry) (_if)->LoadInternal(type, name, entry)\0"
 9936      5F494E54 
 9936      45524E41 
 9936      4C5F4452 
 9936      49564552 
 9937 7425 01       		.byte	0x1
 9938 7426 A602     		.uleb128 0x126
 9939 7428 494E5445 		.ascii "INTERFACE_DECL(x) struct x\0"
 9939      52464143 
 9939      455F4445 
 9939      434C2878 
 9939      29207374 
 9940 7443 01       		.byte	0x1
 9941 7444 AE02     		.uleb128 0x12e
 9942 7446 75656669 		.ascii "uefi_call_wrapper(func,va_num,...) func(__VA_ARGS__)\0"
 9942      5F63616C 
 9942      6C5F7772 
 9942      61707065 
 9942      72286675 
 9943 747b 01       		.byte	0x1
 9944 747c 8303     		.uleb128 0x183
 9945 747e 4546495F 		.ascii "EFI_FUNCTION __attribute__((ms_abi))\0"
 9945      46554E43 
 9945      54494F4E 
 9945      205F5F61 
 9945      74747269 
 9946 74a3 04       		.byte	0x4
 9947              		.file 21 "gnu-efi-3.0.18/inc/eficompiler.h"
 9948 74a4 03       		.byte	0x3
 9949 74a5 41       		.uleb128 0x41
 9950 74a6 15       		.uleb128 0x15
 9951 74a7 01       		.byte	0x1
 9952 74a8 12       		.uleb128 0x12
 9953 74a9 4546495F 		.ascii "EFI_UNUSED __attribute__((__unused__))\0"
 9953      554E5553 
 9953      4544205F 
 9953      5F617474 
 9953      72696275 
 9954 74d0 01       		.byte	0x1
 9955 74d1 1B       		.uleb128 0x1b
 9956 74d2 4546495F 		.ascii "EFI_NO_TAIL_CALL __attribute__((optimize(\"no-optimize-sibling-calls\")))\0"
 9956      4E4F5F54 
 9956      41494C5F 
 9956      43414C4C 
 9956      205F5F61 
 9957 751a 01       		.byte	0x1
 9958 751b 25       		.uleb128 0x25
 9959 751c 4546495F 		.ascii "EFI_OPTNONE __attribute__((__optimize__(\"0\")))\0"
 9959      4F50544E 
 9959      4F4E4520 
 9959      5F5F6174 
 9959      74726962 
 9960 754b 01       		.byte	0x1
 9961 754c 2C       		.uleb128 0x2c
 9962 754d 4546495F 		.ascii "EFI_ALIGN(x) __attribute__((__aligned__(x)))\0"
 9962      414C4947 
 9962      4E287829 
 9962      205F5F61 
 9962      74747269 
 9963 757a 01       		.byte	0x1
 9964 757b 30       		.uleb128 0x30
 9965 757c 414C4947 		.ascii "ALIGN(x) EFI_ALIGN(x)\0"
 9965      4E287829 
 9965      20454649 
 9965      5F414C49 
 9965      474E2878 
 9966 7592 01       		.byte	0x1
 9967 7593 36       		.uleb128 0x36
 9968 7594 4546495F 		.ascii "EFI_NORETURN __attribute__((noreturn))\0"
 9968      4E4F5245 
 9968      5455524E 
 9968      205F5F61 
 9968      74747269 
 9969 75bb 04       		.byte	0x4
 9970 75bc 03       		.byte	0x3
 9971 75bd 42       		.uleb128 0x42
 9972 75be 06       		.uleb128 0x6
 9973 75bf 01       		.byte	0x1
 9974 75c0 02       		.uleb128 0x2
 9975 75c1 5F454649 		.ascii "_EFI_DEF_H \0"
 9975      5F444546 
 9975      5F482000 
 9976 75cd 01       		.byte	0x1
 9977 75ce 22       		.uleb128 0x22
 9978 75cf 434F4E53 		.ascii "CONST const\0"
 9978      5420636F 
 9978      6E737400 
 9979 75db 01       		.byte	0x1
 9980 75dc 29       		.uleb128 0x29
 9981 75dd 54525545 		.ascii "TRUE ((BOOLEAN) 1)\0"
 9981      20282842 
 9981      4F4F4C45 
 9981      414E2920 
 9981      312900
 9982 75f0 01       		.byte	0x1
 9983 75f1 2A       		.uleb128 0x2a
 9984 75f2 46414C53 		.ascii "FALSE ((BOOLEAN) 0)\0"
 9984      45202828 
 9984      424F4F4C 
 9984      45414E29 
 9984      20302900 
 9985 7606 01       		.byte	0x1
 9986 7607 4B       		.uleb128 0x4b
 9987 7608 494E2000 		.ascii "IN \0"
 9988 760c 01       		.byte	0x1
 9989 760d 4C       		.uleb128 0x4c
 9990 760e 4F555420 		.ascii "OUT \0"
 9990      00
 9991 7613 01       		.byte	0x1
 9992 7614 4D       		.uleb128 0x4d
 9993 7615 4F505449 		.ascii "OPTIONAL \0"
 9993      4F4E414C 
 9993      2000
 9994 761f 01       		.byte	0x1
 9995 7620 70       		.uleb128 0x70
 9996 7621 4546495F 		.ascii "EFI_TIME_ADJUST_DAYLIGHT 0x01\0"
 9996      54494D45 
 9996      5F41444A 
 9996      5553545F 
 9996      4441594C 
 9997 763f 01       		.byte	0x1
 9998 7640 71       		.uleb128 0x71
 9999 7641 4546495F 		.ascii "EFI_TIME_IN_DAYLIGHT 0x02\0"
 9999      54494D45 
 9999      5F494E5F 
 9999      4441594C 
 9999      49474854 
 10000 765b 01       		.byte	0x1
 10001 765c 74       		.uleb128 0x74
 10002 765d 4546495F 		.ascii "EFI_UNSPECIFIED_TIMEZONE 0x07FF\0"
 10002      554E5350 
 10002      45434946 
 10002      4945445F 
 10002      54494D45 
 10003 767d 01       		.byte	0x1
 10004 767e C001     		.uleb128 0xc0
 10005 7680 4546495F 		.ascii "EFI_MEMORY_UC 0x0000000000000001\0"
 10005      4D454D4F 
 10005      52595F55 
 10005      43203078 
 10005      30303030 
 10006 76a1 01       		.byte	0x1
 10007 76a2 C101     		.uleb128 0xc1
 10008 76a4 4546495F 		.ascii "EFI_MEMORY_WC 0x0000000000000002\0"
 10008      4D454D4F 
 10008      52595F57 
 10008      43203078 
 10008      30303030 
 10009 76c5 01       		.byte	0x1
 10010 76c6 C201     		.uleb128 0xc2
 10011 76c8 4546495F 		.ascii "EFI_MEMORY_WT 0x0000000000000004\0"
 10011      4D454D4F 
 10011      52595F57 
 10011      54203078 
 10011      30303030 
 10012 76e9 01       		.byte	0x1
 10013 76ea C301     		.uleb128 0xc3
 10014 76ec 4546495F 		.ascii "EFI_MEMORY_WB 0x0000000000000008\0"
 10014      4D454D4F 
 10014      52595F57 
 10014      42203078 
 10014      30303030 
 10015 770d 01       		.byte	0x1
 10016 770e C401     		.uleb128 0xc4
 10017 7710 4546495F 		.ascii "EFI_MEMORY_UCE 0x0000000000000010\0"
 10017      4D454D4F 
 10017      52595F55 
 10017      43452030 
 10017      78303030 
 10018 7732 01       		.byte	0x1
 10019 7733 C701     		.uleb128 0xc7
 10020 7735 4546495F 		.ascii "EFI_MEMORY_WP 0x0000000000001000\0"
 10020      4D454D4F 
 10020      52595F57 
 10020      50203078 
 10020      30303030 
 10021 7756 01       		.byte	0x1
 10022 7757 C801     		.uleb128 0xc8
 10023 7759 4546495F 		.ascii "EFI_MEMORY_RP 0x0000000000002000\0"
 10023      4D454D4F 
 10023      52595F52 
 10023      50203078 
 10023      30303030 
 10024 777a 01       		.byte	0x1
 10025 777b C901     		.uleb128 0xc9
 10026 777d 4546495F 		.ascii "EFI_MEMORY_XP 0x0000000000004000\0"
 10026      4D454D4F 
 10026      52595F58 
 10026      50203078 
 10026      30303030 
 10027 779e 01       		.byte	0x1
 10028 779f CA01     		.uleb128 0xca
 10029 77a1 4546495F 		.ascii "EFI_MEMORY_RO 0x0000000000020000\0"
 10029      4D454D4F 
 10029      52595F52 
 10029      4F203078 
 10029      30303030 
 10030 77c2 01       		.byte	0x1
 10031 77c3 CD01     		.uleb128 0xcd
 10032 77c5 4546495F 		.ascii "EFI_MEMORY_NV 0x0000000000008000\0"
 10032      4D454D4F 
 10032      52595F4E 
 10032      56203078 
 10032      30303030 
 10033 77e6 01       		.byte	0x1
 10034 77e7 CE01     		.uleb128 0xce
 10035 77e9 4546495F 		.ascii "EFI_MEMORY_RUNTIME 0x8000000000000000\0"
 10035      4D454D4F 
 10035      52595F52 
 10035      554E5449 
 10035      4D452030 
 10036 780f 01       		.byte	0x1
 10037 7810 D101     		.uleb128 0xd1
 10038 7812 4546495F 		.ascii "EFI_MEMORY_MORE_RELIABLE 0x0000000000010000\0"
 10038      4D454D4F 
 10038      52595F4D 
 10038      4F52455F 
 10038      52454C49 
 10039 783e 01       		.byte	0x1
 10040 783f D201     		.uleb128 0xd2
 10041 7841 4546495F 		.ascii "EFI_MEMORY_SP 0x0000000000040000\0"
 10041      4D454D4F 
 10041      52595F53 
 10041      50203078 
 10041      30303030 
 10042 7862 01       		.byte	0x1
 10043 7863 D301     		.uleb128 0xd3
 10044 7865 4546495F 		.ascii "EFI_MEMORY_CPU_CRYPTO 0x0000000000080000\0"
 10044      4D454D4F 
 10044      52595F43 
 10044      50555F43 
 10044      52595054 
 10045 788e 01       		.byte	0x1
 10046 788f D401     		.uleb128 0xd4
 10047 7891 4546495F 		.ascii "EFI_MEMORY_ISA_VALID 0x4000000000000000\0"
 10047      4D454D4F 
 10047      52595F49 
 10047      53415F56 
 10047      414C4944 
 10048 78b9 01       		.byte	0x1
 10049 78ba D501     		.uleb128 0xd5
 10050 78bc 4546495F 		.ascii "EFI_MEMORY_ISA_MASK 0x0FFFF00000000000\0"
 10050      4D454D4F 
 10050      52595F49 
 10050      53415F4D 
 10050      41534B20 
 10051 78e3 01       		.byte	0x1
 10052 78e4 D801     		.uleb128 0xd8
 10053 78e6 4546495F 		.ascii "EFI_MEMORY_DESCRIPTOR_VERSION 1\0"
 10053      4D454D4F 
 10053      52595F44 
 10053      45534352 
 10053      4950544F 
 10054 7906 01       		.byte	0x1
 10055 7907 E701     		.uleb128 0xe7
 10056 7909 49534F5F 		.ascii "ISO_639_2_ENTRY_SIZE 3\0"
 10056      3633395F 
 10056      325F454E 
 10056      5452595F 
 10056      53495A45 
 10057 7920 01       		.byte	0x1
 10058 7921 ED01     		.uleb128 0xed
 10059 7923 4546495F 		.ascii "EFI_PAGE_SIZE 4096\0"
 10059      50414745 
 10059      5F53495A 
 10059      45203430 
 10059      393600
 10060 7936 01       		.byte	0x1
 10061 7937 EE01     		.uleb128 0xee
 10062 7939 4546495F 		.ascii "EFI_PAGE_MASK 0xFFF\0"
 10062      50414745 
 10062      5F4D4153 
 10062      4B203078 
 10062      46464600 
 10063 794d 01       		.byte	0x1
 10064 794e EF01     		.uleb128 0xef
 10065 7950 4546495F 		.ascii "EFI_PAGE_SHIFT 12\0"
 10065      50414745 
 10065      5F534849 
 10065      46542031 
 10065      3200
 10066 7962 01       		.byte	0x1
 10067 7963 F101     		.uleb128 0xf1
 10068 7965 4546495F 		.ascii "EFI_SIZE_TO_PAGES(a) ( ((a) >> EFI_PAGE_SHIFT) + ((a) & EFI_PAGE_MASK ? 1 : 0) )\0"
 10068      53495A45 
 10068      5F544F5F 
 10068      50414745 
 10068      53286129 
 10069 79b6 01       		.byte	0x1
 10070 79b7 F401     		.uleb128 0xf4
 10071 79b9 4546495F 		.ascii "EFI_OS_INDICATIONS_BOOT_TO_FW_UI 0x0000000000000001\0"
 10071      4F535F49 
 10071      4E444943 
 10071      4154494F 
 10071      4E535F42 
 10072 79ed 01       		.byte	0x1
 10073 79ee F501     		.uleb128 0xf5
 10074 79f0 4546495F 		.ascii "EFI_OS_INDICATIONS_TIMESTAMP_REVOCATION 0x0000000000000002\0"
 10074      4F535F49 
 10074      4E444943 
 10074      4154494F 
 10074      4E535F54 
 10075 7a2b 01       		.byte	0x1
 10076 7a2c F601     		.uleb128 0xf6
 10077 7a2e 4546495F 		.ascii "EFI_OS_INDICATIONS_FILE_CAPSULE_DELIVERY_SUPPORTED 0x0000000000000004\0"
 10077      4F535F49 
 10077      4E444943 
 10077      4154494F 
 10077      4E535F46 
 10078 7a74 01       		.byte	0x1
 10079 7a75 F801     		.uleb128 0xf8
 10080 7a77 4546495F 		.ascii "EFI_OS_INDICATIONS_FMP_CAPSULE_SUPPORTED 0x0000000000000008\0"
 10080      4F535F49 
 10080      4E444943 
 10080      4154494F 
 10080      4E535F46 
 10081 7ab3 01       		.byte	0x1
 10082 7ab4 FA01     		.uleb128 0xfa
 10083 7ab6 4546495F 		.ascii "EFI_OS_INDICATIONS_CAPSULE_RESULT_VAR_SUPPORTED 0x0000000000000010\0"
 10083      4F535F49 
 10083      4E444943 
 10083      4154494F 
 10083      4E535F43 
 10084 7af9 01       		.byte	0x1
 10085 7afa FC01     		.uleb128 0xfc
 10086 7afc 4546495F 		.ascii "EFI_OS_INDICATIONS_START_OS_RECOVERY 0x0000000000000020\0"
 10086      4F535F49 
 10086      4E444943 
 10086      4154494F 
 10086      4E535F53 
 10087 7b34 01       		.byte	0x1
 10088 7b35 FD01     		.uleb128 0xfd
 10089 7b37 4546495F 		.ascii "EFI_OS_INDICATIONS_START_PLATFORM_RECOVERY 0x0000000000000040\0"
 10089      4F535F49 
 10089      4E444943 
 10089      4154494F 
 10089      4E535F53 
 10090 7b75 01       		.byte	0x1
 10091 7b76 FF01     		.uleb128 0xff
 10092 7b78 4546495F 		.ascii "EFI_OS_INDICATIONS_JSON_CONFIG_DATA_REFRESH 0x0000000000000080\0"
 10092      4F535F49 
 10092      4E444943 
 10092      4154494F 
 10092      4E535F4A 
 10093 7bb7 04       		.byte	0x4
 10094 7bb8 03       		.byte	0x3
 10095 7bb9 43       		.uleb128 0x43
 10096 7bba 07       		.uleb128 0x7
 10097 7bbb 01       		.byte	0x1
 10098 7bbc 02       		.uleb128 0x2
 10099 7bbd 5F444556 		.ascii "_DEVPATH_H \0"
 10099      50415448 
 10099      5F482000 
 10100 7bc9 01       		.byte	0x1
 10101 7bca 23       		.uleb128 0x23
 10102 7bcb 4546495F 		.ascii "EFI_DP_TYPE_MASK 0x7F\0"
 10102      44505F54 
 10102      5950455F 
 10102      4D41534B 
 10102      20307837 
 10103 7be1 01       		.byte	0x1
 10104 7be2 24       		.uleb128 0x24
 10105 7be3 4546495F 		.ascii "EFI_DP_TYPE_UNPACKED 0x80\0"
 10105      44505F54 
 10105      5950455F 
 10105      554E5041 
 10105      434B4544 
 10106 7bfd 01       		.byte	0x1
 10107 7bfe 27       		.uleb128 0x27
 10108 7bff 454E445F 		.ascii "END_DEVICE_PATH_TYPE 0x7f\0"
 10108      44455649 
 10108      43455F50 
 10108      4154485F 
 10108      54595045 
 10109 7c19 01       		.byte	0x1
 10110 7c1a 2A       		.uleb128 0x2a
 10111 7c1b 454E445F 		.ascii "END_ENTIRE_DEVICE_PATH_SUBTYPE 0xff\0"
 10111      454E5449 
 10111      52455F44 
 10111      45564943 
 10111      455F5041 
 10112 7c3f 01       		.byte	0x1
 10113 7c40 2B       		.uleb128 0x2b
 10114 7c41 454E445F 		.ascii "END_INSTANCE_DEVICE_PATH_SUBTYPE 0x01\0"
 10114      494E5354 
 10114      414E4345 
 10114      5F444556 
 10114      4943455F 
 10115 7c67 01       		.byte	0x1
 10116 7c68 2C       		.uleb128 0x2c
 10117 7c69 454E445F 		.ascii "END_DEVICE_PATH_LENGTH (sizeof(EFI_DEVICE_PATH_PROTOCOL))\0"
 10117      44455649 
 10117      43455F50 
 10117      4154485F 
 10117      4C454E47 
 10118 7ca3 01       		.byte	0x1
 10119 7ca4 2F       		.uleb128 0x2f
 10120 7ca5 44505F49 		.ascii "DP_IS_END_TYPE(a) \0"
 10120      535F454E 
 10120      445F5459 
 10120      50452861 
 10120      292000
 10121 7cb8 01       		.byte	0x1
 10122 7cb9 30       		.uleb128 0x30
 10123 7cba 44505F49 		.ascii "DP_IS_END_SUBTYPE(a) ( ((a)->SubType == END_ENTIRE_DEVICE_PATH_SUBTYPE )\0"
 10123      535F454E 
 10123      445F5355 
 10123      42545950 
 10123      45286129 
 10124 7d03 01       		.byte	0x1
 10125 7d04 32       		.uleb128 0x32
 10126 7d05 44657669 		.ascii "DevicePathType(a) ( ((a)->Type) & EFI_DP_TYPE_MASK )\0"
 10126      63655061 
 10126      74685479 
 10126      70652861 
 10126      29202820 
 10127 7d3a 01       		.byte	0x1
 10128 7d3b 33       		.uleb128 0x33
 10129 7d3c 44657669 		.ascii "DevicePathSubType(a) ( (a)->SubType )\0"
 10129      63655061 
 10129      74685375 
 10129      62547970 
 10129      65286129 
 10130 7d62 01       		.byte	0x1
 10131 7d63 34       		.uleb128 0x34
 10132 7d64 44657669 		.ascii "DevicePathNodeLength(a) ( ((a)->Length[0]) | ((a)->Length[1] << 8) )\0"
 10132      63655061 
 10132      74684E6F 
 10132      64654C65 
 10132      6E677468 
 10133 7da9 01       		.byte	0x1
 10134 7daa 35       		.uleb128 0x35
 10135 7dab 4E657874 		.ascii "NextDevicePathNode(a) ( (EFI_DEVICE_PATH_PROTOCOL *) ( ((UINT8 *) (a)) + DevicePathNodeLen
 10135      44657669 
 10135      63655061 
 10135      74684E6F 
 10135      64652861 
 10136 7e0e 01       		.byte	0x1
 10137 7e0f 37       		.uleb128 0x37
 10138 7e10 49734465 		.ascii "IsDevicePathEndType(a) ( DevicePathType(a) == END_DEVICE_PATH_TYPE )\0"
 10138      76696365 
 10138      50617468 
 10138      456E6454 
 10138      79706528 
 10139 7e55 01       		.byte	0x1
 10140 7e56 38       		.uleb128 0x38
 10141 7e57 49734465 		.ascii "IsDevicePathEndSubType(a) ( (a)->SubType == END_ENTIRE_DEVICE_PATH_SUBTYPE )\0"
 10141      76696365 
 10141      50617468 
 10141      456E6453 
 10141      75625479 
 10142 7ea4 01       		.byte	0x1
 10143 7ea5 39       		.uleb128 0x39
 10144 7ea6 49734465 		.ascii "IsDevicePathEnd(a) ( IsDevicePathEndType(a) && IsDevicePathEndSubType(a) )\0"
 10144      76696365 
 10144      50617468 
 10144      456E6428 
 10144      61292028 
 10145 7ef1 01       		.byte	0x1
 10146 7ef2 3A       		.uleb128 0x3a
 10147 7ef3 49734465 		.ascii "IsDevicePathUnpacked(a) ( (a)->Type & EFI_DP_TYPE_UNPACKED )\0"
 10147      76696365 
 10147      50617468 
 10147      556E7061 
 10147      636B6564 
 10148 7f30 01       		.byte	0x1
 10149 7f31 3D       		.uleb128 0x3d
 10150 7f32 53657444 		.ascii "SetDevicePathNodeLength(a,l) { (a)->Length[0] = (UINT8) (l); (a)->Length[1] = (UINT8) ((l)
 10150      65766963 
 10150      65506174 
 10150      684E6F64 
 10150      654C656E 
 10151 7f96 01       		.byte	0x1
 10152 7f97 42       		.uleb128 0x42
 10153 7f98 53657444 		.ascii "SetDevicePathEndNode(a) { (a)->Type = END_DEVICE_PATH_TYPE; (a)->SubType = END_ENTIRE_DEVI
 10153      65766963 
 10153      65506174 
 10153      68456E64 
 10153      4E6F6465 
 10154 804c 01       		.byte	0x1
 10155 804d 4E       		.uleb128 0x4e
 10156 804e 48415244 		.ascii "HARDWARE_DEVICE_PATH 0x01\0"
 10156      57415245 
 10156      5F444556 
 10156      4943455F 
 10156      50415448 
 10157 8068 01       		.byte	0x1
 10158 8069 50       		.uleb128 0x50
 10159 806a 48575F50 		.ascii "HW_PCI_DP 0x01\0"
 10159      43495F44 
 10159      50203078 
 10159      303100
 10160 8079 01       		.byte	0x1
 10161 807a 57       		.uleb128 0x57
 10162 807b 48575F50 		.ascii "HW_PCCARD_DP 0x02\0"
 10162      43434152 
 10162      445F4450 
 10162      20307830 
 10162      3200
 10163 808d 01       		.byte	0x1
 10164 808e 5D       		.uleb128 0x5d
 10165 808f 48575F4D 		.ascii "HW_MEMMAP_DP 0x03\0"
 10165      454D4D41 
 10165      505F4450 
 10165      20307830 
 10165      3300
 10166 80a1 01       		.byte	0x1
 10167 80a2 65       		.uleb128 0x65
 10168 80a3 48575F56 		.ascii "HW_VENDOR_DP 0x04\0"
 10168      454E444F 
 10168      525F4450 
 10168      20307830 
 10168      3400
 10169 80b5 01       		.byte	0x1
 10170 80b6 6B       		.uleb128 0x6b
 10171 80b7 554E4B4E 		.ascii "UNKNOWN_DEVICE_GUID { 0xcf31fac5, 0xc24e, 0x11d2, {0x85, 0xf3, 0x0, 0xa0, 0xc9, 0x3e, 0xc9
 10171      4F574E5F 
 10171      44455649 
 10171      43455F47 
 10171      55494420 
 10172 811b 01       		.byte	0x1
 10173 811c 73       		.uleb128 0x73
 10174 811d 48575F43 		.ascii "HW_CONTROLLER_DP 0x05\0"
 10174      4F4E5452 
 10174      4F4C4C45 
 10174      525F4450 
 10174      20307830 
 10175 8133 01       		.byte	0x1
 10176 8134 7D       		.uleb128 0x7d
 10177 8135 41435049 		.ascii "ACPI_DEVICE_PATH 0x02\0"
 10177      5F444556 
 10177      4943455F 
 10177      50415448 
 10177      20307830 
 10178 814b 01       		.byte	0x1
 10179 814c 7F       		.uleb128 0x7f
 10180 814d 41435049 		.ascii "ACPI_DP 0x01\0"
 10180      5F445020 
 10180      30783031 
 10180      00
 10181 815a 01       		.byte	0x1
 10182 815b 8601     		.uleb128 0x86
 10183 815d 45585041 		.ascii "EXPANDED_ACPI_DP 0x02\0"
 10183      4E444544 
 10183      5F414350 
 10183      495F4450 
 10183      20307830 
 10184 8173 01       		.byte	0x1
 10185 8174 8F01     		.uleb128 0x8f
 10186 8176 41435049 		.ascii "ACPI_ADR_DP 3\0"
 10186      5F414452 
 10186      5F445020 
 10186      3300
 10187 8184 01       		.byte	0x1
 10188 8185 9C01     		.uleb128 0x9c
 10189 8187 504E505F 		.ascii "PNP_EISA_ID_CONST 0x41d0\0"
 10189      45495341 
 10189      5F49445F 
 10189      434F4E53 
 10189      54203078 
 10190 81a0 01       		.byte	0x1
 10191 81a1 9D01     		.uleb128 0x9d
 10192 81a3 45495341 		.ascii "EISA_ID(_Name,_Num) ((UINT32) ((_Name) | (_Num) << 16))\0"
 10192      5F494428 
 10192      5F4E616D 
 10192      652C5F4E 
 10192      756D2920 
 10193 81db 01       		.byte	0x1
 10194 81dc 9E01     		.uleb128 0x9e
 10195 81de 45495341 		.ascii "EISA_PNP_ID(_PNPId) (EISA_ID(PNP_EISA_ID_CONST, (_PNPId)))\0"
 10195      5F504E50 
 10195      5F494428 
 10195      5F504E50 
 10195      49642920 
 10196 8219 01       		.byte	0x1
 10197 821a A001     		.uleb128 0xa0
 10198 821c 504E505F 		.ascii "PNP_EISA_ID_MASK 0xffff\0"
 10198      45495341 
 10198      5F49445F 
 10198      4D41534B 
 10198      20307866 
 10199 8234 01       		.byte	0x1
 10200 8235 A101     		.uleb128 0xa1
 10201 8237 45495341 		.ascii "EISA_ID_TO_NUM(_Id) ((_Id) >> 16)\0"
 10201      5F49445F 
 10201      544F5F4E 
 10201      554D285F 
 10201      49642920 
 10202 8259 01       		.byte	0x1
 10203 825a A701     		.uleb128 0xa7
 10204 825c 4D455353 		.ascii "MESSAGING_DEVICE_PATH 0x03\0"
 10204      4147494E 
 10204      475F4445 
 10204      56494345 
 10204      5F504154 
 10205 8277 01       		.byte	0x1
 10206 8278 A901     		.uleb128 0xa9
 10207 827a 4D53475F 		.ascii "MSG_ATAPI_DP 0x01\0"
 10207      41544150 
 10207      495F4450 
 10207      20307830 
 10207      3100
 10208 828c 01       		.byte	0x1
 10209 828d B101     		.uleb128 0xb1
 10210 828f 4D53475F 		.ascii "MSG_SCSI_DP 0x02\0"
 10210      53435349 
 10210      5F445020 
 10210      30783032 
 10210      00
 10211 82a0 01       		.byte	0x1
 10212 82a1 B801     		.uleb128 0xb8
 10213 82a3 4D53475F 		.ascii "MSG_FIBRECHANNEL_DP 0x03\0"
 10213      46494252 
 10213      45434841 
 10213      4E4E454C 
 10213      5F445020 
 10214 82bc 01       		.byte	0x1
 10215 82bd C401     		.uleb128 0xc4
 10216 82bf 4D53475F 		.ascii "MSG_FIBRECHANNELEX_DP 21\0"
 10216      46494252 
 10216      45434841 
 10216      4E4E454C 
 10216      45585F44 
 10217 82d8 01       		.byte	0x1
 10218 82d9 CC01     		.uleb128 0xcc
 10219 82db 4D53475F 		.ascii "MSG_1394_DP 0x04\0"
 10219      31333934 
 10219      5F445020 
 10219      30783034 
 10219      00
 10220 82ec 01       		.byte	0x1
 10221 82ed D301     		.uleb128 0xd3
 10222 82ef 4D53475F 		.ascii "MSG_USB_DP 0x05\0"
 10222      5553425F 
 10222      44502030 
 10222      78303500 
 10223 82ff 01       		.byte	0x1
 10224 8300 DE01     		.uleb128 0xde
 10225 8302 4D53475F 		.ascii "MSG_SATA_DP 18\0"
 10225      53415441 
 10225      5F445020 
 10225      313800
 10226 8311 01       		.byte	0x1
 10227 8312 EA01     		.uleb128 0xea
 10228 8314 4D53475F 		.ascii "MSG_USB_WWID_DP 16\0"
 10228      5553425F 
 10228      57574944 
 10228      5F445020 
 10228      313600
 10229 8327 01       		.byte	0x1
 10230 8328 F701     		.uleb128 0xf7
 10231 832a 4D53475F 		.ascii "MSG_DEVICE_LOGICAL_UNIT_DP 17\0"
 10231      44455649 
 10231      43455F4C 
 10231      4F474943 
 10231      414C5F55 
 10232 8348 01       		.byte	0x1
 10233 8349 FD01     		.uleb128 0xfd
 10234 834b 4D53475F 		.ascii "MSG_USB_CLASS_DP 0x0F\0"
 10234      5553425F 
 10234      434C4153 
 10234      535F4450 
 10234      20307830 
 10235 8361 01       		.byte	0x1
 10236 8362 8702     		.uleb128 0x107
 10237 8364 4D53475F 		.ascii "MSG_I2O_DP 0x06\0"
 10237      49324F5F 
 10237      44502030 
 10237      78303600 
 10238 8374 01       		.byte	0x1
 10239 8375 8D02     		.uleb128 0x10d
 10240 8377 4D53475F 		.ascii "MSG_MAC_ADDR_DP 0x0b\0"
 10240      4D41435F 
 10240      41444452 
 10240      5F445020 
 10240      30783062 
 10241 838c 01       		.byte	0x1
 10242 838d 9402     		.uleb128 0x114
 10243 838f 4D53475F 		.ascii "MSG_IPv4_DP 0x0c\0"
 10243      49507634 
 10243      5F445020 
 10243      30783063 
 10243      00
 10244 83a0 01       		.byte	0x1
 10245 83a1 A202     		.uleb128 0x122
 10246 83a3 4D53475F 		.ascii "MSG_IPv6_DP 0x0d\0"
 10246      49507636 
 10246      5F445020 
 10246      30783064 
 10246      00
 10247 83b4 01       		.byte	0x1
 10248 83b5 B502     		.uleb128 0x135
 10249 83b7 4D53475F 		.ascii "MSG_URI_DP 24\0"
 10249      5552495F 
 10249      44502032 
 10249      3400
 10250 83c5 01       		.byte	0x1
 10251 83c6 BF02     		.uleb128 0x13f
 10252 83c8 4D53475F 		.ascii "MSG_VLAN_DP 20\0"
 10252      564C414E 
 10252      5F445020 
 10252      323000
 10253 83d7 01       		.byte	0x1
 10254 83d8 C502     		.uleb128 0x145
 10255 83da 4D53475F 		.ascii "MSG_INFINIBAND_DP 0x09\0"
 10255      494E4649 
 10255      4E494241 
 10255      4E445F44 
 10255      50203078 
 10256 83f1 01       		.byte	0x1
 10257 83f2 CF02     		.uleb128 0x14f
 10258 83f4 4D53475F 		.ascii "MSG_UART_DP 0x0e\0"
 10258      55415254 
 10258      5F445020 
 10258      30783065 
 10258      00
 10259 8405 01       		.byte	0x1
 10260 8406 D902     		.uleb128 0x159
 10261 8408 4D53475F 		.ascii "MSG_VENDOR_DP 0x0A\0"
 10261      56454E44 
 10261      4F525F44 
 10261      50203078 
 10261      304100
 10262 841b 01       		.byte	0x1
 10263 841c DC02     		.uleb128 0x15c
 10264 841e 4546495F 		.ascii "EFI_PC_ANSI_GUID { 0xe0c14753, 0xf9be, 0x11d2, {0x9a, 0x0c, 0x00, 0x90, 0x27, 0x3f, 0xc1, 
 10264      50435F41 
 10264      4E53495F 
 10264      47554944 
 10264      207B2030 
 10265 8480 01       		.byte	0x1
 10266 8481 DE02     		.uleb128 0x15e
 10267 8483 44455649 		.ascii "DEVICE_PATH_MESSAGING_PC_ANSI EFI_PC_ANSI_GUID\0"
 10267      43455F50 
 10267      4154485F 
 10267      4D455353 
 10267      4147494E 
 10268 84b2 01       		.byte	0x1
 10269 84b3 E002     		.uleb128 0x160
 10270 84b5 4546495F 		.ascii "EFI_VT_100_GUID { 0xdfa66065, 0xb419, 0x11d3, {0x9a, 0x2d, 0x00, 0x90, 0x27, 0x3f, 0xc1, 0
 10270      56545F31 
 10270      30305F47 
 10270      55494420 
 10270      7B203078 
 10271 8516 01       		.byte	0x1
 10272 8517 E202     		.uleb128 0x162
 10273 8519 44455649 		.ascii "DEVICE_PATH_MESSAGING_VT_100 EFI_VT_100_GUID\0"
 10273      43455F50 
 10273      4154485F 
 10273      4D455353 
 10273      4147494E 
 10274 8546 01       		.byte	0x1
 10275 8547 E402     		.uleb128 0x164
 10276 8549 4546495F 		.ascii "EFI_VT_100_PLUS_GUID { 0x7baec70b, 0x57e0, 0x4c76, {0x8e, 0x87, 0x2f, 0x9e, 0x28, 0x08, 0x
 10276      56545F31 
 10276      30305F50 
 10276      4C55535F 
 10276      47554944 
 10277 85af 01       		.byte	0x1
 10278 85b0 E602     		.uleb128 0x166
 10279 85b2 44455649 		.ascii "DEVICE_PATH_MESSAGING_VT_100_PLUS EFI_VT_100_PLUS_GUID\0"
 10279      43455F50 
 10279      4154485F 
 10279      4D455353 
 10279      4147494E 
 10280 85e9 01       		.byte	0x1
 10281 85ea E802     		.uleb128 0x168
 10282 85ec 4546495F 		.ascii "EFI_VT_UTF8_GUID { 0xad15a0d6, 0x8bec, 0x4acf, {0xa0, 0x73, 0xd0, 0x1d, 0xe7, 0x7e, 0x2d, 
 10282      56545F55 
 10282      5446385F 
 10282      47554944 
 10282      207B2030 
 10283 864e 01       		.byte	0x1
 10284 864f EA02     		.uleb128 0x16a
 10285 8651 44455649 		.ascii "DEVICE_PATH_MESSAGING_VT_UTF8 EFI_VT_UTF8_GUID\0"
 10285      43455F50 
 10285      4154485F 
 10285      4D455353 
 10285      4147494E 
 10286 8680 01       		.byte	0x1
 10287 8681 F002     		.uleb128 0x170
 10288 8683 4D454449 		.ascii "MEDIA_DEVICE_PATH 0x04\0"
 10288      415F4445 
 10288      56494345 
 10288      5F504154 
 10288      48203078 
 10289 869a 01       		.byte	0x1
 10290 869b F202     		.uleb128 0x172
 10291 869d 4D454449 		.ascii "MEDIA_HARDDRIVE_DP 0x01\0"
 10291      415F4841 
 10291      52444452 
 10291      4956455F 
 10291      44502030 
 10292 86b5 01       		.byte	0x1
 10293 86b6 FD02     		.uleb128 0x17d
 10294 86b8 4D42525F 		.ascii "MBR_TYPE_PCAT 0x01\0"
 10294      54595045 
 10294      5F504341 
 10294      54203078 
 10294      303100
 10295 86cb 01       		.byte	0x1
 10296 86cc FE02     		.uleb128 0x17e
 10297 86ce 4D42525F 		.ascii "MBR_TYPE_EFI_PARTITION_TABLE_HEADER 0x02\0"
 10297      54595045 
 10297      5F454649 
 10297      5F504152 
 10297      54495449 
 10298 86f7 01       		.byte	0x1
 10299 86f8 8003     		.uleb128 0x180
 10300 86fa 5349474E 		.ascii "SIGNATURE_TYPE_MBR 0x01\0"
 10300      41545552 
 10300      455F5459 
 10300      50455F4D 
 10300      42522030 
 10301 8712 01       		.byte	0x1
 10302 8713 8103     		.uleb128 0x181
 10303 8715 5349474E 		.ascii "SIGNATURE_TYPE_GUID 0x02\0"
 10303      41545552 
 10303      455F5459 
 10303      50455F47 
 10303      55494420 
 10304 872e 01       		.byte	0x1
 10305 872f 8303     		.uleb128 0x183
 10306 8731 4D454449 		.ascii "MEDIA_CDROM_DP 0x02\0"
 10306      415F4344 
 10306      524F4D5F 
 10306      44502030 
 10306      78303200 
 10307 8745 01       		.byte	0x1
 10308 8746 8B03     		.uleb128 0x18b
 10309 8748 4D454449 		.ascii "MEDIA_VENDOR_DP 0x03\0"
 10309      415F5645 
 10309      4E444F52 
 10309      5F445020 
 10309      30783033 
 10310 875d 01       		.byte	0x1
 10311 875e 8E03     		.uleb128 0x18e
 10312 8760 4D454449 		.ascii "MEDIA_FILEPATH_DP 0x04\0"
 10312      415F4649 
 10312      4C455041 
 10312      54485F44 
 10312      50203078 
 10313 8777 01       		.byte	0x1
 10314 8778 9403     		.uleb128 0x194
 10315 877a 53495A45 		.ascii "SIZE_OF_FILEPATH_DEVICE_PATH EFI_FIELD_OFFSET(FILEPATH_DEVICE_PATH,PathName)\0"
 10315      5F4F465F 
 10315      46494C45 
 10315      50415448 
 10315      5F444556 
 10316 87c7 01       		.byte	0x1
 10317 87c8 9603     		.uleb128 0x196
 10318 87ca 4D454449 		.ascii "MEDIA_PROTOCOL_DP 0x05\0"
 10318      415F5052 
 10318      4F544F43 
 10318      4F4C5F44 
 10318      50203078 
 10319 87e1 01       		.byte	0x1
 10320 87e2 A003     		.uleb128 0x1a0
 10321 87e4 4D454449 		.ascii "MEDIA_PIWG_FW_FILE_DP 6\0"
 10321      415F5049 
 10321      57475F46 
 10321      575F4649 
 10321      4C455F44 
 10322 87fc 01       		.byte	0x1
 10323 87fd AA03     		.uleb128 0x1aa
 10324 87ff 4D454449 		.ascii "MEDIA_PIWG_FW_VOL_DP 7\0"
 10324      415F5049 
 10324      57475F46 
 10324      575F564F 
 10324      4C5F4450 
 10325 8816 01       		.byte	0x1
 10326 8817 B403     		.uleb128 0x1b4
 10327 8819 4D454449 		.ascii "MEDIA_RELATIVE_OFFSET_RANGE_DP 8\0"
 10327      415F5245 
 10327      4C415449 
 10327      56455F4F 
 10327      46465345 
 10328 883a 01       		.byte	0x1
 10329 883b C003     		.uleb128 0x1c0
 10330 883d 4242535F 		.ascii "BBS_DEVICE_PATH 0x05\0"
 10330      44455649 
 10330      43455F50 
 10330      41544820 
 10330      30783035 
 10331 8852 01       		.byte	0x1
 10332 8853 C203     		.uleb128 0x1c2
 10333 8855 4242535F 		.ascii "BBS_BBS_DP 0x01\0"
 10333      4242535F 
 10333      44502030 
 10333      78303100 
 10334 8865 01       		.byte	0x1
 10335 8866 CB03     		.uleb128 0x1cb
 10336 8868 4242535F 		.ascii "BBS_TYPE_FLOPPY 0x01\0"
 10336      54595045 
 10336      5F464C4F 
 10336      50505920 
 10336      30783031 
 10337 887d 01       		.byte	0x1
 10338 887e CC03     		.uleb128 0x1cc
 10339 8880 4242535F 		.ascii "BBS_TYPE_HARDDRIVE 0x02\0"
 10339      54595045 
 10339      5F484152 
 10339      44445249 
 10339      56452030 
 10340 8898 01       		.byte	0x1
 10341 8899 CD03     		.uleb128 0x1cd
 10342 889b 4242535F 		.ascii "BBS_TYPE_CDROM 0x03\0"
 10342      54595045 
 10342      5F434452 
 10342      4F4D2030 
 10342      78303300 
 10343 88af 01       		.byte	0x1
 10344 88b0 CE03     		.uleb128 0x1ce
 10345 88b2 4242535F 		.ascii "BBS_TYPE_PCMCIA 0x04\0"
 10345      54595045 
 10345      5F50434D 
 10345      43494120 
 10345      30783034 
 10346 88c7 01       		.byte	0x1
 10347 88c8 CF03     		.uleb128 0x1cf
 10348 88ca 4242535F 		.ascii "BBS_TYPE_USB 0x05\0"
 10348      54595045 
 10348      5F555342 
 10348      20307830 
 10348      3500
 10349 88dc 01       		.byte	0x1
 10350 88dd D003     		.uleb128 0x1d0
 10351 88df 4242535F 		.ascii "BBS_TYPE_EMBEDDED_NETWORK 0x06\0"
 10351      54595045 
 10351      5F454D42 
 10351      45444445 
 10351      445F4E45 
 10352 88fe 01       		.byte	0x1
 10353 88ff D103     		.uleb128 0x1d1
 10354 8901 4242535F 		.ascii "BBS_TYPE_DEV 0x80\0"
 10354      54595045 
 10354      5F444556 
 10354      20307838 
 10354      3000
 10355 8913 01       		.byte	0x1
 10356 8914 D203     		.uleb128 0x1d2
 10357 8916 4242535F 		.ascii "BBS_TYPE_UNKNOWN 0xFF\0"
 10357      54595045 
 10357      5F554E4B 
 10357      4E4F574E 
 10357      20307846 
 10358 892c 01       		.byte	0x1
 10359 892d 9A04     		.uleb128 0x21a
 10360 892f 4546495F 		.ascii "EFI_DEVICE_PATH_TO_TEXT_PROTOCOL_GUID { 0x8b843e20, 0x8132, 0x4852, {0x90, 0xcc, 0x55, 0x1
 10360      44455649 
 10360      43455F50 
 10360      4154485F 
 10360      544F5F54 
 10361 89a6 01       		.byte	0x1
 10362 89a7 B204     		.uleb128 0x232
 10363 89a9 4546495F 		.ascii "EFI_DEVICE_PATH_FROM_TEXT_PROTOCOL_GUID { 0x5c99a21, 0xc70f, 0x4ad2, {0x8a, 0x5f, 0x35, 0x
 10363      44455649 
 10363      43455F50 
 10363      4154485F 
 10363      46524F4D 
 10364 8a21 01       		.byte	0x1
 10365 8a22 C604     		.uleb128 0x246
 10366 8a24 4546495F 		.ascii "EFI_DEVICE_PATH_UTILITIES_PROTOCOL_GUID { 0x379be4e, 0xd706, 0x437d, {0xb0, 0x37, 0xed, 0x
 10366      44455649 
 10366      43455F50 
 10366      4154485F 
 10366      5554494C 
 10367 8a9c 04       		.byte	0x4
 10368              		.file 22 "gnu-efi-3.0.18/inc/efipciio.h"
 10369 8a9d 03       		.byte	0x3
 10370 8a9e 44       		.uleb128 0x44
 10371 8a9f 16       		.uleb128 0x16
 10372 8aa0 01       		.byte	0x1
 10373 8aa1 02       		.uleb128 0x2
 10374 8aa2 5F454649 		.ascii "_EFI_PCI_IO_H \0"
 10374      5F504349 
 10374      5F494F5F 
 10374      482000
 10375 8ab1 01       		.byte	0x1
 10376 8ab2 04       		.uleb128 0x4
 10377 8ab3 4546495F 		.ascii "EFI_PCI_IO_PROTOCOL_GUID { 0x4cf5b200, 0x68b8, 0x4ca5, {0x9e, 0xec, 0xb2, 0x3e, 0x3f, 0x50
 10377      5043495F 
 10377      494F5F50 
 10377      524F544F 
 10377      434F4C5F 
 10378 8b1d 01       		.byte	0x1
 10379 8b1e 07       		.uleb128 0x7
 10380 8b1f 4546495F 		.ascii "EFI_PCI_ROOT_BRIDGE_IO_PROTOCOL_GUID { 0x2f707ebb, 0x4a1a, 0x11d4, {0x9a, 0x38, 0x00, 0x90
 10380      5043495F 
 10380      524F4F54 
 10380      5F425249 
 10380      4447455F 
 10381 8b95 01       		.byte	0x1
 10382 8b96 1D       		.uleb128 0x1d
 10383 8b97 4546495F 		.ascii "EFI_PCI_IO_PASS_THROUGH_BAR 0xff\0"
 10383      5043495F 
 10383      494F5F50 
 10383      4153535F 
 10383      5448524F 
 10384 8bb8 01       		.byte	0x1
 10385 8bb9 F401     		.uleb128 0xf4
 10386 8bbb 4546495F 		.ascii "EFI_PCI_ATTRIBUTE_ISA_MOTHERBOARD_IO 0x0001\0"
 10386      5043495F 
 10386      41545452 
 10386      49425554 
 10386      455F4953 
 10387 8be7 01       		.byte	0x1
 10388 8be8 F501     		.uleb128 0xf5
 10389 8bea 4546495F 		.ascii "EFI_PCI_ATTRIBUTE_ISA_IO 0x0002\0"
 10389      5043495F 
 10389      41545452 
 10389      49425554 
 10389      455F4953 
 10390 8c0a 01       		.byte	0x1
 10391 8c0b F601     		.uleb128 0xf6
 10392 8c0d 4546495F 		.ascii "EFI_PCI_ATTRIBUTE_VGA_PALETTE_IO 0x0004\0"
 10392      5043495F 
 10392      41545452 
 10392      49425554 
 10392      455F5647 
 10393 8c35 01       		.byte	0x1
 10394 8c36 F701     		.uleb128 0xf7
 10395 8c38 4546495F 		.ascii "EFI_PCI_ATTRIBUTE_VGA_MEMORY 0x0008\0"
 10395      5043495F 
 10395      41545452 
 10395      49425554 
 10395      455F5647 
 10396 8c5c 01       		.byte	0x1
 10397 8c5d F801     		.uleb128 0xf8
 10398 8c5f 4546495F 		.ascii "EFI_PCI_ATTRIBUTE_VGA_IO 0x0010\0"
 10398      5043495F 
 10398      41545452 
 10398      49425554 
 10398      455F5647 
 10399 8c7f 01       		.byte	0x1
 10400 8c80 F901     		.uleb128 0xf9
 10401 8c82 4546495F 		.ascii "EFI_PCI_ATTRIBUTE_IDE_PRIMARY_IO 0x0020\0"
 10401      5043495F 
 10401      41545452 
 10401      49425554 
 10401      455F4944 
 10402 8caa 01       		.byte	0x1
 10403 8cab FA01     		.uleb128 0xfa
 10404 8cad 4546495F 		.ascii "EFI_PCI_ATTRIBUTE_IDE_SECONDARY_IO 0x0040\0"
 10404      5043495F 
 10404      41545452 
 10404      49425554 
 10404      455F4944 
 10405 8cd7 01       		.byte	0x1
 10406 8cd8 FB01     		.uleb128 0xfb
 10407 8cda 4546495F 		.ascii "EFI_PCI_ATTRIBUTE_MEMORY_WRITE_COMBINE 0x0080\0"
 10407      5043495F 
 10407      41545452 
 10407      49425554 
 10407      455F4D45 
 10408 8d08 01       		.byte	0x1
 10409 8d09 FC01     		.uleb128 0xfc
 10410 8d0b 4546495F 		.ascii "EFI_PCI_ATTRIBUTE_IO 0x0100\0"
 10410      5043495F 
 10410      41545452 
 10410      49425554 
 10410      455F494F 
 10411 8d27 01       		.byte	0x1
 10412 8d28 FD01     		.uleb128 0xfd
 10413 8d2a 4546495F 		.ascii "EFI_PCI_ATTRIBUTE_MEMORY 0x0200\0"
 10413      5043495F 
 10413      41545452 
 10413      49425554 
 10413      455F4D45 
 10414 8d4a 01       		.byte	0x1
 10415 8d4b FE01     		.uleb128 0xfe
 10416 8d4d 4546495F 		.ascii "EFI_PCI_ATTRIBUTE_BUS_MASTER 0x0400\0"
 10416      5043495F 
 10416      41545452 
 10416      49425554 
 10416      455F4255 
 10417 8d71 01       		.byte	0x1
 10418 8d72 FF01     		.uleb128 0xff
 10419 8d74 4546495F 		.ascii "EFI_PCI_ATTRIBUTE_MEMORY_CACHED 0x0800\0"
 10419      5043495F 
 10419      41545452 
 10419      49425554 
 10419      455F4D45 
 10420 8d9b 01       		.byte	0x1
 10421 8d9c 8002     		.uleb128 0x100
 10422 8d9e 4546495F 		.ascii "EFI_PCI_ATTRIBUTE_MEMORY_DISABLE 0x1000\0"
 10422      5043495F 
 10422      41545452 
 10422      49425554 
 10422      455F4D45 
 10423 8dc6 01       		.byte	0x1
 10424 8dc7 8102     		.uleb128 0x101
 10425 8dc9 4546495F 		.ascii "EFI_PCI_ATTRIBUTE_EMBEDDED_DEVICE 0x2000\0"
 10425      5043495F 
 10425      41545452 
 10425      49425554 
 10425      455F454D 
 10426 8df2 01       		.byte	0x1
 10427 8df3 8202     		.uleb128 0x102
 10428 8df5 4546495F 		.ascii "EFI_PCI_ATTRIBUTE_EMBEDDED_ROM 0x4000\0"
 10428      5043495F 
 10428      41545452 
 10428      49425554 
 10428      455F454D 
 10429 8e1b 01       		.byte	0x1
 10430 8e1c 8302     		.uleb128 0x103
 10431 8e1e 4546495F 		.ascii "EFI_PCI_ATTRIBUTE_DUAL_ADDRESS_CYCLE 0x8000\0"
 10431      5043495F 
 10431      41545452 
 10431      49425554 
 10431      455F4455 
 10432 8e4a 01       		.byte	0x1
 10433 8e4b 8402     		.uleb128 0x104
 10434 8e4d 4546495F 		.ascii "EFI_PCI_ATTRIBUTE_ISA_IO_16 0x10000\0"
 10434      5043495F 
 10434      41545452 
 10434      49425554 
 10434      455F4953 
 10435 8e71 01       		.byte	0x1
 10436 8e72 8502     		.uleb128 0x105
 10437 8e74 4546495F 		.ascii "EFI_PCI_ATTRIBUTE_VGA_PALETTE_IO_16 0x20000\0"
 10437      5043495F 
 10437      41545452 
 10437      49425554 
 10437      455F5647 
 10438 8ea0 01       		.byte	0x1
 10439 8ea1 8602     		.uleb128 0x106
 10440 8ea3 4546495F 		.ascii "EFI_PCI_ATTRIBUTE_VGA_IO_16 0x40000\0"
 10440      5043495F 
 10440      41545452 
 10440      49425554 
 10440      455F5647 
 10441 8ec7 01       		.byte	0x1
 10442 8ec8 8802     		.uleb128 0x108
 10443 8eca 4546495F 		.ascii "EFI_PCI_IO_ATTRIBUTE_ISA_MOTHERBOARD_IO EFI_PCI_ATTRIBUTE_ISA_MOTHERBOARD_IO\0"
 10443      5043495F 
 10443      494F5F41 
 10443      54545249 
 10443      42555445 
 10444 8f17 01       		.byte	0x1
 10445 8f18 8902     		.uleb128 0x109
 10446 8f1a 4546495F 		.ascii "EFI_PCI_IO_ATTRIBUTE_ISA_IO EFI_PCI_ATTRIBUTE_ISA_IO\0"
 10446      5043495F 
 10446      494F5F41 
 10446      54545249 
 10446      42555445 
 10447 8f4f 01       		.byte	0x1
 10448 8f50 8A02     		.uleb128 0x10a
 10449 8f52 4546495F 		.ascii "EFI_PCI_IO_ATTRIBUTE_VGA_PALETTE_IO EFI_PCI_ATTRIBUTE_VGA_PALETTE_IO\0"
 10449      5043495F 
 10449      494F5F41 
 10449      54545249 
 10449      42555445 
 10450 8f97 01       		.byte	0x1
 10451 8f98 8B02     		.uleb128 0x10b
 10452 8f9a 4546495F 		.ascii "EFI_PCI_IO_ATTRIBUTE_VGA_MEMORY EFI_PCI_ATTRIBUTE_VGA_MEMORY\0"
 10452      5043495F 
 10452      494F5F41 
 10452      54545249 
 10452      42555445 
 10453 8fd7 01       		.byte	0x1
 10454 8fd8 8C02     		.uleb128 0x10c
 10455 8fda 4546495F 		.ascii "EFI_PCI_IO_ATTRIBUTE_VGA_IO EFI_PCI_ATTRIBUTE_VGA_IO\0"
 10455      5043495F 
 10455      494F5F41 
 10455      54545249 
 10455      42555445 
 10456 900f 01       		.byte	0x1
 10457 9010 8D02     		.uleb128 0x10d
 10458 9012 4546495F 		.ascii "EFI_PCI_IO_ATTRIBUTE_IDE_PRIMARY_IO EFI_PCI_ATTRIBUTE_IDE_PRIMARY_IO\0"
 10458      5043495F 
 10458      494F5F41 
 10458      54545249 
 10458      42555445 
 10459 9057 01       		.byte	0x1
 10460 9058 8E02     		.uleb128 0x10e
 10461 905a 4546495F 		.ascii "EFI_PCI_IO_ATTRIBUTE_IDE_SECONDARY_IO EFI_PCI_ATTRIBUTE_IDE_SECONDARY_IO\0"
 10461      5043495F 
 10461      494F5F41 
 10461      54545249 
 10461      42555445 
 10462 90a3 01       		.byte	0x1
 10463 90a4 8F02     		.uleb128 0x10f
 10464 90a6 4546495F 		.ascii "EFI_PCI_IO_ATTRIBUTE_MEMORY_WRITE_COMBINE EFI_PCI_ATTRIBUTE_MEMORY_WRITE_COMBINE\0"
 10464      5043495F 
 10464      494F5F41 
 10464      54545249 
 10464      42555445 
 10465 90f7 01       		.byte	0x1
 10466 90f8 9002     		.uleb128 0x110
 10467 90fa 4546495F 		.ascii "EFI_PCI_IO_ATTRIBUTE_IO EFI_PCI_ATTRIBUTE_IO\0"
 10467      5043495F 
 10467      494F5F41 
 10467      54545249 
 10467      42555445 
 10468 9127 01       		.byte	0x1
 10469 9128 9102     		.uleb128 0x111
 10470 912a 4546495F 		.ascii "EFI_PCI_IO_ATTRIBUTE_MEMORY EFI_PCI_ATTRIBUTE_MEMORY\0"
 10470      5043495F 
 10470      494F5F41 
 10470      54545249 
 10470      42555445 
 10471 915f 01       		.byte	0x1
 10472 9160 9202     		.uleb128 0x112
 10473 9162 4546495F 		.ascii "EFI_PCI_IO_ATTRIBUTE_BUS_MASTER EFI_PCI_ATTRIBUTE_BUS_MASTER\0"
 10473      5043495F 
 10473      494F5F41 
 10473      54545249 
 10473      42555445 
 10474 919f 01       		.byte	0x1
 10475 91a0 9302     		.uleb128 0x113
 10476 91a2 4546495F 		.ascii "EFI_PCI_IO_ATTRIBUTE_MEMORY_CACHED EFI_PCI_ATTRIBUTE_MEMORY_CACHED\0"
 10476      5043495F 
 10476      494F5F41 
 10476      54545249 
 10476      42555445 
 10477 91e5 01       		.byte	0x1
 10478 91e6 9402     		.uleb128 0x114
 10479 91e8 4546495F 		.ascii "EFI_PCI_IO_ATTRIBUTE_MEMORY_DISABLE EFI_PCI_ATTRIBUTE_MEMORY_DISABLE\0"
 10479      5043495F 
 10479      494F5F41 
 10479      54545249 
 10479      42555445 
 10480 922d 01       		.byte	0x1
 10481 922e 9502     		.uleb128 0x115
 10482 9230 4546495F 		.ascii "EFI_PCI_IO_ATTRIBUTE_EMBEDDED_DEVICE EFI_PCI_ATTRIBUTE_EMBEDDED_DEVICE\0"
 10482      5043495F 
 10482      494F5F41 
 10482      54545249 
 10482      42555445 
 10483 9277 01       		.byte	0x1
 10484 9278 9602     		.uleb128 0x116
 10485 927a 4546495F 		.ascii "EFI_PCI_IO_ATTRIBUTE_EMBEDDED_ROM EFI_PCI_ATTRIBUTE_EMBEDDED_ROM\0"
 10485      5043495F 
 10485      494F5F41 
 10485      54545249 
 10485      42555445 
 10486 92bb 01       		.byte	0x1
 10487 92bc 9702     		.uleb128 0x117
 10488 92be 4546495F 		.ascii "EFI_PCI_IO_ATTRIBUTE_DUAL_ADDRESS_CYCLE EFI_PCI_ATTRIBUTE_DUAL_ADDRESS_CYCLE\0"
 10488      5043495F 
 10488      494F5F41 
 10488      54545249 
 10488      42555445 
 10489 930b 01       		.byte	0x1
 10490 930c 9802     		.uleb128 0x118
 10491 930e 4546495F 		.ascii "EFI_PCI_IO_ATTRIBUTE_ISA_IO_16 EFI_PCI_ATTRIBUTE_ISA_IO_16\0"
 10491      5043495F 
 10491      494F5F41 
 10491      54545249 
 10491      42555445 
 10492 9349 01       		.byte	0x1
 10493 934a 9902     		.uleb128 0x119
 10494 934c 4546495F 		.ascii "EFI_PCI_IO_ATTRIBUTE_VGA_PALETTE_IO_16 EFI_PCI_ATTRIBUTE_VGA_PALETTE_IO_16\0"
 10494      5043495F 
 10494      494F5F41 
 10494      54545249 
 10494      42555445 
 10495 9397 01       		.byte	0x1
 10496 9398 9A02     		.uleb128 0x11a
 10497 939a 4546495F 		.ascii "EFI_PCI_IO_ATTRIBUTE_VGA_IO_16 EFI_PCI_ATTRIBUTE_VGA_IO_16\0"
 10497      5043495F 
 10497      494F5F41 
 10497      54545249 
 10497      42555445 
 10498 93d5 01       		.byte	0x1
 10499 93d6 9C02     		.uleb128 0x11c
 10500 93d8 4546495F 		.ascii "EFI_PCI_ATTRIBUTE_VALID_FOR_ALLOCATE_BUFFER (EFI_PCI_ATTRIBUTE_MEMORY_WRITE_COMBINE | EFI_
 10500      5043495F 
 10500      41545452 
 10500      49425554 
 10500      455F5641 
 10501 9476 01       		.byte	0x1
 10502 9477 9F02     		.uleb128 0x11f
 10503 9479 4546495F 		.ascii "EFI_PCI_ATTRIBUTE_INVALID_FOR_ALLOCATE_BUFFER (~EFI_PCI_ATTRIBUTE_VALID_FOR_ALLOCATE_BUFFE
 10503      5043495F 
 10503      41545452 
 10503      49425554 
 10503      455F494E 
 10504 94d6 04       		.byte	0x4
 10505 94d7 03       		.byte	0x3
 10506 94d8 45       		.uleb128 0x45
 10507 94d9 08       		.uleb128 0x8
 10508 94da 01       		.byte	0x1
 10509 94db 02       		.uleb128 0x2
 10510 94dc 5F454649 		.ascii "_EFI_PROT_H \0"
 10510      5F50524F 
 10510      545F4820 
 10510      00
 10511 94e9 01       		.byte	0x1
 10512 94ea 19       		.uleb128 0x19
 10513 94eb 4546495F 		.ascii "EFI_FPSWA_PROTOCOL_GUID { 0xc41b6531, 0x97b9, 0x11d3, {0x9a, 0x29, 0x0, 0x90, 0x27, 0x3f, 
 10513      46505357 
 10513      415F5052 
 10513      4F544F43 
 10513      4F4C5F47 
 10514 9553 01       		.byte	0x1
 10515 9554 1B       		.uleb128 0x1b
 10516 9555 46505357 		.ascii "FPSWA_PROTOCOL EFI_FPSWA_PROTOCOL_GUID\0"
 10516      415F5052 
 10516      4F544F43 
 10516      4F4C2045 
 10516      46495F46 
 10517 957c 01       		.byte	0x1
 10518 957d 21       		.uleb128 0x21
 10519 957e 4546495F 		.ascii "EFI_DEVICE_PATH_PROTOCOL_GUID { 0x9576e91, 0x6d3f, 0x11d2, {0x8e, 0x39, 0x0, 0xa0, 0xc9, 0
 10519      44455649 
 10519      43455F50 
 10519      4154485F 
 10519      50524F54 
 10520 95eb 01       		.byte	0x1
 10521 95ec 23       		.uleb128 0x23
 10522 95ed 44455649 		.ascii "DEVICE_PATH_PROTOCOL EFI_DEVICE_PATH_PROTOCOL_GUID\0"
 10522      43455F50 
 10522      4154485F 
 10522      50524F54 
 10522      4F434F4C 
 10523 9620 01       		.byte	0x1
 10524 9621 2A       		.uleb128 0x2a
 10525 9622 4546495F 		.ascii "EFI_BLOCK_IO_PROTOCOL_GUID { 0x964e5b21, 0x6459, 0x11d2, {0x8e, 0x39, 0x0, 0xa0, 0xc9, 0x6
 10525      424C4F43 
 10525      4B5F494F 
 10525      5F50524F 
 10525      544F434F 
 10526 968d 01       		.byte	0x1
 10527 968e 2C       		.uleb128 0x2c
 10528 968f 424C4F43 		.ascii "BLOCK_IO_PROTOCOL EFI_BLOCK_IO_PROTOCOL_GUID\0"
 10528      4B5F494F 
 10528      5F50524F 
 10528      544F434F 
 10528      4C204546 
 10529 96bc 01       		.byte	0x1
 10530 96bd 2E       		.uleb128 0x2e
 10531 96be 4546495F 		.ascii "EFI_BLOCK_IO_PROTOCOL_REVISION 0x00010000\0"
 10531      424C4F43 
 10531      4B5F494F 
 10531      5F50524F 
 10531      544F434F 
 10532 96e8 01       		.byte	0x1
 10533 96e9 2F       		.uleb128 0x2f
 10534 96ea 4546495F 		.ascii "EFI_BLOCK_IO_PROTOCOL_REVISION2 0x00020001\0"
 10534      424C4F43 
 10534      4B5F494F 
 10534      5F50524F 
 10534      544F434F 
 10535 9715 01       		.byte	0x1
 10536 9716 30       		.uleb128 0x30
 10537 9717 4546495F 		.ascii "EFI_BLOCK_IO_PROTOCOL_REVISION3 ((2<<16) | 31)\0"
 10537      424C4F43 
 10537      4B5F494F 
 10537      5F50524F 
 10537      544F434F 
 10538 9746 01       		.byte	0x1
 10539 9747 31       		.uleb128 0x31
 10540 9748 4546495F 		.ascii "EFI_BLOCK_IO_INTERFACE_REVISION EFI_BLOCK_IO_PROTOCOL_REVISION\0"
 10540      424C4F43 
 10540      4B5F494F 
 10540      5F494E54 
 10540      45524641 
 10541 9787 01       		.byte	0x1
 10542 9788 32       		.uleb128 0x32
 10543 9789 4546495F 		.ascii "EFI_BLOCK_IO_INTERFACE_REVISION2 EFI_BLOCK_IO_PROTOCOL_REVISION2\0"
 10543      424C4F43 
 10543      4B5F494F 
 10543      5F494E54 
 10543      45524641 
 10544 97ca 01       		.byte	0x1
 10545 97cb 33       		.uleb128 0x33
 10546 97cc 4546495F 		.ascii "EFI_BLOCK_IO_INTERFACE_REVISION3 EFI_BLOCK_IO_PROTOCOL_REVISION3\0"
 10546      424C4F43 
 10546      4B5F494F 
 10546      5F494E54 
 10546      45524641 
 10547 980d 01       		.byte	0x1
 10548 980e 8001     		.uleb128 0x80
 10549 9810 4546495F 		.ascii "EFI_BLOCK_IO2_PROTOCOL_GUID { 0xa77b2472, 0xe282, 0x4e9f, {0xa2, 0x45, 0xc2, 0xc0, 0xe2, 0
 10549      424C4F43 
 10549      4B5F494F 
 10549      325F5052 
 10549      4F544F43 
 10550 987d 01       		.byte	0x1
 10551 987e BA01     		.uleb128 0xba
 10552 9880 4546495F 		.ascii "EFI_DISK_IO_PROTOCOL_GUID { 0xce345171, 0xba0b, 0x11d2, {0x8e, 0x4f, 0x0, 0xa0, 0xc9, 0x69
 10552      4449534B 
 10552      5F494F5F 
 10552      50524F54 
 10552      4F434F4C 
 10553 98ea 01       		.byte	0x1
 10554 98eb BC01     		.uleb128 0xbc
 10555 98ed 4449534B 		.ascii "DISK_IO_PROTOCOL EFI_DISK_IO_PROTOCOL_GUID\0"
 10555      5F494F5F 
 10555      50524F54 
 10555      4F434F4C 
 10555      20454649 
 10556 9918 01       		.byte	0x1
 10557 9919 BE01     		.uleb128 0xbe
 10558 991b 4546495F 		.ascii "EFI_DISK_IO_PROTOCOL_REVISION 0x00010000\0"
 10558      4449534B 
 10558      5F494F5F 
 10558      50524F54 
 10558      4F434F4C 
 10559 9944 01       		.byte	0x1
 10560 9945 BF01     		.uleb128 0xbf
 10561 9947 4546495F 		.ascii "EFI_DISK_IO_INTERFACE_REVISION EFI_DISK_IO_PROTOCOL_REVISION\0"
 10561      4449534B 
 10561      5F494F5F 
 10561      494E5445 
 10561      52464143 
 10562 9984 01       		.byte	0x1
 10563 9985 E301     		.uleb128 0xe3
 10564 9987 4546495F 		.ascii "EFI_DISK_IO2_PROTOCOL_GUID { 0x151c8eae, 0x7f2c, 0x472c, {0x9e, 0x54, 0x98, 0x28, 0x19, 0x
 10564      4449534B 
 10564      5F494F32 
 10564      5F50524F 
 10564      544F434F 
 10565 99f3 01       		.byte	0x1
 10566 99f4 E601     		.uleb128 0xe6
 10567 99f6 4546495F 		.ascii "EFI_DISK_IO2_PROTOCOL_REVISION 0x00020000\0"
 10567      4449534B 
 10567      5F494F32 
 10567      5F50524F 
 10567      544F434F 
 10568 9a20 01       		.byte	0x1
 10569 9a21 9E02     		.uleb128 0x11e
 10570 9a23 4546495F 		.ascii "EFI_SIMPLE_FILE_SYSTEM_PROTOCOL_GUID { 0x964e5b22, 0x6459, 0x11d2, {0x8e, 0x39, 0x0, 0xa0,
 10570      53494D50 
 10570      4C455F46 
 10570      494C455F 
 10570      53595354 
 10571 9a98 01       		.byte	0x1
 10572 9a99 A002     		.uleb128 0x120
 10573 9a9b 53494D50 		.ascii "SIMPLE_FILE_SYSTEM_PROTOCOL EFI_SIMPLE_FILE_SYSTEM_PROTOCOL_GUID\0"
 10573      4C455F46 
 10573      494C455F 
 10573      53595354 
 10573      454D5F50 
 10574 9adc 01       		.byte	0x1
 10575 9add AC02     		.uleb128 0x12c
 10576 9adf 4546495F 		.ascii "EFI_SIMPLE_FILE_SYSTEM_PROTOCOL_REVISION 0x00010000\0"
 10576      53494D50 
 10576      4C455F46 
 10576      494C455F 
 10576      53595354 
 10577 9b13 01       		.byte	0x1
 10578 9b14 AD02     		.uleb128 0x12d
 10579 9b16 4546495F 		.ascii "EFI_FILE_IO_INTERFACE_REVISION EFI_SIMPLE_FILE_SYSTEM_PROTOCOL_REVISION\0"
 10579      46494C45 
 10579      5F494F5F 
 10579      494E5445 
 10579      52464143 
 10580 9b5e 01       		.byte	0x1
 10581 9b5f C602     		.uleb128 0x146
 10582 9b61 4546495F 		.ascii "EFI_FILE_MODE_READ 0x0000000000000001\0"
 10582      46494C45 
 10582      5F4D4F44 
 10582      455F5245 
 10582      41442030 
 10583 9b87 01       		.byte	0x1
 10584 9b88 C702     		.uleb128 0x147
 10585 9b8a 4546495F 		.ascii "EFI_FILE_MODE_WRITE 0x0000000000000002\0"
 10585      46494C45 
 10585      5F4D4F44 
 10585      455F5752 
 10585      49544520 
 10586 9bb1 01       		.byte	0x1
 10587 9bb2 C802     		.uleb128 0x148
 10588 9bb4 4546495F 		.ascii "EFI_FILE_MODE_CREATE 0x8000000000000000\0"
 10588      46494C45 
 10588      5F4D4F44 
 10588      455F4352 
 10588      45415445 
 10589 9bdc 01       		.byte	0x1
 10590 9bdd CB02     		.uleb128 0x14b
 10591 9bdf 4546495F 		.ascii "EFI_FILE_READ_ONLY 0x0000000000000001\0"
 10591      46494C45 
 10591      5F524541 
 10591      445F4F4E 
 10591      4C592030 
 10592 9c05 01       		.byte	0x1
 10593 9c06 CC02     		.uleb128 0x14c
 10594 9c08 4546495F 		.ascii "EFI_FILE_HIDDEN 0x0000000000000002\0"
 10594      46494C45 
 10594      5F484944 
 10594      44454E20 
 10594      30783030 
 10595 9c2b 01       		.byte	0x1
 10596 9c2c CD02     		.uleb128 0x14d
 10597 9c2e 4546495F 		.ascii "EFI_FILE_SYSTEM 0x0000000000000004\0"
 10597      46494C45 
 10597      5F535953 
 10597      54454D20 
 10597      30783030 
 10598 9c51 01       		.byte	0x1
 10599 9c52 CE02     		.uleb128 0x14e
 10600 9c54 4546495F 		.ascii "EFI_FILE_RESERVIED 0x0000000000000008\0"
 10600      46494C45 
 10600      5F524553 
 10600      45525649 
 10600      45442030 
 10601 9c7a 01       		.byte	0x1
 10602 9c7b CF02     		.uleb128 0x14f
 10603 9c7d 4546495F 		.ascii "EFI_FILE_DIRECTORY 0x0000000000000010\0"
 10603      46494C45 
 10603      5F444952 
 10603      4543544F 
 10603      52592030 
 10604 9ca3 01       		.byte	0x1
 10605 9ca4 D002     		.uleb128 0x150
 10606 9ca6 4546495F 		.ascii "EFI_FILE_ARCHIVE 0x0000000000000020\0"
 10606      46494C45 
 10606      5F415243 
 10606      48495645 
 10606      20307830 
 10607 9cca 01       		.byte	0x1
 10608 9ccb D102     		.uleb128 0x151
 10609 9ccd 4546495F 		.ascii "EFI_FILE_VALID_ATTR 0x0000000000000037\0"
 10609      46494C45 
 10609      5F56414C 
 10609      49445F41 
 10609      54545220 
 10610 9cf4 01       		.byte	0x1
 10611 9cf5 BC03     		.uleb128 0x1bc
 10612 9cf7 4546495F 		.ascii "EFI_FILE_PROTOCOL_REVISION 0x00010000\0"
 10612      46494C45 
 10612      5F50524F 
 10612      544F434F 
 10612      4C5F5245 
 10613 9d1d 01       		.byte	0x1
 10614 9d1e BD03     		.uleb128 0x1bd
 10615 9d20 4546495F 		.ascii "EFI_FILE_PROTOCOL_REVISION2 0x00020000\0"
 10615      46494C45 
 10615      5F50524F 
 10615      544F434F 
 10615      4C5F5245 
 10616 9d47 01       		.byte	0x1
 10617 9d48 BE03     		.uleb128 0x1be
 10618 9d4a 4546495F 		.ascii "EFI_FILE_PROTOCOL_LATEST_REVISION EFI_FILE_PROTOCOL_REVISION2\0"
 10618      46494C45 
 10618      5F50524F 
 10618      544F434F 
 10618      4C5F4C41 
 10619 9d88 01       		.byte	0x1
 10620 9d89 BF03     		.uleb128 0x1bf
 10621 9d8b 4546495F 		.ascii "EFI_FILE_HANDLE_REVISION EFI_FILE_PROTOCOL_REVISION\0"
 10621      46494C45 
 10621      5F48414E 
 10621      444C455F 
 10621      52455649 
 10622 9dbf 01       		.byte	0x1
 10623 9dc0 DA03     		.uleb128 0x1da
 10624 9dc2 4546495F 		.ascii "EFI_FILE_INFO_ID { 0x9576e92, 0x6d3f, 0x11d2, {0x8e, 0x39, 0x0, 0xa0, 0xc9, 0x69, 0x72, 0x
 10624      46494C45 
 10624      5F494E46 
 10624      4F5F4944 
 10624      207B2030 
 10625 9e22 01       		.byte	0x1
 10626 9e23 F003     		.uleb128 0x1f0
 10627 9e25 53495A45 		.ascii "SIZE_OF_EFI_FILE_INFO EFI_FIELD_OFFSET(EFI_FILE_INFO,FileName)\0"
 10627      5F4F465F 
 10627      4546495F 
 10627      46494C45 
 10627      5F494E46 
 10628 9e64 01       		.byte	0x1
 10629 9e65 F203     		.uleb128 0x1f2
 10630 9e67 4546495F 		.ascii "EFI_FILE_SYSTEM_INFO_ID { 0x9576e93, 0x6d3f, 0x11d2, {0x8e, 0x39, 0x0, 0xa0, 0xc9, 0x69, 0
 10630      46494C45 
 10630      5F535953 
 10630      54454D5F 
 10630      494E464F 
 10631 9ece 01       		.byte	0x1
 10632 9ecf 8604     		.uleb128 0x206
 10633 9ed1 53495A45 		.ascii "SIZE_OF_EFI_FILE_SYSTEM_INFO EFI_FIELD_OFFSET(EFI_FILE_SYSTEM_INFO,VolumeLabel)\0"
 10633      5F4F465F 
 10633      4546495F 
 10633      46494C45 
 10633      5F535953 
 10634 9f21 01       		.byte	0x1
 10635 9f22 8804     		.uleb128 0x208
 10636 9f24 4546495F 		.ascii "EFI_FILE_SYSTEM_VOLUME_LABEL_ID { 0xDB47D7D3,0xFE81, 0x11d3, {0x9A, 0x35, 0x00, 0x90, 0x27
 10636      46494C45 
 10636      5F535953 
 10636      54454D5F 
 10636      564F4C55 
 10637 9f94 01       		.byte	0x1
 10638 9f95 8F04     		.uleb128 0x20f
 10639 9f97 53495A45 		.ascii "SIZE_OF_EFI_FILE_SYSTEM_VOLUME_LABEL_INFO EFI_FIELD_OFFSET(EFI_FILE_SYSTEM_VOLUME_LABEL,Vo
 10639      5F4F465F 
 10639      4546495F 
 10639      46494C45 
 10639      5F535953 
 10640 9ffc 01       		.byte	0x1
 10641 9ffd 9404     		.uleb128 0x214
 10642 9fff 4546495F 		.ascii "EFI_FILE_SYSTEM_VOLUME_LABEL_INFO_ID EFI_FILE_SYSTEM_VOLUME_LABEL_ID\0"
 10642      46494C45 
 10642      5F535953 
 10642      54454D5F 
 10642      564F4C55 
 10643 a044 01       		.byte	0x1
 10644 a045 9504     		.uleb128 0x215
 10645 a047 4546495F 		.ascii "EFI_FILE_SYSTEM_VOLUME_LABEL_INFO EFI_FILE_SYSTEM_VOLUME_LABEL\0"
 10645      46494C45 
 10645      5F535953 
 10645      54454D5F 
 10645      564F4C55 
 10646 a086 01       		.byte	0x1
 10647 a087 9C04     		.uleb128 0x21c
 10648 a089 4546495F 		.ascii "EFI_LOAD_FILE_PROTOCOL_GUID { 0x56EC3091, 0x954C, 0x11d2, {0x8E, 0x3F, 0x00, 0xA0, 0xC9, 0
 10648      4C4F4144 
 10648      5F46494C 
 10648      455F5052 
 10648      4F544F43 
 10649 a0f6 01       		.byte	0x1
 10650 a0f7 9E04     		.uleb128 0x21e
 10651 a0f9 4C4F4144 		.ascii "LOAD_FILE_PROTOCOL EFI_LOAD_FILE_PROTOCOL_GUID\0"
 10651      5F46494C 
 10651      455F5052 
 10651      4F544F43 
 10651      4F4C2045 
 10652 a128 01       		.byte	0x1
 10653 a129 B704     		.uleb128 0x237
 10654 a12b 4546495F 		.ascii "EFI_DEVICE_IO_PROTOCOL_GUID { 0xaf6ac311, 0x84c3, 0x11d2, {0x8e, 0x3c, 0x00, 0xa0, 0xc9, 0
 10654      44455649 
 10654      43455F49 
 10654      4F5F5052 
 10654      4F544F43 
 10655 a198 01       		.byte	0x1
 10656 a199 B904     		.uleb128 0x239
 10657 a19b 44455649 		.ascii "DEVICE_IO_PROTOCOL EFI_DEVICE_IO_PROTOCOL_GUID\0"
 10657      43455F49 
 10657      4F5F5052 
 10657      4F544F43 
 10657      4F4C2045 
 10658 a1ca 01       		.byte	0x1
 10659 a1cb CB04     		.uleb128 0x24b
 10660 a1cd 4546495F 		.ascii "EFI_PCI_ADDRESS(_bus,_dev,_func) ( (UINT64) ( (((UINTN)_bus) << 24) + (((UINTN)_dev) << 16
 10660      5043495F 
 10660      41444452 
 10660      45535328 
 10660      5F627573 
 10661 a245 01       		.byte	0x1
 10662 a246 A905     		.uleb128 0x2a9
 10663 a248 4546495F 		.ascii "EFI_UNICODE_COLLATION_PROTOCOL_GUID { 0x1d85cd7f, 0xf43d, 0x11d2, {0x9a, 0xc, 0x0, 0x90, 0
 10663      554E4943 
 10663      4F44455F 
 10663      434F4C4C 
 10663      4154494F 
 10664 a2bb 01       		.byte	0x1
 10665 a2bc AB05     		.uleb128 0x2ab
 10666 a2be 554E4943 		.ascii "UNICODE_COLLATION_PROTOCOL EFI_UNICODE_COLLATION_PROTOCOL_GUID\0"
 10666      4F44455F 
 10666      434F4C4C 
 10666      4154494F 
 10666      4E5F5052 
 10667 a2fd 01       		.byte	0x1
 10668 a2fe AD05     		.uleb128 0x2ad
 10669 a300 4546495F 		.ascii "EFI_UNICODE_BYTE_ORDER_MARK (CHAR16)(0xfeff)\0"
 10669      554E4943 
 10669      4F44455F 
 10669      42595445 
 10669      5F4F5244 
 10670 a32d 01       		.byte	0x1
 10671 a32e AE05     		.uleb128 0x2ae
 10672 a330 554E4943 		.ascii "UNICODE_BYTE_ORDER_MARK EFI_UNICODE_BYTE_ORDER_MARK\0"
 10672      4F44455F 
 10672      42595445 
 10672      5F4F5244 
 10672      45525F4D 
 10673 a364 01       		.byte	0x1
 10674 a365 E505     		.uleb128 0x2e5
 10675 a367 4546495F 		.ascii "EFI_HASH_PROTOCOL_GUID { 0xC5184932, 0xDBA5, 0x46DB, { 0xA5, 0xBA, 0xCC, 0x0B, 0xDA, 0x9C,
 10675      48415348 
 10675      5F50524F 
 10675      544F434F 
 10675      4C5F4755 
 10676 a3d1 01       		.byte	0x1
 10677 a3d2 E705     		.uleb128 0x2e7
 10678 a3d4 48415348 		.ascii "HASH_PROTOCOL EFI_HASH_PROTOCOL_GUID\0"
 10678      5F50524F 
 10678      544F434F 
 10678      4C204546 
 10678      495F4841 
 10679 a3f9 01       		.byte	0x1
 10680 a3fa E905     		.uleb128 0x2e9
 10681 a3fc 4546495F 		.ascii "EFI_HASH_ALGORITHM_SHA1_GUID { 0x2AE9D80F, 0x3FB2, 0x4095, { 0xB7, 0xB1, 0xE9, 0x31, 0x57,
 10681      48415348 
 10681      5F414C47 
 10681      4F524954 
 10681      484D5F53 
 10682 a46c 01       		.byte	0x1
 10683 a46d EB05     		.uleb128 0x2eb
 10684 a46f 4546495F 		.ascii "EFI_HASH_ALGORITHM_SHA1 EFI_HASH_ALGORITHM_SHA1_GUID\0"
 10684      48415348 
 10684      5F414C47 
 10684      4F524954 
 10684      484D5F53 
 10685 a4a4 01       		.byte	0x1
 10686 a4a5 ED05     		.uleb128 0x2ed
 10687 a4a7 4546495F 		.ascii "EFI_HASH_ALGORITHM_SHA224_GUID { 0x8DF01A06, 0x9BD5, 0x4BF7, { 0xB0, 0x21, 0xDB, 0x4F, 0xD
 10687      48415348 
 10687      5F414C47 
 10687      4F524954 
 10687      484D5F53 
 10688 a519 01       		.byte	0x1
 10689 a51a EF05     		.uleb128 0x2ef
 10690 a51c 4546495F 		.ascii "EFI_HASH_ALGORITHM_SHA224 EFI_HASH_ALGORITHM_SHA224_GUID\0"
 10690      48415348 
 10690      5F414C47 
 10690      4F524954 
 10690      484D5F53 
 10691 a555 01       		.byte	0x1
 10692 a556 F105     		.uleb128 0x2f1
 10693 a558 4546495F 		.ascii "EFI_HASH_ALGORITHM_SHA256_GUID { 0x51AA59DE, 0xFDF2, 0x4EA3, { 0xBC, 0x63, 0x87, 0x5F, 0xB
 10693      48415348 
 10693      5F414C47 
 10693      4F524954 
 10693      484D5F53 
 10694 a5ca 01       		.byte	0x1
 10695 a5cb F305     		.uleb128 0x2f3
 10696 a5cd 4546495F 		.ascii "EFI_HASH_ALGORITHM_SHA256 EFI_HASH_ALGORITHM_SHA256_GUID\0"
 10696      48415348 
 10696      5F414C47 
 10696      4F524954 
 10696      484D5F53 
 10697 a606 01       		.byte	0x1
 10698 a607 F505     		.uleb128 0x2f5
 10699 a609 4546495F 		.ascii "EFI_HASH_ALGORITHM_SHA384_GUID { 0xEFA96432, 0xDE33, 0x4DD2, { 0xAE, 0xE6, 0x32, 0x8C, 0x3
 10699      48415348 
 10699      5F414C47 
 10699      4F524954 
 10699      484D5F53 
 10700 a67b 01       		.byte	0x1
 10701 a67c F705     		.uleb128 0x2f7
 10702 a67e 4546495F 		.ascii "EFI_HASH_ALGORITHM_SHA384 EFI_HASH_ALGORITHM_SHA384_GUID\0"
 10702      48415348 
 10702      5F414C47 
 10702      4F524954 
 10702      484D5F53 
 10703 a6b7 01       		.byte	0x1
 10704 a6b8 F905     		.uleb128 0x2f9
 10705 a6ba 4546495F 		.ascii "EFI_HASH_ALGORITHM_SHA512_GUID { 0xCAA4381E, 0x750C, 0x4770, { 0xB8, 0x70, 0x7A, 0x23, 0xB
 10705      48415348 
 10705      5F414C47 
 10705      4F524954 
 10705      484D5F53 
 10706 a72c 01       		.byte	0x1
 10707 a72d FB05     		.uleb128 0x2fb
 10708 a72f 4546495F 		.ascii "EFI_HASH_ALGORITHM_SHA512 EFI_HASH_ALGORITHM_SHA512_GUID\0"
 10708      48415348 
 10708      5F414C47 
 10708      4F524954 
 10708      484D5F53 
 10709 a768 01       		.byte	0x1
 10710 a769 FD05     		.uleb128 0x2fd
 10711 a76b 4546495F 		.ascii "EFI_HASH_ALGORITHM_MD5_GUID { 0x0AF7C79C, 0x65B5, 0x4319, { 0xB0, 0xAE, 0x44, 0xEC, 0x48, 
 10711      48415348 
 10711      5F414C47 
 10711      4F524954 
 10711      484D5F4D 
 10712 a7da 01       		.byte	0x1
 10713 a7db FF05     		.uleb128 0x2ff
 10714 a7dd 4546495F 		.ascii "EFI_HASH_ALGORITHM_MD5 EFI_HASH_ALGORITHM_MD5_GUID\0"
 10714      48415348 
 10714      5F414C47 
 10714      4F524954 
 10714      484D5F4D 
 10715 a810 01       		.byte	0x1
 10716 a811 8106     		.uleb128 0x301
 10717 a813 4546495F 		.ascii "EFI_HASH_ALGORITHM_SHA1_NOPAD_GUID { 0x24C5DC2F, 0x53E2, 0x40CA, { 0x9E, 0xD6, 0xA5, 0xD9,
 10717      48415348 
 10717      5F414C47 
 10717      4F524954 
 10717      484D5F53 
 10718 a889 01       		.byte	0x1
 10719 a88a 8306     		.uleb128 0x303
 10720 a88c 4546495F 		.ascii "EFI_HASH_ALGORITHM_SHA1_NOPAD EFI_HASH_ALGORITHM_SHA1_NOPAD_GUID\0"
 10720      48415348 
 10720      5F414C47 
 10720      4F524954 
 10720      484D5F53 
 10721 a8cd 01       		.byte	0x1
 10722 a8ce 8506     		.uleb128 0x305
 10723 a8d0 4546495F 		.ascii "EFI_HASH_ALGORITHM_SHA256_NOPAD_GUID { 0x8628752A, 0x6CB7, 0x4814, { 0x96, 0xFC, 0x24, 0xA
 10723      48415348 
 10723      5F414C47 
 10723      4F524954 
 10723      484D5F53 
 10724 a948 01       		.byte	0x1
 10725 a949 8706     		.uleb128 0x307
 10726 a94b 4546495F 		.ascii "EFI_HASH_ALGORITHM_SHA256_NOPAD EFI_HASH_ALGORITHM_SHA256_NOPAD_GUID\0"
 10726      48415348 
 10726      5F414C47 
 10726      4F524954 
 10726      484D5F53 
 10727 a990 01       		.byte	0x1
 10728 a991 C706     		.uleb128 0x347
 10729 a993 4546495F 		.ascii "EFI_GRAPHICS_OUTPUT_PROTOCOL_GUID { 0x9042a9de, 0x23dc, 0x4a38, {0x96, 0xfb, 0x7a, 0xde, 0
 10729      47524150 
 10729      48494353 
 10729      5F4F5554 
 10729      5055545F 
 10730 aa07 01       		.byte	0x1
 10731 aa08 F307     		.uleb128 0x3f3
 10732 aa0a 4546495F 		.ascii "EFI_EDID_DISCOVERED_PROTOCOL_GUID { 0x1C0C34F6, 0xD380, 0x41FA, { 0xA0, 0x49, 0x8a, 0xD0, 
 10732      45444944 
 10732      5F444953 
 10732      434F5645 
 10732      5245445F 
 10733 aa7e 01       		.byte	0x1
 10734 aa7f 8108     		.uleb128 0x401
 10735 aa81 4546495F 		.ascii "EFI_EDID_ACTIVE_PROTOCOL_GUID { 0xBD8C1056, 0x9F36, 0x44EC, { 0x92, 0xA8, 0xA6, 0x33, 0x7F
 10735      45444944 
 10735      5F414354 
 10735      4956455F 
 10735      50524F54 
 10736 aaf1 01       		.byte	0x1
 10737 aaf2 8F08     		.uleb128 0x40f
 10738 aaf4 4546495F 		.ascii "EFI_EDID_OVERRIDE_PROTOCOL_GUID { 0x48ECB431, 0xFB72, 0x45C0, { 0xA9, 0x22, 0xF4, 0x58, 0x
 10738      45444944 
 10738      5F4F5645 
 10738      52524944 
 10738      455F5052 
 10739 ab66 01       		.byte	0x1
 10740 ab67 BE08     		.uleb128 0x43e
 10741 ab69 4546495F 		.ascii "EFI_DRIVER_BINDING_PROTOCOL_GUID { 0x18A031AB, 0xB443, 0x4D1A, { 0xA5, 0xC0, 0x0C, 0x09, 0
 10741      44524956 
 10741      45525F42 
 10741      494E4449 
 10741      4E475F50 
 10742 abdc 01       		.byte	0x1
 10743 abdd C008     		.uleb128 0x440
 10744 abdf 44524956 		.ascii "DRIVER_BINDING_PROTOCOL EFI_DRIVER_BINDING_PROTOCOL_GUID\0"
 10744      45525F42 
 10744      494E4449 
 10744      4E475F50 
 10744      524F544F 
 10745 ac18 01       		.byte	0x1
 10746 ac19 EA08     		.uleb128 0x46a
 10747 ac1b 4546495F 		.ascii "EFI_DRIVER_SUPPORTED EFI_DRIVER_BINDING_PROTOCOL_SUPPORTED\0"
 10747      44524956 
 10747      45525F53 
 10747      5550504F 
 10747      52544544 
 10748 ac56 01       		.byte	0x1
 10749 ac57 EB08     		.uleb128 0x46b
 10750 ac59 4546495F 		.ascii "EFI_DRIVER_START EFI_DRIVER_BINDING_PROTOCOL_START\0"
 10750      44524956 
 10750      45525F53 
 10750      54415254 
 10750      20454649 
 10751 ac8c 01       		.byte	0x1
 10752 ac8d EC08     		.uleb128 0x46c
 10753 ac8f 4546495F 		.ascii "EFI_DRIVER_STOP EFI_DRIVER_BINDING_PROTOCOL_STOP\0"
 10753      44524956 
 10753      45525F53 
 10753      544F5020 
 10753      4546495F 
 10754 acc0 01       		.byte	0x1
 10755 acc1 F408     		.uleb128 0x474
 10756 acc3 4546495F 		.ascii "EFI_COMPONENT_NAME_PROTOCOL_GUID {0x107A772C, 0xD5E1, 0x11D4, { 0x9A, 0x46, 0x00, 0x90, 0x
 10756      434F4D50 
 10756      4F4E454E 
 10756      545F4E41 
 10756      4D455F50 
 10757 ad35 01       		.byte	0x1
 10758 ad36 F608     		.uleb128 0x476
 10759 ad38 434F4D50 		.ascii "COMPONENT_NAME_PROTOCOL EFI_COMPONENT_NAME_PROTOCOL_GUID\0"
 10759      4F4E454E 
 10759      545F4E41 
 10759      4D455F50 
 10759      524F544F 
 10760 ad71 01       		.byte	0x1
 10761 ad72 9809     		.uleb128 0x498
 10762 ad74 4546495F 		.ascii "EFI_COMPONENT_NAME2_PROTOCOL_GUID {0x6A7A5CFF, 0xE8D9, 0x4F70, { 0xBA, 0xDA, 0x75, 0xAB, 0
 10762      434F4D50 
 10762      4F4E454E 
 10762      545F4E41 
 10762      4D45325F 
 10763 ade7 01       		.byte	0x1
 10764 ade8 9A09     		.uleb128 0x49a
 10765 adea 434F4D50 		.ascii "COMPONENT_NAME2_PROTOCOL EFI_COMPONENT_NAME2_PROTOCOL_GUID\0"
 10765      4F4E454E 
 10765      545F4E41 
 10765      4D45325F 
 10765      50524F54 
 10766 ae25 01       		.byte	0x1
 10767 ae26 BD09     		.uleb128 0x4bd
 10768 ae28 4546495F 		.ascii "EFI_LOADED_IMAGE_PROTOCOL_GUID { 0x5B1B31A1, 0x9562, 0x11d2, {0x8E, 0x3F, 0x00, 0xA0, 0xC9
 10768      4C4F4144 
 10768      45445F49 
 10768      4D414745 
 10768      5F50524F 
 10769 ae98 01       		.byte	0x1
 10770 ae99 BF09     		.uleb128 0x4bf
 10771 ae9b 4C4F4144 		.ascii "LOADED_IMAGE_PROTOCOL EFI_LOADED_IMAGE_PROTOCOL_GUID\0"
 10771      45445F49 
 10771      4D414745 
 10771      5F50524F 
 10771      544F434F 
 10772 aed0 01       		.byte	0x1
 10773 aed1 C109     		.uleb128 0x4c1
 10774 aed3 4546495F 		.ascii "EFI_LOADED_IMAGE_PROTOCOL_REVISION 0x1000\0"
 10774      4C4F4144 
 10774      45445F49 
 10774      4D414745 
 10774      5F50524F 
 10775 aefd 01       		.byte	0x1
 10776 aefe C209     		.uleb128 0x4c2
 10777 af00 4546495F 		.ascii "EFI_IMAGE_INFORMATION_REVISION EFI_LOADED_IMAGE_PROTOCOL_REVISION\0"
 10777      494D4147 
 10777      455F494E 
 10777      464F524D 
 10777      4154494F 
 10778 af42 01       		.byte	0x1
 10779 af43 E409     		.uleb128 0x4e4
 10780 af45 4546495F 		.ascii "EFI_LOADED_IMAGE_DEVICE_PATH_PROTOCOL_GUID {0xbc62157e, 0x3e33, 0x4fec, {0x99, 0x20, 0x2d,
 10780      4C4F4144 
 10780      45445F49 
 10780      4D414745 
 10780      5F444556 
 10781 afc0 01       		.byte	0x1
 10782 afc1 EB09     		.uleb128 0x4eb
 10783 afc3 4546495F 		.ascii "EFI_RNG_PROTOCOL_GUID { 0x3152bca5, 0xeade, 0x433d, {0x86, 0x2e, 0xc0, 0x1c, 0xdc, 0x29, 0
 10783      524E475F 
 10783      50524F54 
 10783      4F434F4C 
 10783      5F475549 
 10784 b02a 01       		.byte	0x1
 10785 b02b F009     		.uleb128 0x4f0
 10786 b02d 4546495F 		.ascii "EFI_RNG_ALGORITHM_SP800_90_HASH_256_GUID {0xa7af67cb, 0x603b, 0x4d42, {0xba, 0x21, 0x70, 0
 10786      524E475F 
 10786      414C474F 
 10786      52495448 
 10786      4D5F5350 
 10787 b0a6 01       		.byte	0x1
 10788 b0a7 F309     		.uleb128 0x4f3
 10789 b0a9 4546495F 		.ascii "EFI_RNG_ALGORITHM_SP800_90_HMAC_256_GUID {0xc5149b43, 0xae85, 0x4f53, {0x99, 0x82, 0xb9, 0
 10789      524E475F 
 10789      414C474F 
 10789      52495448 
 10789      4D5F5350 
 10790 b122 01       		.byte	0x1
 10791 b123 F609     		.uleb128 0x4f6
 10792 b125 4546495F 		.ascii "EFI_RNG_ALGORITHM_SP800_90_CTR_256_GUID {0x44f0de6e, 0x4d8c, 0x4045, {0xa8, 0xc7, 0x4d, 0x
 10792      524E475F 
 10792      414C474F 
 10792      52495448 
 10792      4D5F5350 
 10793 b19d 01       		.byte	0x1
 10794 b19e F909     		.uleb128 0x4f9
 10795 b1a0 4546495F 		.ascii "EFI_RNG_ALGORITHM_X9_31_3DES_GUID {0x63c4785a, 0xca34, 0x4012, {0xa3, 0xc8, 0x0b, 0x6a, 0x
 10795      524E475F 
 10795      414C474F 
 10795      52495448 
 10795      4D5F5839 
 10796 b212 01       		.byte	0x1
 10797 b213 FC09     		.uleb128 0x4fc
 10798 b215 4546495F 		.ascii "EFI_RNG_ALGORITHM_X9_31_AES_GUID {0xacd03321, 0x777e, 0x4d3d, {0xb1, 0xc8, 0x20, 0xcf, 0xd
 10798      524E475F 
 10798      414C474F 
 10798      52495448 
 10798      4D5F5839 
 10799 b286 01       		.byte	0x1
 10800 b287 FF09     		.uleb128 0x4ff
 10801 b289 4546495F 		.ascii "EFI_RNG_ALGORITHM_RAW {0xe43176d7, 0xb6e8, 0x4827, {0xb7, 0x84, 0x7f, 0xfd, 0xc4, 0xb6, 0x
 10801      524E475F 
 10801      414C474F 
 10801      52495448 
 10801      4D5F5241 
 10802 b2ef 01       		.byte	0x1
 10803 b2f0 9F0A     		.uleb128 0x51f
 10804 b2f2 4546495F 		.ascii "EFI_PLATFORM_DRIVER_OVERRIDE_PROTOCOL_GUID { 0x6b30c738, 0xa391, 0x11d4, {0x9a, 0x3b, 0x00
 10804      504C4154 
 10804      464F524D 
 10804      5F445249 
 10804      5645525F 
 10805 b36e 01       		.byte	0x1
 10806 b36f C40A     		.uleb128 0x544
 10807 b371 4546495F 		.ascii "EFI_BUS_SPECIFIC_DRIVER_OVERRIDE_PROTOCOL_GUID { 0x3bc1b285, 0x8a15, 0x4a82, {0xaa, 0xbf, 
 10807      4255535F 
 10807      53504543 
 10807      49464943 
 10807      5F445249 
 10808 b3f1 01       		.byte	0x1
 10809 b3f2 D70A     		.uleb128 0x557
 10810 b3f4 4546495F 		.ascii "EFI_DRIVER_FAMILY_OVERRIDE_PROTOCOL_GUID { 0xb1ee129e, 0xda36, 0x4181, {0x91, 0xf8, 0x04, 
 10810      44524956 
 10810      45525F46 
 10810      414D494C 
 10810      595F4F56 
 10811 b46e 01       		.byte	0x1
 10812 b46f E90A     		.uleb128 0x569
 10813 b471 4546495F 		.ascii "EFI_EBC_INTERPRETER_PROTOCOL_GUID {0x13ac6dd1, 0x73d0, 0x11d4, {0xb0, 0x6b, 0x00, 0xaa, 0x
 10813      4542435F 
 10813      494E5445 
 10813      52505245 
 10813      5445525F 
 10814 b4e3 01       		.byte	0x1
 10815 b4e4 EC0A     		.uleb128 0x56c
 10816 b4e6 4546495F 		.ascii "EFI_EBC_PROTOCOL_GUID EFI_EBC_INTERPRETER_PROTOCOL_GUID\0"
 10816      4542435F 
 10816      50524F54 
 10816      4F434F4C 
 10816      5F475549 
 10817 b51e 04       		.byte	0x4
 10818              		.file 23 "gnu-efi-3.0.18/inc/eficon.h"
 10819 b51f 03       		.byte	0x3
 10820 b520 46       		.uleb128 0x46
 10821 b521 17       		.uleb128 0x17
 10822 b522 01       		.byte	0x1
 10823 b523 02       		.uleb128 0x2
 10824 b524 5F454649 		.ascii "_EFI_CON_H \0"
 10824      5F434F4E 
 10824      5F482000 
 10825 b530 01       		.byte	0x1
 10826 b531 1A       		.uleb128 0x1a
 10827 b532 4546495F 		.ascii "EFI_SIMPLE_TEXT_OUTPUT_PROTOCOL_GUID { 0x387477c2, 0x69c7, 0x11d2, {0x8e, 0x39, 0x0, 0xa0,
 10827      53494D50 
 10827      4C455F54 
 10827      4558545F 
 10827      4F555450 
 10828 b5a7 01       		.byte	0x1
 10829 b5a8 1C       		.uleb128 0x1c
 10830 b5a9 53494D50 		.ascii "SIMPLE_TEXT_OUTPUT_PROTOCOL EFI_SIMPLE_TEXT_OUTPUT_PROTOCOL_GUID\0"
 10830      4C455F54 
 10830      4558545F 
 10830      4F555450 
 10830      55545F50 
 10831 b5ea 01       		.byte	0x1
 10832 b5eb 4C       		.uleb128 0x4c
 10833 b5ec 4546495F 		.ascii "EFI_BLACK 0x00\0"
 10833      424C4143 
 10833      4B203078 
 10833      303000
 10834 b5fb 01       		.byte	0x1
 10835 b5fc 4D       		.uleb128 0x4d
 10836 b5fd 4546495F 		.ascii "EFI_BLUE 0x01\0"
 10836      424C5545 
 10836      20307830 
 10836      3100
 10837 b60b 01       		.byte	0x1
 10838 b60c 4E       		.uleb128 0x4e
 10839 b60d 4546495F 		.ascii "EFI_GREEN 0x02\0"
 10839      47524545 
 10839      4E203078 
 10839      303200
 10840 b61c 01       		.byte	0x1
 10841 b61d 4F       		.uleb128 0x4f
 10842 b61e 4546495F 		.ascii "EFI_CYAN (EFI_BLUE | EFI_GREEN)\0"
 10842      4359414E 
 10842      20284546 
 10842      495F424C 
 10842      5545207C 
 10843 b63e 01       		.byte	0x1
 10844 b63f 50       		.uleb128 0x50
 10845 b640 4546495F 		.ascii "EFI_RED 0x04\0"
 10845      52454420 
 10845      30783034 
 10845      00
 10846 b64d 01       		.byte	0x1
 10847 b64e 51       		.uleb128 0x51
 10848 b64f 4546495F 		.ascii "EFI_MAGENTA (EFI_BLUE | EFI_RED)\0"
 10848      4D414745 
 10848      4E544120 
 10848      28454649 
 10848      5F424C55 
 10849 b670 01       		.byte	0x1
 10850 b671 52       		.uleb128 0x52
 10851 b672 4546495F 		.ascii "EFI_BROWN (EFI_GREEN | EFI_RED)\0"
 10851      42524F57 
 10851      4E202845 
 10851      46495F47 
 10851      5245454E 
 10852 b692 01       		.byte	0x1
 10853 b693 53       		.uleb128 0x53
 10854 b694 4546495F 		.ascii "EFI_LIGHTGRAY (EFI_BLUE | EFI_GREEN | EFI_RED)\0"
 10854      4C494748 
 10854      54475241 
 10854      59202845 
 10854      46495F42 
 10855 b6c3 01       		.byte	0x1
 10856 b6c4 54       		.uleb128 0x54
 10857 b6c5 4546495F 		.ascii "EFI_BRIGHT 0x08\0"
 10857      42524947 
 10857      48542030 
 10857      78303800 
 10858 b6d5 01       		.byte	0x1
 10859 b6d6 55       		.uleb128 0x55
 10860 b6d7 4546495F 		.ascii "EFI_DARKGRAY (EFI_BRIGHT)\0"
 10860      4441524B 
 10860      47524159 
 10860      20284546 
 10860      495F4252 
 10861 b6f1 01       		.byte	0x1
 10862 b6f2 56       		.uleb128 0x56
 10863 b6f3 4546495F 		.ascii "EFI_LIGHTBLUE (EFI_BLUE | EFI_BRIGHT)\0"
 10863      4C494748 
 10863      54424C55 
 10863      45202845 
 10863      46495F42 
 10864 b719 01       		.byte	0x1
 10865 b71a 57       		.uleb128 0x57
 10866 b71b 4546495F 		.ascii "EFI_LIGHTGREEN (EFI_GREEN | EFI_BRIGHT)\0"
 10866      4C494748 
 10866      54475245 
 10866      454E2028 
 10866      4546495F 
 10867 b743 01       		.byte	0x1
 10868 b744 58       		.uleb128 0x58
 10869 b745 4546495F 		.ascii "EFI_LIGHTCYAN (EFI_CYAN | EFI_BRIGHT)\0"
 10869      4C494748 
 10869      54435941 
 10869      4E202845 
 10869      46495F43 
 10870 b76b 01       		.byte	0x1
 10871 b76c 59       		.uleb128 0x59
 10872 b76d 4546495F 		.ascii "EFI_LIGHTRED (EFI_RED | EFI_BRIGHT)\0"
 10872      4C494748 
 10872      54524544 
 10872      20284546 
 10872      495F5245 
 10873 b791 01       		.byte	0x1
 10874 b792 5A       		.uleb128 0x5a
 10875 b793 4546495F 		.ascii "EFI_LIGHTMAGENTA (EFI_MAGENTA | EFI_BRIGHT)\0"
 10875      4C494748 
 10875      544D4147 
 10875      454E5441 
 10875      20284546 
 10876 b7bf 01       		.byte	0x1
 10877 b7c0 5B       		.uleb128 0x5b
 10878 b7c1 4546495F 		.ascii "EFI_YELLOW (EFI_BROWN | EFI_BRIGHT)\0"
 10878      59454C4C 
 10878      4F572028 
 10878      4546495F 
 10878      42524F57 
 10879 b7e5 01       		.byte	0x1
 10880 b7e6 5C       		.uleb128 0x5c
 10881 b7e7 4546495F 		.ascii "EFI_WHITE (EFI_BLUE | EFI_GREEN | EFI_RED | EFI_BRIGHT)\0"
 10881      57484954 
 10881      45202845 
 10881      46495F42 
 10881      4C554520 
 10882 b81f 01       		.byte	0x1
 10883 b820 5E       		.uleb128 0x5e
 10884 b821 4546495F 		.ascii "EFI_TEXT_ATTR(f,b) ((f) | ((b) << 4))\0"
 10884      54455854 
 10884      5F415454 
 10884      5228662C 
 10884      62292028 
 10885 b847 01       		.byte	0x1
 10886 b848 60       		.uleb128 0x60
 10887 b849 4546495F 		.ascii "EFI_BACKGROUND_BLACK 0x00\0"
 10887      4241434B 
 10887      47524F55 
 10887      4E445F42 
 10887      4C41434B 
 10888 b863 01       		.byte	0x1
 10889 b864 61       		.uleb128 0x61
 10890 b865 4546495F 		.ascii "EFI_BACKGROUND_BLUE 0x10\0"
 10890      4241434B 
 10890      47524F55 
 10890      4E445F42 
 10890      4C554520 
 10891 b87e 01       		.byte	0x1
 10892 b87f 62       		.uleb128 0x62
 10893 b880 4546495F 		.ascii "EFI_BACKGROUND_GREEN 0x20\0"
 10893      4241434B 
 10893      47524F55 
 10893      4E445F47 
 10893      5245454E 
 10894 b89a 01       		.byte	0x1
 10895 b89b 63       		.uleb128 0x63
 10896 b89c 4546495F 		.ascii "EFI_BACKGROUND_CYAN (EFI_BACKGROUND_BLUE | EFI_BACKGROUND_GREEN)\0"
 10896      4241434B 
 10896      47524F55 
 10896      4E445F43 
 10896      59414E20 
 10897 b8dd 01       		.byte	0x1
 10898 b8de 64       		.uleb128 0x64
 10899 b8df 4546495F 		.ascii "EFI_BACKGROUND_RED 0x40\0"
 10899      4241434B 
 10899      47524F55 
 10899      4E445F52 
 10899      45442030 
 10900 b8f7 01       		.byte	0x1
 10901 b8f8 65       		.uleb128 0x65
 10902 b8f9 4546495F 		.ascii "EFI_BACKGROUND_MAGENTA (EFI_BACKGROUND_BLUE | EFI_BACKGROUND_RED)\0"
 10902      4241434B 
 10902      47524F55 
 10902      4E445F4D 
 10902      4147454E 
 10903 b93b 01       		.byte	0x1
 10904 b93c 66       		.uleb128 0x66
 10905 b93d 4546495F 		.ascii "EFI_BACKGROUND_BROWN (EFI_BACKGROUND_GREEN | EFI_BACKGROUND_RED)\0"
 10905      4241434B 
 10905      47524F55 
 10905      4E445F42 
 10905      524F574E 
 10906 b97e 01       		.byte	0x1
 10907 b97f 67       		.uleb128 0x67
 10908 b980 4546495F 		.ascii "EFI_BACKGROUND_LIGHTGRAY (EFI_BACKGROUND_BLUE | EFI_BACKGROUND_GREEN | EFI_BACKGROUND_RED)
 10908      4241434B 
 10908      47524F55 
 10908      4E445F4C 
 10908      49474854 
 10909 b9db 01       		.byte	0x1
 10910 b9dc 9F01     		.uleb128 0x9f
 10911 b9de 424F5844 		.ascii "BOXDRAW_HORIZONTAL 0x2500\0"
 10911      5241575F 
 10911      484F5249 
 10911      5A4F4E54 
 10911      414C2030 
 10912 b9f8 01       		.byte	0x1
 10913 b9f9 A001     		.uleb128 0xa0
 10914 b9fb 424F5844 		.ascii "BOXDRAW_VERTICAL 0x2502\0"
 10914      5241575F 
 10914      56455254 
 10914      4943414C 
 10914      20307832 
 10915 ba13 01       		.byte	0x1
 10916 ba14 A101     		.uleb128 0xa1
 10917 ba16 424F5844 		.ascii "BOXDRAW_DOWN_RIGHT 0x250c\0"
 10917      5241575F 
 10917      444F574E 
 10917      5F524947 
 10917      48542030 
 10918 ba30 01       		.byte	0x1
 10919 ba31 A201     		.uleb128 0xa2
 10920 ba33 424F5844 		.ascii "BOXDRAW_DOWN_LEFT 0x2510\0"
 10920      5241575F 
 10920      444F574E 
 10920      5F4C4546 
 10920      54203078 
 10921 ba4c 01       		.byte	0x1
 10922 ba4d A301     		.uleb128 0xa3
 10923 ba4f 424F5844 		.ascii "BOXDRAW_UP_RIGHT 0x2514\0"
 10923      5241575F 
 10923      55505F52 
 10923      49474854 
 10923      20307832 
 10924 ba67 01       		.byte	0x1
 10925 ba68 A401     		.uleb128 0xa4
 10926 ba6a 424F5844 		.ascii "BOXDRAW_UP_LEFT 0x2518\0"
 10926      5241575F 
 10926      55505F4C 
 10926      45465420 
 10926      30783235 
 10927 ba81 01       		.byte	0x1
 10928 ba82 A501     		.uleb128 0xa5
 10929 ba84 424F5844 		.ascii "BOXDRAW_VERTICAL_RIGHT 0x251c\0"
 10929      5241575F 
 10929      56455254 
 10929      4943414C 
 10929      5F524947 
 10930 baa2 01       		.byte	0x1
 10931 baa3 A601     		.uleb128 0xa6
 10932 baa5 424F5844 		.ascii "BOXDRAW_VERTICAL_LEFT 0x2524\0"
 10932      5241575F 
 10932      56455254 
 10932      4943414C 
 10932      5F4C4546 
 10933 bac2 01       		.byte	0x1
 10934 bac3 A701     		.uleb128 0xa7
 10935 bac5 424F5844 		.ascii "BOXDRAW_DOWN_HORIZONTAL 0x252c\0"
 10935      5241575F 
 10935      444F574E 
 10935      5F484F52 
 10935      495A4F4E 
 10936 bae4 01       		.byte	0x1
 10937 bae5 A801     		.uleb128 0xa8
 10938 bae7 424F5844 		.ascii "BOXDRAW_UP_HORIZONTAL 0x2534\0"
 10938      5241575F 
 10938      55505F48 
 10938      4F52495A 
 10938      4F4E5441 
 10939 bb04 01       		.byte	0x1
 10940 bb05 A901     		.uleb128 0xa9
 10941 bb07 424F5844 		.ascii "BOXDRAW_VERTICAL_HORIZONTAL 0x253c\0"
 10941      5241575F 
 10941      56455254 
 10941      4943414C 
 10941      5F484F52 
 10942 bb2a 01       		.byte	0x1
 10943 bb2b AB01     		.uleb128 0xab
 10944 bb2d 424F5844 		.ascii "BOXDRAW_DOUBLE_HORIZONTAL 0x2550\0"
 10944      5241575F 
 10944      444F5542 
 10944      4C455F48 
 10944      4F52495A 
 10945 bb4e 01       		.byte	0x1
 10946 bb4f AC01     		.uleb128 0xac
 10947 bb51 424F5844 		.ascii "BOXDRAW_DOUBLE_VERTICAL 0x2551\0"
 10947      5241575F 
 10947      444F5542 
 10947      4C455F56 
 10947      45525449 
 10948 bb70 01       		.byte	0x1
 10949 bb71 AD01     		.uleb128 0xad
 10950 bb73 424F5844 		.ascii "BOXDRAW_DOWN_RIGHT_DOUBLE 0x2552\0"
 10950      5241575F 
 10950      444F574E 
 10950      5F524947 
 10950      48545F44 
 10951 bb94 01       		.byte	0x1
 10952 bb95 AE01     		.uleb128 0xae
 10953 bb97 424F5844 		.ascii "BOXDRAW_DOWN_DOUBLE_RIGHT 0x2553\0"
 10953      5241575F 
 10953      444F574E 
 10953      5F444F55 
 10953      424C455F 
 10954 bbb8 01       		.byte	0x1
 10955 bbb9 AF01     		.uleb128 0xaf
 10956 bbbb 424F5844 		.ascii "BOXDRAW_DOUBLE_DOWN_RIGHT 0x2554\0"
 10956      5241575F 
 10956      444F5542 
 10956      4C455F44 
 10956      4F574E5F 
 10957 bbdc 01       		.byte	0x1
 10958 bbdd B101     		.uleb128 0xb1
 10959 bbdf 424F5844 		.ascii "BOXDRAW_DOWN_LEFT_DOUBLE 0x2555\0"
 10959      5241575F 
 10959      444F574E 
 10959      5F4C4546 
 10959      545F444F 
 10960 bbff 01       		.byte	0x1
 10961 bc00 B201     		.uleb128 0xb2
 10962 bc02 424F5844 		.ascii "BOXDRAW_DOWN_DOUBLE_LEFT 0x2556\0"
 10962      5241575F 
 10962      444F574E 
 10962      5F444F55 
 10962      424C455F 
 10963 bc22 01       		.byte	0x1
 10964 bc23 B301     		.uleb128 0xb3
 10965 bc25 424F5844 		.ascii "BOXDRAW_DOUBLE_DOWN_LEFT 0x2557\0"
 10965      5241575F 
 10965      444F5542 
 10965      4C455F44 
 10965      4F574E5F 
 10966 bc45 01       		.byte	0x1
 10967 bc46 B501     		.uleb128 0xb5
 10968 bc48 424F5844 		.ascii "BOXDRAW_UP_RIGHT_DOUBLE 0x2558\0"
 10968      5241575F 
 10968      55505F52 
 10968      49474854 
 10968      5F444F55 
 10969 bc67 01       		.byte	0x1
 10970 bc68 B601     		.uleb128 0xb6
 10971 bc6a 424F5844 		.ascii "BOXDRAW_UP_DOUBLE_RIGHT 0x2559\0"
 10971      5241575F 
 10971      55505F44 
 10971      4F55424C 
 10971      455F5249 
 10972 bc89 01       		.byte	0x1
 10973 bc8a B701     		.uleb128 0xb7
 10974 bc8c 424F5844 		.ascii "BOXDRAW_DOUBLE_UP_RIGHT 0x255a\0"
 10974      5241575F 
 10974      444F5542 
 10974      4C455F55 
 10974      505F5249 
 10975 bcab 01       		.byte	0x1
 10976 bcac B901     		.uleb128 0xb9
 10977 bcae 424F5844 		.ascii "BOXDRAW_UP_LEFT_DOUBLE 0x255b\0"
 10977      5241575F 
 10977      55505F4C 
 10977      4546545F 
 10977      444F5542 
 10978 bccc 01       		.byte	0x1
 10979 bccd BA01     		.uleb128 0xba
 10980 bccf 424F5844 		.ascii "BOXDRAW_UP_DOUBLE_LEFT 0x255c\0"
 10980      5241575F 
 10980      55505F44 
 10980      4F55424C 
 10980      455F4C45 
 10981 bced 01       		.byte	0x1
 10982 bcee BB01     		.uleb128 0xbb
 10983 bcf0 424F5844 		.ascii "BOXDRAW_DOUBLE_UP_LEFT 0x255d\0"
 10983      5241575F 
 10983      444F5542 
 10983      4C455F55 
 10983      505F4C45 
 10984 bd0e 01       		.byte	0x1
 10985 bd0f BD01     		.uleb128 0xbd
 10986 bd11 424F5844 		.ascii "BOXDRAW_VERTICAL_RIGHT_DOUBLE 0x255e\0"
 10986      5241575F 
 10986      56455254 
 10986      4943414C 
 10986      5F524947 
 10987 bd36 01       		.byte	0x1
 10988 bd37 BE01     		.uleb128 0xbe
 10989 bd39 424F5844 		.ascii "BOXDRAW_VERTICAL_DOUBLE_RIGHT 0x255f\0"
 10989      5241575F 
 10989      56455254 
 10989      4943414C 
 10989      5F444F55 
 10990 bd5e 01       		.byte	0x1
 10991 bd5f BF01     		.uleb128 0xbf
 10992 bd61 424F5844 		.ascii "BOXDRAW_DOUBLE_VERTICAL_RIGHT 0x2560\0"
 10992      5241575F 
 10992      444F5542 
 10992      4C455F56 
 10992      45525449 
 10993 bd86 01       		.byte	0x1
 10994 bd87 C101     		.uleb128 0xc1
 10995 bd89 424F5844 		.ascii "BOXDRAW_VERTICAL_LEFT_DOUBLE 0x2561\0"
 10995      5241575F 
 10995      56455254 
 10995      4943414C 
 10995      5F4C4546 
 10996 bdad 01       		.byte	0x1
 10997 bdae C201     		.uleb128 0xc2
 10998 bdb0 424F5844 		.ascii "BOXDRAW_VERTICAL_DOUBLE_LEFT 0x2562\0"
 10998      5241575F 
 10998      56455254 
 10998      4943414C 
 10998      5F444F55 
 10999 bdd4 01       		.byte	0x1
 11000 bdd5 C301     		.uleb128 0xc3
 11001 bdd7 424F5844 		.ascii "BOXDRAW_DOUBLE_VERTICAL_LEFT 0x2563\0"
 11001      5241575F 
 11001      444F5542 
 11001      4C455F56 
 11001      45525449 
 11002 bdfb 01       		.byte	0x1
 11003 bdfc C501     		.uleb128 0xc5
 11004 bdfe 424F5844 		.ascii "BOXDRAW_DOWN_HORIZONTAL_DOUBLE 0x2564\0"
 11004      5241575F 
 11004      444F574E 
 11004      5F484F52 
 11004      495A4F4E 
 11005 be24 01       		.byte	0x1
 11006 be25 C601     		.uleb128 0xc6
 11007 be27 424F5844 		.ascii "BOXDRAW_DOWN_DOUBLE_HORIZONTAL 0x2565\0"
 11007      5241575F 
 11007      444F574E 
 11007      5F444F55 
 11007      424C455F 
 11008 be4d 01       		.byte	0x1
 11009 be4e C701     		.uleb128 0xc7
 11010 be50 424F5844 		.ascii "BOXDRAW_DOUBLE_DOWN_HORIZONTAL 0x2566\0"
 11010      5241575F 
 11010      444F5542 
 11010      4C455F44 
 11010      4F574E5F 
 11011 be76 01       		.byte	0x1
 11012 be77 C901     		.uleb128 0xc9
 11013 be79 424F5844 		.ascii "BOXDRAW_UP_HORIZONTAL_DOUBLE 0x2567\0"
 11013      5241575F 
 11013      55505F48 
 11013      4F52495A 
 11013      4F4E5441 
 11014 be9d 01       		.byte	0x1
 11015 be9e CA01     		.uleb128 0xca
 11016 bea0 424F5844 		.ascii "BOXDRAW_UP_DOUBLE_HORIZONTAL 0x2568\0"
 11016      5241575F 
 11016      55505F44 
 11016      4F55424C 
 11016      455F484F 
 11017 bec4 01       		.byte	0x1
 11018 bec5 CB01     		.uleb128 0xcb
 11019 bec7 424F5844 		.ascii "BOXDRAW_DOUBLE_UP_HORIZONTAL 0x2569\0"
 11019      5241575F 
 11019      444F5542 
 11019      4C455F55 
 11019      505F484F 
 11020 beeb 01       		.byte	0x1
 11021 beec CD01     		.uleb128 0xcd
 11022 beee 424F5844 		.ascii "BOXDRAW_VERTICAL_HORIZONTAL_DOUBLE 0x256a\0"
 11022      5241575F 
 11022      56455254 
 11022      4943414C 
 11022      5F484F52 
 11023 bf18 01       		.byte	0x1
 11024 bf19 CE01     		.uleb128 0xce
 11025 bf1b 424F5844 		.ascii "BOXDRAW_VERTICAL_DOUBLE_HORIZONTAL 0x256b\0"
 11025      5241575F 
 11025      56455254 
 11025      4943414C 
 11025      5F444F55 
 11026 bf45 01       		.byte	0x1
 11027 bf46 CF01     		.uleb128 0xcf
 11028 bf48 424F5844 		.ascii "BOXDRAW_DOUBLE_VERTICAL_HORIZONTAL 0x256c\0"
 11028      5241575F 
 11028      444F5542 
 11028      4C455F56 
 11028      45525449 
 11029 bf72 01       		.byte	0x1
 11030 bf73 D501     		.uleb128 0xd5
 11031 bf75 424C4F43 		.ascii "BLOCKELEMENT_FULL_BLOCK 0x2588\0"
 11031      4B454C45 
 11031      4D454E54 
 11031      5F46554C 
 11031      4C5F424C 
 11032 bf94 01       		.byte	0x1
 11033 bf95 D601     		.uleb128 0xd6
 11034 bf97 424C4F43 		.ascii "BLOCKELEMENT_LIGHT_SHADE 0x2591\0"
 11034      4B454C45 
 11034      4D454E54 
 11034      5F4C4947 
 11034      48545F53 
 11035 bfb7 01       		.byte	0x1
 11036 bfb8 DB01     		.uleb128 0xdb
 11037 bfba 47454F4D 		.ascii "GEOMETRICSHAPE_UP_TRIANGLE 0x25b2\0"
 11037      45545249 
 11037      43534841 
 11037      50455F55 
 11037      505F5452 
 11038 bfdc 01       		.byte	0x1
 11039 bfdd DC01     		.uleb128 0xdc
 11040 bfdf 47454F4D 		.ascii "GEOMETRICSHAPE_RIGHT_TRIANGLE 0x25ba\0"
 11040      45545249 
 11040      43534841 
 11040      50455F52 
 11040      49474854 
 11041 c004 01       		.byte	0x1
 11042 c005 DD01     		.uleb128 0xdd
 11043 c007 47454F4D 		.ascii "GEOMETRICSHAPE_DOWN_TRIANGLE 0x25bc\0"
 11043      45545249 
 11043      43534841 
 11043      50455F44 
 11043      4F574E5F 
 11044 c02b 01       		.byte	0x1
 11045 c02c DE01     		.uleb128 0xde
 11046 c02e 47454F4D 		.ascii "GEOMETRICSHAPE_LEFT_TRIANGLE 0x25c4\0"
 11046      45545249 
 11046      43534841 
 11046      50455F4C 
 11046      4546545F 
 11047 c052 01       		.byte	0x1
 11048 c053 E401     		.uleb128 0xe4
 11049 c055 4152524F 		.ascii "ARROW_UP 0x2191\0"
 11049      575F5550 
 11049      20307832 
 11049      31393100 
 11050 c065 01       		.byte	0x1
 11051 c066 E501     		.uleb128 0xe5
 11052 c068 4152524F 		.ascii "ARROW_DOWN 0x2193\0"
 11052      575F444F 
 11052      574E2030 
 11052      78323139 
 11052      3300
 11053 c07a 01       		.byte	0x1
 11054 c07b EB01     		.uleb128 0xeb
 11055 c07d 4546495F 		.ascii "EFI_SIMPLE_TEXT_INPUT_PROTOCOL_GUID { 0x387477c1, 0x69c7, 0x11d2, {0x8e, 0x39, 0x0, 0xa0, 
 11055      53494D50 
 11055      4C455F54 
 11055      4558545F 
 11055      494E5055 
 11056 c0f1 01       		.byte	0x1
 11057 c0f2 ED01     		.uleb128 0xed
 11058 c0f4 53494D50 		.ascii "SIMPLE_TEXT_INPUT_PROTOCOL EFI_SIMPLE_TEXT_INPUT_PROTOCOL_GUID\0"
 11058      4C455F54 
 11058      4558545F 
 11058      494E5055 
 11058      545F5052 
 11059 c133 01       		.byte	0x1
 11060 c134 FA01     		.uleb128 0xfa
 11061 c136 43484152 		.ascii "CHAR_NULL 0x0000\0"
 11061      5F4E554C 
 11061      4C203078 
 11061      30303030 
 11061      00
 11062 c147 01       		.byte	0x1
 11063 c148 FB01     		.uleb128 0xfb
 11064 c14a 43484152 		.ascii "CHAR_BACKSPACE 0x0008\0"
 11064      5F424143 
 11064      4B535041 
 11064      43452030 
 11064      78303030 
 11065 c160 01       		.byte	0x1
 11066 c161 FC01     		.uleb128 0xfc
 11067 c163 43484152 		.ascii "CHAR_TAB 0x0009\0"
 11067      5F544142 
 11067      20307830 
 11067      30303900 
 11068 c173 01       		.byte	0x1
 11069 c174 FD01     		.uleb128 0xfd
 11070 c176 43484152 		.ascii "CHAR_LINEFEED 0x000A\0"
 11070      5F4C494E 
 11070      45464545 
 11070      44203078 
 11070      30303041 
 11071 c18b 01       		.byte	0x1
 11072 c18c FE01     		.uleb128 0xfe
 11073 c18e 43484152 		.ascii "CHAR_CARRIAGE_RETURN 0x000D\0"
 11073      5F434152 
 11073      52494147 
 11073      455F5245 
 11073      5455524E 
 11074 c1aa 01       		.byte	0x1
 11075 c1ab 8402     		.uleb128 0x104
 11076 c1ad 5343414E 		.ascii "SCAN_NULL 0x0000\0"
 11076      5F4E554C 
 11076      4C203078 
 11076      30303030 
 11076      00
 11077 c1be 01       		.byte	0x1
 11078 c1bf 8502     		.uleb128 0x105
 11079 c1c1 5343414E 		.ascii "SCAN_UP 0x0001\0"
 11079      5F555020 
 11079      30783030 
 11079      303100
 11080 c1d0 01       		.byte	0x1
 11081 c1d1 8602     		.uleb128 0x106
 11082 c1d3 5343414E 		.ascii "SCAN_DOWN 0x0002\0"
 11082      5F444F57 
 11082      4E203078 
 11082      30303032 
 11082      00
 11083 c1e4 01       		.byte	0x1
 11084 c1e5 8702     		.uleb128 0x107
 11085 c1e7 5343414E 		.ascii "SCAN_RIGHT 0x0003\0"
 11085      5F524947 
 11085      48542030 
 11085      78303030 
 11085      3300
 11086 c1f9 01       		.byte	0x1
 11087 c1fa 8802     		.uleb128 0x108
 11088 c1fc 5343414E 		.ascii "SCAN_LEFT 0x0004\0"
 11088      5F4C4546 
 11088      54203078 
 11088      30303034 
 11088      00
 11089 c20d 01       		.byte	0x1
 11090 c20e 8902     		.uleb128 0x109
 11091 c210 5343414E 		.ascii "SCAN_HOME 0x0005\0"
 11091      5F484F4D 
 11091      45203078 
 11091      30303035 
 11091      00
 11092 c221 01       		.byte	0x1
 11093 c222 8A02     		.uleb128 0x10a
 11094 c224 5343414E 		.ascii "SCAN_END 0x0006\0"
 11094      5F454E44 
 11094      20307830 
 11094      30303600 
 11095 c234 01       		.byte	0x1
 11096 c235 8B02     		.uleb128 0x10b
 11097 c237 5343414E 		.ascii "SCAN_INSERT 0x0007\0"
 11097      5F494E53 
 11097      45525420 
 11097      30783030 
 11097      303700
 11098 c24a 01       		.byte	0x1
 11099 c24b 8C02     		.uleb128 0x10c
 11100 c24d 5343414E 		.ascii "SCAN_DELETE 0x0008\0"
 11100      5F44454C 
 11100      45544520 
 11100      30783030 
 11100      303800
 11101 c260 01       		.byte	0x1
 11102 c261 8D02     		.uleb128 0x10d
 11103 c263 5343414E 		.ascii "SCAN_PAGE_UP 0x0009\0"
 11103      5F504147 
 11103      455F5550 
 11103      20307830 
 11103      30303900 
 11104 c277 01       		.byte	0x1
 11105 c278 8E02     		.uleb128 0x10e
 11106 c27a 5343414E 		.ascii "SCAN_PAGE_DOWN 0x000A\0"
 11106      5F504147 
 11106      455F444F 
 11106      574E2030 
 11106      78303030 
 11107 c290 01       		.byte	0x1
 11108 c291 8F02     		.uleb128 0x10f
 11109 c293 5343414E 		.ascii "SCAN_F1 0x000B\0"
 11109      5F463120 
 11109      30783030 
 11109      304200
 11110 c2a2 01       		.byte	0x1
 11111 c2a3 9002     		.uleb128 0x110
 11112 c2a5 5343414E 		.ascii "SCAN_F2 0x000C\0"
 11112      5F463220 
 11112      30783030 
 11112      304300
 11113 c2b4 01       		.byte	0x1
 11114 c2b5 9102     		.uleb128 0x111
 11115 c2b7 5343414E 		.ascii "SCAN_F3 0x000D\0"
 11115      5F463320 
 11115      30783030 
 11115      304400
 11116 c2c6 01       		.byte	0x1
 11117 c2c7 9202     		.uleb128 0x112
 11118 c2c9 5343414E 		.ascii "SCAN_F4 0x000E\0"
 11118      5F463420 
 11118      30783030 
 11118      304500
 11119 c2d8 01       		.byte	0x1
 11120 c2d9 9302     		.uleb128 0x113
 11121 c2db 5343414E 		.ascii "SCAN_F5 0x000F\0"
 11121      5F463520 
 11121      30783030 
 11121      304600
 11122 c2ea 01       		.byte	0x1
 11123 c2eb 9402     		.uleb128 0x114
 11124 c2ed 5343414E 		.ascii "SCAN_F6 0x0010\0"
 11124      5F463620 
 11124      30783030 
 11124      313000
 11125 c2fc 01       		.byte	0x1
 11126 c2fd 9502     		.uleb128 0x115
 11127 c2ff 5343414E 		.ascii "SCAN_F7 0x0011\0"
 11127      5F463720 
 11127      30783030 
 11127      313100
 11128 c30e 01       		.byte	0x1
 11129 c30f 9602     		.uleb128 0x116
 11130 c311 5343414E 		.ascii "SCAN_F8 0x0012\0"
 11130      5F463820 
 11130      30783030 
 11130      313200
 11131 c320 01       		.byte	0x1
 11132 c321 9702     		.uleb128 0x117
 11133 c323 5343414E 		.ascii "SCAN_F9 0x0013\0"
 11133      5F463920 
 11133      30783030 
 11133      313300
 11134 c332 01       		.byte	0x1
 11135 c333 9802     		.uleb128 0x118
 11136 c335 5343414E 		.ascii "SCAN_F10 0x0014\0"
 11136      5F463130 
 11136      20307830 
 11136      30313400 
 11137 c345 01       		.byte	0x1
 11138 c346 9902     		.uleb128 0x119
 11139 c348 5343414E 		.ascii "SCAN_F11 0x0015\0"
 11139      5F463131 
 11139      20307830 
 11139      30313500 
 11140 c358 01       		.byte	0x1
 11141 c359 9A02     		.uleb128 0x11a
 11142 c35b 5343414E 		.ascii "SCAN_F12 0x0016\0"
 11142      5F463132 
 11142      20307830 
 11142      30313600 
 11143 c36b 01       		.byte	0x1
 11144 c36c 9B02     		.uleb128 0x11b
 11145 c36e 5343414E 		.ascii "SCAN_ESC 0x0017\0"
 11145      5F455343 
 11145      20307830 
 11145      30313700 
 11146 c37e 04       		.byte	0x4
 11147              		.file 24 "gnu-efi-3.0.18/inc/eficonex.h"
 11148 c37f 03       		.byte	0x3
 11149 c380 47       		.uleb128 0x47
 11150 c381 18       		.uleb128 0x18
 11151 c382 01       		.byte	0x1
 11152 c383 02       		.uleb128 0x2
 11153 c384 5F454649 		.ascii "_EFI_CONEX_H \0"
 11153      5F434F4E 
 11153      45585F48 
 11153      2000
 11154 c392 01       		.byte	0x1
 11155 c393 16       		.uleb128 0x16
 11156 c394 4546495F 		.ascii "EFI_SIMPLE_TEXT_INPUT_EX_PROTOCOL_GUID { 0xdd9e7534, 0x7762, 0x4698, {0x8c, 0x14, 0xf5, 0x
 11156      53494D50 
 11156      4C455F54 
 11156      4558545F 
 11156      494E5055 
 11157 c40c 01       		.byte	0x1
 11158 c40d 28       		.uleb128 0x28
 11159 c40e 4546495F 		.ascii "EFI_SHIFT_STATE_VALID 0x80000000\0"
 11159      53484946 
 11159      545F5354 
 11159      4154455F 
 11159      56414C49 
 11160 c42f 01       		.byte	0x1
 11161 c430 29       		.uleb128 0x29
 11162 c431 4546495F 		.ascii "EFI_RIGHT_SHIFT_PRESSED 0x00000001\0"
 11162      52494748 
 11162      545F5348 
 11162      4946545F 
 11162      50524553 
 11163 c454 01       		.byte	0x1
 11164 c455 2A       		.uleb128 0x2a
 11165 c456 4546495F 		.ascii "EFI_LEFT_SHIFT_PRESSED 0x00000002\0"
 11165      4C454654 
 11165      5F534849 
 11165      46545F50 
 11165      52455353 
 11166 c478 01       		.byte	0x1
 11167 c479 2B       		.uleb128 0x2b
 11168 c47a 4546495F 		.ascii "EFI_RIGHT_CONTROL_PRESSED 0x00000004\0"
 11168      52494748 
 11168      545F434F 
 11168      4E54524F 
 11168      4C5F5052 
 11169 c49f 01       		.byte	0x1
 11170 c4a0 2C       		.uleb128 0x2c
 11171 c4a1 4546495F 		.ascii "EFI_LEFT_CONTROL_PRESSED 0x00000008\0"
 11171      4C454654 
 11171      5F434F4E 
 11171      54524F4C 
 11171      5F505245 
 11172 c4c5 01       		.byte	0x1
 11173 c4c6 2D       		.uleb128 0x2d
 11174 c4c7 4546495F 		.ascii "EFI_RIGHT_ALT_PRESSED 0x00000010\0"
 11174      52494748 
 11174      545F414C 
 11174      545F5052 
 11174      45535345 
 11175 c4e8 01       		.byte	0x1
 11176 c4e9 2E       		.uleb128 0x2e
 11177 c4ea 4546495F 		.ascii "EFI_LEFT_ALT_PRESSED 0x00000020\0"
 11177      4C454654 
 11177      5F414C54 
 11177      5F505245 
 11177      53534544 
 11178 c50a 01       		.byte	0x1
 11179 c50b 2F       		.uleb128 0x2f
 11180 c50c 4546495F 		.ascii "EFI_RIGHT_LOGO_PRESSED 0x00000040\0"
 11180      52494748 
 11180      545F4C4F 
 11180      474F5F50 
 11180      52455353 
 11181 c52e 01       		.byte	0x1
 11182 c52f 30       		.uleb128 0x30
 11183 c530 4546495F 		.ascii "EFI_LEFT_LOGO_PRESSED 0x00000080\0"
 11183      4C454654 
 11183      5F4C4F47 
 11183      4F5F5052 
 11183      45535345 
 11184 c551 01       		.byte	0x1
 11185 c552 31       		.uleb128 0x31
 11186 c553 4546495F 		.ascii "EFI_MENU_KEY_PRESSED 0x00000100\0"
 11186      4D454E55 
 11186      5F4B4559 
 11186      5F505245 
 11186      53534544 
 11187 c573 01       		.byte	0x1
 11188 c574 32       		.uleb128 0x32
 11189 c575 4546495F 		.ascii "EFI_SYS_REQ_PRESSED 0x00000200\0"
 11189      5359535F 
 11189      5245515F 
 11189      50524553 
 11189      53454420 
 11190 c594 01       		.byte	0x1
 11191 c595 35       		.uleb128 0x35
 11192 c596 4546495F 		.ascii "EFI_TOGGLE_STATE_VALID 0x80\0"
 11192      544F4747 
 11192      4C455F53 
 11192      54415445 
 11192      5F56414C 
 11193 c5b2 01       		.byte	0x1
 11194 c5b3 36       		.uleb128 0x36
 11195 c5b4 4546495F 		.ascii "EFI_KEY_STATE_EXPOSED 0x40\0"
 11195      4B45595F 
 11195      53544154 
 11195      455F4558 
 11195      504F5345 
 11196 c5cf 01       		.byte	0x1
 11197 c5d0 37       		.uleb128 0x37
 11198 c5d1 4546495F 		.ascii "EFI_SCROLL_LOCK_ACTIVE 0x01\0"
 11198      5343524F 
 11198      4C4C5F4C 
 11198      4F434B5F 
 11198      41435449 
 11199 c5ed 01       		.byte	0x1
 11200 c5ee 38       		.uleb128 0x38
 11201 c5ef 4546495F 		.ascii "EFI_NUM_LOCK_ACTIVE 0x02\0"
 11201      4E554D5F 
 11201      4C4F434B 
 11201      5F414354 
 11201      49564520 
 11202 c608 01       		.byte	0x1
 11203 c609 39       		.uleb128 0x39
 11204 c60a 4546495F 		.ascii "EFI_CAPS_LOCK_ACTIVE 0x04\0"
 11204      43415053 
 11204      5F4C4F43 
 11204      4B5F4143 
 11204      54495645 
 11205 c624 04       		.byte	0x4
 11206              		.file 25 "gnu-efi-3.0.18/inc/efiser.h"
 11207 c625 03       		.byte	0x3
 11208 c626 48       		.uleb128 0x48
 11209 c627 19       		.uleb128 0x19
 11210 c628 01       		.byte	0x1
 11211 c629 02       		.uleb128 0x2
 11212 c62a 5F454649 		.ascii "_EFI_SER_H \0"
 11212      5F534552 
 11212      5F482000 
 11213 c636 01       		.byte	0x1
 11214 c637 18       		.uleb128 0x18
 11215 c638 4546495F 		.ascii "EFI_SERIAL_IO_PROTOCOL_GUID { 0xBB25CF6F, 0xF1D4, 0x11D2, {0x9A, 0x0C, 0x00, 0x90, 0x27, 0
 11215      53455249 
 11215      414C5F49 
 11215      4F5F5052 
 11215      4F544F43 
 11216 c6a5 01       		.byte	0x1
 11217 c6a6 1A       		.uleb128 0x1a
 11218 c6a7 53455249 		.ascii "SERIAL_IO_PROTOCOL EFI_SERIAL_IO_PROTOCOL_GUID\0"
 11218      414C5F49 
 11218      4F5F5052 
 11218      4F544F43 
 11218      4F4C2045 
 11219 c6d6 01       		.byte	0x1
 11220 c6d7 2E       		.uleb128 0x2e
 11221 c6d8 4546495F 		.ascii "EFI_SERIAL_CLEAR_TO_SEND 0x0010\0"
 11221      53455249 
 11221      414C5F43 
 11221      4C454152 
 11221      5F544F5F 
 11222 c6f8 01       		.byte	0x1
 11223 c6f9 2F       		.uleb128 0x2f
 11224 c6fa 4546495F 		.ascii "EFI_SERIAL_DATA_SET_READY 0x0020\0"
 11224      53455249 
 11224      414C5F44 
 11224      4154415F 
 11224      5345545F 
 11225 c71b 01       		.byte	0x1
 11226 c71c 30       		.uleb128 0x30
 11227 c71d 4546495F 		.ascii "EFI_SERIAL_RING_INDICATE 0x0040\0"
 11227      53455249 
 11227      414C5F52 
 11227      494E475F 
 11227      494E4449 
 11228 c73d 01       		.byte	0x1
 11229 c73e 31       		.uleb128 0x31
 11230 c73f 4546495F 		.ascii "EFI_SERIAL_CARRIER_DETECT 0x0080\0"
 11230      53455249 
 11230      414C5F43 
 11230      41525249 
 11230      45525F44 
 11231 c760 01       		.byte	0x1
 11232 c761 32       		.uleb128 0x32
 11233 c762 4546495F 		.ascii "EFI_SERIAL_REQUEST_TO_SEND 0x0002\0"
 11233      53455249 
 11233      414C5F52 
 11233      45515545 
 11233      53545F54 
 11234 c784 01       		.byte	0x1
 11235 c785 33       		.uleb128 0x33
 11236 c786 4546495F 		.ascii "EFI_SERIAL_DATA_TERMINAL_READY 0x0001\0"
 11236      53455249 
 11236      414C5F44 
 11236      4154415F 
 11236      5445524D 
 11237 c7ac 01       		.byte	0x1
 11238 c7ad 34       		.uleb128 0x34
 11239 c7ae 4546495F 		.ascii "EFI_SERIAL_INPUT_BUFFER_EMPTY 0x0100\0"
 11239      53455249 
 11239      414C5F49 
 11239      4E505554 
 11239      5F425546 
 11240 c7d3 01       		.byte	0x1
 11241 c7d4 35       		.uleb128 0x35
 11242 c7d5 4546495F 		.ascii "EFI_SERIAL_OUTPUT_BUFFER_EMPTY 0x0200\0"
 11242      53455249 
 11242      414C5F4F 
 11242      55545055 
 11242      545F4255 
 11243 c7fb 01       		.byte	0x1
 11244 c7fc 36       		.uleb128 0x36
 11245 c7fd 4546495F 		.ascii "EFI_SERIAL_HARDWARE_LOOPBACK_ENABLE 0x1000\0"
 11245      53455249 
 11245      414C5F48 
 11245      41524457 
 11245      4152455F 
 11246 c828 01       		.byte	0x1
 11247 c829 37       		.uleb128 0x37
 11248 c82a 4546495F 		.ascii "EFI_SERIAL_SOFTWARE_LOOPBACK_ENABLE 0x2000\0"
 11248      53455249 
 11248      414C5F53 
 11248      4F465457 
 11248      4152455F 
 11249 c855 01       		.byte	0x1
 11250 c856 38       		.uleb128 0x38
 11251 c857 4546495F 		.ascii "EFI_SERIAL_HARDWARE_FLOW_CONTROL_ENABLE 0x4000\0"
 11251      53455249 
 11251      414C5F48 
 11251      41524457 
 11251      4152455F 
 11252 c886 01       		.byte	0x1
 11253 c887 76       		.uleb128 0x76
 11254 c888 53455249 		.ascii "SERIAL_IO_INTERFACE_REVISION 0x00010000\0"
 11254      414C5F49 
 11254      4F5F494E 
 11254      54455246 
 11254      4143455F 
 11255 c8b0 04       		.byte	0x4
 11256              		.file 26 "gnu-efi-3.0.18/inc/efi_nii.h"
 11257 c8b1 03       		.byte	0x3
 11258 c8b2 49       		.uleb128 0x49
 11259 c8b3 1A       		.uleb128 0x1a
 11260 c8b4 01       		.byte	0x1
 11261 c8b5 02       		.uleb128 0x2
 11262 c8b6 5F454649 		.ascii "_EFI_NII_H \0"
 11262      5F4E4949 
 11262      5F482000 
 11263 c8c2 01       		.byte	0x1
 11264 c8c3 14       		.uleb128 0x14
 11265 c8c4 4546495F 		.ascii "EFI_NETWORK_INTERFACE_IDENTIFIER_PROTOCOL_GUID { 0xE18541CD, 0xF755, 0x4f73, {0x92, 0x8D, 
 11265      4E455457 
 11265      4F524B5F 
 11265      494E5445 
 11265      52464143 
 11266 c944 01       		.byte	0x1
 11267 c945 17       		.uleb128 0x17
 11268 c946 4546495F 		.ascii "EFI_NETWORK_INTERFACE_IDENTIFIER_PROTOCOL_REVISION 0x00010000\0"
 11268      4E455457 
 11268      4F524B5F 
 11268      494E5445 
 11268      52464143 
 11269 c984 01       		.byte	0x1
 11270 c985 18       		.uleb128 0x18
 11271 c986 4546495F 		.ascii "EFI_NETWORK_INTERFACE_IDENTIFIER_INTERFACE_REVISION EFI_NETWORK_INTERFACE_IDENTIFIER_PROTO
 11271      4E455457 
 11271      4F524B5F 
 11271      494E5445 
 11271      52464143 
 11272 c9ed 04       		.byte	0x4
 11273              		.file 27 "gnu-efi-3.0.18/inc/efipxebc.h"
 11274 c9ee 03       		.byte	0x3
 11275 c9ef 4A       		.uleb128 0x4a
 11276 c9f0 1B       		.uleb128 0x1b
 11277 c9f1 01       		.byte	0x1
 11278 c9f2 02       		.uleb128 0x2
 11279 c9f3 5F454649 		.ascii "_EFIPXEBC_H \0"
 11279      50584542 
 11279      435F4820 
 11279      00
 11280 ca00 01       		.byte	0x1
 11281 ca01 1A       		.uleb128 0x1a
 11282 ca02 4546495F 		.ascii "EFI_PXE_BASE_CODE_PROTOCOL_GUID { 0x03c4e603, 0xac28, 0x11d3, {0x9a, 0x2d, 0x00, 0x90, 0x2
 11282      5058455F 
 11282      42415345 
 11282      5F434F44 
 11282      455F5052 
 11283 ca73 01       		.byte	0x1
 11284 ca74 1F       		.uleb128 0x1f
 11285 ca75 44454641 		.ascii "DEFAULT_TTL 4\0"
 11285      554C545F 
 11285      54544C20 
 11285      3400
 11286 ca83 01       		.byte	0x1
 11287 ca84 20       		.uleb128 0x20
 11288 ca85 44454641 		.ascii "DEFAULT_ToS 0\0"
 11288      554C545F 
 11288      546F5320 
 11288      3000
 11289 ca93 01       		.byte	0x1
 11290 ca94 68       		.uleb128 0x68
 11291 ca95 4546495F 		.ascii "EFI_PXE_BASE_CODE_MAX_IPCNT 8\0"
 11291      5058455F 
 11291      42415345 
 11291      5F434F44 
 11291      455F4D41 
 11292 cab3 01       		.byte	0x1
 11293 cab4 70       		.uleb128 0x70
 11294 cab5 4546495F 		.ascii "EFI_PXE_BASE_CODE_IP_FILTER_STATION_IP 0x0001\0"
 11294      5058455F 
 11294      42415345 
 11294      5F434F44 
 11294      455F4950 
 11295 cae3 01       		.byte	0x1
 11296 cae4 71       		.uleb128 0x71
 11297 cae5 4546495F 		.ascii "EFI_PXE_BASE_CODE_IP_FILTER_BROADCAST 0x0002\0"
 11297      5058455F 
 11297      42415345 
 11297      5F434F44 
 11297      455F4950 
 11298 cb12 01       		.byte	0x1
 11299 cb13 72       		.uleb128 0x72
 11300 cb14 4546495F 		.ascii "EFI_PXE_BASE_CODE_IP_FILTER_PROMISCUOUS 0x0004\0"
 11300      5058455F 
 11300      42415345 
 11300      5F434F44 
 11300      455F4950 
 11301 cb43 01       		.byte	0x1
 11302 cb44 73       		.uleb128 0x73
 11303 cb45 4546495F 		.ascii "EFI_PXE_BASE_CODE_IP_FILTER_PROMISCUOUS_MULTICAST 0x0008\0"
 11303      5058455F 
 11303      42415345 
 11303      5F434F44 
 11303      455F4950 
 11304 cb7e 01       		.byte	0x1
 11305 cb7f 8801     		.uleb128 0x88
 11306 cb81 4546495F 		.ascii "EFI_PXE_BASE_CODE_UDP_OPFLAGS_ANY_SRC_IP 0x0001\0"
 11306      5058455F 
 11306      42415345 
 11306      5F434F44 
 11306      455F5544 
 11307 cbb1 01       		.byte	0x1
 11308 cbb2 8901     		.uleb128 0x89
 11309 cbb4 4546495F 		.ascii "EFI_PXE_BASE_CODE_UDP_OPFLAGS_ANY_SRC_PORT 0x0002\0"
 11309      5058455F 
 11309      42415345 
 11309      5F434F44 
 11309      455F5544 
 11310 cbe6 01       		.byte	0x1
 11311 cbe7 8A01     		.uleb128 0x8a
 11312 cbe9 4546495F 		.ascii "EFI_PXE_BASE_CODE_UDP_OPFLAGS_ANY_DEST_IP 0x0004\0"
 11312      5058455F 
 11312      42415345 
 11312      5F434F44 
 11312      455F5544 
 11313 cc1a 01       		.byte	0x1
 11314 cc1b 8B01     		.uleb128 0x8b
 11315 cc1d 4546495F 		.ascii "EFI_PXE_BASE_CODE_UDP_OPFLAGS_ANY_DEST_PORT 0x0008\0"
 11315      5058455F 
 11315      42415345 
 11315      5F434F44 
 11315      455F5544 
 11316 cc50 01       		.byte	0x1
 11317 cc51 8C01     		.uleb128 0x8c
 11318 cc53 4546495F 		.ascii "EFI_PXE_BASE_CODE_UDP_OPFLAGS_USE_FILTER 0x0010\0"
 11318      5058455F 
 11318      42415345 
 11318      5F434F44 
 11318      455F5544 
 11319 cc83 01       		.byte	0x1
 11320 cc84 8D01     		.uleb128 0x8d
 11321 cc86 4546495F 		.ascii "EFI_PXE_BASE_CODE_UDP_OPFLAGS_MAY_FRAGMENT 0x0020\0"
 11321      5058455F 
 11321      42415345 
 11321      5F434F44 
 11321      455F5544 
 11322 ccb8 01       		.byte	0x1
 11323 ccb9 9301     		.uleb128 0x93
 11324 ccbb 4546495F 		.ascii "EFI_PXE_BASE_CODE_BOOT_TYPE_BOOTSTRAP 0\0"
 11324      5058455F 
 11324      42415345 
 11324      5F434F44 
 11324      455F424F 
 11325 cce3 01       		.byte	0x1
 11326 cce4 9401     		.uleb128 0x94
 11327 cce6 4546495F 		.ascii "EFI_PXE_BASE_CODE_BOOT_TYPE_MS_WINNT_RIS 1\0"
 11327      5058455F 
 11327      42415345 
 11327      5F434F44 
 11327      455F424F 
 11328 cd11 01       		.byte	0x1
 11329 cd12 9501     		.uleb128 0x95
 11330 cd14 4546495F 		.ascii "EFI_PXE_BASE_CODE_BOOT_TYPE_INTEL_LCM 2\0"
 11330      5058455F 
 11330      42415345 
 11330      5F434F44 
 11330      455F424F 
 11331 cd3c 01       		.byte	0x1
 11332 cd3d 9601     		.uleb128 0x96
 11333 cd3f 4546495F 		.ascii "EFI_PXE_BASE_CODE_BOOT_TYPE_DOSUNDI 3\0"
 11333      5058455F 
 11333      42415345 
 11333      5F434F44 
 11333      455F424F 
 11334 cd65 01       		.byte	0x1
 11335 cd66 9701     		.uleb128 0x97
 11336 cd68 4546495F 		.ascii "EFI_PXE_BASE_CODE_BOOT_TYPE_NEC_ESMPRO 4\0"
 11336      5058455F 
 11336      42415345 
 11336      5F434F44 
 11336      455F424F 
 11337 cd91 01       		.byte	0x1
 11338 cd92 9801     		.uleb128 0x98
 11339 cd94 4546495F 		.ascii "EFI_PXE_BASE_CODE_BOOT_TYPE_IBM_WSoD 5\0"
 11339      5058455F 
 11339      42415345 
 11339      5F434F44 
 11339      455F424F 
 11340 cdbb 01       		.byte	0x1
 11341 cdbc 9901     		.uleb128 0x99
 11342 cdbe 4546495F 		.ascii "EFI_PXE_BASE_CODE_BOOT_TYPE_IBM_LCCM 6\0"
 11342      5058455F 
 11342      42415345 
 11342      5F434F44 
 11342      455F424F 
 11343 cde5 01       		.byte	0x1
 11344 cde6 9A01     		.uleb128 0x9a
 11345 cde8 4546495F 		.ascii "EFI_PXE_BASE_CODE_BOOT_TYPE_CA_UNICENTER_TNG 7\0"
 11345      5058455F 
 11345      42415345 
 11345      5F434F44 
 11345      455F424F 
 11346 ce17 01       		.byte	0x1
 11347 ce18 9B01     		.uleb128 0x9b
 11348 ce1a 4546495F 		.ascii "EFI_PXE_BASE_CODE_BOOT_TYPE_HP_OPENVIEW 8\0"
 11348      5058455F 
 11348      42415345 
 11348      5F434F44 
 11348      455F424F 
 11349 ce44 01       		.byte	0x1
 11350 ce45 9C01     		.uleb128 0x9c
 11351 ce47 4546495F 		.ascii "EFI_PXE_BASE_CODE_BOOT_TYPE_ALTIRIS_9 9\0"
 11351      5058455F 
 11351      42415345 
 11351      5F434F44 
 11351      455F424F 
 11352 ce6f 01       		.byte	0x1
 11353 ce70 9D01     		.uleb128 0x9d
 11354 ce72 4546495F 		.ascii "EFI_PXE_BASE_CODE_BOOT_TYPE_ALTIRIS_10 10\0"
 11354      5058455F 
 11354      42415345 
 11354      5F434F44 
 11354      455F424F 
 11355 ce9c 01       		.byte	0x1
 11356 ce9d 9E01     		.uleb128 0x9e
 11357 ce9f 4546495F 		.ascii "EFI_PXE_BASE_CODE_BOOT_TYPE_ALTIRIS_11 11\0"
 11357      5058455F 
 11357      42415345 
 11357      5F434F44 
 11357      455F424F 
 11358 cec9 01       		.byte	0x1
 11359 ceca 9F01     		.uleb128 0x9f
 11360 cecc 4546495F 		.ascii "EFI_PXE_BASE_CODE_BOOT_TYPE_NOT_USED_12 12\0"
 11360      5058455F 
 11360      42415345 
 11360      5F434F44 
 11360      455F424F 
 11361 cef7 01       		.byte	0x1
 11362 cef8 A001     		.uleb128 0xa0
 11363 cefa 4546495F 		.ascii "EFI_PXE_BASE_CODE_BOOT_TYPE_REDHAT_INSTALL 13\0"
 11363      5058455F 
 11363      42415345 
 11363      5F434F44 
 11363      455F424F 
 11364 cf28 01       		.byte	0x1
 11365 cf29 A101     		.uleb128 0xa1
 11366 cf2b 4546495F 		.ascii "EFI_PXE_BASE_CODE_BOOT_TYPE_REDHAT_BOOT 14\0"
 11366      5058455F 
 11366      42415345 
 11366      5F434F44 
 11366      455F424F 
 11367 cf56 01       		.byte	0x1
 11368 cf57 A201     		.uleb128 0xa2
 11369 cf59 4546495F 		.ascii "EFI_PXE_BASE_CODE_BOOT_TYPE_REMBO 15\0"
 11369      5058455F 
 11369      42415345 
 11369      5F434F44 
 11369      455F424F 
 11370 cf7e 01       		.byte	0x1
 11371 cf7f A301     		.uleb128 0xa3
 11372 cf81 4546495F 		.ascii "EFI_PXE_BASE_CODE_BOOT_TYPE_BEOBOOT 16\0"
 11372      5058455F 
 11372      42415345 
 11372      5F434F44 
 11372      455F424F 
 11373 cfa8 01       		.byte	0x1
 11374 cfa9 A901     		.uleb128 0xa9
 11375 cfab 4546495F 		.ascii "EFI_PXE_BASE_CODE_BOOT_TYPE_PXETEST 65535\0"
 11375      5058455F 
 11375      42415345 
 11375      5F434F44 
 11375      455F424F 
 11376 cfd5 01       		.byte	0x1
 11377 cfd6 AB01     		.uleb128 0xab
 11378 cfd8 4546495F 		.ascii "EFI_PXE_BASE_CODE_BOOT_LAYER_MASK 0x7FFF\0"
 11378      5058455F 
 11378      42415345 
 11378      5F434F44 
 11378      455F424F 
 11379 d001 01       		.byte	0x1
 11380 d002 AC01     		.uleb128 0xac
 11381 d004 4546495F 		.ascii "EFI_PXE_BASE_CODE_BOOT_LAYER_INITIAL 0x0000\0"
 11381      5058455F 
 11381      42415345 
 11381      5F434F44 
 11381      455F424F 
 11382 d030 01       		.byte	0x1
 11383 d031 DC01     		.uleb128 0xdc
 11384 d033 4546495F 		.ascii "EFI_PXE_BASE_CODE_MAX_ARP_ENTRIES 8\0"
 11384      5058455F 
 11384      42415345 
 11384      5F434F44 
 11384      455F4D41 
 11385 d057 01       		.byte	0x1
 11386 d058 DD01     		.uleb128 0xdd
 11387 d05a 4546495F 		.ascii "EFI_PXE_BASE_CODE_MAX_ROUTE_ENTRIES 8\0"
 11387      5058455F 
 11387      42415345 
 11387      5F434F44 
 11387      455F4D41 
 11388 d080 01       		.byte	0x1
 11389 d081 8C03     		.uleb128 0x18c
 11390 d083 4546495F 		.ascii "EFI_PXE_BASE_CODE_PROTOCOL_REVISION 0x00010000\0"
 11390      5058455F 
 11390      42415345 
 11390      5F434F44 
 11390      455F5052 
 11391 d0b2 01       		.byte	0x1
 11392 d0b3 8D03     		.uleb128 0x18d
 11393 d0b5 4546495F 		.ascii "EFI_PXE_BASE_CODE_INTERFACE_REVISION EFI_PXE_BASE_CODE_PROTOCOL_REVISION\0"
 11393      5058455F 
 11393      42415345 
 11393      5F434F44 
 11393      455F494E 
 11394 d0fe 01       		.byte	0x1
 11395 d0ff AC03     		.uleb128 0x1ac
 11396 d101 4546495F 		.ascii "EFI_PXE_BASE_CODE_CALLBACK_PROTOCOL_GUID { 0x245dca21, 0xfb7b, 0x11d3, {0x8f, 0x01, 0x00, 
 11396      5058455F 
 11396      42415345 
 11396      5F434F44 
 11396      455F4341 
 11397 d17b 01       		.byte	0x1
 11398 d17c B303     		.uleb128 0x1b3
 11399 d17e 4546495F 		.ascii "EFI_PXE_BASE_CODE_CALLBACK_PROTOCOL_REVISION 0x00010000\0"
 11399      5058455F 
 11399      42415345 
 11399      5F434F44 
 11399      455F4341 
 11400 d1b6 01       		.byte	0x1
 11401 d1b7 B403     		.uleb128 0x1b4
 11402 d1b9 4546495F 		.ascii "EFI_PXE_BASE_CODE_CALLBACK_INTERFACE_REVISION EFI_PXE_BASE_CODE_CALLBACK_PROTOCOL_REVISION
 11402      5058455F 
 11402      42415345 
 11402      5F434F44 
 11402      455F4341 
 11403 d214 04       		.byte	0x4
 11404              		.file 28 "gnu-efi-3.0.18/inc/efinet.h"
 11405 d215 03       		.byte	0x3
 11406 d216 4B       		.uleb128 0x4b
 11407 d217 1C       		.uleb128 0x1c
 11408 d218 01       		.byte	0x1
 11409 d219 02       		.uleb128 0x2
 11410 d21a 5F454649 		.ascii "_EFINET_H \0"
 11410      4E45545F 
 11410      482000
 11411 d225 01       		.byte	0x1
 11412 d226 17       		.uleb128 0x17
 11413 d227 4546495F 		.ascii "EFI_SIMPLE_NETWORK_PROTOCOL_GUID { 0xA19832B9, 0xAC25, 0x11D3, {0x9A, 0x2D, 0x00, 0x90, 0x
 11413      53494D50 
 11413      4C455F4E 
 11413      4554574F 
 11413      524B5F50 
 11414 d299 01       		.byte	0x1
 11415 d29a 7D       		.uleb128 0x7d
 11416 d29b 4546495F 		.ascii "EFI_SIMPLE_NETWORK_RECEIVE_UNICAST 0x01\0"
 11416      53494D50 
 11416      4C455F4E 
 11416      4554574F 
 11416      524B5F52 
 11417 d2c3 01       		.byte	0x1
 11418 d2c4 7E       		.uleb128 0x7e
 11419 d2c5 4546495F 		.ascii "EFI_SIMPLE_NETWORK_RECEIVE_MULTICAST 0x02\0"
 11419      53494D50 
 11419      4C455F4E 
 11419      4554574F 
 11419      524B5F52 
 11420 d2ef 01       		.byte	0x1
 11421 d2f0 7F       		.uleb128 0x7f
 11422 d2f1 4546495F 		.ascii "EFI_SIMPLE_NETWORK_RECEIVE_BROADCAST 0x04\0"
 11422      53494D50 
 11422      4C455F4E 
 11422      4554574F 
 11422      524B5F52 
 11423 d31b 01       		.byte	0x1
 11424 d31c 8001     		.uleb128 0x80
 11425 d31e 4546495F 		.ascii "EFI_SIMPLE_NETWORK_RECEIVE_PROMISCUOUS 0x08\0"
 11425      53494D50 
 11425      4C455F4E 
 11425      4554574F 
 11425      524B5F52 
 11426 d34a 01       		.byte	0x1
 11427 d34b 8101     		.uleb128 0x81
 11428 d34d 4546495F 		.ascii "EFI_SIMPLE_NETWORK_RECEIVE_PROMISCUOUS_MULTICAST 0x10\0"
 11428      53494D50 
 11428      4C455F4E 
 11428      4554574F 
 11428      524B5F52 
 11429 d383 01       		.byte	0x1
 11430 d384 8601     		.uleb128 0x86
 11431 d386 4546495F 		.ascii "EFI_SIMPLE_NETWORK_RECEIVE_INTERRUPT 0x01\0"
 11431      53494D50 
 11431      4C455F4E 
 11431      4554574F 
 11431      524B5F52 
 11432 d3b0 01       		.byte	0x1
 11433 d3b1 8701     		.uleb128 0x87
 11434 d3b3 4546495F 		.ascii "EFI_SIMPLE_NETWORK_TRANSMIT_INTERRUPT 0x02\0"
 11434      53494D50 
 11434      4C455F4E 
 11434      4554574F 
 11434      524B5F54 
 11435 d3de 01       		.byte	0x1
 11436 d3df 8801     		.uleb128 0x88
 11437 d3e1 4546495F 		.ascii "EFI_SIMPLE_NETWORK_COMMAND_INTERRUPT 0x04\0"
 11437      53494D50 
 11437      4C455F4E 
 11437      4554574F 
 11437      524B5F43 
 11438 d40b 01       		.byte	0x1
 11439 d40c 8901     		.uleb128 0x89
 11440 d40e 4546495F 		.ascii "EFI_SIMPLE_NETWORK_SOFTWARE_INTERRUPT 0x08\0"
 11440      53494D50 
 11440      4C455F4E 
 11440      4554574F 
 11440      524B5F53 
 11441 d439 01       		.byte	0x1
 11442 d43a 8D01     		.uleb128 0x8d
 11443 d43c 4D41585F 		.ascii "MAX_MCAST_FILTER_CNT 16\0"
 11443      4D434153 
 11443      545F4649 
 11443      4C544552 
 11443      5F434E54 
 11444 d454 01       		.byte	0x1
 11445 d455 BE02     		.uleb128 0x13e
 11446 d457 4546495F 		.ascii "EFI_SIMPLE_NETWORK_PROTOCOL_REVISION 0x00010000\0"
 11446      53494D50 
 11446      4C455F4E 
 11446      4554574F 
 11446      524B5F50 
 11447 d487 01       		.byte	0x1
 11448 d488 BF02     		.uleb128 0x13f
 11449 d48a 4546495F 		.ascii "EFI_SIMPLE_NETWORK_INTERFACE_REVISION EFI_SIMPLE_NETWORK_PROTOCOL_REVISION\0"
 11449      53494D50 
 11449      4C455F4E 
 11449      4554574F 
 11449      524B5F49 
 11450 d4d5 04       		.byte	0x4
 11451 d4d6 03       		.byte	0x3
 11452 d4d7 4C       		.uleb128 0x4c
 11453 d4d8 09       		.uleb128 0x9
 11454 d4d9 01       		.byte	0x1
 11455 d4da 02       		.uleb128 0x2
 11456 d4db 5F454649 		.ascii "_EFI_API_H \0"
 11456      5F415049 
 11456      5F482000 
 11457 d4e7 01       		.byte	0x1
 11458 d4e8 1B       		.uleb128 0x1b
 11459 d4e9 4546495F 		.ascii "EFI_SPECIFICATION_REVISION_MAJORMINOR(major,minor) ((major<<16) | (minor))\0"
 11459      53504543 
 11459      49464943 
 11459      4154494F 
 11459      4E5F5245 
 11460 d534 01       		.byte	0x1
 11461 d535 1C       		.uleb128 0x1c
 11462 d536 4546495F 		.ascii "EFI_SPECIFICATION_MAJOR_REVISION 1\0"
 11462      53504543 
 11462      49464943 
 11462      4154494F 
 11462      4E5F4D41 
 11463 d559 01       		.byte	0x1
 11464 d55a 1D       		.uleb128 0x1d
 11465 d55b 4546495F 		.ascii "EFI_SPECIFICATION_MINOR_REVISION 02\0"
 11465      53504543 
 11465      49464943 
 11465      4154494F 
 11465      4E5F4D49 
 11466 d57f 01       		.byte	0x1
 11467 d580 1E       		.uleb128 0x1e
 11468 d581 4546495F 		.ascii "EFI_SPECIFICATION_VERSION EFI_SPECIFICATION_REVISION_MAJORMINOR(EFI_SPECIFICATION_MAJOR_RE
 11468      53504543 
 11468      49464943 
 11468      4154494F 
 11468      4E5F5645 
 11469 d605 01       		.byte	0x1
 11470 d606 44       		.uleb128 0x44
 11471 d607 4E657874 		.ascii "NextMemoryDescriptor(Ptr,Size) ((EFI_MEMORY_DESCRIPTOR *) (((UINT8 *) Ptr) + Size))\0"
 11471      4D656D6F 
 11471      72794465 
 11471      73637269 
 11471      70746F72 
 11472 d65b 01       		.byte	0x1
 11473 d65c 5F       		.uleb128 0x5f
 11474 d65d 4546495F 		.ascii "EFI_OPTIONAL_PTR 0x00000001\0"
 11474      4F505449 
 11474      4F4E414C 
 11474      5F505452 
 11474      20307830 
 11475 d679 01       		.byte	0x1
 11476 d67a 60       		.uleb128 0x60
 11477 d67b 4546495F 		.ascii "EFI_INTERNAL_FNC 0x00000002\0"
 11477      494E5445 
 11477      524E414C 
 11477      5F464E43 
 11477      20307830 
 11478 d697 01       		.byte	0x1
 11479 d698 61       		.uleb128 0x61
 11480 d699 4546495F 		.ascii "EFI_INTERNAL_PTR 0x00000004\0"
 11480      494E5445 
 11480      524E414C 
 11480      5F505452 
 11480      20307830 
 11481 d6b5 01       		.byte	0x1
 11482 d6b6 70       		.uleb128 0x70
 11483 d6b7 4556545F 		.ascii "EVT_TIMER 0x80000000\0"
 11483      54494D45 
 11483      52203078 
 11483      38303030 
 11483      30303030 
 11484 d6cc 01       		.byte	0x1
 11485 d6cd 71       		.uleb128 0x71
 11486 d6ce 4556545F 		.ascii "EVT_RUNTIME 0x40000000\0"
 11486      52554E54 
 11486      494D4520 
 11486      30783430 
 11486      30303030 
 11487 d6e5 01       		.byte	0x1
 11488 d6e6 72       		.uleb128 0x72
 11489 d6e7 4556545F 		.ascii "EVT_RUNTIME_CONTEXT 0x20000000\0"
 11489      52554E54 
 11489      494D455F 
 11489      434F4E54 
 11489      45585420 
 11490 d706 01       		.byte	0x1
 11491 d707 74       		.uleb128 0x74
 11492 d708 4556545F 		.ascii "EVT_NOTIFY_WAIT 0x00000100\0"
 11492      4E4F5449 
 11492      46595F57 
 11492      41495420 
 11492      30783030 
 11493 d723 01       		.byte	0x1
 11494 d724 75       		.uleb128 0x75
 11495 d725 4556545F 		.ascii "EVT_NOTIFY_SIGNAL 0x00000200\0"
 11495      4E4F5449 
 11495      46595F53 
 11495      49474E41 
 11495      4C203078 
 11496 d742 01       		.byte	0x1
 11497 d743 77       		.uleb128 0x77
 11498 d744 4556545F 		.ascii "EVT_SIGNAL_EXIT_BOOT_SERVICES 0x00000201\0"
 11498      5349474E 
 11498      414C5F45 
 11498      5849545F 
 11498      424F4F54 
 11499 d76d 01       		.byte	0x1
 11500 d76e 78       		.uleb128 0x78
 11501 d76f 4556545F 		.ascii "EVT_SIGNAL_VIRTUAL_ADDRESS_CHANGE 0x60000202\0"
 11501      5349474E 
 11501      414C5F56 
 11501      49525455 
 11501      414C5F41 
 11502 d79c 01       		.byte	0x1
 11503 d79d 7A       		.uleb128 0x7a
 11504 d79e 4556545F 		.ascii "EVT_EFI_SIGNAL_MASK 0x000000FF\0"
 11504      4546495F 
 11504      5349474E 
 11504      414C5F4D 
 11504      41534B20 
 11505 d7bd 01       		.byte	0x1
 11506 d7be 7B       		.uleb128 0x7b
 11507 d7bf 4556545F 		.ascii "EVT_EFI_SIGNAL_MAX 4\0"
 11507      4546495F 
 11507      5349474E 
 11507      414C5F4D 
 11507      41582034 
 11508 d7d4 01       		.byte	0x1
 11509 d7d5 7D       		.uleb128 0x7d
 11510 d7d6 4546495F 		.ascii "EFI_EVENT_TIMER EVT_TIMER\0"
 11510      4556454E 
 11510      545F5449 
 11510      4D455220 
 11510      4556545F 
 11511 d7f0 01       		.byte	0x1
 11512 d7f1 7E       		.uleb128 0x7e
 11513 d7f2 4546495F 		.ascii "EFI_EVENT_RUNTIME EVT_RUNTIME\0"
 11513      4556454E 
 11513      545F5255 
 11513      4E54494D 
 11513      45204556 
 11514 d810 01       		.byte	0x1
 11515 d811 7F       		.uleb128 0x7f
 11516 d812 4546495F 		.ascii "EFI_EVENT_RUNTIME_CONTEXT EVT_RUNTIME_CONTEXT\0"
 11516      4556454E 
 11516      545F5255 
 11516      4E54494D 
 11516      455F434F 
 11517 d840 01       		.byte	0x1
 11518 d841 8001     		.uleb128 0x80
 11519 d843 4546495F 		.ascii "EFI_EVENT_NOTIFY_WAIT EVT_NOTIFY_WAIT\0"
 11519      4556454E 
 11519      545F4E4F 
 11519      54494659 
 11519      5F574149 
 11520 d869 01       		.byte	0x1
 11521 d86a 8101     		.uleb128 0x81
 11522 d86c 4546495F 		.ascii "EFI_EVENT_NOTIFY_SIGNAL EVT_NOTIFY_SIGNAL\0"
 11522      4556454E 
 11522      545F4E4F 
 11522      54494659 
 11522      5F534947 
 11523 d896 01       		.byte	0x1
 11524 d897 8201     		.uleb128 0x82
 11525 d899 4546495F 		.ascii "EFI_EVENT_SIGNAL_EXIT_BOOT_SERVICES EVT_SIGNAL_EXIT_BOOT_SERVICES\0"
 11525      4556454E 
 11525      545F5349 
 11525      474E414C 
 11525      5F455849 
 11526 d8db 01       		.byte	0x1
 11527 d8dc 8301     		.uleb128 0x83
 11528 d8de 4546495F 		.ascii "EFI_EVENT_SIGNAL_VIRTUAL_ADDRESS_CHANGE EVT_SIGNAL_VIRTUAL_ADDRESS_CHANGE\0"
 11528      4556454E 
 11528      545F5349 
 11528      474E414C 
 11528      5F564952 
 11529 d928 01       		.byte	0x1
 11530 d929 8401     		.uleb128 0x84
 11531 d92b 4546495F 		.ascii "EFI_EVENT_EFI_SIGNAL_MASK EVT_EFI_SIGNAL_MASK\0"
 11531      4556454E 
 11531      545F4546 
 11531      495F5349 
 11531      474E414C 
 11532 d959 01       		.byte	0x1
 11533 d95a 8501     		.uleb128 0x85
 11534 d95c 4546495F 		.ascii "EFI_EVENT_EFI_SIGNAL_MAX EVT_EFI_SIGNAL_MAX\0"
 11534      4556454E 
 11534      545F4546 
 11534      495F5349 
 11534      474E414C 
 11535 d988 01       		.byte	0x1
 11536 d989 C601     		.uleb128 0xc6
 11537 d98b 54504C5F 		.ascii "TPL_APPLICATION 4\0"
 11537      4150504C 
 11537      49434154 
 11537      494F4E20 
 11537      3400
 11538 d99d 01       		.byte	0x1
 11539 d99e C701     		.uleb128 0xc7
 11540 d9a0 54504C5F 		.ascii "TPL_CALLBACK 8\0"
 11540      43414C4C 
 11540      4241434B 
 11540      203800
 11541 d9af 01       		.byte	0x1
 11542 d9b0 C801     		.uleb128 0xc8
 11543 d9b2 54504C5F 		.ascii "TPL_NOTIFY 16\0"
 11543      4E4F5449 
 11543      46592031 
 11543      3600
 11544 d9c0 01       		.byte	0x1
 11545 d9c1 C901     		.uleb128 0xc9
 11546 d9c3 54504C5F 		.ascii "TPL_HIGH_LEVEL 31\0"
 11546      48494748 
 11546      5F4C4556 
 11546      454C2033 
 11546      3100
 11547 d9d5 01       		.byte	0x1
 11548 d9d6 CA01     		.uleb128 0xca
 11549 d9d8 4546495F 		.ascii "EFI_TPL_APPLICATION TPL_APPLICATION\0"
 11549      54504C5F 
 11549      4150504C 
 11549      49434154 
 11549      494F4E20 
 11550 d9fc 01       		.byte	0x1
 11551 d9fd CB01     		.uleb128 0xcb
 11552 d9ff 4546495F 		.ascii "EFI_TPL_CALLBACK TPL_CALLBACK\0"
 11552      54504C5F 
 11552      43414C4C 
 11552      4241434B 
 11552      2054504C 
 11553 da1d 01       		.byte	0x1
 11554 da1e CC01     		.uleb128 0xcc
 11555 da20 4546495F 		.ascii "EFI_TPL_NOTIFY TPL_NOTIFY\0"
 11555      54504C5F 
 11555      4E4F5449 
 11555      46592054 
 11555      504C5F4E 
 11556 da3a 01       		.byte	0x1
 11557 da3b CD01     		.uleb128 0xcd
 11558 da3d 4546495F 		.ascii "EFI_TPL_HIGH_LEVEL TPL_HIGH_LEVEL\0"
 11558      54504C5F 
 11558      48494748 
 11558      5F4C4556 
 11558      454C2054 
 11559 da5f 01       		.byte	0x1
 11560 da60 DF01     		.uleb128 0xdf
 11561 da62 4546495F 		.ascii "EFI_GLOBAL_VARIABLE { 0x8BE4DF61, 0x93CA, 0x11d2, {0xAA, 0x0D, 0x00, 0xE0, 0x98, 0x03, 0x2
 11561      474C4F42 
 11561      414C5F56 
 11561      41524941 
 11561      424C4520 
 11562 dac7 01       		.byte	0x1
 11563 dac8 E301     		.uleb128 0xe3
 11564 daca 4546495F 		.ascii "EFI_VARIABLE_NON_VOLATILE 0x00000001\0"
 11564      56415249 
 11564      41424C45 
 11564      5F4E4F4E 
 11564      5F564F4C 
 11565 daef 01       		.byte	0x1
 11566 daf0 E401     		.uleb128 0xe4
 11567 daf2 4546495F 		.ascii "EFI_VARIABLE_BOOTSERVICE_ACCESS 0x00000002\0"
 11567      56415249 
 11567      41424C45 
 11567      5F424F4F 
 11567      54534552 
 11568 db1d 01       		.byte	0x1
 11569 db1e E501     		.uleb128 0xe5
 11570 db20 4546495F 		.ascii "EFI_VARIABLE_RUNTIME_ACCESS 0x00000004\0"
 11570      56415249 
 11570      41424C45 
 11570      5F52554E 
 11570      54494D45 
 11571 db47 01       		.byte	0x1
 11572 db48 E601     		.uleb128 0xe6
 11573 db4a 4546495F 		.ascii "EFI_VARIABLE_HARDWARE_ERROR_RECORD 0x00000008\0"
 11573      56415249 
 11573      41424C45 
 11573      5F484152 
 11573      44574152 
 11574 db78 01       		.byte	0x1
 11575 db79 E701     		.uleb128 0xe7
 11576 db7b 4546495F 		.ascii "EFI_VARIABLE_AUTHENTICATED_WRITE_ACCESS 0x00000010\0"
 11576      56415249 
 11576      41424C45 
 11576      5F415554 
 11576      48454E54 
 11577 dbae 01       		.byte	0x1
 11578 dbaf E801     		.uleb128 0xe8
 11579 dbb1 4546495F 		.ascii "EFI_VARIABLE_TIME_BASED_AUTHENTICATED_WRITE_ACCESS 0x00000020\0"
 11579      56415249 
 11579      41424C45 
 11579      5F54494D 
 11579      455F4241 
 11580 dbef 01       		.byte	0x1
 11581 dbf0 E901     		.uleb128 0xe9
 11582 dbf2 4546495F 		.ascii "EFI_VARIABLE_APPEND_WRITE 0x00000040\0"
 11582      56415249 
 11582      41424C45 
 11582      5F415050 
 11582      454E445F 
 11583 dc17 01       		.byte	0x1
 11584 dc18 EA01     		.uleb128 0xea
 11585 dc1a 4546495F 		.ascii "EFI_VARIABLE_ENHANCED_AUTHENTICATED_ACCESS 0x00000080\0"
 11585      56415249 
 11585      41424C45 
 11585      5F454E48 
 11585      414E4345 
 11586 dc50 01       		.byte	0x1
 11587 dc51 ED01     		.uleb128 0xed
 11588 dc53 4546495F 		.ascii "EFI_MAXIMUM_VARIABLE_SIZE 1024\0"
 11588      4D415849 
 11588      4D554D5F 
 11588      56415249 
 11588      41424C45 
 11589 dc72 01       		.byte	0x1
 11590 dc73 BD02     		.uleb128 0x13d
 11591 dc75 494D4147 		.ascii "IMAGE_SUBSYSTEM_EFI_APPLICATION 10\0"
 11591      455F5355 
 11591      42535953 
 11591      54454D5F 
 11591      4546495F 
 11592 dc98 01       		.byte	0x1
 11593 dc99 BE02     		.uleb128 0x13e
 11594 dc9b 494D4147 		.ascii "IMAGE_SUBSYSTEM_EFI_BOOT_SERVICE_DRIVER 11\0"
 11594      455F5355 
 11594      42535953 
 11594      54454D5F 
 11594      4546495F 
 11595 dcc6 01       		.byte	0x1
 11596 dcc7 BF02     		.uleb128 0x13f
 11597 dcc9 494D4147 		.ascii "IMAGE_SUBSYSTEM_EFI_RUNTIME_DRIVER 12\0"
 11597      455F5355 
 11597      42535953 
 11597      54454D5F 
 11597      4546495F 
 11598 dcef 01       		.byte	0x1
 11599 dcf0 C502     		.uleb128 0x145
 11600 dcf2 4546495F 		.ascii "EFI_IMAGE_MACHINE_IA32 0x014c\0"
 11600      494D4147 
 11600      455F4D41 
 11600      4348494E 
 11600      455F4941 
 11601 dd10 01       		.byte	0x1
 11602 dd11 C902     		.uleb128 0x149
 11603 dd13 4546495F 		.ascii "EFI_IMAGE_MACHINE_IA64 0x0200\0"
 11603      494D4147 
 11603      455F4D41 
 11603      4348494E 
 11603      455F4941 
 11604 dd31 01       		.byte	0x1
 11605 dd32 CD02     		.uleb128 0x14d
 11606 dd34 4546495F 		.ascii "EFI_IMAGE_MACHINE_EBC 0x0EBC\0"
 11606      494D4147 
 11606      455F4D41 
 11606      4348494E 
 11606      455F4542 
 11607 dd51 01       		.byte	0x1
 11608 dd52 D102     		.uleb128 0x151
 11609 dd54 4546495F 		.ascii "EFI_IMAGE_MACHINE_X64 0x8664\0"
 11609      494D4147 
 11609      455F4D41 
 11609      4348494E 
 11609      455F5836 
 11610 dd71 01       		.byte	0x1
 11611 dd72 D502     		.uleb128 0x155
 11612 dd74 4546495F 		.ascii "EFI_IMAGE_MACHINE_ARMTHUMB_MIXED 0x01C2\0"
 11612      494D4147 
 11612      455F4D41 
 11612      4348494E 
 11612      455F4152 
 11613 dd9c 01       		.byte	0x1
 11614 dd9d D902     		.uleb128 0x159
 11615 dd9f 4546495F 		.ascii "EFI_IMAGE_MACHINE_AARCH64 0xAA64\0"
 11615      494D4147 
 11615      455F4D41 
 11615      4348494E 
 11615      455F4141 
 11616 ddc0 01       		.byte	0x1
 11617 ddc1 DD02     		.uleb128 0x15d
 11618 ddc3 4546495F 		.ascii "EFI_IMAGE_MACHINE_RISCV32 0x5032\0"
 11618      494D4147 
 11618      455F4D41 
 11618      4348494E 
 11618      455F5249 
 11619 dde4 01       		.byte	0x1
 11620 dde5 E102     		.uleb128 0x161
 11621 dde7 4546495F 		.ascii "EFI_IMAGE_MACHINE_RISCV64 0x5064\0"
 11621      494D4147 
 11621      455F4D41 
 11621      4348494E 
 11621      455F5249 
 11622 de08 01       		.byte	0x1
 11623 de09 E502     		.uleb128 0x165
 11624 de0b 4546495F 		.ascii "EFI_IMAGE_MACHINE_RISCV128 0x5128\0"
 11624      494D4147 
 11624      455F4D41 
 11624      4348494E 
 11624      455F5249 
 11625 de2d 01       		.byte	0x1
 11626 de2e E902     		.uleb128 0x169
 11627 de30 4546495F 		.ascii "EFI_IMAGE_MACHINE_LOONGARCH32 0x6232\0"
 11627      494D4147 
 11627      455F4D41 
 11627      4348494E 
 11627      455F4C4F 
 11628 de55 01       		.byte	0x1
 11629 de56 ED02     		.uleb128 0x16d
 11630 de58 4546495F 		.ascii "EFI_IMAGE_MACHINE_LOONGARCH64 0x6264\0"
 11630      494D4147 
 11630      455F4D41 
 11630      4348494E 
 11630      455F4C4F 
 11631 de7d 01       		.byte	0x1
 11632 de7e E103     		.uleb128 0x1e1
 11633 de80 4546495F 		.ascii "EFI_OPEN_PROTOCOL_BY_HANDLE_PROTOCOL 0x00000001\0"
 11633      4F50454E 
 11633      5F50524F 
 11633      544F434F 
 11633      4C5F4259 
 11634 deb0 01       		.byte	0x1
 11635 deb1 E203     		.uleb128 0x1e2
 11636 deb3 4546495F 		.ascii "EFI_OPEN_PROTOCOL_GET_PROTOCOL 0x00000002\0"
 11636      4F50454E 
 11636      5F50524F 
 11636      544F434F 
 11636      4C5F4745 
 11637 dedd 01       		.byte	0x1
 11638 dede E303     		.uleb128 0x1e3
 11639 dee0 4546495F 		.ascii "EFI_OPEN_PROTOCOL_TEST_PROTOCOL 0x00000004\0"
 11639      4F50454E 
 11639      5F50524F 
 11639      544F434F 
 11639      4C5F5445 
 11640 df0b 01       		.byte	0x1
 11641 df0c E403     		.uleb128 0x1e4
 11642 df0e 4546495F 		.ascii "EFI_OPEN_PROTOCOL_BY_CHILD_CONTROLLER 0x00000008\0"
 11642      4F50454E 
 11642      5F50524F 
 11642      544F434F 
 11642      4C5F4259 
 11643 df3f 01       		.byte	0x1
 11644 df40 E503     		.uleb128 0x1e5
 11645 df42 4546495F 		.ascii "EFI_OPEN_PROTOCOL_BY_DRIVER 0x00000010\0"
 11645      4F50454E 
 11645      5F50524F 
 11645      544F434F 
 11645      4C5F4259 
 11646 df69 01       		.byte	0x1
 11647 df6a E603     		.uleb128 0x1e6
 11648 df6c 4546495F 		.ascii "EFI_OPEN_PROTOCOL_EXCLUSIVE 0x00000020\0"
 11648      4F50454E 
 11648      5F50524F 
 11648      544F434F 
 11648      4C5F4558 
 11649 df93 01       		.byte	0x1
 11650 df94 8805     		.uleb128 0x288
 11651 df96 43415053 		.ascii "CAPSULE_FLAGS_PERSIST_ACROSS_RESET 0x00010000\0"
 11651      554C455F 
 11651      464C4147 
 11651      535F5045 
 11651      52534953 
 11652 dfc4 01       		.byte	0x1
 11653 dfc5 8905     		.uleb128 0x289
 11654 dfc7 43415053 		.ascii "CAPSULE_FLAGS_POPULATE_SYSTEM_TABLE 0x00020000\0"
 11654      554C455F 
 11654      464C4147 
 11654      535F504F 
 11654      50554C41 
 11655 dff6 01       		.byte	0x1
 11656 dff7 8A05     		.uleb128 0x28a
 11657 dff9 43415053 		.ascii "CAPSULE_FLAGS_INITIATE_RESET 0x00040000\0"
 11657      554C455F 
 11657      464C4147 
 11657      535F494E 
 11657      49544941 
 11658 e021 01       		.byte	0x1
 11659 e022 8806     		.uleb128 0x308
 11660 e024 4546495F 		.ascii "EFI_RUNTIME_SERVICES_SIGNATURE 0x56524553544e5552\0"
 11660      52554E54 
 11660      494D455F 
 11660      53455256 
 11660      49434553 
 11661 e056 01       		.byte	0x1
 11662 e057 8906     		.uleb128 0x309
 11663 e059 4546495F 		.ascii "EFI_1_02_RUNTIME_SERVICES_REVISION EFI_SPECIFICATION_REVISION_MAJORMINOR(1, 02)\0"
 11663      315F3032 
 11663      5F52554E 
 11663      54494D45 
 11663      5F534552 
 11664 e0a9 01       		.byte	0x1
 11665 e0aa 8A06     		.uleb128 0x30a
 11666 e0ac 4546495F 		.ascii "EFI_1_10_RUNTIME_SERVICES_REVISION EFI_SPECIFICATION_REVISION_MAJORMINOR(1, 10)\0"
 11666      315F3130 
 11666      5F52554E 
 11666      54494D45 
 11666      5F534552 
 11667 e0fc 01       		.byte	0x1
 11668 e0fd 8B06     		.uleb128 0x30b
 11669 e0ff 4546495F 		.ascii "EFI_2_00_RUNTIME_SERVICES_REVISION EFI_SPECIFICATION_REVISION_MAJORMINOR(2, 00)\0"
 11669      325F3030 
 11669      5F52554E 
 11669      54494D45 
 11669      5F534552 
 11670 e14f 01       		.byte	0x1
 11671 e150 8C06     		.uleb128 0x30c
 11672 e152 4546495F 		.ascii "EFI_2_10_RUNTIME_SERVICES_REVISION EFI_SPECIFICATION_REVISION_MAJORMINOR(2, 10)\0"
 11672      325F3130 
 11672      5F52554E 
 11672      54494D45 
 11672      5F534552 
 11673 e1a2 01       		.byte	0x1
 11674 e1a3 8D06     		.uleb128 0x30d
 11675 e1a5 4546495F 		.ascii "EFI_2_20_RUNTIME_SERVICES_REVISION EFI_SPECIFICATION_REVISION_MAJORMINOR(2, 20)\0"
 11675      325F3230 
 11675      5F52554E 
 11675      54494D45 
 11675      5F534552 
 11676 e1f5 01       		.byte	0x1
 11677 e1f6 8E06     		.uleb128 0x30e
 11678 e1f8 4546495F 		.ascii "EFI_2_30_RUNTIME_SERVICES_REVISION EFI_SPECIFICATION_REVISION_MAJORMINOR(2, 30)\0"
 11678      325F3330 
 11678      5F52554E 
 11678      54494D45 
 11678      5F534552 
 11679 e248 01       		.byte	0x1
 11680 e249 8F06     		.uleb128 0x30f
 11681 e24b 4546495F 		.ascii "EFI_2_31_RUNTIME_SERVICES_REVISION EFI_SPECIFICATION_REVISION_MAJORMINOR(2, 31)\0"
 11681      325F3331 
 11681      5F52554E 
 11681      54494D45 
 11681      5F534552 
 11682 e29b 01       		.byte	0x1
 11683 e29c 9006     		.uleb128 0x310
 11684 e29e 4546495F 		.ascii "EFI_2_40_RUNTIME_SERVICES_REVISION EFI_SPECIFICATION_REVISION_MAJORMINOR(2, 40)\0"
 11684      325F3430 
 11684      5F52554E 
 11684      54494D45 
 11684      5F534552 
 11685 e2ee 01       		.byte	0x1
 11686 e2ef 9106     		.uleb128 0x311
 11687 e2f1 4546495F 		.ascii "EFI_2_50_RUNTIME_SERVICES_REVISION EFI_SPECIFICATION_REVISION_MAJORMINOR(2, 50)\0"
 11687      325F3530 
 11687      5F52554E 
 11687      54494D45 
 11687      5F534552 
 11688 e341 01       		.byte	0x1
 11689 e342 9206     		.uleb128 0x312
 11690 e344 4546495F 		.ascii "EFI_2_60_RUNTIME_SERVICES_REVISION EFI_SPECIFICATION_REVISION_MAJORMINOR(2, 60)\0"
 11690      325F3630 
 11690      5F52554E 
 11690      54494D45 
 11690      5F534552 
 11691 e394 01       		.byte	0x1
 11692 e395 9306     		.uleb128 0x313
 11693 e397 4546495F 		.ascii "EFI_2_70_RUNTIME_SERVICES_REVISION EFI_SPECIFICATION_REVISION_MAJORMINOR(2, 70)\0"
 11693      325F3730 
 11693      5F52554E 
 11693      54494D45 
 11693      5F534552 
 11694 e3e7 01       		.byte	0x1
 11695 e3e8 9406     		.uleb128 0x314
 11696 e3ea 4546495F 		.ascii "EFI_2_80_RUNTIME_SERVICES_REVISION EFI_SPECIFICATION_REVISION_MAJORMINOR(2, 80)\0"
 11696      325F3830 
 11696      5F52554E 
 11696      54494D45 
 11696      5F534552 
 11697 e43a 01       		.byte	0x1
 11698 e43b 9506     		.uleb128 0x315
 11699 e43d 4546495F 		.ascii "EFI_2_90_RUNTIME_SERVICES_REVISION EFI_SPECIFICATION_REVISION_MAJORMINOR(2, 90)\0"
 11699      325F3930 
 11699      5F52554E 
 11699      54494D45 
 11699      5F534552 
 11700 e48d 01       		.byte	0x1
 11701 e48e 9606     		.uleb128 0x316
 11702 e490 4546495F 		.ascii "EFI_2_100_RUNTIME_SERVICES_REVISION EFI_SPECIFICATION_REVISION_MAJORMINOR(2, 100)\0"
 11702      325F3130 
 11702      305F5255 
 11702      4E54494D 
 11702      455F5345 
 11703 e4e2 01       		.byte	0x1
 11704 e4e3 9706     		.uleb128 0x317
 11705 e4e5 4546495F 		.ascii "EFI_RUNTIME_SERVICES_REVISION EFI_SPECIFICATION_VERSION\0"
 11705      52554E54 
 11705      494D455F 
 11705      53455256 
 11705      49434553 
 11706 e51d 01       		.byte	0x1
 11707 e51e C506     		.uleb128 0x345
 11708 e520 4546495F 		.ascii "EFI_BOOT_SERVICES_SIGNATURE 0x56524553544f4f42\0"
 11708      424F4F54 
 11708      5F534552 
 11708      56494345 
 11708      535F5349 
 11709 e54f 01       		.byte	0x1
 11710 e550 C606     		.uleb128 0x346
 11711 e552 4546495F 		.ascii "EFI_1_02_BOOT_SERVICES_REVISION EFI_SPECIFICATION_REVISION_MAJORMINOR(1, 02)\0"
 11711      315F3032 
 11711      5F424F4F 
 11711      545F5345 
 11711      52564943 
 11712 e59f 01       		.byte	0x1
 11713 e5a0 C706     		.uleb128 0x347
 11714 e5a2 4546495F 		.ascii "EFI_1_10_BOOT_SERVICES_REVISION EFI_SPECIFICATION_REVISION_MAJORMINOR(1, 10)\0"
 11714      315F3130 
 11714      5F424F4F 
 11714      545F5345 
 11714      52564943 
 11715 e5ef 01       		.byte	0x1
 11716 e5f0 C806     		.uleb128 0x348
 11717 e5f2 4546495F 		.ascii "EFI_2_00_BOOT_SERVICES_REVISION EFI_SPECIFICATION_REVISION_MAJORMINOR(2, 00)\0"
 11717      325F3030 
 11717      5F424F4F 
 11717      545F5345 
 11717      52564943 
 11718 e63f 01       		.byte	0x1
 11719 e640 C906     		.uleb128 0x349
 11720 e642 4546495F 		.ascii "EFI_2_10_BOOT_SERVICES_REVISION EFI_SPECIFICATION_REVISION_MAJORMINOR(2, 10)\0"
 11720      325F3130 
 11720      5F424F4F 
 11720      545F5345 
 11720      52564943 
 11721 e68f 01       		.byte	0x1
 11722 e690 CA06     		.uleb128 0x34a
 11723 e692 4546495F 		.ascii "EFI_2_20_BOOT_SERVICES_REVISION EFI_SPECIFICATION_REVISION_MAJORMINOR(2, 20)\0"
 11723      325F3230 
 11723      5F424F4F 
 11723      545F5345 
 11723      52564943 
 11724 e6df 01       		.byte	0x1
 11725 e6e0 CB06     		.uleb128 0x34b
 11726 e6e2 4546495F 		.ascii "EFI_2_30_BOOT_SERVICES_REVISION EFI_SPECIFICATION_REVISION_MAJORMINOR(2, 30)\0"
 11726      325F3330 
 11726      5F424F4F 
 11726      545F5345 
 11726      52564943 
 11727 e72f 01       		.byte	0x1
 11728 e730 CC06     		.uleb128 0x34c
 11729 e732 4546495F 		.ascii "EFI_2_31_BOOT_SERVICES_REVISION EFI_SPECIFICATION_REVISION_MAJORMINOR(2, 31)\0"
 11729      325F3331 
 11729      5F424F4F 
 11729      545F5345 
 11729      52564943 
 11730 e77f 01       		.byte	0x1
 11731 e780 CD06     		.uleb128 0x34d
 11732 e782 4546495F 		.ascii "EFI_2_40_BOOT_SERVICES_REVISION EFI_SPECIFICATION_REVISION_MAJORMINOR(2, 40)\0"
 11732      325F3430 
 11732      5F424F4F 
 11732      545F5345 
 11732      52564943 
 11733 e7cf 01       		.byte	0x1
 11734 e7d0 CE06     		.uleb128 0x34e
 11735 e7d2 4546495F 		.ascii "EFI_2_50_BOOT_SERVICES_REVISION EFI_SPECIFICATION_REVISION_MAJORMINOR(2, 50)\0"
 11735      325F3530 
 11735      5F424F4F 
 11735      545F5345 
 11735      52564943 
 11736 e81f 01       		.byte	0x1
 11737 e820 CF06     		.uleb128 0x34f
 11738 e822 4546495F 		.ascii "EFI_2_60_BOOT_SERVICES_REVISION EFI_SPECIFICATION_REVISION_MAJORMINOR(2, 60)\0"
 11738      325F3630 
 11738      5F424F4F 
 11738      545F5345 
 11738      52564943 
 11739 e86f 01       		.byte	0x1
 11740 e870 D006     		.uleb128 0x350
 11741 e872 4546495F 		.ascii "EFI_2_70_BOOT_SERVICES_REVISION EFI_SPECIFICATION_REVISION_MAJORMINOR(2, 70)\0"
 11741      325F3730 
 11741      5F424F4F 
 11741      545F5345 
 11741      52564943 
 11742 e8bf 01       		.byte	0x1
 11743 e8c0 D106     		.uleb128 0x351
 11744 e8c2 4546495F 		.ascii "EFI_2_80_BOOT_SERVICES_REVISION EFI_SPECIFICATION_REVISION_MAJORMINOR(2, 80)\0"
 11744      325F3830 
 11744      5F424F4F 
 11744      545F5345 
 11744      52564943 
 11745 e90f 01       		.byte	0x1
 11746 e910 D206     		.uleb128 0x352
 11747 e912 4546495F 		.ascii "EFI_2_90_BOOT_SERVICES_REVISION EFI_SPECIFICATION_REVISION_MAJORMINOR(2, 90)\0"
 11747      325F3930 
 11747      5F424F4F 
 11747      545F5345 
 11747      52564943 
 11748 e95f 01       		.byte	0x1
 11749 e960 D306     		.uleb128 0x353
 11750 e962 4546495F 		.ascii "EFI_2_100_BOOT_SERVICES_REVISION EFI_SPECIFICATION_REVISION_MAJORMINOR(2, 100)\0"
 11750      325F3130 
 11750      305F424F 
 11750      4F545F53 
 11750      45525649 
 11751 e9b1 01       		.byte	0x1
 11752 e9b2 D406     		.uleb128 0x354
 11753 e9b4 4546495F 		.ascii "EFI_BOOT_SERVICES_REVISION EFI_SPECIFICATION_VERSION\0"
 11753      424F4F54 
 11753      5F534552 
 11753      56494345 
 11753      535F5245 
 11754 e9e9 01       		.byte	0x1
 11755 e9ea BF07     		.uleb128 0x3bf
 11756 e9ec 4D50535F 		.ascii "MPS_TABLE_GUID { 0xeb9d2d2f, 0x2d88, 0x11d3, {0x9a, 0x16, 0x0, 0x90, 0x27, 0x3f, 0xc1, 0x4
 11756      5441424C 
 11756      455F4755 
 11756      4944207B 
 11756      20307865 
 11757 ea4b 01       		.byte	0x1
 11758 ea4c C207     		.uleb128 0x3c2
 11759 ea4e 41435049 		.ascii "ACPI_TABLE_GUID { 0xeb9d2d30, 0x2d88, 0x11d3, {0x9a, 0x16, 0x0, 0x90, 0x27, 0x3f, 0xc1, 0x
 11759      5F544142 
 11759      4C455F47 
 11759      55494420 
 11759      7B203078 
 11760 eaae 01       		.byte	0x1
 11761 eaaf C507     		.uleb128 0x3c5
 11762 eab1 41435049 		.ascii "ACPI_20_TABLE_GUID { 0x8868e871, 0xe4f1, 0x11d3, {0xbc, 0x22, 0x0, 0x80, 0xc7, 0x3c, 0x88,
 11762      5F32305F 
 11762      5441424C 
 11762      455F4755 
 11762      4944207B 
 11763 eb14 01       		.byte	0x1
 11764 eb15 C807     		.uleb128 0x3c8
 11765 eb17 534D4249 		.ascii "SMBIOS_TABLE_GUID { 0xeb9d2d31, 0x2d88, 0x11d3, {0x9a, 0x16, 0x0, 0x90, 0x27, 0x3f, 0xc1, 
 11765      4F535F54 
 11765      41424C45 
 11765      5F475549 
 11765      44207B20 
 11766 eb79 01       		.byte	0x1
 11767 eb7a CB07     		.uleb128 0x3cb
 11768 eb7c 534D4249 		.ascii "SMBIOS3_TABLE_GUID { 0xf2fd1544, 0x9794, 0x4a2c, {0x99, 0x2e, 0xe5, 0xbb, 0xcf, 0x20, 0xe3
 11768      4F53335F 
 11768      5441424C 
 11768      455F4755 
 11768      4944207B 
 11769 ebe0 01       		.byte	0x1
 11770 ebe1 CE07     		.uleb128 0x3ce
 11771 ebe3 53414C5F 		.ascii "SAL_SYSTEM_TABLE_GUID { 0xeb9d2d32, 0x2d88, 0x11d3, {0x9a, 0x16, 0x0, 0x90, 0x27, 0x3f, 0x
 11771      53595354 
 11771      454D5F54 
 11771      41424C45 
 11771      5F475549 
 11772 ec49 01       		.byte	0x1
 11773 ec4a D107     		.uleb128 0x3d1
 11774 ec4c 4546495F 		.ascii "EFI_DTB_TABLE_GUID { 0xb1b621d5, 0xf19c, 0x41a5, {0x83, 0x0b, 0xd9, 0x15, 0x2c, 0x69, 0xaa
 11774      4454425F 
 11774      5441424C 
 11774      455F4755 
 11774      4944207B 
 11775 ecb0 01       		.byte	0x1
 11776 ecb1 E107     		.uleb128 0x3e1
 11777 ecb3 4546495F 		.ascii "EFI_SYSTEM_TABLE_SIGNATURE 0x5453595320494249\0"
 11777      53595354 
 11777      454D5F54 
 11777      41424C45 
 11777      5F534947 
 11778 ece1 01       		.byte	0x1
 11779 ece2 E207     		.uleb128 0x3e2
 11780 ece4 4546495F 		.ascii "EFI_1_02_SYSTEM_TABLE_REVISION EFI_SPECIFICATION_REVISION_MAJORMINOR(1, 02)\0"
 11780      315F3032 
 11780      5F535953 
 11780      54454D5F 
 11780      5441424C 
 11781 ed30 01       		.byte	0x1
 11782 ed31 E307     		.uleb128 0x3e3
 11783 ed33 4546495F 		.ascii "EFI_1_10_SYSTEM_TABLE_REVISION EFI_SPECIFICATION_REVISION_MAJORMINOR(1, 10)\0"
 11783      315F3130 
 11783      5F535953 
 11783      54454D5F 
 11783      5441424C 
 11784 ed7f 01       		.byte	0x1
 11785 ed80 E407     		.uleb128 0x3e4
 11786 ed82 4546495F 		.ascii "EFI_2_00_SYSTEM_TABLE_REVISION EFI_SPECIFICATION_REVISION_MAJORMINOR(2, 00)\0"
 11786      325F3030 
 11786      5F535953 
 11786      54454D5F 
 11786      5441424C 
 11787 edce 01       		.byte	0x1
 11788 edcf E507     		.uleb128 0x3e5
 11789 edd1 4546495F 		.ascii "EFI_2_10_SYSTEM_TABLE_REVISION EFI_SPECIFICATION_REVISION_MAJORMINOR(2, 10)\0"
 11789      325F3130 
 11789      5F535953 
 11789      54454D5F 
 11789      5441424C 
 11790 ee1d 01       		.byte	0x1
 11791 ee1e E607     		.uleb128 0x3e6
 11792 ee20 4546495F 		.ascii "EFI_2_20_SYSTEM_TABLE_REVISION EFI_SPECIFICATION_REVISION_MAJORMINOR(2, 20)\0"
 11792      325F3230 
 11792      5F535953 
 11792      54454D5F 
 11792      5441424C 
 11793 ee6c 01       		.byte	0x1
 11794 ee6d E707     		.uleb128 0x3e7
 11795 ee6f 4546495F 		.ascii "EFI_2_30_SYSTEM_TABLE_REVISION EFI_SPECIFICATION_REVISION_MAJORMINOR(2, 30)\0"
 11795      325F3330 
 11795      5F535953 
 11795      54454D5F 
 11795      5441424C 
 11796 eebb 01       		.byte	0x1
 11797 eebc E807     		.uleb128 0x3e8
 11798 eebe 4546495F 		.ascii "EFI_2_31_SYSTEM_TABLE_REVISION EFI_SPECIFICATION_REVISION_MAJORMINOR(2, 31)\0"
 11798      325F3331 
 11798      5F535953 
 11798      54454D5F 
 11798      5441424C 
 11799 ef0a 01       		.byte	0x1
 11800 ef0b E907     		.uleb128 0x3e9
 11801 ef0d 4546495F 		.ascii "EFI_2_40_SYSTEM_TABLE_REVISION EFI_SPECIFICATION_REVISION_MAJORMINOR(2, 40)\0"
 11801      325F3430 
 11801      5F535953 
 11801      54454D5F 
 11801      5441424C 
 11802 ef59 01       		.byte	0x1
 11803 ef5a EA07     		.uleb128 0x3ea
 11804 ef5c 4546495F 		.ascii "EFI_2_50_SYSTEM_TABLE_REVISION EFI_SPECIFICATION_REVISION_MAJORMINOR(2, 50)\0"
 11804      325F3530 
 11804      5F535953 
 11804      54454D5F 
 11804      5441424C 
 11805 efa8 01       		.byte	0x1
 11806 efa9 EB07     		.uleb128 0x3eb
 11807 efab 4546495F 		.ascii "EFI_2_60_SYSTEM_TABLE_REVISION EFI_SPECIFICATION_REVISION_MAJORMINOR(2, 60)\0"
 11807      325F3630 
 11807      5F535953 
 11807      54454D5F 
 11807      5441424C 
 11808 eff7 01       		.byte	0x1
 11809 eff8 EC07     		.uleb128 0x3ec
 11810 effa 4546495F 		.ascii "EFI_2_70_SYSTEM_TABLE_REVISION EFI_SPECIFICATION_REVISION_MAJORMINOR(2, 70)\0"
 11810      325F3730 
 11810      5F535953 
 11810      54454D5F 
 11810      5441424C 
 11811 f046 01       		.byte	0x1
 11812 f047 ED07     		.uleb128 0x3ed
 11813 f049 4546495F 		.ascii "EFI_2_80_SYSTEM_TABLE_REVISION EFI_SPECIFICATION_REVISION_MAJORMINOR(2, 80)\0"
 11813      325F3830 
 11813      5F535953 
 11813      54454D5F 
 11813      5441424C 
 11814 f095 01       		.byte	0x1
 11815 f096 EE07     		.uleb128 0x3ee
 11816 f098 4546495F 		.ascii "EFI_2_90_SYSTEM_TABLE_REVISION EFI_SPECIFICATION_REVISION_MAJORMINOR(2, 90)\0"
 11816      325F3930 
 11816      5F535953 
 11816      54454D5F 
 11816      5441424C 
 11817 f0e4 01       		.byte	0x1
 11818 f0e5 EF07     		.uleb128 0x3ef
 11819 f0e7 4546495F 		.ascii "EFI_2_100_SYSTEM_TABLE_REVISION EFI_SPECIFICATION_REVISION_MAJORMINOR(2, 100)\0"
 11819      325F3130 
 11819      305F5359 
 11819      5354454D 
 11819      5F544142 
 11820 f135 01       		.byte	0x1
 11821 f136 F007     		.uleb128 0x3f0
 11822 f138 4546495F 		.ascii "EFI_SYSTEM_TABLE_REVISION EFI_SPECIFICATION_VERSION\0"
 11822      53595354 
 11822      454D5F54 
 11822      41424C45 
 11822      5F524556 
 11823 f16c 04       		.byte	0x4
 11824              		.file 29 "gnu-efi-3.0.18/inc/efifs.h"
 11825 f16d 03       		.byte	0x3
 11826 f16e 4D       		.uleb128 0x4d
 11827 f16f 1D       		.uleb128 0x1d
 11828 f170 01       		.byte	0x1
 11829 f171 02       		.uleb128 0x2
 11830 f172 5F454649 		.ascii "_EFI_FS_H \0"
 11830      5F46535F 
 11830      482000
 11831 f17d 01       		.byte	0x1
 11832 f17e 1B       		.uleb128 0x1b
 11833 f17f 4546495F 		.ascii "EFI_PARTITION_SIGNATURE 0x5053595320494249\0"
 11833      50415254 
 11833      4954494F 
 11833      4E5F5349 
 11833      474E4154 
 11834 f1aa 01       		.byte	0x1
 11835 f1ab 1C       		.uleb128 0x1c
 11836 f1ac 4546495F 		.ascii "EFI_PARTITION_REVISION 0x00010001\0"
 11836      50415254 
 11836      4954494F 
 11836      4E5F5245 
 11836      56495349 
 11837 f1ce 01       		.byte	0x1
 11838 f1cf 1D       		.uleb128 0x1d
 11839 f1d0 4D494E5F 		.ascii "MIN_EFI_PARTITION_BLOCK_SIZE 512\0"
 11839      4546495F 
 11839      50415254 
 11839      4954494F 
 11839      4E5F424C 
 11840 f1f1 01       		.byte	0x1
 11841 f1f2 1E       		.uleb128 0x1e
 11842 f1f3 4546495F 		.ascii "EFI_PARTITION_LBA 1\0"
 11842      50415254 
 11842      4954494F 
 11842      4E5F4C42 
 11842      41203100 
 11843 f207 01       		.byte	0x1
 11844 f208 31       		.uleb128 0x31
 11845 f209 4546495F 		.ascii "EFI_FILE_HEADER_SIGNATURE 0x454c494620494249\0"
 11845      46494C45 
 11845      5F484541 
 11845      4445525F 
 11845      5349474E 
 11846 f236 01       		.byte	0x1
 11847 f237 32       		.uleb128 0x32
 11848 f238 4546495F 		.ascii "EFI_FILE_HEADER_REVISION 0x00010000\0"
 11848      46494C45 
 11848      5F484541 
 11848      4445525F 
 11848      52455649 
 11849 f25c 01       		.byte	0x1
 11850 f25d 33       		.uleb128 0x33
 11851 f25e 4546495F 		.ascii "EFI_FILE_STRING_SIZE 260\0"
 11851      46494C45 
 11851      5F535452 
 11851      494E475F 
 11851      53495A45 
 11852 f277 01       		.byte	0x1
 11853 f278 48       		.uleb128 0x48
 11854 f279 4546495F 		.ascii "EFI_FILE_LBAL(a) ((EFI_LBAL *) (((CHAR8 *) (a)) + (a)->LBALOffset))\0"
 11854      46494C45 
 11854      5F4C4241 
 11854      4C286129 
 11854      20282845 
 11855 f2bd 01       		.byte	0x1
 11856 f2be 4A       		.uleb128 0x4a
 11857 f2bf 4546495F 		.ascii "EFI_FILE_CLASS_FREE_SPACE 1\0"
 11857      46494C45 
 11857      5F434C41 
 11857      53535F46 
 11857      5245455F 
 11858 f2db 01       		.byte	0x1
 11859 f2dc 4B       		.uleb128 0x4b
 11860 f2dd 4546495F 		.ascii "EFI_FILE_CLASS_EMPTY 2\0"
 11860      46494C45 
 11860      5F434C41 
 11860      53535F45 
 11860      4D505459 
 11861 f2f4 01       		.byte	0x1
 11862 f2f5 4C       		.uleb128 0x4c
 11863 f2f6 4546495F 		.ascii "EFI_FILE_CLASS_NORMAL 3\0"
 11863      46494C45 
 11863      5F434C41 
 11863      53535F4E 
 11863      4F524D41 
 11864 f30e 01       		.byte	0x1
 11865 f30f 54       		.uleb128 0x54
 11866 f310 4546495F 		.ascii "EFI_LBAL_SIGNATURE 0x4c41424c20494249\0"
 11866      4C42414C 
 11866      5F534947 
 11866      4E415455 
 11866      52452030 
 11867 f336 01       		.byte	0x1
 11868 f337 55       		.uleb128 0x55
 11869 f338 4546495F 		.ascii "EFI_LBAL_REVISION 0x00010000\0"
 11869      4C42414C 
 11869      5F524556 
 11869      4953494F 
 11869      4E203078 
 11870 f355 01       		.byte	0x1
 11871 f356 61       		.uleb128 0x61
 11872 f357 4546495F 		.ascii "EFI_LBAL_ARRAY_SIZE(lbal,offs,blks) (((blks) - (offs) - (lbal)->Hdr.HeaderSize) / sizeof(E
 11872      4C42414C 
 11872      5F415252 
 11872      41595F53 
 11872      495A4528 
 11873 f3b9 01       		.byte	0x1
 11874 f3ba 71       		.uleb128 0x71
 11875 f3bb 4546495F 		.ascii "EFI_LBAL_RL(a) ((EFI_RL*) (((CHAR8 *) (a)) + (a)->Hdr.HeaderSize))\0"
 11875      4C42414C 
 11875      5F524C28 
 11875      61292028 
 11875      28454649 
 11876 f3fe 04       		.byte	0x4
 11877              		.file 30 "gnu-efi-3.0.18/inc/efierr.h"
 11878 f3ff 03       		.byte	0x3
 11879 f400 4E       		.uleb128 0x4e
 11880 f401 1E       		.uleb128 0x1e
 11881 f402 01       		.byte	0x1
 11882 f403 02       		.uleb128 0x2
 11883 f404 5F454649 		.ascii "_EFI_ERR_H \0"
 11883      5F455252 
 11883      5F482000 
 11884 f410 01       		.byte	0x1
 11885 f411 18       		.uleb128 0x18
 11886 f412 45464957 		.ascii "EFIWARN(a) (a)\0"
 11886      41524E28 
 11886      61292028 
 11886      612900
 11887 f421 01       		.byte	0x1
 11888 f422 19       		.uleb128 0x19
 11889 f423 4546495F 		.ascii "EFI_ERROR(a) (((INTN) a) < 0)\0"
 11889      4552524F 
 11889      52286129 
 11889      20282828 
 11889      494E544E 
 11890 f441 01       		.byte	0x1
 11891 f442 1C       		.uleb128 0x1c
 11892 f443 4546495F 		.ascii "EFI_SUCCESS 0\0"
 11892      53554343 
 11892      45535320 
 11892      3000
 11893 f451 01       		.byte	0x1
 11894 f452 1D       		.uleb128 0x1d
 11895 f453 4546495F 		.ascii "EFI_LOAD_ERROR EFIERR(1)\0"
 11895      4C4F4144 
 11895      5F455252 
 11895      4F522045 
 11895      46494552 
 11896 f46c 01       		.byte	0x1
 11897 f46d 1E       		.uleb128 0x1e
 11898 f46e 4546495F 		.ascii "EFI_INVALID_PARAMETER EFIERR(2)\0"
 11898      494E5641 
 11898      4C49445F 
 11898      50415241 
 11898      4D455445 
 11899 f48e 01       		.byte	0x1
 11900 f48f 1F       		.uleb128 0x1f
 11901 f490 4546495F 		.ascii "EFI_UNSUPPORTED EFIERR(3)\0"
 11901      554E5355 
 11901      50504F52 
 11901      54454420 
 11901      45464945 
 11902 f4aa 01       		.byte	0x1
 11903 f4ab 20       		.uleb128 0x20
 11904 f4ac 4546495F 		.ascii "EFI_BAD_BUFFER_SIZE EFIERR(4)\0"
 11904      4241445F 
 11904      42554646 
 11904      45525F53 
 11904      495A4520 
 11905 f4ca 01       		.byte	0x1
 11906 f4cb 21       		.uleb128 0x21
 11907 f4cc 4546495F 		.ascii "EFI_BUFFER_TOO_SMALL EFIERR(5)\0"
 11907      42554646 
 11907      45525F54 
 11907      4F4F5F53 
 11907      4D414C4C 
 11908 f4eb 01       		.byte	0x1
 11909 f4ec 22       		.uleb128 0x22
 11910 f4ed 4546495F 		.ascii "EFI_NOT_READY EFIERR(6)\0"
 11910      4E4F545F 
 11910      52454144 
 11910      59204546 
 11910      49455252 
 11911 f505 01       		.byte	0x1
 11912 f506 23       		.uleb128 0x23
 11913 f507 4546495F 		.ascii "EFI_DEVICE_ERROR EFIERR(7)\0"
 11913      44455649 
 11913      43455F45 
 11913      52524F52 
 11913      20454649 
 11914 f522 01       		.byte	0x1
 11915 f523 24       		.uleb128 0x24
 11916 f524 4546495F 		.ascii "EFI_WRITE_PROTECTED EFIERR(8)\0"
 11916      57524954 
 11916      455F5052 
 11916      4F544543 
 11916      54454420 
 11917 f542 01       		.byte	0x1
 11918 f543 25       		.uleb128 0x25
 11919 f544 4546495F 		.ascii "EFI_OUT_OF_RESOURCES EFIERR(9)\0"
 11919      4F55545F 
 11919      4F465F52 
 11919      45534F55 
 11919      52434553 
 11920 f563 01       		.byte	0x1
 11921 f564 26       		.uleb128 0x26
 11922 f565 4546495F 		.ascii "EFI_VOLUME_CORRUPTED EFIERR(10)\0"
 11922      564F4C55 
 11922      4D455F43 
 11922      4F525255 
 11922      50544544 
 11923 f585 01       		.byte	0x1
 11924 f586 27       		.uleb128 0x27
 11925 f587 4546495F 		.ascii "EFI_VOLUME_FULL EFIERR(11)\0"
 11925      564F4C55 
 11925      4D455F46 
 11925      554C4C20 
 11925      45464945 
 11926 f5a2 01       		.byte	0x1
 11927 f5a3 28       		.uleb128 0x28
 11928 f5a4 4546495F 		.ascii "EFI_NO_MEDIA EFIERR(12)\0"
 11928      4E4F5F4D 
 11928      45444941 
 11928      20454649 
 11928      45525228 
 11929 f5bc 01       		.byte	0x1
 11930 f5bd 29       		.uleb128 0x29
 11931 f5be 4546495F 		.ascii "EFI_MEDIA_CHANGED EFIERR(13)\0"
 11931      4D454449 
 11931      415F4348 
 11931      414E4745 
 11931      44204546 
 11932 f5db 01       		.byte	0x1
 11933 f5dc 2A       		.uleb128 0x2a
 11934 f5dd 4546495F 		.ascii "EFI_NOT_FOUND EFIERR(14)\0"
 11934      4E4F545F 
 11934      464F554E 
 11934      44204546 
 11934      49455252 
 11935 f5f6 01       		.byte	0x1
 11936 f5f7 2B       		.uleb128 0x2b
 11937 f5f8 4546495F 		.ascii "EFI_ACCESS_DENIED EFIERR(15)\0"
 11937      41434345 
 11937      53535F44 
 11937      454E4945 
 11937      44204546 
 11938 f615 01       		.byte	0x1
 11939 f616 2C       		.uleb128 0x2c
 11940 f617 4546495F 		.ascii "EFI_NO_RESPONSE EFIERR(16)\0"
 11940      4E4F5F52 
 11940      4553504F 
 11940      4E534520 
 11940      45464945 
 11941 f632 01       		.byte	0x1
 11942 f633 2D       		.uleb128 0x2d
 11943 f634 4546495F 		.ascii "EFI_NO_MAPPING EFIERR(17)\0"
 11943      4E4F5F4D 
 11943      41505049 
 11943      4E472045 
 11943      46494552 
 11944 f64e 01       		.byte	0x1
 11945 f64f 2E       		.uleb128 0x2e
 11946 f650 4546495F 		.ascii "EFI_TIMEOUT EFIERR(18)\0"
 11946      54494D45 
 11946      4F555420 
 11946      45464945 
 11946      52522831 
 11947 f667 01       		.byte	0x1
 11948 f668 2F       		.uleb128 0x2f
 11949 f669 4546495F 		.ascii "EFI_NOT_STARTED EFIERR(19)\0"
 11949      4E4F545F 
 11949      53544152 
 11949      54454420 
 11949      45464945 
 11950 f684 01       		.byte	0x1
 11951 f685 30       		.uleb128 0x30
 11952 f686 4546495F 		.ascii "EFI_ALREADY_STARTED EFIERR(20)\0"
 11952      414C5245 
 11952      4144595F 
 11952      53544152 
 11952      54454420 
 11953 f6a5 01       		.byte	0x1
 11954 f6a6 31       		.uleb128 0x31
 11955 f6a7 4546495F 		.ascii "EFI_ABORTED EFIERR(21)\0"
 11955      41424F52 
 11955      54454420 
 11955      45464945 
 11955      52522832 
 11956 f6be 01       		.byte	0x1
 11957 f6bf 32       		.uleb128 0x32
 11958 f6c0 4546495F 		.ascii "EFI_ICMP_ERROR EFIERR(22)\0"
 11958      49434D50 
 11958      5F455252 
 11958      4F522045 
 11958      46494552 
 11959 f6da 01       		.byte	0x1
 11960 f6db 33       		.uleb128 0x33
 11961 f6dc 4546495F 		.ascii "EFI_TFTP_ERROR EFIERR(23)\0"
 11961      54465450 
 11961      5F455252 
 11961      4F522045 
 11961      46494552 
 11962 f6f6 01       		.byte	0x1
 11963 f6f7 34       		.uleb128 0x34
 11964 f6f8 4546495F 		.ascii "EFI_PROTOCOL_ERROR EFIERR(24)\0"
 11964      50524F54 
 11964      4F434F4C 
 11964      5F455252 
 11964      4F522045 
 11965 f716 01       		.byte	0x1
 11966 f717 35       		.uleb128 0x35
 11967 f718 4546495F 		.ascii "EFI_INCOMPATIBLE_VERSION EFIERR(25)\0"
 11967      494E434F 
 11967      4D504154 
 11967      49424C45 
 11967      5F564552 
 11968 f73c 01       		.byte	0x1
 11969 f73d 36       		.uleb128 0x36
 11970 f73e 4546495F 		.ascii "EFI_SECURITY_VIOLATION EFIERR(26)\0"
 11970      53454355 
 11970      52495459 
 11970      5F56494F 
 11970      4C415449 
 11971 f760 01       		.byte	0x1
 11972 f761 37       		.uleb128 0x37
 11973 f762 4546495F 		.ascii "EFI_CRC_ERROR EFIERR(27)\0"
 11973      4352435F 
 11973      4552524F 
 11973      52204546 
 11973      49455252 
 11974 f77b 01       		.byte	0x1
 11975 f77c 38       		.uleb128 0x38
 11976 f77d 4546495F 		.ascii "EFI_END_OF_MEDIA EFIERR(28)\0"
 11976      454E445F 
 11976      4F465F4D 
 11976      45444941 
 11976      20454649 
 11977 f799 01       		.byte	0x1
 11978 f79a 39       		.uleb128 0x39
 11979 f79b 4546495F 		.ascii "EFI_END_OF_FILE EFIERR(31)\0"
 11979      454E445F 
 11979      4F465F46 
 11979      494C4520 
 11979      45464945 
 11980 f7b6 01       		.byte	0x1
 11981 f7b7 3A       		.uleb128 0x3a
 11982 f7b8 4546495F 		.ascii "EFI_INVALID_LANGUAGE EFIERR(32)\0"
 11982      494E5641 
 11982      4C49445F 
 11982      4C414E47 
 11982      55414745 
 11983 f7d8 01       		.byte	0x1
 11984 f7d9 3B       		.uleb128 0x3b
 11985 f7da 4546495F 		.ascii "EFI_COMPROMISED_DATA EFIERR(33)\0"
 11985      434F4D50 
 11985      524F4D49 
 11985      5345445F 
 11985      44415441 
 11986 f7fa 01       		.byte	0x1
 11987 f7fb 3C       		.uleb128 0x3c
 11988 f7fc 4546495F 		.ascii "EFI_IP_ADDRESS_CONFLICT EFIERR(34)\0"
 11988      49505F41 
 11988      44445245 
 11988      53535F43 
 11988      4F4E464C 
 11989 f81f 01       		.byte	0x1
 11990 f820 3D       		.uleb128 0x3d
 11991 f821 4546495F 		.ascii "EFI_HTTP_ERROR EFIERR(35)\0"
 11991      48545450 
 11991      5F455252 
 11991      4F522045 
 11991      46494552 
 11992 f83b 01       		.byte	0x1
 11993 f83c 3F       		.uleb128 0x3f
 11994 f83d 4546495F 		.ascii "EFI_WARN_UNKOWN_GLYPH EFIWARN(1)\0"
 11994      5741524E 
 11994      5F554E4B 
 11994      4F574E5F 
 11994      474C5950 
 11995 f85e 01       		.byte	0x1
 11996 f85f 40       		.uleb128 0x40
 11997 f860 4546495F 		.ascii "EFI_WARN_UNKNOWN_GLYPH EFIWARN(1)\0"
 11997      5741524E 
 11997      5F554E4B 
 11997      4E4F574E 
 11997      5F474C59 
 11998 f882 01       		.byte	0x1
 11999 f883 41       		.uleb128 0x41
 12000 f884 4546495F 		.ascii "EFI_WARN_DELETE_FAILURE EFIWARN(2)\0"
 12000      5741524E 
 12000      5F44454C 
 12000      4554455F 
 12000      4641494C 
 12001 f8a7 01       		.byte	0x1
 12002 f8a8 42       		.uleb128 0x42
 12003 f8a9 4546495F 		.ascii "EFI_WARN_WRITE_FAILURE EFIWARN(3)\0"
 12003      5741524E 
 12003      5F575249 
 12003      54455F46 
 12003      41494C55 
 12004 f8cb 01       		.byte	0x1
 12005 f8cc 43       		.uleb128 0x43
 12006 f8cd 4546495F 		.ascii "EFI_WARN_BUFFER_TOO_SMALL EFIWARN(4)\0"
 12006      5741524E 
 12006      5F425546 
 12006      4645525F 
 12006      544F4F5F 
 12007 f8f2 01       		.byte	0x1
 12008 f8f3 44       		.uleb128 0x44
 12009 f8f4 4546495F 		.ascii "EFI_WARN_STALE_DATA EFIWARN(5)\0"
 12009      5741524E 
 12009      5F535441 
 12009      4C455F44 
 12009      41544120 
 12010 f913 01       		.byte	0x1
 12011 f914 45       		.uleb128 0x45
 12012 f915 4546495F 		.ascii "EFI_WARN_FILE_SYSTEM EFIWARN(6)\0"
 12012      5741524E 
 12012      5F46494C 
 12012      455F5359 
 12012      5354454D 
 12013 f935 01       		.byte	0x1
 12014 f936 46       		.uleb128 0x46
 12015 f937 4546495F 		.ascii "EFI_WARN_RESET_REQUIRED EFIWARN(7)\0"
 12015      5741524E 
 12015      5F524553 
 12015      45545F52 
 12015      45515549 
 12016 f95a 04       		.byte	0x4
 12017              		.file 31 "gnu-efi-3.0.18/inc/efiui.h"
 12018 f95b 03       		.byte	0x3
 12019 f95c 4F       		.uleb128 0x4f
 12020 f95d 1F       		.uleb128 0x1f
 12021 f95e 01       		.byte	0x1
 12022 f95f 02       		.uleb128 0x2
 12023 f960 5F454649 		.ascii "_EFI_UI_H \0"
 12023      5F55495F 
 12023      482000
 12024 f96b 01       		.byte	0x1
 12025 f96c 1F       		.uleb128 0x1f
 12026 f96d 4546495F 		.ascii "EFI_UI_INTERFACE_PROTOCOL_GUID { 0x32dd7981, 0x2d27, 0x11d4, {0xbc, 0x8b, 0x0, 0x80, 0xc7,
 12026      55495F49 
 12026      4E544552 
 12026      46414345 
 12026      5F50524F 
 12027 f9dc 01       		.byte	0x1
 12028 f9dd 21       		.uleb128 0x21
 12029 f9de 4546495F 		.ascii "EFI_UI_PROTOCOL EFI_UI_INTERFACE_PROTOCOL_GUID\0"
 12029      55495F50 
 12029      524F544F 
 12029      434F4C20 
 12029      4546495F 
 12030 fa0d 01       		.byte	0x1
 12031 fa0e 2F       		.uleb128 0x2f
 12032 fa0f 4546495F 		.ascii "EFI_UI_INTERFACE_PROTOCOL_VERSION 0x00010000\0"
 12032      55495F49 
 12032      4E544552 
 12032      46414345 
 12032      5F50524F 
 12033 fa3c 01       		.byte	0x1
 12034 fa3d 30       		.uleb128 0x30
 12035 fa3e 4546495F 		.ascii "EFI_UI_VERSION EFI_UI_INTERFACE_PROTOCOL_VERSION\0"
 12035      55495F56 
 12035      45525349 
 12035      4F4E2045 
 12035      46495F55 
 12036 fa6f 04       		.byte	0x4
 12037              		.file 32 "gnu-efi-3.0.18/inc/efiip.h"
 12038 fa70 03       		.byte	0x3
 12039 fa71 50       		.uleb128 0x50
 12040 fa72 20       		.uleb128 0x20
 12041 fa73 01       		.byte	0x1
 12042 fa74 02       		.uleb128 0x2
 12043 fa75 5F454649 		.ascii "_EFI_IP_H \0"
 12043      5F49505F 
 12043      482000
 12044 fa80 01       		.byte	0x1
 12045 fa81 09       		.uleb128 0x9
 12046 fa82 4546495F 		.ascii "EFI_IP4_SERVICE_BINDING_PROTOCOL {0xc51711e7,0xb4bf,0x404a,{0xbf,0xb8,0x0a,0x04, 0x8e,0xf1
 12046      4950345F 
 12046      53455256 
 12046      4943455F 
 12046      42494E44 
 12047 fae9 01       		.byte	0x1
 12048 faea 0C       		.uleb128 0xc
 12049 faeb 4546495F 		.ascii "EFI_IP4_PROTOCOL {0x41d94cd2,0x35b6,0x455a,{0x82,0x58,0xd4,0xe5,0x13,0x34,0xaa,0xdd}}\0"
 12049      4950345F 
 12049      50524F54 
 12049      4F434F4C 
 12049      207B3078 
 12050 fb41 01       		.byte	0x1
 12051 fb42 0F       		.uleb128 0xf
 12052 fb43 4546495F 		.ascii "EFI_IP6_SERVICE_BINDING_PROTOCOL {0xec835dd3,0xfe0f,0x617b,{0xa6,0x21,0xb3,0x50,0xc3,0xe1,
 12052      4950365F 
 12052      53455256 
 12052      4943455F 
 12052      42494E44 
 12053 fba9 01       		.byte	0x1
 12054 fbaa 12       		.uleb128 0x12
 12055 fbab 4546495F 		.ascii "EFI_IP6_PROTOCOL {0x2c8759d5,0x5c2d,0x66ef,{0x92,0x5f,0xb6,0x6c,0x10,0x19,0x57,0xe2}}\0"
 12055      4950365F 
 12055      50524F54 
 12055      4F434F4C 
 12055      207B3078 
 12056 fc01 01       		.byte	0x1
 12057 fc02 8102     		.uleb128 0x101
 12058 fc04 49434D50 		.ascii "ICMP_V6_DEST_UNREACHABLE 0x1\0"
 12058      5F56365F 
 12058      44455354 
 12058      5F554E52 
 12058      45414348 
 12059 fc21 01       		.byte	0x1
 12060 fc22 8202     		.uleb128 0x102
 12061 fc24 49434D50 		.ascii "ICMP_V6_PACKET_TOO_BIG 0x2\0"
 12061      5F56365F 
 12061      5041434B 
 12061      45545F54 
 12061      4F4F5F42 
 12062 fc3f 01       		.byte	0x1
 12063 fc40 8302     		.uleb128 0x103
 12064 fc42 49434D50 		.ascii "ICMP_V6_TIME_EXCEEDED 0x3\0"
 12064      5F56365F 
 12064      54494D45 
 12064      5F455843 
 12064      45454445 
 12065 fc5c 01       		.byte	0x1
 12066 fc5d 8402     		.uleb128 0x104
 12067 fc5f 49434D50 		.ascii "ICMP_V6_PARAMETER_PROBLEM 0x4\0"
 12067      5F56365F 
 12067      50415241 
 12067      4D455445 
 12067      525F5052 
 12068 fc7d 01       		.byte	0x1
 12069 fc7e 8902     		.uleb128 0x109
 12070 fc80 49434D50 		.ascii "ICMP_V6_ECHO_REQUEST 0x80\0"
 12070      5F56365F 
 12070      4543484F 
 12070      5F524551 
 12070      55455354 
 12071 fc9a 01       		.byte	0x1
 12072 fc9b 8A02     		.uleb128 0x10a
 12073 fc9d 49434D50 		.ascii "ICMP_V6_ECHO_REPLY 0x81\0"
 12073      5F56365F 
 12073      4543484F 
 12073      5F524550 
 12073      4C592030 
 12074 fcb5 01       		.byte	0x1
 12075 fcb6 8B02     		.uleb128 0x10b
 12076 fcb8 49434D50 		.ascii "ICMP_V6_LISTENER_QUERY 0x82\0"
 12076      5F56365F 
 12076      4C495354 
 12076      454E4552 
 12076      5F515545 
 12077 fcd4 01       		.byte	0x1
 12078 fcd5 8C02     		.uleb128 0x10c
 12079 fcd7 49434D50 		.ascii "ICMP_V6_LISTENER_REPORT 0x83\0"
 12079      5F56365F 
 12079      4C495354 
 12079      454E4552 
 12079      5F524550 
 12080 fcf4 01       		.byte	0x1
 12081 fcf5 8D02     		.uleb128 0x10d
 12082 fcf7 49434D50 		.ascii "ICMP_V6_LISTENER_DONE 0x84\0"
 12082      5F56365F 
 12082      4C495354 
 12082      454E4552 
 12082      5F444F4E 
 12083 fd12 01       		.byte	0x1
 12084 fd13 8E02     		.uleb128 0x10e
 12085 fd15 49434D50 		.ascii "ICMP_V6_ROUTER_SOLICIT 0x85\0"
 12085      5F56365F 
 12085      524F5554 
 12085      45525F53 
 12085      4F4C4943 
 12086 fd31 01       		.byte	0x1
 12087 fd32 8F02     		.uleb128 0x10f
 12088 fd34 49434D50 		.ascii "ICMP_V6_ROUTER_ADVERTISE 0x86\0"
 12088      5F56365F 
 12088      524F5554 
 12088      45525F41 
 12088      44564552 
 12089 fd52 01       		.byte	0x1
 12090 fd53 9002     		.uleb128 0x110
 12091 fd55 49434D50 		.ascii "ICMP_V6_NEIGHBOR_SOLICIT 0x87\0"
 12091      5F56365F 
 12091      4E454947 
 12091      48424F52 
 12091      5F534F4C 
 12092 fd73 01       		.byte	0x1
 12093 fd74 9102     		.uleb128 0x111
 12094 fd76 49434D50 		.ascii "ICMP_V6_NEIGHBOR_ADVERTISE 0x88\0"
 12094      5F56365F 
 12094      4E454947 
 12094      48424F52 
 12094      5F414456 
 12095 fd96 01       		.byte	0x1
 12096 fd97 9202     		.uleb128 0x112
 12097 fd99 49434D50 		.ascii "ICMP_V6_REDIRECT 0x89\0"
 12097      5F56365F 
 12097      52454449 
 12097      52454354 
 12097      20307838 
 12098 fdaf 01       		.byte	0x1
 12099 fdb0 9302     		.uleb128 0x113
 12100 fdb2 49434D50 		.ascii "ICMP_V6_LISTENER_REPORT_2 0x8F\0"
 12100      5F56365F 
 12100      4C495354 
 12100      454E4552 
 12100      5F524550 
 12101 fdd1 01       		.byte	0x1
 12102 fdd2 9802     		.uleb128 0x118
 12103 fdd4 49434D50 		.ascii "ICMP_V6_NO_ROUTE_TO_DEST 0x0\0"
 12103      5F56365F 
 12103      4E4F5F52 
 12103      4F555445 
 12103      5F544F5F 
 12104 fdf1 01       		.byte	0x1
 12105 fdf2 9902     		.uleb128 0x119
 12106 fdf4 49434D50 		.ascii "ICMP_V6_COMM_PROHIBITED 0x1\0"
 12106      5F56365F 
 12106      434F4D4D 
 12106      5F50524F 
 12106      48494249 
 12107 fe10 01       		.byte	0x1
 12108 fe11 9A02     		.uleb128 0x11a
 12109 fe13 49434D50 		.ascii "ICMP_V6_BEYOND_SCOPE 0x2\0"
 12109      5F56365F 
 12109      4245594F 
 12109      4E445F53 
 12109      434F5045 
 12110 fe2c 01       		.byte	0x1
 12111 fe2d 9B02     		.uleb128 0x11b
 12112 fe2f 49434D50 		.ascii "ICMP_V6_ADDR_UNREACHABLE 0x3\0"
 12112      5F56365F 
 12112      41444452 
 12112      5F554E52 
 12112      45414348 
 12113 fe4c 01       		.byte	0x1
 12114 fe4d 9C02     		.uleb128 0x11c
 12115 fe4f 49434D50 		.ascii "ICMP_V6_PORT_UNREACHABLE 0x4\0"
 12115      5F56365F 
 12115      504F5254 
 12115      5F554E52 
 12115      45414348 
 12116 fe6c 01       		.byte	0x1
 12117 fe6d 9D02     		.uleb128 0x11d
 12118 fe6f 49434D50 		.ascii "ICMP_V6_SOURCE_ADDR_FAILED 0x5\0"
 12118      5F56365F 
 12118      534F5552 
 12118      43455F41 
 12118      4444525F 
 12119 fe8e 01       		.byte	0x1
 12120 fe8f 9E02     		.uleb128 0x11e
 12121 fe91 49434D50 		.ascii "ICMP_V6_ROUTE_REJECTED 0x6\0"
 12121      5F56365F 
 12121      524F5554 
 12121      455F5245 
 12121      4A454354 
 12122 feac 01       		.byte	0x1
 12123 fead A302     		.uleb128 0x123
 12124 feaf 49434D50 		.ascii "ICMP_V6_TIMEOUT_HOP_LIMIT 0x0\0"
 12124      5F56365F 
 12124      54494D45 
 12124      4F55545F 
 12124      484F505F 
 12125 fecd 01       		.byte	0x1
 12126 fece A402     		.uleb128 0x124
 12127 fed0 49434D50 		.ascii "ICMP_V6_TIMEOUT_REASSEMBLE 0x1\0"
 12127      5F56365F 
 12127      54494D45 
 12127      4F55545F 
 12127      52454153 
 12128 feef 01       		.byte	0x1
 12129 fef0 A902     		.uleb128 0x129
 12130 fef2 49434D50 		.ascii "ICMP_V6_ERRONEOUS_HEADER 0x0\0"
 12130      5F56365F 
 12130      4552524F 
 12130      4E454F55 
 12130      535F4845 
 12131 ff0f 01       		.byte	0x1
 12132 ff10 AA02     		.uleb128 0x12a
 12133 ff12 49434D50 		.ascii "ICMP_V6_UNRECOGNIZE_NEXT_HDR 0x1\0"
 12133      5F56365F 
 12133      554E5245 
 12133      434F474E 
 12133      495A455F 
 12134 ff33 01       		.byte	0x1
 12135 ff34 AB02     		.uleb128 0x12b
 12136 ff36 49434D50 		.ascii "ICMP_V6_UNRECOGNIZE_OPTION 0x2\0"
 12136      5F56365F 
 12136      554E5245 
 12136      434F474E 
 12136      495A455F 
 12137 ff55 04       		.byte	0x4
 12138              		.file 33 "gnu-efi-3.0.18/inc/efiudp.h"
 12139 ff56 03       		.byte	0x3
 12140 ff57 51       		.uleb128 0x51
 12141 ff58 21       		.uleb128 0x21
 12142 ff59 01       		.byte	0x1
 12143 ff5a 02       		.uleb128 0x2
 12144 ff5b 5F454649 		.ascii "_EFI_UDP_H \0"
 12144      5F554450 
 12144      5F482000 
 12145 ff67 01       		.byte	0x1
 12146 ff68 0A       		.uleb128 0xa
 12147 ff69 4546495F 		.ascii "EFI_UDP4_SERVICE_BINDING_PROTOCOL { 0x83f01464, 0x99bd, 0x45e5, {0xb3, 0x83, 0xaf, 0x63, 0
 12147      55445034 
 12147      5F534552 
 12147      56494345 
 12147      5F42494E 
 12148 ffdc 01       		.byte	0x1
 12149 ffdd 0D       		.uleb128 0xd
 12150 ffde 4546495F 		.ascii "EFI_UDP4_PROTOCOL { 0x3ad9df29, 0x4501, 0x478d, {0xb1, 0xf8, 0x7f, 0x7f, 0xe7, 0x0e, 0x50,
 12150      55445034 
 12150      5F50524F 
 12150      544F434F 
 12150      4C207B20 
 12151 10041 01       		.byte	0x1
 12152 10042 10       		.uleb128 0x10
 12153 10043 4546495F 		.ascii "EFI_UDP6_SERVICE_BINDING_PROTOCOL { 0x66ed4721, 0x3c98, 0x4d3e, {0x81, 0xe3, 0xd0, 0x3d, 0
 12153      55445036 
 12153      5F534552 
 12153      56494345 
 12153      5F42494E 
 12154 100b6 01       		.byte	0x1
 12155 100b7 13       		.uleb128 0x13
 12156 100b8 4546495F 		.ascii "EFI_UDP6_PROTOCOL { 0x4f948815, 0xb4b9, 0x43cb, {0x8a, 0x33, 0x90, 0xe0, 0x60, 0xb3,0x49, 
 12156      55445036 
 12156      5F50524F 
 12156      544F434F 
 12156      4C207B20 
 12157 1011a 01       		.byte	0x1
 12158 1011b 4E       		.uleb128 0x4e
 12159 1011c 4546495F 		.ascii "EFI_NETWORK_UNREACHABLE EFIERR(100)\0"
 12159      4E455457 
 12159      4F524B5F 
 12159      554E5245 
 12159      41434841 
 12160 10140 01       		.byte	0x1
 12161 10141 4F       		.uleb128 0x4f
 12162 10142 4546495F 		.ascii "EFI_HOST_UNREACHABLE EFIERR(101)\0"
 12162      484F5354 
 12162      5F554E52 
 12162      45414348 
 12162      41424C45 
 12163 10163 01       		.byte	0x1
 12164 10164 50       		.uleb128 0x50
 12165 10165 4546495F 		.ascii "EFI_PROTOCOL_UNREACHABLE EFIERR(102)\0"
 12165      50524F54 
 12165      4F434F4C 
 12165      5F554E52 
 12165      45414348 
 12166 1018a 01       		.byte	0x1
 12167 1018b 51       		.uleb128 0x51
 12168 1018c 4546495F 		.ascii "EFI_PORT_UNREACHABLE EFIERR(103)\0"
 12168      504F5254 
 12168      5F554E52 
 12168      45414348 
 12168      41424C45 
 12169 101ad 04       		.byte	0x4
 12170              		.file 34 "gnu-efi-3.0.18/inc/efitcp.h"
 12171 101ae 03       		.byte	0x3
 12172 101af 52       		.uleb128 0x52
 12173 101b0 22       		.uleb128 0x22
 12174 101b1 01       		.byte	0x1
 12175 101b2 02       		.uleb128 0x2
 12176 101b3 5F454649 		.ascii "_EFI_TCP_H \0"
 12176      5F544350 
 12176      5F482000 
 12177 101bf 01       		.byte	0x1
 12178 101c0 09       		.uleb128 0x9
 12179 101c1 4546495F 		.ascii "EFI_TCP4_SERVICE_BINDING_PROTOCOL { 0x00720665, 0x67eb, 0x4a99, {0xba, 0xf7, 0xd3, 0xc3, 0
 12179      54435034 
 12179      5F534552 
 12179      56494345 
 12179      5F42494E 
 12180 10232 01       		.byte	0x1
 12181 10233 0C       		.uleb128 0xc
 12182 10234 4546495F 		.ascii "EFI_TCP4_PROTOCOL { 0x65530bc7, 0xa359, 0x410f, {0xb0, 0x10, 0x5a, 0xad, 0xc7, 0xec, 0x2b,
 12182      54435034 
 12182      5F50524F 
 12182      544F434F 
 12182      4C207B20 
 12183 10296 01       		.byte	0x1
 12184 10297 0F       		.uleb128 0xf
 12185 10298 4546495F 		.ascii "EFI_TCP6_SERVICE_BINDING_PROTOCOL { 0xec20eb79, 0x6c1a, 0x4664, {0x9a, 0xd, 0xd2, 0xe4, 0x
 12185      54435036 
 12185      5F534552 
 12185      56494345 
 12185      5F42494E 
 12186 10309 01       		.byte	0x1
 12187 1030a 12       		.uleb128 0x12
 12188 1030b 4546495F 		.ascii "EFI_TCP6_PROTOCOL { 0x46e44855, 0xbd60, 0x4ab7, {0xab, 0xd, 0xa6, 0x79, 0xb9, 0x44, 0x7d, 
 12188      54435036 
 12188      5F50524F 
 12188      544F434F 
 12188      4C207B20 
 12189 1036c 01       		.byte	0x1
 12190 1036d 8701     		.uleb128 0x87
 12191 1036f 4546495F 		.ascii "EFI_CONNECTION_FIN EFIERR(104)\0"
 12191      434F4E4E 
 12191      45435449 
 12191      4F4E5F46 
 12191      494E2045 
 12192 1038e 01       		.byte	0x1
 12193 1038f 8801     		.uleb128 0x88
 12194 10391 4546495F 		.ascii "EFI_CONNECTION_RESET EFIERR(105)\0"
 12194      434F4E4E 
 12194      45435449 
 12194      4F4E5F52 
 12194      45534554 
 12195 103b2 01       		.byte	0x1
 12196 103b3 8901     		.uleb128 0x89
 12197 103b5 4546495F 		.ascii "EFI_CONNECTION_REFUSED EFIERR(106)\0"
 12197      434F4E4E 
 12197      45435449 
 12197      4F4E5F52 
 12197      45465553 
 12198 103d8 04       		.byte	0x4
 12199              		.file 35 "gnu-efi-3.0.18/inc/efipoint.h"
 12200 103d9 03       		.byte	0x3
 12201 103da 53       		.uleb128 0x53
 12202 103db 23       		.uleb128 0x23
 12203 103dc 01       		.byte	0x1
 12204 103dd 17       		.uleb128 0x17
 12205 103de 5F454649 		.ascii "_EFI_POINT_H \0"
 12205      5F504F49 
 12205      4E545F48 
 12205      2000
 12206 103ec 01       		.byte	0x1
 12207 103ed 19       		.uleb128 0x19
 12208 103ee 4546495F 		.ascii "EFI_SIMPLE_POINTER_PROTOCOL_GUID { 0x31878c87, 0xb75, 0x11d5, { 0x9a, 0x4f, 0x0, 0x90, 0x2
 12208      53494D50 
 12208      4C455F50 
 12208      4F494E54 
 12208      45525F50 
 12209 10460 01       		.byte	0x1
 12210 10461 43       		.uleb128 0x43
 12211 10462 4546495F 		.ascii "EFI_ABSOLUTE_POINTER_PROTOCOL_GUID { 0x8D59D32B, 0xC655, 0x4AE9, { 0x9B, 0x15, 0xF2, 0x59,
 12211      4142534F 
 12211      4C555445 
 12211      5F504F49 
 12211      4E544552 
 12212 104d8 01       		.byte	0x1
 12213 104d9 59       		.uleb128 0x59
 12214 104da 4546495F 		.ascii "EFI_ABSP_SupportsAltActive 0x00000001\0"
 12214      41425350 
 12214      5F537570 
 12214      706F7274 
 12214      73416C74 
 12215 10500 01       		.byte	0x1
 12216 10501 5A       		.uleb128 0x5a
 12217 10502 4546495F 		.ascii "EFI_ABSP_SupportsPressureAsZ 0x00000002\0"
 12217      41425350 
 12217      5F537570 
 12217      706F7274 
 12217      73507265 
 12218 1052a 01       		.byte	0x1
 12219 1052b 5B       		.uleb128 0x5b
 12220 1052c 4546495F 		.ascii "EFI_ABSP_TouchActive 0x00000001\0"
 12220      41425350 
 12220      5F546F75 
 12220      63684163 
 12220      74697665 
 12221 1054c 01       		.byte	0x1
 12222 1054d 5C       		.uleb128 0x5c
 12223 1054e 4546495F 		.ascii "EFI_ABS_AltActive 0x00000002\0"
 12223      4142535F 
 12223      416C7441 
 12223      63746976 
 12223      65203078 
 12224 1056b 04       		.byte	0x4
 12225              		.file 36 "gnu-efi-3.0.18/inc/efishell.h"
 12226 1056c 03       		.byte	0x3
 12227 1056d 54       		.uleb128 0x54
 12228 1056e 24       		.uleb128 0x24
 12229 1056f 01       		.byte	0x1
 12230 10570 0D       		.uleb128 0xd
 12231 10571 5F454649 		.ascii "_EFI_SHELL_H \0"
 12231      5F534845 
 12231      4C4C5F48 
 12231      2000
 12232              		.file 37 "gnu-efi-3.0.18/inc/efilink.h"
 12233 1057f 03       		.byte	0x3
 12234 10580 0F       		.uleb128 0xf
 12235 10581 25       		.uleb128 0x25
 12236 10582 01       		.byte	0x1
 12237 10583 02       		.uleb128 0x2
 12238 10584 5F454649 		.ascii "_EFI_LINK_H \0"
 12238      5F4C494E 
 12238      4B5F4820 
 12238      00
 12239 10591 01       		.byte	0x1
 12240 10592 2B       		.uleb128 0x2b
 12241 10593 496E6974 		.ascii "InitializeListHead(ListHead) (ListHead)->Flink = ListHead; (ListHead)->Blink = ListHead;\0
 12241      69616C69 
 12241      7A654C69 
 12241      73744865 
 12241      6164284C 
 12242 105ec 01       		.byte	0x1
 12243 105ed 36       		.uleb128 0x36
 12244 105ee 49734C69 		.ascii "IsListEmpty(ListHead) ((ListHead)->Flink == (ListHead))\0"
 12244      7374456D 
 12244      70747928 
 12244      4C697374 
 12244      48656164 
 12245 10626 01       		.byte	0x1
 12246 10627 40       		.uleb128 0x40
 12247 10628 5F52656D 		.ascii "_RemoveEntryList(Entry) { LIST_ENTRY *_Blink, *_Flink; _Flink = (Entry)->Flink; _Blink = (
 12247      6F766545 
 12247      6E747279 
 12247      4C697374 
 12247      28456E74 
 12248 106c3 01       		.byte	0x1
 12249 106c4 4E       		.uleb128 0x4e
 12250 106c5 52656D6F 		.ascii "RemoveEntryList(Entry) _RemoveEntryList(Entry);\0"
 12250      7665456E 
 12250      7472794C 
 12250      69737428 
 12250      456E7472 
 12251 106f5 01       		.byte	0x1
 12252 106f6 5A       		.uleb128 0x5a
 12253 106f7 496E7365 		.ascii "InsertTailList(ListHead,Entry) { LIST_ENTRY *_ListHead, *_Blink; _ListHead = (ListHead); _
 12253      72745461 
 12253      696C4C69 
 12253      7374284C 
 12253      69737448 
 12254 107d7 01       		.byte	0x1
 12255 107d8 6C       		.uleb128 0x6c
 12256 107d9 496E7365 		.ascii "InsertHeadList(ListHead,Entry) { LIST_ENTRY *_ListHead, *_Flink; _ListHead = (ListHead); _
 12256      72744865 
 12256      61644C69 
 12256      7374284C 
 12256      69737448 
 12257 108b9 01       		.byte	0x1
 12258 108ba 7E       		.uleb128 0x7e
 12259 108bb 53776170 		.ascii "SwapListEntries(Entry1,Entry2) { LIST_ENTRY *Entry1Flink, *Entry1Blink; LIST_ENTRY *Entry2
 12259      4C697374 
 12259      456E7472 
 12259      69657328 
 12259      456E7472 
 12260 10a60 01       		.byte	0x1
 12261 10a61 9101     		.uleb128 0x91
 12262 10a63 4546495F 		.ascii "EFI_FIELD_OFFSET(TYPE,Field) ((UINTN)(intptr_t)(&(((TYPE *) 0)->Field)))\0"
 12262      4649454C 
 12262      445F4F46 
 12262      46534554 
 12262      28545950 
 12263 10aac 01       		.byte	0x1
 12264 10aad 9801     		.uleb128 0x98
 12265 10aaf 5F435228 		.ascii "_CR(Record,TYPE,Field) ((TYPE *) ( (CHAR8 *)(Record) - (CHAR8 *) &(((TYPE *) 0)->Field)))\
 12265      5265636F 
 12265      72642C54 
 12265      5950452C 
 12265      4669656C 
 12266 10b09 01       		.byte	0x1
 12267 10b0a 9E01     		.uleb128 0x9e
 12268 10b0c 42415345 		.ascii "BASE_CR _CR\0"
 12268      5F435220 
 12268      5F435200 
 12269 10b18 01       		.byte	0x1
 12270 10b19 A601     		.uleb128 0xa6
 12271 10b1b 43522852 		.ascii "CR(Record,TYPE,Field,Signature) _CR(Record, TYPE, Field)\0"
 12271      65636F72 
 12271      642C5459 
 12271      50452C46 
 12271      69656C64 
 12272 10b54 04       		.byte	0x4
 12273 10b55 01       		.byte	0x1
 12274 10b56 11       		.uleb128 0x11
 12275 10b57 4546495F 		.ascii "EFI_SHELL_PROTOCOL_GUID { 0x6302d008, 0x7f9b, 0x4f30, { 0x87, 0xac, 0x60, 0xc9, 0xfe, 0xf5
 12275      5348454C 
 12275      4C5F5052 
 12275      4F544F43 
 12275      4F4C5F47 
 12276 10bc2 01       		.byte	0x1
 12277 10bc3 9801     		.uleb128 0x98
 12278 10bc5 4546495F 		.ascii "EFI_DEVICE_NAME_USE_COMPONENT_NAME 0x00000001\0"
 12278      44455649 
 12278      43455F4E 
 12278      414D455F 
 12278      5553455F 
 12279 10bf3 01       		.byte	0x1
 12280 10bf4 9901     		.uleb128 0x99
 12281 10bf6 4546495F 		.ascii "EFI_DEVICE_NAME_USE_DEVICE_PATH 0x00000002\0"
 12281      44455649 
 12281      43455F4E 
 12281      414D455F 
 12281      5553455F 
 12282 10c21 01       		.byte	0x1
 12283 10c22 9903     		.uleb128 0x199
 12284 10c24 4546495F 		.ascii "EFI_SHELL_PARAMETERS_PROTOCOL_GUID { 0x752f3136, 0x4e16, 0x4fdc, { 0xa2, 0x2a, 0xe5, 0xf4,
 12284      5348454C 
 12284      4C5F5041 
 12284      52414D45 
 12284      54455253 
 12285 10c9a 01       		.byte	0x1
 12286 10c9b A603     		.uleb128 0x1a6
 12287 10c9d 4546495F 		.ascii "EFI_SHELL_DYNAMIC_COMMAND_PROTOCOL_GUID { 0x3c7200e9, 0x005f, 0x4ea4, { 0x87, 0xde, 0xa3, 
 12287      5348454C 
 12287      4C5F4459 
 12287      4E414D49 
 12287      435F434F 
 12288 10d18 04       		.byte	0x4
 12289 10d19 04       		.byte	0x4
 12290 10d1a 03       		.byte	0x3
 12291 10d1b 18       		.uleb128 0x18
 12292 10d1c 0A       		.uleb128 0xa
 12293 10d1d 01       		.byte	0x1
 12294 10d1e 02       		.uleb128 0x2
 12295 10d1f 5F454649 		.ascii "_EFILIB_INCLUDE_ \0"
 12295      4C49425F 
 12295      494E434C 
 12295      5544455F 
 12295      2000
 12296              		.file 38 "gnu-efi-3.0.18/inc/efidebug.h"
 12297 10d31 03       		.byte	0x3
 12298 10d32 1A       		.uleb128 0x1a
 12299 10d33 26       		.uleb128 0x26
 12300 10d34 01       		.byte	0x1
 12301 10d35 02       		.uleb128 0x2
 12302 10d36 5F454649 		.ascii "_EFI_DEBUG_H \0"
 12302      5F444542 
 12302      55475F48 
 12302      2000
 12303 10d44 01       		.byte	0x1
 12304 10d45 1F       		.uleb128 0x1f
 12305 10d46 44424741 		.ascii "DBGASSERT(a) \0"
 12305      53534552 
 12305      54286129 
 12305      2000
 12306 10d54 01       		.byte	0x1
 12307 10d55 20       		.uleb128 0x20
 12308 10d56 44454255 		.ascii "DEBUG(a) \0"
 12308      47286129 
 12308      2000
 12309 10d60 01       		.byte	0x1
 12310 10d61 2A       		.uleb128 0x2a
 12311 10d62 44424753 		.ascii "DBGSETMEM(a,l) \0"
 12311      45544D45 
 12311      4D28612C 
 12311      6C292000 
 12312 10d72 01       		.byte	0x1
 12313 10d73 2E       		.uleb128 0x2e
 12314 10d74 445F494E 		.ascii "D_INIT 0x00000001\0"
 12314      49542030 
 12314      78303030 
 12314      30303030 
 12314      3100
 12315 10d86 01       		.byte	0x1
 12316 10d87 2F       		.uleb128 0x2f
 12317 10d88 445F5741 		.ascii "D_WARN 0x00000002\0"
 12317      524E2030 
 12317      78303030 
 12317      30303030 
 12317      3200
 12318 10d9a 01       		.byte	0x1
 12319 10d9b 30       		.uleb128 0x30
 12320 10d9c 445F4C4F 		.ascii "D_LOAD 0x00000004\0"
 12320      41442030 
 12320      78303030 
 12320      30303030 
 12320      3400
 12321 10dae 01       		.byte	0x1
 12322 10daf 31       		.uleb128 0x31
 12323 10db0 445F4653 		.ascii "D_FS 0x00000008\0"
 12323      20307830 
 12323      30303030 
 12323      30303800 
 12324 10dc0 01       		.byte	0x1
 12325 10dc1 32       		.uleb128 0x32
 12326 10dc2 445F504F 		.ascii "D_POOL 0x00000010\0"
 12326      4F4C2030 
 12326      78303030 
 12326      30303031 
 12326      3000
 12327 10dd4 01       		.byte	0x1
 12328 10dd5 33       		.uleb128 0x33
 12329 10dd6 445F5041 		.ascii "D_PAGE 0x00000020\0"
 12329      47452030 
 12329      78303030 
 12329      30303032 
 12329      3000
 12330 10de8 01       		.byte	0x1
 12331 10de9 34       		.uleb128 0x34
 12332 10dea 445F494E 		.ascii "D_INFO 0x00000040\0"
 12332      464F2030 
 12332      78303030 
 12332      30303034 
 12332      3000
 12333 10dfc 01       		.byte	0x1
 12334 10dfd 35       		.uleb128 0x35
 12335 10dfe 445F5641 		.ascii "D_VAR 0x00000100\0"
 12335      52203078 
 12335      30303030 
 12335      30313030 
 12335      00
 12336 10e0f 01       		.byte	0x1
 12337 10e10 36       		.uleb128 0x36
 12338 10e11 445F5041 		.ascii "D_PARSE 0x00000200\0"
 12338      52534520 
 12338      30783030 
 12338      30303032 
 12338      303000
 12339 10e24 01       		.byte	0x1
 12340 10e25 37       		.uleb128 0x37
 12341 10e26 445F424D 		.ascii "D_BM 0x00000400\0"
 12341      20307830 
 12341      30303030 
 12341      34303000 
 12342 10e36 01       		.byte	0x1
 12343 10e37 38       		.uleb128 0x38
 12344 10e38 445F424C 		.ascii "D_BLKIO 0x00001000\0"
 12344      4B494F20 
 12344      30783030 
 12344      30303130 
 12344      303000
 12345 10e4b 01       		.byte	0x1
 12346 10e4c 39       		.uleb128 0x39
 12347 10e4d 445F424C 		.ascii "D_BLKIO_ULTRA 0x00002000\0"
 12347      4B494F5F 
 12347      554C5452 
 12347      41203078 
 12347      30303030 
 12348 10e66 01       		.byte	0x1
 12349 10e67 3A       		.uleb128 0x3a
 12350 10e68 445F4E45 		.ascii "D_NET 0x00004000\0"
 12350      54203078 
 12350      30303030 
 12350      34303030 
 12350      00
 12351 10e79 01       		.byte	0x1
 12352 10e7a 3B       		.uleb128 0x3b
 12353 10e7b 445F4E45 		.ascii "D_NET_ULTRA 0x00008000\0"
 12353      545F554C 
 12353      54524120 
 12353      30783030 
 12353      30303830 
 12354 10e92 01       		.byte	0x1
 12355 10e93 3C       		.uleb128 0x3c
 12356 10e94 445F5458 		.ascii "D_TXTIN 0x00010000\0"
 12356      54494E20 
 12356      30783030 
 12356      30313030 
 12356      303000
 12357 10ea7 01       		.byte	0x1
 12358 10ea8 3D       		.uleb128 0x3d
 12359 10ea9 445F5458 		.ascii "D_TXTOUT 0x00020000\0"
 12359      544F5554 
 12359      20307830 
 12359      30303230 
 12359      30303000 
 12360 10ebd 01       		.byte	0x1
 12361 10ebe 3E       		.uleb128 0x3e
 12362 10ebf 445F4552 		.ascii "D_ERROR_ATA 0x00040000\0"
 12362      524F525F 
 12362      41544120 
 12362      30783030 
 12362      30343030 
 12363 10ed6 01       		.byte	0x1
 12364 10ed7 3F       		.uleb128 0x3f
 12365 10ed8 445F4552 		.ascii "D_ERROR 0x80000000\0"
 12365      524F5220 
 12365      30783830 
 12365      30303030 
 12365      303000
 12366 10eeb 01       		.byte	0x1
 12367 10eec 41       		.uleb128 0x41
 12368 10eed 445F5245 		.ascii "D_RESERVED 0x7fffC880\0"
 12368      53455256 
 12368      45442030 
 12368      78376666 
 12368      66433838 
 12369 10f03 01       		.byte	0x1
 12370 10f04 47       		.uleb128 0x47
 12371 10f05 4546495F 		.ascii "EFI_DBUG_MASK (D_ERROR)\0"
 12371      44425547 
 12371      5F4D4153 
 12371      4B202844 
 12371      5F455252 
 12372 10f1d 01       		.byte	0x1
 12373 10f1e 55       		.uleb128 0x55
 12374 10f1f 41535345 		.ascii "ASSERT(a) \0"
 12374      52542861 
 12374      292000
 12375 10f2a 01       		.byte	0x1
 12376 10f2b 56       		.uleb128 0x56
 12377 10f2c 41535345 		.ascii "ASSERT_LOCKED(l) \0"
 12377      52545F4C 
 12377      4F434B45 
 12377      44286C29 
 12377      2000
 12378 10f3e 01       		.byte	0x1
 12379 10f3f 57       		.uleb128 0x57
 12380 10f40 41535345 		.ascii "ASSERT_STRUCT(p,t) \0"
 12380      52545F53 
 12380      54525543 
 12380      5428702C 
 12380      74292000 
 12381 10f54 01       		.byte	0x1
 12382 10f55 74       		.uleb128 0x74
 12383 10f56 45584345 		.ascii "EXCEPT_IA32_DIVIDE_ERROR 0\0"
 12383      50545F49 
 12383      4133325F 
 12383      44495649 
 12383      44455F45 
 12384 10f71 01       		.byte	0x1
 12385 10f72 75       		.uleb128 0x75
 12386 10f73 45584345 		.ascii "EXCEPT_IA32_DEBUG 1\0"
 12386      50545F49 
 12386      4133325F 
 12386      44454255 
 12386      47203100 
 12387 10f87 01       		.byte	0x1
 12388 10f88 76       		.uleb128 0x76
 12389 10f89 45584345 		.ascii "EXCEPT_IA32_NMI 2\0"
 12389      50545F49 
 12389      4133325F 
 12389      4E4D4920 
 12389      3200
 12390 10f9b 01       		.byte	0x1
 12391 10f9c 77       		.uleb128 0x77
 12392 10f9d 45584345 		.ascii "EXCEPT_IA32_BREAKPOINT 3\0"
 12392      50545F49 
 12392      4133325F 
 12392      42524541 
 12392      4B504F49 
 12393 10fb6 01       		.byte	0x1
 12394 10fb7 78       		.uleb128 0x78
 12395 10fb8 45584345 		.ascii "EXCEPT_IA32_OVERFLOW 4\0"
 12395      50545F49 
 12395      4133325F 
 12395      4F564552 
 12395      464C4F57 
 12396 10fcf 01       		.byte	0x1
 12397 10fd0 79       		.uleb128 0x79
 12398 10fd1 45584345 		.ascii "EXCEPT_IA32_BOUND 5\0"
 12398      50545F49 
 12398      4133325F 
 12398      424F554E 
 12398      44203500 
 12399 10fe5 01       		.byte	0x1
 12400 10fe6 7A       		.uleb128 0x7a
 12401 10fe7 45584345 		.ascii "EXCEPT_IA32_INVALID_OPCODE 6\0"
 12401      50545F49 
 12401      4133325F 
 12401      494E5641 
 12401      4C49445F 
 12402 11004 01       		.byte	0x1
 12403 11005 7B       		.uleb128 0x7b
 12404 11006 45584345 		.ascii "EXCEPT_IA32_DOUBLE_FAULT 8\0"
 12404      50545F49 
 12404      4133325F 
 12404      444F5542 
 12404      4C455F46 
 12405 11021 01       		.byte	0x1
 12406 11022 7C       		.uleb128 0x7c
 12407 11023 45584345 		.ascii "EXCEPT_IA32_INVALID_TSS 10\0"
 12407      50545F49 
 12407      4133325F 
 12407      494E5641 
 12407      4C49445F 
 12408 1103e 01       		.byte	0x1
 12409 1103f 7D       		.uleb128 0x7d
 12410 11040 45584345 		.ascii "EXCEPT_IA32_SEG_NOT_PRESENT 11\0"
 12410      50545F49 
 12410      4133325F 
 12410      5345475F 
 12410      4E4F545F 
 12411 1105f 01       		.byte	0x1
 12412 11060 7E       		.uleb128 0x7e
 12413 11061 45584345 		.ascii "EXCEPT_IA32_STACK_FAULT 12\0"
 12413      50545F49 
 12413      4133325F 
 12413      53544143 
 12413      4B5F4641 
 12414 1107c 01       		.byte	0x1
 12415 1107d 7F       		.uleb128 0x7f
 12416 1107e 45584345 		.ascii "EXCEPT_IA32_GP_FAULT 13\0"
 12416      50545F49 
 12416      4133325F 
 12416      47505F46 
 12416      41554C54 
 12417 11096 01       		.byte	0x1
 12418 11097 8001     		.uleb128 0x80
 12419 11099 45584345 		.ascii "EXCEPT_IA32_PAGE_FAULT 14\0"
 12419      50545F49 
 12419      4133325F 
 12419      50414745 
 12419      5F464155 
 12420 110b3 01       		.byte	0x1
 12421 110b4 8101     		.uleb128 0x81
 12422 110b6 45584345 		.ascii "EXCEPT_IA32_FP_ERROR 16\0"
 12422      50545F49 
 12422      4133325F 
 12422      46505F45 
 12422      52524F52 
 12423 110ce 01       		.byte	0x1
 12424 110cf 8201     		.uleb128 0x82
 12425 110d1 45584345 		.ascii "EXCEPT_IA32_ALIGNMENT_CHECK 17\0"
 12425      50545F49 
 12425      4133325F 
 12425      414C4947 
 12425      4E4D454E 
 12426 110f0 01       		.byte	0x1
 12427 110f1 8301     		.uleb128 0x83
 12428 110f3 45584345 		.ascii "EXCEPT_IA32_MACHINE_CHECK 18\0"
 12428      50545F49 
 12428      4133325F 
 12428      4D414348 
 12428      494E455F 
 12429 11110 01       		.byte	0x1
 12430 11111 8401     		.uleb128 0x84
 12431 11113 45584345 		.ascii "EXCEPT_IA32_SIMD 19\0"
 12431      50545F49 
 12431      4133325F 
 12431      53494D44 
 12431      20313900 
 12432 11127 01       		.byte	0x1
 12433 11128 C901     		.uleb128 0xc9
 12434 1112a 45584345 		.ascii "EXCEPT_X64_DIVIDE_ERROR 0\0"
 12434      50545F58 
 12434      36345F44 
 12434      49564944 
 12434      455F4552 
 12435 11144 01       		.byte	0x1
 12436 11145 CA01     		.uleb128 0xca
 12437 11147 45584345 		.ascii "EXCEPT_X64_DEBUG 1\0"
 12437      50545F58 
 12437      36345F44 
 12437      45425547 
 12437      203100
 12438 1115a 01       		.byte	0x1
 12439 1115b CB01     		.uleb128 0xcb
 12440 1115d 45584345 		.ascii "EXCEPT_X64_NMI 2\0"
 12440      50545F58 
 12440      36345F4E 
 12440      4D492032 
 12440      00
 12441 1116e 01       		.byte	0x1
 12442 1116f CC01     		.uleb128 0xcc
 12443 11171 45584345 		.ascii "EXCEPT_X64_BREAKPOINT 3\0"
 12443      50545F58 
 12443      36345F42 
 12443      5245414B 
 12443      504F494E 
 12444 11189 01       		.byte	0x1
 12445 1118a CD01     		.uleb128 0xcd
 12446 1118c 45584345 		.ascii "EXCEPT_X64_OVERFLOW 4\0"
 12446      50545F58 
 12446      36345F4F 
 12446      56455246 
 12446      4C4F5720 
 12447 111a2 01       		.byte	0x1
 12448 111a3 CE01     		.uleb128 0xce
 12449 111a5 45584345 		.ascii "EXCEPT_X64_BOUND 5\0"
 12449      50545F58 
 12449      36345F42 
 12449      4F554E44 
 12449      203500
 12450 111b8 01       		.byte	0x1
 12451 111b9 CF01     		.uleb128 0xcf
 12452 111bb 45584345 		.ascii "EXCEPT_X64_INVALID_OPCODE 6\0"
 12452      50545F58 
 12452      36345F49 
 12452      4E56414C 
 12452      49445F4F 
 12453 111d7 01       		.byte	0x1
 12454 111d8 D001     		.uleb128 0xd0
 12455 111da 45584345 		.ascii "EXCEPT_X64_DOUBLE_FAULT 8\0"
 12455      50545F58 
 12455      36345F44 
 12455      4F55424C 
 12455      455F4641 
 12456 111f4 01       		.byte	0x1
 12457 111f5 D101     		.uleb128 0xd1
 12458 111f7 45584345 		.ascii "EXCEPT_X64_INVALID_TSS 10\0"
 12458      50545F58 
 12458      36345F49 
 12458      4E56414C 
 12458      49445F54 
 12459 11211 01       		.byte	0x1
 12460 11212 D201     		.uleb128 0xd2
 12461 11214 45584345 		.ascii "EXCEPT_X64_SEG_NOT_PRESENT 11\0"
 12461      50545F58 
 12461      36345F53 
 12461      45475F4E 
 12461      4F545F50 
 12462 11232 01       		.byte	0x1
 12463 11233 D301     		.uleb128 0xd3
 12464 11235 45584345 		.ascii "EXCEPT_X64_STACK_FAULT 12\0"
 12464      50545F58 
 12464      36345F53 
 12464      5441434B 
 12464      5F464155 
 12465 1124f 01       		.byte	0x1
 12466 11250 D401     		.uleb128 0xd4
 12467 11252 45584345 		.ascii "EXCEPT_X64_GP_FAULT 13\0"
 12467      50545F58 
 12467      36345F47 
 12467      505F4641 
 12467      554C5420 
 12468 11269 01       		.byte	0x1
 12469 1126a D501     		.uleb128 0xd5
 12470 1126c 45584345 		.ascii "EXCEPT_X64_PAGE_FAULT 14\0"
 12470      50545F58 
 12470      36345F50 
 12470      4147455F 
 12470      4641554C 
 12471 11285 01       		.byte	0x1
 12472 11286 D601     		.uleb128 0xd6
 12473 11288 45584345 		.ascii "EXCEPT_X64_FP_ERROR 16\0"
 12473      50545F58 
 12473      36345F46 
 12473      505F4552 
 12473      524F5220 
 12474 1129f 01       		.byte	0x1
 12475 112a0 D701     		.uleb128 0xd7
 12476 112a2 45584345 		.ascii "EXCEPT_X64_ALIGNMENT_CHECK 17\0"
 12476      50545F58 
 12476      36345F41 
 12476      4C49474E 
 12476      4D454E54 
 12477 112c0 01       		.byte	0x1
 12478 112c1 D801     		.uleb128 0xd8
 12479 112c3 45584345 		.ascii "EXCEPT_X64_MACHINE_CHECK 18\0"
 12479      50545F58 
 12479      36345F4D 
 12479      41434849 
 12479      4E455F43 
 12480 112df 01       		.byte	0x1
 12481 112e0 D901     		.uleb128 0xd9
 12482 112e2 45584345 		.ascii "EXCEPT_X64_SIMD 19\0"
 12482      50545F58 
 12482      36345F53 
 12482      494D4420 
 12482      313900
 12483 112f5 01       		.byte	0x1
 12484 112f6 A402     		.uleb128 0x124
 12485 112f8 45584345 		.ascii "EXCEPT_IPF_VHTP_TRANSLATION 0\0"
 12485      50545F49 
 12485      50465F56 
 12485      4854505F 
 12485      5452414E 
 12486 11316 01       		.byte	0x1
 12487 11317 A502     		.uleb128 0x125
 12488 11319 45584345 		.ascii "EXCEPT_IPF_INSTRUCTION_TLB 1\0"
 12488      50545F49 
 12488      50465F49 
 12488      4E535452 
 12488      55435449 
 12489 11336 01       		.byte	0x1
 12490 11337 A602     		.uleb128 0x126
 12491 11339 45584345 		.ascii "EXCEPT_IPF_DATA_TLB 2\0"
 12491      50545F49 
 12491      50465F44 
 12491      4154415F 
 12491      544C4220 
 12492 1134f 01       		.byte	0x1
 12493 11350 A702     		.uleb128 0x127
 12494 11352 45584345 		.ascii "EXCEPT_IPF_ALT_INSTRUCTION_TLB 3\0"
 12494      50545F49 
 12494      50465F41 
 12494      4C545F49 
 12494      4E535452 
 12495 11373 01       		.byte	0x1
 12496 11374 A802     		.uleb128 0x128
 12497 11376 45584345 		.ascii "EXCEPT_IPF_ALT_DATA_TLB 4\0"
 12497      50545F49 
 12497      50465F41 
 12497      4C545F44 
 12497      4154415F 
 12498 11390 01       		.byte	0x1
 12499 11391 A902     		.uleb128 0x129
 12500 11393 45584345 		.ascii "EXCEPT_IPF_DATA_NESTED_TLB 5\0"
 12500      50545F49 
 12500      50465F44 
 12500      4154415F 
 12500      4E455354 
 12501 113b0 01       		.byte	0x1
 12502 113b1 AA02     		.uleb128 0x12a
 12503 113b3 45584345 		.ascii "EXCEPT_IPF_INSTRUCTION_KEY_MISSED 6\0"
 12503      50545F49 
 12503      50465F49 
 12503      4E535452 
 12503      55435449 
 12504 113d7 01       		.byte	0x1
 12505 113d8 AB02     		.uleb128 0x12b
 12506 113da 45584345 		.ascii "EXCEPT_IPF_DATA_KEY_MISSED 7\0"
 12506      50545F49 
 12506      50465F44 
 12506      4154415F 
 12506      4B45595F 
 12507 113f7 01       		.byte	0x1
 12508 113f8 AC02     		.uleb128 0x12c
 12509 113fa 45584345 		.ascii "EXCEPT_IPF_DIRTY_BIT 8\0"
 12509      50545F49 
 12509      50465F44 
 12509      49525459 
 12509      5F424954 
 12510 11411 01       		.byte	0x1
 12511 11412 AD02     		.uleb128 0x12d
 12512 11414 45584345 		.ascii "EXCEPT_IPF_INSTRUCTION_ACCESS_BIT 9\0"
 12512      50545F49 
 12512      50465F49 
 12512      4E535452 
 12512      55435449 
 12513 11438 01       		.byte	0x1
 12514 11439 AE02     		.uleb128 0x12e
 12515 1143b 45584345 		.ascii "EXCEPT_IPF_DATA_ACCESS_BIT 10\0"
 12515      50545F49 
 12515      50465F44 
 12515      4154415F 
 12515      41434345 
 12516 11459 01       		.byte	0x1
 12517 1145a AF02     		.uleb128 0x12f
 12518 1145c 45584345 		.ascii "EXCEPT_IPF_BREAKPOINT 11\0"
 12518      50545F49 
 12518      50465F42 
 12518      5245414B 
 12518      504F494E 
 12519 11475 01       		.byte	0x1
 12520 11476 B002     		.uleb128 0x130
 12521 11478 45584345 		.ascii "EXCEPT_IPF_EXTERNAL_INTERRUPT 12\0"
 12521      50545F49 
 12521      50465F45 
 12521      58544552 
 12521      4E414C5F 
 12522 11499 01       		.byte	0x1
 12523 1149a B102     		.uleb128 0x131
 12524 1149c 45584345 		.ascii "EXCEPT_IPF_PAGE_NOT_PRESENT 20\0"
 12524      50545F49 
 12524      50465F50 
 12524      4147455F 
 12524      4E4F545F 
 12525 114bb 01       		.byte	0x1
 12526 114bc B202     		.uleb128 0x132
 12527 114be 45584345 		.ascii "EXCEPT_IPF_KEY_PERMISSION 21\0"
 12527      50545F49 
 12527      50465F4B 
 12527      45595F50 
 12527      45524D49 
 12528 114db 01       		.byte	0x1
 12529 114dc B302     		.uleb128 0x133
 12530 114de 45584345 		.ascii "EXCEPT_IPF_INSTRUCTION_ACCESS_RIGHTS 22\0"
 12530      50545F49 
 12530      50465F49 
 12530      4E535452 
 12530      55435449 
 12531 11506 01       		.byte	0x1
 12532 11507 B402     		.uleb128 0x134
 12533 11509 45584345 		.ascii "EXCEPT_IPF_DATA_ACCESS_RIGHTS 23\0"
 12533      50545F49 
 12533      50465F44 
 12533      4154415F 
 12533      41434345 
 12534 1152a 01       		.byte	0x1
 12535 1152b B502     		.uleb128 0x135
 12536 1152d 45584345 		.ascii "EXCEPT_IPF_GENERAL_EXCEPTION 24\0"
 12536      50545F49 
 12536      50465F47 
 12536      454E4552 
 12536      414C5F45 
 12537 1154d 01       		.byte	0x1
 12538 1154e B602     		.uleb128 0x136
 12539 11550 45584345 		.ascii "EXCEPT_IPF_DISABLED_FP_REGISTER 25\0"
 12539      50545F49 
 12539      50465F44 
 12539      49534142 
 12539      4C45445F 
 12540 11573 01       		.byte	0x1
 12541 11574 B702     		.uleb128 0x137
 12542 11576 45584345 		.ascii "EXCEPT_IPF_NAT_CONSUMPTION 26\0"
 12542      50545F49 
 12542      50465F4E 
 12542      41545F43 
 12542      4F4E5355 
 12543 11594 01       		.byte	0x1
 12544 11595 B802     		.uleb128 0x138
 12545 11597 45584345 		.ascii "EXCEPT_IPF_SPECULATION 27\0"
 12545      50545F49 
 12545      50465F53 
 12545      50454355 
 12545      4C415449 
 12546 115b1 01       		.byte	0x1
 12547 115b2 B902     		.uleb128 0x139
 12548 115b4 45584345 		.ascii "EXCEPT_IPF_DEBUG 29\0"
 12548      50545F49 
 12548      50465F44 
 12548      45425547 
 12548      20323900 
 12549 115c8 01       		.byte	0x1
 12550 115c9 BA02     		.uleb128 0x13a
 12551 115cb 45584345 		.ascii "EXCEPT_IPF_UNALIGNED_REFERENCE 30\0"
 12551      50545F49 
 12551      50465F55 
 12551      4E414C49 
 12551      474E4544 
 12552 115ed 01       		.byte	0x1
 12553 115ee BB02     		.uleb128 0x13b
 12554 115f0 45584345 		.ascii "EXCEPT_IPF_UNSUPPORTED_DATA_REFERENCE 31\0"
 12554      50545F49 
 12554      50465F55 
 12554      4E535550 
 12554      504F5254 
 12555 11619 01       		.byte	0x1
 12556 1161a BC02     		.uleb128 0x13c
 12557 1161c 45584345 		.ascii "EXCEPT_IPF_FP_FAULT 32\0"
 12557      50545F49 
 12557      50465F46 
 12557      505F4641 
 12557      554C5420 
 12558 11633 01       		.byte	0x1
 12559 11634 BD02     		.uleb128 0x13d
 12560 11636 45584345 		.ascii "EXCEPT_IPF_FP_TRAP 33\0"
 12560      50545F49 
 12560      50465F46 
 12560      505F5452 
 12560      41502033 
 12561 1164c 01       		.byte	0x1
 12562 1164d BE02     		.uleb128 0x13e
 12563 1164f 45584345 		.ascii "EXCEPT_IPF_LOWER_PRIVILEGE_TRANSFER_TRAP 34\0"
 12563      50545F49 
 12563      50465F4C 
 12563      4F574552 
 12563      5F505249 
 12564 1167b 01       		.byte	0x1
 12565 1167c BF02     		.uleb128 0x13f
 12566 1167e 45584345 		.ascii "EXCEPT_IPF_TAKEN_BRANCH 35\0"
 12566      50545F49 
 12566      50465F54 
 12566      414B454E 
 12566      5F425241 
 12567 11699 01       		.byte	0x1
 12568 1169a C002     		.uleb128 0x140
 12569 1169c 45584345 		.ascii "EXCEPT_IPF_SINGLE_STEP 36\0"
 12569      50545F49 
 12569      50465F53 
 12569      494E474C 
 12569      455F5354 
 12570 116b6 01       		.byte	0x1
 12571 116b7 C102     		.uleb128 0x141
 12572 116b9 45584345 		.ascii "EXCEPT_IPF_IA32_EXCEPTION 45\0"
 12572      50545F49 
 12572      50465F49 
 12572      4133325F 
 12572      45584345 
 12573 116d6 01       		.byte	0x1
 12574 116d7 C202     		.uleb128 0x142
 12575 116d9 45584345 		.ascii "EXCEPT_IPF_IA32_INTERCEPT 46\0"
 12575      50545F49 
 12575      50465F49 
 12575      4133325F 
 12575      494E5445 
 12576 116f6 01       		.byte	0x1
 12577 116f7 C302     		.uleb128 0x143
 12578 116f9 45584345 		.ascii "EXCEPT_IPF_IA32_INTERRUPT 47\0"
 12578      50545F49 
 12578      50465F49 
 12578      4133325F 
 12578      494E5445 
 12579 11716 01       		.byte	0x1
 12580 11717 C003     		.uleb128 0x1c0
 12581 11719 45584345 		.ascii "EXCEPT_EBC_UNDEFINED 0\0"
 12581      50545F45 
 12581      42435F55 
 12581      4E444546 
 12581      494E4544 
 12582 11730 01       		.byte	0x1
 12583 11731 C103     		.uleb128 0x1c1
 12584 11733 45584345 		.ascii "EXCEPT_EBC_DIVIDE_ERROR 1\0"
 12584      50545F45 
 12584      42435F44 
 12584      49564944 
 12584      455F4552 
 12585 1174d 01       		.byte	0x1
 12586 1174e C203     		.uleb128 0x1c2
 12587 11750 45584345 		.ascii "EXCEPT_EBC_DEBUG 2\0"
 12587      50545F45 
 12587      42435F44 
 12587      45425547 
 12587      203200
 12588 11763 01       		.byte	0x1
 12589 11764 C303     		.uleb128 0x1c3
 12590 11766 45584345 		.ascii "EXCEPT_EBC_BREAKPOINT 3\0"
 12590      50545F45 
 12590      42435F42 
 12590      5245414B 
 12590      504F494E 
 12591 1177e 01       		.byte	0x1
 12592 1177f C403     		.uleb128 0x1c4
 12593 11781 45584345 		.ascii "EXCEPT_EBC_OVERFLOW 4\0"
 12593      50545F45 
 12593      42435F4F 
 12593      56455246 
 12593      4C4F5720 
 12594 11797 01       		.byte	0x1
 12595 11798 C503     		.uleb128 0x1c5
 12596 1179a 45584345 		.ascii "EXCEPT_EBC_INVALID_OPCODE 5\0"
 12596      50545F45 
 12596      42435F49 
 12596      4E56414C 
 12596      49445F4F 
 12597 117b6 01       		.byte	0x1
 12598 117b7 C603     		.uleb128 0x1c6
 12599 117b9 45584345 		.ascii "EXCEPT_EBC_STACK_FAULT 6\0"
 12599      50545F45 
 12599      42435F53 
 12599      5441434B 
 12599      5F464155 
 12600 117d2 01       		.byte	0x1
 12601 117d3 C703     		.uleb128 0x1c7
 12602 117d5 45584345 		.ascii "EXCEPT_EBC_ALIGNMENT_CHECK 7\0"
 12602      50545F45 
 12602      42435F41 
 12602      4C49474E 
 12602      4D454E54 
 12603 117f2 01       		.byte	0x1
 12604 117f3 C803     		.uleb128 0x1c8
 12605 117f5 45584345 		.ascii "EXCEPT_EBC_INSTRUCTION_ENCODING 8\0"
 12605      50545F45 
 12605      42435F49 
 12605      4E535452 
 12605      55435449 
 12606 11817 01       		.byte	0x1
 12607 11818 C903     		.uleb128 0x1c9
 12608 1181a 45584345 		.ascii "EXCEPT_EBC_BAD_BREAK 9\0"
 12608      50545F45 
 12608      42435F42 
 12608      41445F42 
 12608      5245414B 
 12609 11831 01       		.byte	0x1
 12610 11832 CA03     		.uleb128 0x1ca
 12611 11834 45584345 		.ascii "EXCEPT_EBC_STEP 10\0"
 12611      50545F45 
 12611      42435F53 
 12611      54455020 
 12611      313000
 12612 11847 01       		.byte	0x1
 12613 11848 CB03     		.uleb128 0x1cb
 12614 1184a 4D41585F 		.ascii "MAX_EBC_EXCEPTION EXCEPT_EBC_STEP\0"
 12614      4542435F 
 12614      45584345 
 12614      5054494F 
 12614      4E204558 
 12615 1186c 01       		.byte	0x1
 12616 1186d DC03     		.uleb128 0x1dc
 12617 1186f 45584345 		.ascii "EXCEPT_ARM_RESET 0\0"
 12617      50545F41 
 12617      524D5F52 
 12617      45534554 
 12617      203000
 12618 11882 01       		.byte	0x1
 12619 11883 DD03     		.uleb128 0x1dd
 12620 11885 45584345 		.ascii "EXCEPT_ARM_UNDEFINED_INSTRUCTION 1\0"
 12620      50545F41 
 12620      524D5F55 
 12620      4E444546 
 12620      494E4544 
 12621 118a8 01       		.byte	0x1
 12622 118a9 DE03     		.uleb128 0x1de
 12623 118ab 45584345 		.ascii "EXCEPT_ARM_SOFTWARE_INTERRUPT 2\0"
 12623      50545F41 
 12623      524D5F53 
 12623      4F465457 
 12623      4152455F 
 12624 118cb 01       		.byte	0x1
 12625 118cc DF03     		.uleb128 0x1df
 12626 118ce 45584345 		.ascii "EXCEPT_ARM_PREFETCH_ABORT 3\0"
 12626      50545F41 
 12626      524D5F50 
 12626      52454645 
 12626      5443485F 
 12627 118ea 01       		.byte	0x1
 12628 118eb E003     		.uleb128 0x1e0
 12629 118ed 45584345 		.ascii "EXCEPT_ARM_DATA_ABORT 4\0"
 12629      50545F41 
 12629      524D5F44 
 12629      4154415F 
 12629      41424F52 
 12630 11905 01       		.byte	0x1
 12631 11906 E103     		.uleb128 0x1e1
 12632 11908 45584345 		.ascii "EXCEPT_ARM_RESERVED 5\0"
 12632      50545F41 
 12632      524D5F52 
 12632      45534552 
 12632      56454420 
 12633 1191e 01       		.byte	0x1
 12634 1191f E203     		.uleb128 0x1e2
 12635 11921 45584345 		.ascii "EXCEPT_ARM_IRQ 6\0"
 12635      50545F41 
 12635      524D5F49 
 12635      52512036 
 12635      00
 12636 11932 01       		.byte	0x1
 12637 11933 E303     		.uleb128 0x1e3
 12638 11935 45584345 		.ascii "EXCEPT_ARM_FIQ 7\0"
 12638      50545F41 
 12638      524D5F46 
 12638      49512037 
 12638      00
 12639 11946 01       		.byte	0x1
 12640 11947 E403     		.uleb128 0x1e4
 12641 11949 4D41585F 		.ascii "MAX_ARM_EXCEPTION EXCEPT_ARM_FIQ\0"
 12641      41524D5F 
 12641      45584345 
 12641      5054494F 
 12641      4E204558 
 12642 1196a 01       		.byte	0x1
 12643 1196b 9F04     		.uleb128 0x21f
 12644 1196d 4546495F 		.ascii "EFI_DEBUG_IMAGE_INFO_TABLE_GUID { 0x49152e77, 0x1ada, 0x4764, {0xb7, 0xa2, 0x7a, 0xfe, 0xf
 12644      44454255 
 12644      475F494D 
 12644      4147455F 
 12644      494E464F 
 12645 119de 01       		.byte	0x1
 12646 119df A204     		.uleb128 0x222
 12647 119e1 4546495F 		.ascii "EFI_DEBUG_IMAGE_INFO_UPDATE_IN_PROGRESS 0x01\0"
 12647      44454255 
 12647      475F494D 
 12647      4147455F 
 12647      494E464F 
 12648 11a0e 01       		.byte	0x1
 12649 11a0f A304     		.uleb128 0x223
 12650 11a11 4546495F 		.ascii "EFI_DEBUG_IMAGE_INFO_TABLE_MODIFIED 0x02\0"
 12650      44454255 
 12650      475F494D 
 12650      4147455F 
 12650      494E464F 
 12651 11a3a 01       		.byte	0x1
 12652 11a3b A404     		.uleb128 0x224
 12653 11a3d 4546495F 		.ascii "EFI_DEBUG_IMAGE_INFO_INITIAL_SIZE (EFI_PAGE_SIZE / sizeof (UINTN))\0"
 12653      44454255 
 12653      475F494D 
 12653      4147455F 
 12653      494E464F 
 12654 11a80 01       		.byte	0x1
 12655 11a81 A504     		.uleb128 0x225
 12656 11a83 4546495F 		.ascii "EFI_DEBUG_IMAGE_INFO_TYPE_NORMAL 0x01\0"
 12656      44454255 
 12656      475F494D 
 12656      4147455F 
 12656      494E464F 
 12657 11aa9 01       		.byte	0x1
 12658 11aaa C204     		.uleb128 0x242
 12659 11aac 4546495F 		.ascii "EFI_DEBUG_SUPPORT_PROTOCOL_GUID { 0x2755590c, 0x6f3c, 0x42fa, {0x9e, 0xa4, 0xa3, 0xba, 0x5
 12659      44454255 
 12659      475F5355 
 12659      50504F52 
 12659      545F5052 
 12660 11b1d 04       		.byte	0x4
 12661              		.file 39 "gnu-efi-3.0.18/inc/efipart.h"
 12662 11b1e 03       		.byte	0x3
 12663 11b1f 1B       		.uleb128 0x1b
 12664 11b20 27       		.uleb128 0x27
 12665 11b21 01       		.byte	0x1
 12666 11b22 02       		.uleb128 0x2
 12667 11b23 5F454649 		.ascii "_EFI_PART_H \0"
 12667      5F504152 
 12667      545F4820 
 12667      00
 12668 11b30 01       		.byte	0x1
 12669 11b31 1A       		.uleb128 0x1a
 12670 11b32 4546495F 		.ascii "EFI_PARTITION 0xef\0"
 12670      50415254 
 12670      4954494F 
 12670      4E203078 
 12670      656600
 12671 11b45 01       		.byte	0x1
 12672 11b46 1B       		.uleb128 0x1b
 12673 11b47 4D42525F 		.ascii "MBR_SIZE 512\0"
 12673      53495A45 
 12673      20353132 
 12673      00
 12674 11b54 01       		.byte	0x1
 12675 11b55 2C       		.uleb128 0x2c
 12676 11b56 45585452 		.ascii "EXTRACT_UINT32(D) (UINT32)(D[0] | (D[1] << 8) | (D[2] << 16) | (D[3] << 24))\0"
 12676      4143545F 
 12676      55494E54 
 12676      33322844 
 12676      29202855 
 12677 11ba3 01       		.byte	0x1
 12678 11ba4 2E       		.uleb128 0x2e
 12679 11ba5 4D42525F 		.ascii "MBR_SIGNATURE 0xaa55\0"
 12679      5349474E 
 12679      41545552 
 12679      45203078 
 12679      61613535 
 12680 11bba 01       		.byte	0x1
 12681 11bbb 2F       		.uleb128 0x2f
 12682 11bbc 4D494E5F 		.ascii "MIN_MBR_DEVICE_SIZE 0x80000\0"
 12682      4D42525F 
 12682      44455649 
 12682      43455F53 
 12682      495A4520 
 12683 11bd8 01       		.byte	0x1
 12684 11bd9 30       		.uleb128 0x30
 12685 11bda 4D42525F 		.ascii "MBR_ERRATA_PAD 0x40000\0"
 12685      45525241 
 12685      54415F50 
 12685      41442030 
 12685      78343030 
 12686 11bf1 01       		.byte	0x1
 12687 11bf2 32       		.uleb128 0x32
 12688 11bf3 4D41585F 		.ascii "MAX_MBR_PARTITIONS 4\0"
 12688      4D42525F 
 12688      50415254 
 12688      4954494F 
 12688      4E532034 
 12689 11c08 04       		.byte	0x4
 12690              		.file 40 "gnu-efi-3.0.18/inc/x86_64/efilibplat.h"
 12691 11c09 03       		.byte	0x3
 12692 11c0a 1D       		.uleb128 0x1d
 12693 11c0b 28       		.uleb128 0x28
 12694 11c0c 04       		.byte	0x4
 12695              		.file 41 "gnu-efi-3.0.18/inc/efirtlib.h"
 12696 11c0d 03       		.byte	0x3
 12697 11c0e 2E       		.uleb128 0x2e
 12698 11c0f 29       		.uleb128 0x29
 12699 11c10 01       		.byte	0x1
 12700 11c11 02       		.uleb128 0x2
 12701 11c12 5F454649 		.ascii "_EFI_RT_LIB_INCLUDE_ \0"
 12701      5F52545F 
 12701      4C49425F 
 12701      494E434C 
 12701      5544455F 
 12702 11c28 03       		.byte	0x3
 12703 11c29 18       		.uleb128 0x18
 12704 11c2a 28       		.uleb128 0x28
 12705 11c2b 04       		.byte	0x4
 12706 11c2c 04       		.byte	0x4
 12707              		.file 42 "gnu-efi-3.0.18/inc/efistdarg.h"
 12708 11c2d 03       		.byte	0x3
 12709 11c2e 2F       		.uleb128 0x2f
 12710 11c2f 2A       		.uleb128 0x2a
 12711 11c30 01       		.byte	0x1
 12712 11c31 02       		.uleb128 0x2
 12713 11c32 5F454649 		.ascii "_EFISTDARG_H_ \0"
 12713      53544441 
 12713      52475F48 
 12713      5F2000
 12714 11c41 01       		.byte	0x1
 12715 11c42 19       		.uleb128 0x19
 12716 11c43 76615F73 		.ascii "va_start(v,l) __builtin_va_start(v,l)\0"
 12716      74617274 
 12716      28762C6C 
 12716      29205F5F 
 12716      6275696C 
 12717 11c69 01       		.byte	0x1
 12718 11c6a 1A       		.uleb128 0x1a
 12719 11c6b 76615F65 		.ascii "va_end(v) __builtin_va_end(v)\0"
 12719      6E642876 
 12719      29205F5F 
 12719      6275696C 
 12719      74696E5F 
 12720 11c89 01       		.byte	0x1
 12721 11c8a 1B       		.uleb128 0x1b
 12722 11c8b 76615F61 		.ascii "va_arg(v,l) __builtin_va_arg(v,l)\0"
 12722      72672876 
 12722      2C6C2920 
 12722      5F5F6275 
 12722      696C7469 
 12723 11cad 01       		.byte	0x1
 12724 11cae 1C       		.uleb128 0x1c
 12725 11caf 76615F63 		.ascii "va_copy(d,s) __builtin_va_copy(d,s)\0"
 12725      6F707928 
 12725      642C7329 
 12725      205F5F62 
 12725      75696C74 
 12726 11cd3 04       		.byte	0x4
 12727              		.file 43 "gnu-efi-3.0.18/inc/pci22.h"
 12728 11cd4 03       		.byte	0x3
 12729 11cd5 30       		.uleb128 0x30
 12730 11cd6 2B       		.uleb128 0x2b
 12731 11cd7 01       		.byte	0x1
 12732 11cd8 02       		.uleb128 0x2
 12733 11cd9 5F504349 		.ascii "_PCI22_H \0"
 12733      32325F48 
 12733      2000
 12734 11ce3 01       		.byte	0x1
 12735 11ce4 19       		.uleb128 0x19
 12736 11ce5 5043495F 		.ascii "PCI_MAX_BUS 255\0"
 12736      4D41585F 
 12736      42555320 
 12736      32353500 
 12737 11cf5 01       		.byte	0x1
 12738 11cf6 1C       		.uleb128 0x1c
 12739 11cf7 5043495F 		.ascii "PCI_MAX_DEVICE 31\0"
 12739      4D41585F 
 12739      44455649 
 12739      43452033 
 12739      3100
 12740 11d09 01       		.byte	0x1
 12741 11d0a 1D       		.uleb128 0x1d
 12742 11d0b 5043495F 		.ascii "PCI_MAX_FUNC 7\0"
 12742      4D41585F 
 12742      46554E43 
 12742      203700
 12743 11d1a 01       		.byte	0x1
 12744 11d1b 22       		.uleb128 0x22
 12745 11d1c 5043495F 		.ascii "PCI_VGA_PALETTE_SNOOP_DISABLED 0x20\0"
 12745      5647415F 
 12745      50414C45 
 12745      5454455F 
 12745      534E4F4F 
 12746 11d40 01       		.byte	0x1
 12747 11d41 5C       		.uleb128 0x5c
 12748 11d42 5043495F 		.ascii "PCI_CLASS_DISPLAY_CTRL 0x03\0"
 12748      434C4153 
 12748      535F4449 
 12748      53504C41 
 12748      595F4354 
 12749 11d5e 01       		.byte	0x1
 12750 11d5f 5D       		.uleb128 0x5d
 12751 11d60 5043495F 		.ascii "PCI_CLASS_VGA 0x00\0"
 12751      434C4153 
 12751      535F5647 
 12751      41203078 
 12751      303000
 12752 11d73 01       		.byte	0x1
 12753 11d74 5F       		.uleb128 0x5f
 12754 11d75 5043495F 		.ascii "PCI_CLASS_BRIDGE 0x06\0"
 12754      434C4153 
 12754      535F4252 
 12754      49444745 
 12754      20307830 
 12755 11d8b 01       		.byte	0x1
 12756 11d8c 60       		.uleb128 0x60
 12757 11d8d 5043495F 		.ascii "PCI_CLASS_ISA 0x01\0"
 12757      434C4153 
 12757      535F4953 
 12757      41203078 
 12757      303100
 12758 11da0 01       		.byte	0x1
 12759 11da1 61       		.uleb128 0x61
 12760 11da2 5043495F 		.ascii "PCI_CLASS_ISA_POSITIVE_DECODE 0x80\0"
 12760      434C4153 
 12760      535F4953 
 12760      415F504F 
 12760      53495449 
 12761 11dc5 01       		.byte	0x1
 12762 11dc6 63       		.uleb128 0x63
 12763 11dc7 5043495F 		.ascii "PCI_CLASS_NETWORK 0x02\0"
 12763      434C4153 
 12763      535F4E45 
 12763      54574F52 
 12763      4B203078 
 12764 11dde 01       		.byte	0x1
 12765 11ddf 64       		.uleb128 0x64
 12766 11de0 5043495F 		.ascii "PCI_CLASS_ETHERNET 0x00\0"
 12766      434C4153 
 12766      535F4554 
 12766      4845524E 
 12766      45542030 
 12767 11df8 01       		.byte	0x1
 12768 11df9 66       		.uleb128 0x66
 12769 11dfa 48454144 		.ascii "HEADER_TYPE_DEVICE 0x00\0"
 12769      45525F54 
 12769      5950455F 
 12769      44455649 
 12769      43452030 
 12770 11e12 01       		.byte	0x1
 12771 11e13 67       		.uleb128 0x67
 12772 11e14 48454144 		.ascii "HEADER_TYPE_PCI_TO_PCI_BRIDGE 0x01\0"
 12772      45525F54 
 12772      5950455F 
 12772      5043495F 
 12772      544F5F50 
 12773 11e37 01       		.byte	0x1
 12774 11e38 68       		.uleb128 0x68
 12775 11e39 48454144 		.ascii "HEADER_TYPE_MULTI_FUNCTION 0x80\0"
 12775      45525F54 
 12775      5950455F 
 12775      4D554C54 
 12775      495F4655 
 12776 11e59 01       		.byte	0x1
 12777 11e5a 69       		.uleb128 0x69
 12778 11e5b 48454144 		.ascii "HEADER_LAYOUT_CODE 0x7f\0"
 12778      45525F4C 
 12778      41594F55 
 12778      545F434F 
 12778      44452030 
 12779 11e73 01       		.byte	0x1
 12780 11e74 6B       		.uleb128 0x6b
 12781 11e75 49535F50 		.ascii "IS_PCI_BRIDGE(_p) ((((_p)->Hdr.HeaderType) & HEADER_LAYOUT_CODE) == HEADER_TYPE_PCI_TO_PCI
 12781      43495F42 
 12781      52494447 
 12781      45285F70 
 12781      29202828 
 12782 11ed8 01       		.byte	0x1
 12783 11ed9 6C       		.uleb128 0x6c
 12784 11eda 49535F50 		.ascii "IS_PCI_MULTI_FUNC(_p) (((_p)->Hdr.HeaderType) & HEADER_TYPE_MULTI_FUNCTION)\0"
 12784      43495F4D 
 12784      554C5449 
 12784      5F46554E 
 12784      43285F70 
 12785 11f26 01       		.byte	0x1
 12786 11f27 8601     		.uleb128 0x86
 12787 11f29 4546495F 		.ascii "EFI_ROOT_BRIDGE_LIST 'eprb'\0"
 12787      524F4F54 
 12787      5F425249 
 12787      4447455F 
 12787      4C495354 
 12788 11f45 01       		.byte	0x1
 12789 11f46 9401     		.uleb128 0x94
 12790 11f48 5043495F 		.ascii "PCI_EXPANSION_ROM_HEADER_SIGNATURE 0xaa55\0"
 12790      45585041 
 12790      4E53494F 
 12790      4E5F524F 
 12790      4D5F4845 
 12791 11f72 01       		.byte	0x1
 12792 11f73 9501     		.uleb128 0x95
 12793 11f75 4546495F 		.ascii "EFI_PCI_EXPANSION_ROM_HEADER_EFISIGNATURE 0x0EF1\0"
 12793      5043495F 
 12793      45585041 
 12793      4E53494F 
 12793      4E5F524F 
 12794 11fa6 01       		.byte	0x1
 12795 11fa7 9601     		.uleb128 0x96
 12796 11fa9 5043495F 		.ascii "PCI_DATA_STRUCTURE_SIGNATURE EFI_SIGNATURE_32('P','C','I','R')\0"
 12796      44415441 
 12796      5F535452 
 12796      55435455 
 12796      52455F53 
 12797 11fe8 04       		.byte	0x4
 12798              		.file 44 "gnu-efi-3.0.18/inc/libsmbios.h"
 12799 11fe9 03       		.byte	0x3
 12800 11fea 31       		.uleb128 0x31
 12801 11feb 2C       		.uleb128 0x2c
 12802 11fec 01       		.byte	0x1
 12803 11fed 02       		.uleb128 0x2
 12804 11fee 5F4C4942 		.ascii "_LIB_SMBIOS_H \0"
 12804      5F534D42 
 12804      494F535F 
 12804      482000
 12805 11ffd 04       		.byte	0x4
 12806 11ffe 01       		.byte	0x1
 12807 11fff 38       		.uleb128 0x38
 12808 12000 67535420 		.ascii "gST ST\0"
 12808      535400
 12809 12007 01       		.byte	0x1
 12810 12008 3A       		.uleb128 0x3a
 12811 12009 67425320 		.ascii "gBS BS\0"
 12811      425300
 12812 12010 01       		.byte	0x1
 12813 12011 3C       		.uleb128 0x3c
 12814 12012 67525420 		.ascii "gRT RT\0"
 12814      525400
 12815 12019 01       		.byte	0x1
 12816 1201a 3F       		.uleb128 0x3f
 12817 1201b 44657669 		.ascii "DevicePathProtocol gEfiDevicePathProtocolGuid\0"
 12817      63655061 
 12817      74685072 
 12817      6F746F63 
 12817      6F6C2067 
 12818 12049 01       		.byte	0x1
 12819 1204a 41       		.uleb128 0x41
 12820 1204b 44657669 		.ascii "DevicePathToTextProtocol gEfiDevicePathToTextProtocolGuid\0"
 12820      63655061 
 12820      7468546F 
 12820      54657874 
 12820      50726F74 
 12821 12085 01       		.byte	0x1
 12822 12086 43       		.uleb128 0x43
 12823 12087 44657669 		.ascii "DevicePathFromTextProtocol gEfiDevicePathFromTextProtocolGuid\0"
 12823      63655061 
 12823      74684672 
 12823      6F6D5465 
 12823      78745072 
 12824 120c5 01       		.byte	0x1
 12825 120c6 45       		.uleb128 0x45
 12826 120c7 44657669 		.ascii "DevicePathUtilitiesProtocol gEfiDevicePathUtilitiesProtocolGuid\0"
 12826      63655061 
 12826      74685574 
 12826      696C6974 
 12826      69657350 
 12827 12107 01       		.byte	0x1
 12828 12108 47       		.uleb128 0x47
 12829 12109 4C6F6164 		.ascii "LoadedImageProtocol gEfiLoadedImageProtocolGuid\0"
 12829      6564496D 
 12829      61676550 
 12829      726F746F 
 12829      636F6C20 
 12830 12139 01       		.byte	0x1
 12831 1213a 49       		.uleb128 0x49
 12832 1213b 54657874 		.ascii "TextInProtocol gEfiSimpleTextInProtocolGuid\0"
 12832      496E5072 
 12832      6F746F63 
 12832      6F6C2067 
 12832      45666953 
 12833 12167 01       		.byte	0x1
 12834 12168 4B       		.uleb128 0x4b
 12835 12169 54657874 		.ascii "TextOutProtocol gEfiSimpleTextOutProtocolGuid\0"
 12835      4F757450 
 12835      726F746F 
 12835      636F6C20 
 12835      67456669 
 12836 12197 01       		.byte	0x1
 12837 12198 4D       		.uleb128 0x4d
 12838 12199 47726170 		.ascii "GraphicsOutputProtocol gEfiGraphicsOutputProtocolGuid\0"
 12838      68696373 
 12838      4F757470 
 12838      75745072 
 12838      6F746F63 
 12839 121cf 01       		.byte	0x1
 12840 121d0 4F       		.uleb128 0x4f
 12841 121d1 45646964 		.ascii "EdidDiscoveredProtocol gEfiEdidDiscoveredProtocolGuid\0"
 12841      44697363 
 12841      6F766572 
 12841      65645072 
 12841      6F746F63 
 12842 12207 01       		.byte	0x1
 12843 12208 51       		.uleb128 0x51
 12844 12209 45646964 		.ascii "EdidActiveProtocol gEfiEdidActiveProtocolGuid\0"
 12844      41637469 
 12844      76655072 
 12844      6F746F63 
 12844      6F6C2067 
 12845 12237 01       		.byte	0x1
 12846 12238 53       		.uleb128 0x53
 12847 12239 45646964 		.ascii "EdidOverrideProtocol gEfiEdidOverrideProtocolGuid\0"
 12847      4F766572 
 12847      72696465 
 12847      50726F74 
 12847      6F636F6C 
 12848 1226b 01       		.byte	0x1
 12849 1226c 55       		.uleb128 0x55
 12850 1226d 426C6F63 		.ascii "BlockIoProtocol gEfiBlockIoProtocolGuid\0"
 12850      6B496F50 
 12850      726F746F 
 12850      636F6C20 
 12850      67456669 
 12851 12295 01       		.byte	0x1
 12852 12296 57       		.uleb128 0x57
 12853 12297 426C6F63 		.ascii "BlockIo2Protocol gEfiBlockIo2ProtocolGuid\0"
 12853      6B496F32 
 12853      50726F74 
 12853      6F636F6C 
 12853      20674566 
 12854 122c1 01       		.byte	0x1
 12855 122c2 59       		.uleb128 0x59
 12856 122c3 4469736B 		.ascii "DiskIoProtocol gEfiDiskIoProtocolGuid\0"
 12856      496F5072 
 12856      6F746F63 
 12856      6F6C2067 
 12856      45666944 
 12857 122e9 01       		.byte	0x1
 12858 122ea 5B       		.uleb128 0x5b
 12859 122eb 4469736B 		.ascii "DiskIo2Protocol gEfiDiskIo2ProtocolGuid\0"
 12859      496F3250 
 12859      726F746F 
 12859      636F6C20 
 12859      67456669 
 12860 12313 01       		.byte	0x1
 12861 12314 5D       		.uleb128 0x5d
 12862 12315 46696C65 		.ascii "FileSystemProtocol gEfiSimpleFileSystemProtocolGuid\0"
 12862      53797374 
 12862      656D5072 
 12862      6F746F63 
 12862      6F6C2067 
 12863 12349 01       		.byte	0x1
 12864 1234a 5F       		.uleb128 0x5f
 12865 1234b 4C6F6164 		.ascii "LoadFileProtocol gEfiLoadFileProtocolGuid\0"
 12865      46696C65 
 12865      50726F74 
 12865      6F636F6C 
 12865      20674566 
 12866 12375 01       		.byte	0x1
 12867 12376 61       		.uleb128 0x61
 12868 12377 44657669 		.ascii "DeviceIoProtocol gEfiDeviceIoProtocolGuid\0"
 12868      6365496F 
 12868      50726F74 
 12868      6F636F6C 
 12868      20674566 
 12869 123a1 01       		.byte	0x1
 12870 123a2 65       		.uleb128 0x65
 12871 123a3 556E6963 		.ascii "UnicodeCollationProtocol gEfiUnicodeCollationProtocolGuid\0"
 12871      6F646543 
 12871      6F6C6C61 
 12871      74696F6E 
 12871      50726F74 
 12872 123dd 01       		.byte	0x1
 12873 123de 67       		.uleb128 0x67
 12874 123df 53657269 		.ascii "SerialIoProtocol gEfiSerialIoProtocolGuid\0"
 12874      616C496F 
 12874      50726F74 
 12874      6F636F6C 
 12874      20674566 
 12875 12409 01       		.byte	0x1
 12876 1240a 6D       		.uleb128 0x6d
 12877 1240b 53696D70 		.ascii "SimpleNetworkProtocol gEfiSimpleNetworkProtocolGuid\0"
 12877      6C654E65 
 12877      74776F72 
 12877      6B50726F 
 12877      746F636F 
 12878 1243f 01       		.byte	0x1
 12879 12440 6F       		.uleb128 0x6f
 12880 12441 50786542 		.ascii "PxeBaseCodeProtocol gEfiPxeBaseCodeProtocolGuid\0"
 12880      61736543 
 12880      6F646550 
 12880      726F746F 
 12880      636F6C20 
 12881 12471 01       		.byte	0x1
 12882 12472 71       		.uleb128 0x71
 12883 12473 50786543 		.ascii "PxeCallbackProtocol gEfiPxeBaseCodeCallbackProtocolGuid\0"
 12883      616C6C62 
 12883      61636B50 
 12883      726F746F 
 12883      636F6C20 
 12884 124ab 01       		.byte	0x1
 12885 124ac 73       		.uleb128 0x73
 12886 124ad 4E657477 		.ascii "NetworkInterfaceIdentifierProtocol gEfiNetworkInterfaceIdentifierProtocolGuid\0"
 12886      6F726B49 
 12886      6E746572 
 12886      66616365 
 12886      4964656E 
 12887 124fb 01       		.byte	0x1
 12888 124fc 75       		.uleb128 0x75
 12889 124fd 55695072 		.ascii "UiProtocol gEFiUiInterfaceProtocolGuid\0"
 12889      6F746F63 
 12889      6F6C2067 
 12889      45466955 
 12889      69496E74 
 12890 12524 01       		.byte	0x1
 12891 12525 78       		.uleb128 0x78
 12892 12526 50636949 		.ascii "PciIoProtocol gEfiPciIoProtocolGuid\0"
 12892      6F50726F 
 12892      746F636F 
 12892      6C206745 
 12892      66695063 
 12893 1254a 01       		.byte	0x1
 12894 1254b 7B       		.uleb128 0x7b
 12895 1254c 44726976 		.ascii "DriverBindingProtocol gEfiDriverBindingProtocolGuid\0"
 12895      65724269 
 12895      6E64696E 
 12895      6750726F 
 12895      746F636F 
 12896 12580 01       		.byte	0x1
 12897 12581 7D       		.uleb128 0x7d
 12898 12582 436F6D70 		.ascii "ComponentNameProtocol gEfiComponentNameProtocolGuid\0"
 12898      6F6E656E 
 12898      744E616D 
 12898      6550726F 
 12898      746F636F 
 12899 125b6 01       		.byte	0x1
 12900 125b7 7F       		.uleb128 0x7f
 12901 125b8 436F6D70 		.ascii "ComponentName2Protocol gEfiComponentName2ProtocolGuid\0"
 12901      6F6E656E 
 12901      744E616D 
 12901      65325072 
 12901      6F746F63 
 12902 125ee 01       		.byte	0x1
 12903 125ef 8101     		.uleb128 0x81
 12904 125f1 48617368 		.ascii "HashProtocol gEfiHashProtocolGuid\0"
 12904      50726F74 
 12904      6F636F6C 
 12904      20674566 
 12904      69486173 
 12905 12613 01       		.byte	0x1
 12906 12614 8301     		.uleb128 0x83
 12907 12616 506C6174 		.ascii "PlatformDriverOverrideProtocol gEfiPlatformDriverOverrideProtocolGuid\0"
 12907      666F726D 
 12907      44726976 
 12907      65724F76 
 12907      65727269 
 12908 1265c 01       		.byte	0x1
 12909 1265d 8501     		.uleb128 0x85
 12910 1265f 42757353 		.ascii "BusSpecificDriverOverrideProtocol gEfiBusSpecificDriverOverrideProtocolGuid\0"
 12910      70656369 
 12910      66696344 
 12910      72697665 
 12910      724F7665 
 12911 126ab 01       		.byte	0x1
 12912 126ac 8701     		.uleb128 0x87
 12913 126ae 44726976 		.ascii "DriverFamilyOverrideProtocol gEfiDriverFamilyOverrideProtocolGuid\0"
 12913      65724661 
 12913      6D696C79 
 12913      4F766572 
 12913      72696465 
 12914 126f0 01       		.byte	0x1
 12915 126f1 8B01     		.uleb128 0x8b
 12916 126f3 45666947 		.ascii "EfiGlobalVariable gEfiGlobalVariableGuid\0"
 12916      6C6F6261 
 12916      6C566172 
 12916      6961626C 
 12916      65206745 
 12917 1271c 01       		.byte	0x1
 12918 1271d 8D01     		.uleb128 0x8d
 12919 1271f 47656E65 		.ascii "GenericFileInfo gEfiFileInfoGuid\0"
 12919      72696346 
 12919      696C6549 
 12919      6E666F20 
 12919      67456669 
 12920 12740 01       		.byte	0x1
 12921 12741 8F01     		.uleb128 0x8f
 12922 12743 46696C65 		.ascii "FileSystemInfo gEfiFileSystemInfoGuid\0"
 12922      53797374 
 12922      656D496E 
 12922      666F2067 
 12922      45666946 
 12923 12769 01       		.byte	0x1
 12924 1276a 9101     		.uleb128 0x91
 12925 1276c 46696C65 		.ascii "FileSystemVolumeLabelInfo gEfiFileSystemVolumeLabelInfoIdGuid\0"
 12925      53797374 
 12925      656D566F 
 12925      6C756D65 
 12925      4C616265 
 12926 127aa 01       		.byte	0x1
 12927 127ab 9301     		.uleb128 0x93
 12928 127ad 5063416E 		.ascii "PcAnsiProtocol gEfiPcAnsiGuid\0"
 12928      73695072 
 12928      6F746F63 
 12928      6F6C2067 
 12928      45666950 
 12929 127cb 01       		.byte	0x1
 12930 127cc 9501     		.uleb128 0x95
 12931 127ce 56743130 		.ascii "Vt100Protocol gEfiVT100Guid\0"
 12931      3050726F 
 12931      746F636F 
 12931      6C206745 
 12931      66695654 
 12932 127ea 01       		.byte	0x1
 12933 127eb B501     		.uleb128 0xb5
 12934 127ed 4C4F4144 		.ascii "LOAD_OPTION_ACTIVE 0x00000001\0"
 12934      5F4F5054 
 12934      494F4E5F 
 12934      41435449 
 12934      56452030 
 12935 1280b 01       		.byte	0x1
 12936 1280c B701     		.uleb128 0xb7
 12937 1280e 5661724C 		.ascii "VarLanguageCodes L\"LangCodes\"\0"
 12937      616E6775 
 12937      61676543 
 12937      6F646573 
 12937      204C224C 
 12938 1282c 01       		.byte	0x1
 12939 1282d B801     		.uleb128 0xb8
 12940 1282f 5661724C 		.ascii "VarLanguage L\"Lang\"\0"
 12940      616E6775 
 12940      61676520 
 12940      4C224C61 
 12940      6E672200 
 12941 12843 01       		.byte	0x1
 12942 12844 B901     		.uleb128 0xb9
 12943 12846 56617254 		.ascii "VarTimeout L\"Timeout\"\0"
 12943      696D656F 
 12943      7574204C 
 12943      2254696D 
 12943      656F7574 
 12944 1285c 01       		.byte	0x1
 12945 1285d BA01     		.uleb128 0xba
 12946 1285f 56617243 		.ascii "VarConsoleInp L\"ConIn\"\0"
 12946      6F6E736F 
 12946      6C65496E 
 12946      70204C22 
 12946      436F6E49 
 12947 12876 01       		.byte	0x1
 12948 12877 BB01     		.uleb128 0xbb
 12949 12879 56617243 		.ascii "VarConsoleOut L\"ConOut\"\0"
 12949      6F6E736F 
 12949      6C654F75 
 12949      74204C22 
 12949      436F6E4F 
 12950 12891 01       		.byte	0x1
 12951 12892 BC01     		.uleb128 0xbc
 12952 12894 56617245 		.ascii "VarErrorOut L\"ErrOut\"\0"
 12952      72726F72 
 12952      4F757420 
 12952      4C224572 
 12952      724F7574 
 12953 128aa 01       		.byte	0x1
 12954 128ab BD01     		.uleb128 0xbd
 12955 128ad 56617242 		.ascii "VarBootOption L\"Boot%04x\"\0"
 12955      6F6F744F 
 12955      7074696F 
 12955      6E204C22 
 12955      426F6F74 
 12956 128c7 01       		.byte	0x1
 12957 128c8 BE01     		.uleb128 0xbe
 12958 128ca 56617242 		.ascii "VarBootOrder L\"BootOrder\"\0"
 12958      6F6F744F 
 12958      72646572 
 12958      204C2242 
 12958      6F6F744F 
 12959 128e4 01       		.byte	0x1
 12960 128e5 BF01     		.uleb128 0xbf
 12961 128e7 56617242 		.ascii "VarBootNext L\"BootNext\"\0"
 12961      6F6F744E 
 12961      65787420 
 12961      4C22426F 
 12961      6F744E65 
 12962 128ff 01       		.byte	0x1
 12963 12900 C001     		.uleb128 0xc0
 12964 12902 56617242 		.ascii "VarBootCurrent L\"BootCurrent\"\0"
 12964      6F6F7443 
 12964      75727265 
 12964      6E74204C 
 12964      22426F6F 
 12965 12920 01       		.byte	0x1
 12966 12921 C101     		.uleb128 0xc1
 12967 12923 56617244 		.ascii "VarDriverOption L\"Driver%04x\"\0"
 12967      72697665 
 12967      724F7074 
 12967      696F6E20 
 12967      4C224472 
 12968 12941 01       		.byte	0x1
 12969 12942 C201     		.uleb128 0xc2
 12970 12944 56617244 		.ascii "VarDriverOrder L\"DriverOrder\"\0"
 12970      72697665 
 12970      724F7264 
 12970      6572204C 
 12970      22447269 
 12971 12962 01       		.byte	0x1
 12972 12963 C301     		.uleb128 0xc3
 12973 12965 56617243 		.ascii "VarConsoleInpDev L\"ConInDev\"\0"
 12973      6F6E736F 
 12973      6C65496E 
 12973      70446576 
 12973      204C2243 
 12974 12982 01       		.byte	0x1
 12975 12983 C401     		.uleb128 0xc4
 12976 12985 56617243 		.ascii "VarConsoleOutDev L\"ConOutDev\"\0"
 12976      6F6E736F 
 12976      6C654F75 
 12976      74446576 
 12976      204C2243 
 12977 129a3 01       		.byte	0x1
 12978 129a4 C501     		.uleb128 0xc5
 12979 129a6 56617245 		.ascii "VarErrorOutDev L\"ErrOutDev\"\0"
 12979      72726F72 
 12979      4F757444 
 12979      6576204C 
 12979      22457272 
 12980 129c2 01       		.byte	0x1
 12981 129c3 C701     		.uleb128 0xc7
 12982 129c5 4C616E67 		.ascii "LanguageCodeEnglish \"eng\"\0"
 12982      75616765 
 12982      436F6465 
 12982      456E676C 
 12982      69736820 
 12983 129df 01       		.byte	0x1
 12984 129e0 D901     		.uleb128 0xd9
 12985 129e2 53544154 		.ascii "STATIC \0"
 12985      49432000 
 12986 129ea 01       		.byte	0x1
 12987 129eb DA01     		.uleb128 0xda
 12988 129ed 494E5445 		.ascii "INTERNAL \0"
 12988      524E414C 
 12988      2000
 12989 129f7 01       		.byte	0x1
 12990 129f8 DB01     		.uleb128 0xdb
 12991 129fa 424F4F54 		.ascii "BOOTSERVICE \0"
 12991      53455256 
 12991      49434520 
 12991      00
 12992 12a07 01       		.byte	0x1
 12993 12a08 F204     		.uleb128 0x272
 12994 12a0a 53507269 		.ascii "SPrint UnicodeSPrint\0"
 12994      6E742055 
 12994      6E69636F 
 12994      64655350 
 12994      72696E74 
 12995 12a1f 01       		.byte	0x1
 12996 12a20 F304     		.uleb128 0x273
 12997 12a22 56535072 		.ascii "VSPrint UnicodeVSPrint\0"
 12997      696E7420 
 12997      556E6963 
 12997      6F646556 
 12997      53507269 
 12998 12a39 01       		.byte	0x1
 12999 12a3a F404     		.uleb128 0x274
 13000 12a3c 41507269 		.ascii "APrint AsciiPrint\0"
 13000      6E742041 
 13000      73636969 
 13000      5072696E 
 13000      7400
 13001 12a4e 01       		.byte	0x1
 13002 12a4f AD08     		.uleb128 0x42d
 13003 12a51 6F757470 		.ascii "outp(_Port,_DataByte) (UINT8)WritePort(GlobalIoFncs, IO_UINT8, (UINTN)_Port, (UINTN)_DataB
 13003      285F506F 
 13003      72742C5F 
 13003      44617461 
 13003      42797465 
 13004 12ab0 01       		.byte	0x1
 13005 12ab1 AE08     		.uleb128 0x42e
 13006 12ab3 696E7028 		.ascii "inp(_Port) (UINT8)ReadPort(GlobalIoFncs, IO_UINT8, (UINTN)_Port)\0"
 13006      5F506F72 
 13006      74292028 
 13006      55494E54 
 13006      38295265 
 13007 12af4 01       		.byte	0x1
 13008 12af5 AF08     		.uleb128 0x42f
 13009 12af7 6F757470 		.ascii "outpw(_Port,_DataByte) (UINT16)WritePort(GlobalIoFncs, IO_UINT16, (UINTN)_Port, (UINTN)_Da
 13009      77285F50 
 13009      6F72742C 
 13009      5F446174 
 13009      61427974 
 13010 12b59 01       		.byte	0x1
 13011 12b5a B008     		.uleb128 0x430
 13012 12b5c 696E7077 		.ascii "inpw(_Port) (UINT16)ReadPort(GlobalIoFncs, IO_UINT16, (UINTN)_Port)\0"
 13012      285F506F 
 13012      72742920 
 13012      2855494E 
 13012      54313629 
 13013 12ba0 01       		.byte	0x1
 13014 12ba1 B108     		.uleb128 0x431
 13015 12ba3 6F757470 		.ascii "outpd(_Port,_DataByte) (UINT32)WritePort(GlobalIoFncs, IO_UINT32, (UINTN)_Port, (UINTN)_Da
 13015      64285F50 
 13015      6F72742C 
 13015      5F446174 
 13015      61427974 
 13016 12c05 01       		.byte	0x1
 13017 12c06 B208     		.uleb128 0x432
 13018 12c08 696E7064 		.ascii "inpd(_Port) (UINT32)ReadPort(GlobalIoFncs, IO_UINT32, (UINTN)_Port)\0"
 13018      285F506F 
 13018      72742920 
 13018      2855494E 
 13018      54333229 
 13019 12c4c 01       		.byte	0x1
 13020 12c4d B408     		.uleb128 0x434
 13021 12c4f 77726974 		.ascii "writepci8(_Addr,_DataByte) (UINT8)WritePciConfig(GlobalIoFncs, IO_UINT8, (UINTN)_Addr, (UI
 13021      65706369 
 13021      38285F41 
 13021      6464722C 
 13021      5F446174 
 13022 12cb8 01       		.byte	0x1
 13023 12cb9 B508     		.uleb128 0x435
 13024 12cbb 72656164 		.ascii "readpci8(_Addr) (UINT8)ReadPciConfig(GlobalIoFncs, IO_UINT8, (UINTN)_Addr)\0"
 13024      70636938 
 13024      285F4164 
 13024      64722920 
 13024      2855494E 
 13025 12d06 01       		.byte	0x1
 13026 12d07 B608     		.uleb128 0x436
 13027 12d09 77726974 		.ascii "writepci16(_Addr,_DataByte) (UINT16)WritePciConfig(GlobalIoFncs, IO_UINT16, (UINTN)_Addr, 
 13027      65706369 
 13027      3136285F 
 13027      41646472 
 13027      2C5F4461 
 13028 12d75 01       		.byte	0x1
 13029 12d76 B708     		.uleb128 0x437
 13030 12d78 72656164 		.ascii "readpci16(_Addr) (UINT16)ReadPciConfig(GlobalIoFncs, IO_UINT16, (UINTN)_Addr)\0"
 13030      70636931 
 13030      36285F41 
 13030      64647229 
 13030      20285549 
 13031 12dc6 01       		.byte	0x1
 13032 12dc7 B808     		.uleb128 0x438
 13033 12dc9 77726974 		.ascii "writepci32(_Addr,_DataByte) (UINT32)WritePciConfig(GlobalIoFncs, IO_UINT32, (UINTN)_Addr, 
 13033      65706369 
 13033      3332285F 
 13033      41646472 
 13033      2C5F4461 
 13034 12e35 01       		.byte	0x1
 13035 12e36 B908     		.uleb128 0x439
 13036 12e38 72656164 		.ascii "readpci32(_Addr) (UINT32)ReadPciConfig(GlobalIoFncs, IO_UINT32, (UINTN)_Addr)\0"
 13036      70636933 
 13036      32285F41 
 13036      64647229 
 13036      20285549 
 13037 12e86 01       		.byte	0x1
 13038 12e87 BB08     		.uleb128 0x43b
 13039 12e89 506F7274 		.ascii "Port80(_PostCode) GlobalIoFncs->Io.Write (GlobalIoFncs, IO_UINT16, (UINT64)0x80, 1, &(_Pos
 13039      3830285F 
 13039      506F7374 
 13039      436F6465 
 13039      2920476C 
 13040 12eeb 04       		.byte	0x4
 13041              		.file 45 "gnu-efi-3.0.18/inc/protocol/efivar.h"
 13042 12eec 03       		.byte	0x3
 13043 12eed 1E       		.uleb128 0x1e
 13044 12eee 2D       		.uleb128 0x2d
 13045 12eef 01       		.byte	0x1
 13046 12ef0 1C       		.uleb128 0x1c
 13047 12ef1 56415249 		.ascii "VARIABLE_STORE_PROTOCOL { 0xf088cd91, 0xa046, 0x11d2, {0x8e, 0x42, 0x0, 0xa0, 0xc9, 0x69, 
 13047      41424C45 
 13047      5F53544F 
 13047      52455F50 
 13047      524F544F 
 13048 12f59 04       		.byte	0x4
 13049              		.file 46 "gnu-efi-3.0.18/inc/protocol/legacyboot.h"
 13050 12f5a 03       		.byte	0x3
 13051 12f5b 1F       		.uleb128 0x1f
 13052 12f5c 2E       		.uleb128 0x2e
 13053 12f5d 01       		.byte	0x1
 13054 12f5e 14       		.uleb128 0x14
 13055 12f5f 5F4C4547 		.ascii "_LEGACY_BOOT_INCLUDE_ \0"
 13055      4143595F 
 13055      424F4F54 
 13055      5F494E43 
 13055      4C554445 
 13056 12f76 01       		.byte	0x1
 13057 12f77 16       		.uleb128 0x16
 13058 12f78 4C454741 		.ascii "LEGACY_BOOT_PROTOCOL { 0x376e5eb2, 0x30e4, 0x11d3, { 0xba, 0xe5, 0x0, 0x80, 0xc7, 0x3c, 0x
 13058      43595F42 
 13058      4F4F545F 
 13058      50524F54 
 13058      4F434F4C 
 13059 12fdf 04       		.byte	0x4
 13060              		.file 47 "gnu-efi-3.0.18/inc/protocol/intload.h"
 13061 12fe0 03       		.byte	0x3
 13062 12fe1 20       		.uleb128 0x20
 13063 12fe2 2F       		.uleb128 0x2f
 13064 12fe3 01       		.byte	0x1
 13065 12fe4 14       		.uleb128 0x14
 13066 12fe5 5F494E54 		.ascii "_INTERNAL_LOAD_INCLUDE_ \0"
 13066      45524E41 
 13066      4C5F4C4F 
 13066      41445F49 
 13066      4E434C55 
 13067 12ffe 01       		.byte	0x1
 13068 12fff 17       		.uleb128 0x17
 13069 13000 494E5445 		.ascii "INTERNAL_SHELL_GUID { 0xd65a6b8c, 0x71e5, 0x4df0, {0xa9, 0x09, 0xf0, 0xd2, 0x99, 0x2b, 0x5
 13069      524E414C 
 13069      5F534845 
 13069      4C4C5F47 
 13069      55494420 
 13070 13065 04       		.byte	0x4
 13071              		.file 48 "gnu-efi-3.0.18/inc/protocol/vgaclass.h"
 13072 13066 03       		.byte	0x3
 13073 13067 21       		.uleb128 0x21
 13074 13068 30       		.uleb128 0x30
 13075 13069 01       		.byte	0x1
 13076 1306a 02       		.uleb128 0x2
 13077 1306b 5F564741 		.ascii "_VGA_CLASS_H \0"
 13077      5F434C41 
 13077      53535F48 
 13077      2000
 13078 13079 01       		.byte	0x1
 13079 1307a 1B       		.uleb128 0x1b
 13080 1307b 5647415F 		.ascii "VGA_CLASS_DRIVER_PROTOCOL { 0xe3d6310, 0x6fe4, 0x11d3, {0xbb, 0x81, 0x0, 0x80, 0xc7, 0x3c,
 13080      434C4153 
 13080      535F4452 
 13080      49564552 
 13080      5F50524F 
 13081 130e4 01       		.byte	0x1
 13082 130e5 2A       		.uleb128 0x2a
 13083 130e6 5647415F 		.ascii "VGA_CON_OUT_DEV_SIGNATURE EFI_SIGNATURE_32('c','v','g','a')\0"
 13083      434F4E5F 
 13083      4F55545F 
 13083      4445565F 
 13083      5349474E 
 13084 13122 01       		.byte	0x1
 13085 13123 4C       		.uleb128 0x4c
 13086 13124 5647415F 		.ascii "VGA_CON_OUT_DEV_FROM_THIS(a) CR(a, VGA_CON_OUT_DEV, ConOut, VGA_CON_OUT_DEV_SIGNATURE)\0"
 13086      434F4E5F 
 13086      4F55545F 
 13086      4445565F 
 13086      46524F4D 
 13087 1317b 04       		.byte	0x4
 13088              		.file 49 "gnu-efi-3.0.18/inc/protocol/eficonsplit.h"
 13089 1317c 03       		.byte	0x3
 13090 1317d 22       		.uleb128 0x22
 13091 1317e 31       		.uleb128 0x31
 13092 1317f 01       		.byte	0x1
 13093 13180 02       		.uleb128 0x2
 13094 13181 5F454649 		.ascii "_EFI_CONFORK_H \0"
 13094      5F434F4E 
 13094      464F524B 
 13094      5F482000 
 13095 13191 01       		.byte	0x1
 13096 13192 17       		.uleb128 0x17
 13097 13193 54455854 		.ascii "TEXT_OUT_SPLITER_PROTOCOL { 0x56d830a0, 0x7e7a, 0x11d3, {0xbb, 0xa0, 0x0, 0xa0, 0xc9, 0x69
 13097      5F4F5554 
 13097      5F53504C 
 13097      49544552 
 13097      5F50524F 
 13098 131fd 01       		.byte	0x1
 13099 131fe 1A       		.uleb128 0x1a
 13100 131ff 4552524F 		.ascii "ERROR_OUT_SPLITER_PROTOCOL { 0xf0ba9039, 0x68f1, 0x425e, {0xaa, 0x7f, 0xd9, 0xaa, 0xf9, 0x
 13100      525F4F55 
 13100      545F5350 
 13100      4C495445 
 13100      525F5052 
 13101 1326a 01       		.byte	0x1
 13102 1326b 1D       		.uleb128 0x1d
 13103 1326c 54455854 		.ascii "TEXT_IN_SPLITER_PROTOCOL { 0xf9a3c550, 0x7fb5, 0x11d3, {0xbb, 0xa0, 0x0, 0xa0, 0xc9, 0x69,
 13103      5F494E5F 
 13103      53504C49 
 13103      5445525F 
 13103      50524F54 
 13104 132d5 04       		.byte	0x4
 13105              		.file 50 "gnu-efi-3.0.18/inc/protocol/adapterdebug.h"
 13106 132d6 03       		.byte	0x3
 13107 132d7 23       		.uleb128 0x23
 13108 132d8 32       		.uleb128 0x32
 13109 132d9 01       		.byte	0x1
 13110 132da 02       		.uleb128 0x2
 13111 132db 5F414441 		.ascii "_ADAPTER_DEBUG_H \0"
 13111      50544552 
 13111      5F444542 
 13111      55475F48 
 13111      2000
 13112 132ed 01       		.byte	0x1
 13113 132ee 17       		.uleb128 0x17
 13114 132ef 41444150 		.ascii "ADAPTER_DEBUG_PROTOCOL { 0x82f86881, 0x282b, 0x11d4, {0xbc, 0x7d, 0x0, 0x80, 0xc7, 0x3c, 0
 13114      5445525F 
 13114      44454255 
 13114      475F5052 
 13114      4F544F43 
 13115 13356 04       		.byte	0x4
 13116              		.file 51 "gnu-efi-3.0.18/inc/efigpt.h"
 13117 13357 03       		.byte	0x3
 13118 13358 26       		.uleb128 0x26
 13119 13359 33       		.uleb128 0x33
 13120 1335a 01       		.byte	0x1
 13121 1335b 02       		.uleb128 0x2
 13122 1335c 5F454649 		.ascii "_EFI_GPT_H \0"
 13122      5F475054 
 13122      5F482000 
 13123 13368 01       		.byte	0x1
 13124 13369 14       		.uleb128 0x14
 13125 1336a 5052494D 		.ascii "PRIMARY_PART_HEADER_LBA 1\0"
 13125      4152595F 
 13125      50415254 
 13125      5F484541 
 13125      4445525F 
 13126 13384 01       		.byte	0x1
 13127 13385 23       		.uleb128 0x23
 13128 13386 4546495F 		.ascii "EFI_PTAB_HEADER_ID \"EFI PART\"\0"
 13128      50544142 
 13128      5F484541 
 13128      4445525F 
 13128      49442022 
 13129 133a4 01       		.byte	0x1
 13130 133a5 31       		.uleb128 0x31
 13131 133a6 4546495F 		.ascii "EFI_PART_USED_BY_EFI 0x0000000000000001\0"
 13131      50415254 
 13131      5F555345 
 13131      445F4259 
 13131      5F454649 
 13132 133ce 01       		.byte	0x1
 13133 133cf 32       		.uleb128 0x32
 13134 133d0 4546495F 		.ascii "EFI_PART_REQUIRED_TO_FUNCTION 0x0000000000000002\0"
 13134      50415254 
 13134      5F524551 
 13134      55495245 
 13134      445F544F 
 13135 13401 01       		.byte	0x1
 13136 13402 33       		.uleb128 0x33
 13137 13403 4546495F 		.ascii "EFI_PART_USED_BY_OS 0x0000000000000004\0"
 13137      50415254 
 13137      5F555345 
 13137      445F4259 
 13137      5F4F5320 
 13138 1342a 01       		.byte	0x1
 13139 1342b 34       		.uleb128 0x34
 13140 1342c 4546495F 		.ascii "EFI_PART_REQUIRED_BY_OS 0x0000000000000008\0"
 13140      50415254 
 13140      5F524551 
 13140      55495245 
 13140      445F4259 
 13141 13457 01       		.byte	0x1
 13142 13458 35       		.uleb128 0x35
 13143 13459 4546495F 		.ascii "EFI_PART_BACKUP_REQUIRED 0x0000000000000010\0"
 13143      50415254 
 13143      5F424143 
 13143      4B55505F 
 13143      52455155 
 13144 13485 01       		.byte	0x1
 13145 13486 36       		.uleb128 0x36
 13146 13487 4546495F 		.ascii "EFI_PART_USER_DATA 0x0000000000000020\0"
 13146      50415254 
 13146      5F555345 
 13146      525F4441 
 13146      54412030 
 13147 134ad 01       		.byte	0x1
 13148 134ae 37       		.uleb128 0x37
 13149 134af 4546495F 		.ascii "EFI_PART_CRITICAL_USER_DATA 0x0000000000000040\0"
 13149      50415254 
 13149      5F435249 
 13149      54494341 
 13149      4C5F5553 
 13150 134de 01       		.byte	0x1
 13151 134df 38       		.uleb128 0x38
 13152 134e0 4546495F 		.ascii "EFI_PART_REDUNDANT_PARTITION 0x0000000000000080\0"
 13152      50415254 
 13152      5F524544 
 13152      554E4441 
 13152      4E545F50 
 13153 13510 01       		.byte	0x1
 13154 13511 3A       		.uleb128 0x3a
 13155 13512 4546495F 		.ascii "EFI_PART_TYPE_UNUSED_GUID { 0x00000000, 0x0000, 0x0000, {0x00, 0x00, 0x00, 0x00, 0x00, 0x0
 13155      50415254 
 13155      5F545950 
 13155      455F554E 
 13155      55534544 
 13156 1357d 01       		.byte	0x1
 13157 1357e 3D       		.uleb128 0x3d
 13158 1357f 4546495F 		.ascii "EFI_PART_TYPE_EFI_SYSTEM_PART_GUID { 0xc12a7328, 0xf81f, 0x11d2, {0xba, 0x4b, 0x00, 0xa0, 
 13158      50415254 
 13158      5F545950 
 13158      455F4546 
 13158      495F5359 
 13159 135f3 01       		.byte	0x1
 13160 135f4 40       		.uleb128 0x40
 13161 135f5 4546495F 		.ascii "EFI_PART_TYPE_LEGACY_MBR_GUID { 0x024dee41, 0x33e7, 0x11d3, {0x9d, 0x69, 0x00, 0x08, 0xc7,
 13161      50415254 
 13161      5F545950 
 13161      455F4C45 
 13161      47414359 
 13162 13664 04       		.byte	0x4
 13163 13665 04       		.byte	0x4
 13164 13666 03       		.byte	0x3
 13165 13667 13       		.uleb128 0x13
 13166 13668 2A       		.uleb128 0x2a
 13167 13669 04       		.byte	0x4
 13168 1366a 04       		.byte	0x4
 13169 1366b 00       		.byte	0
 13170              		.section	.debug_line,"dr"
 13171              	.Ldebug_line0:
 13172 0000 D7070000 		.section	.debug_str,"dr"
 13172      05000800 
 13172      40010000 
 13172      010101FB 
 13172      0E0D0001 
 13173              	.LASF13:
 13174 0000 496E6465 		.ascii "Index\0"
 13174      7800
 13175              	.LASF8:
 13176 0006 42756666 		.ascii "Buffer\0"
 13176      657200
 13177              	.LASF3:
 13178 000d 5369676E 		.ascii "Signature\0"
 13178      61747572 
 13178      6500
 13179              	.LASF2:
 13180 0017 41747472 		.ascii "Attribute\0"
 13180      69627574 
 13180      6500
 13181              	.LASF4:
 13182 0021 5369676E 		.ascii "SignatureType\0"
 13182      61747572 
 13182      65547970 
 13182      6500
 13183              	.LASF11:
 13184 002f 46726565 		.ascii "FreePool\0"
 13184      506F6F6C 
 13184      00
 13185              	.LASF9:
 13186 0038 566F6C75 		.ascii "VolumeLabel\0"
 13186      6D654C61 
 13186      62656C00 
 13187              	.LASF6:
 13188 0044 53746174 		.ascii "Status\0"
 13188      757300
 13189              	.LASF10:
 13190 004b 416C6C6F 		.ascii "AllocatePool\0"
 13190      63617465 
 13190      506F6F6C 
 13190      00
 13191              	.LASF7:
 13192 0058 42756666 		.ascii "BufferSize\0"
 13192      65725369 
 13192      7A6500
 13193              	.LASF15:
 13194 0063 496E7465 		.ascii "Interface\0"
 13194      72666163 
 13194      6500
 13195              	.LASF16:
 13196 006d 4E6F4861 		.ascii "NoHandles\0"
 13196      6E646C65 
 13196      7300
 13197              	.LASF14:
 13198 0077 48616E64 		.ascii "Handle\0"
 13198      6C6500
 13199              	.LASF5:
 13200 007e 52657669 		.ascii "Revision\0"
 13200      73696F6E 
 13200      00
 13201              	.LASF12:
 13202 0087 50726F74 		.ascii "Protocol\0"
 13202      6F636F6C 
 13202      00
 13203              		.section	.debug_line_str,"dr"
 13204              	.LASF0:
 13205 0000 433A5C55 		.ascii "C:\\Users\\victim\\source\\repos\\Paranyok\\UEFI\\Backend\\gnu-efi-3.0.18\\lib\\hand.c\0"
 13205      73657273 
 13205      5C766963 
 13205      74696D5C 
 13205      736F7572 
 13206              	.LASF1:
 13207 004d 433A5C55 		.ascii "C:\\Users\\victim\\source\\repos\\Paranyok\\UEFI\\Backend\0"
 13207      73657273 
 13207      5C766963 
 13207      74696D5C 
 13207      736F7572 
 13208              		.ident	"GCC: (Rev1, Built by MSYS2 project) 14.2.0"
 13213 0080 433A2F55 		.section	.rdata$.refptr.gEfiFileSystemVolumeLabelInfoIdGuid, "dr"
 13213      73657273 
 13213      2F766963 
 13213      74696D2F 
 13213      736F7572 
 13214              		.globl	.refptr.gEfiFileSystemVolumeLabelInfoIdGuid
 13215              		.linkonce	discard
 13216              	.refptr.gEfiFileSystemVolumeLabelInfoIdGuid:
 13217 0000 00000000 		.quad	gEfiFileSystemVolumeLabelInfoIdGuid
 13217      00000000 
 13218 0008 00000000 		.section	.rdata$.refptr.gEfiFileSystemInfoGuid, "dr"
 13218      00000000 
 13219              		.globl	.refptr.gEfiFileSystemInfoGuid
 13220              		.linkonce	discard
 13221              	.refptr.gEfiFileSystemInfoGuid:
 13222 0000 00000000 		.quad	gEfiFileSystemInfoGuid
 13222      00000000 
 13223 0008 00000000 		.section	.rdata$.refptr.gEfiFileInfoGuid, "dr"
 13223      00000000 
 13224              		.globl	.refptr.gEfiFileInfoGuid
 13225              		.linkonce	discard
 13226              	.refptr.gEfiFileInfoGuid:
 13227 0000 00000000 		.quad	gEfiFileInfoGuid
 13227      00000000 
 13228 0008 00000000 		.section	.rdata$.refptr.gEfiSimpleFileSystemProtocolGuid, "dr"
 13228      00000000 
 13229              		.globl	.refptr.gEfiSimpleFileSystemProtocolGuid
 13230              		.linkonce	discard
 13231              	.refptr.gEfiSimpleFileSystemProtocolGuid:
 13232 0000 00000000 		.quad	gEfiSimpleFileSystemProtocolGuid
 13232      00000000 
 13233 0008 00000000 		.section	.rdata$.refptr.gEfiDevicePathProtocolGuid, "dr"
 13233      00000000 
 13234              		.globl	.refptr.gEfiDevicePathProtocolGuid
 13235              		.linkonce	discard
 13236              	.refptr.gEfiDevicePathProtocolGuid:
 13237 0000 00000000 		.quad	gEfiDevicePathProtocolGuid
 13237      00000000 
 13238 0008 00000000 		.section	.rdata$.refptr.gEfiBlockIoProtocolGuid, "dr"
 13238      00000000 
 13239              		.globl	.refptr.gEfiBlockIoProtocolGuid
 13240              		.linkonce	discard
 13241              	.refptr.gEfiBlockIoProtocolGuid:
 13242 0000 00000000 		.quad	gEfiBlockIoProtocolGuid
 13242      00000000 
 13243 0008 00000000 		.section	.rdata$.refptr.BS, "dr"
 13243      00000000 
 13244              		.globl	.refptr.BS
 13245              		.linkonce	discard
 13246              	.refptr.BS:
 13247 0000 00000000 		.quad	BS
 13247      00000000 
 13247      00000000 
 13247      00000000 
