   1              		.file	"misc.c"
   2              		.text
   3              	.Ltext0:
   4              		.cfi_sections	.debug_frame
   5              		.file 0 "C:/Users/victim/source/repos/Paranyok/UEFI/Backend" "C:/Users/victim/source/repos/Paranyo
   6              		.globl	AllocatePool
   8              		.seh_proc	AllocatePool
   9              	AllocatePool:
  10              	.LVL0:
  11              	.LFB2:
  12              		.file 1 "C:/Users/victim/source/repos/Paranyok/UEFI/Backend/gnu-efi-3.0.18/lib/misc.c"
   1:C:/Users/victim/source/repos/Paranyok/UEFI/Backend/gnu-efi-3.0.18/lib\misc.c **** /*++
   2:C:/Users/victim/source/repos/Paranyok/UEFI/Backend/gnu-efi-3.0.18/lib\misc.c **** 
   3:C:/Users/victim/source/repos/Paranyok/UEFI/Backend/gnu-efi-3.0.18/lib\misc.c **** Copyright (c) 1998  Intel Corporation
   4:C:/Users/victim/source/repos/Paranyok/UEFI/Backend/gnu-efi-3.0.18/lib\misc.c **** 
   5:C:/Users/victim/source/repos/Paranyok/UEFI/Backend/gnu-efi-3.0.18/lib\misc.c **** Module Name:
   6:C:/Users/victim/source/repos/Paranyok/UEFI/Backend/gnu-efi-3.0.18/lib\misc.c **** 
   7:C:/Users/victim/source/repos/Paranyok/UEFI/Backend/gnu-efi-3.0.18/lib\misc.c ****     misc.c
   8:C:/Users/victim/source/repos/Paranyok/UEFI/Backend/gnu-efi-3.0.18/lib\misc.c **** 
   9:C:/Users/victim/source/repos/Paranyok/UEFI/Backend/gnu-efi-3.0.18/lib\misc.c **** Abstract:
  10:C:/Users/victim/source/repos/Paranyok/UEFI/Backend/gnu-efi-3.0.18/lib\misc.c **** 
  11:C:/Users/victim/source/repos/Paranyok/UEFI/Backend/gnu-efi-3.0.18/lib\misc.c **** 
  12:C:/Users/victim/source/repos/Paranyok/UEFI/Backend/gnu-efi-3.0.18/lib\misc.c **** 
  13:C:/Users/victim/source/repos/Paranyok/UEFI/Backend/gnu-efi-3.0.18/lib\misc.c **** 
  14:C:/Users/victim/source/repos/Paranyok/UEFI/Backend/gnu-efi-3.0.18/lib\misc.c **** Revision History
  15:C:/Users/victim/source/repos/Paranyok/UEFI/Backend/gnu-efi-3.0.18/lib\misc.c **** 
  16:C:/Users/victim/source/repos/Paranyok/UEFI/Backend/gnu-efi-3.0.18/lib\misc.c **** --*/
  17:C:/Users/victim/source/repos/Paranyok/UEFI/Backend/gnu-efi-3.0.18/lib\misc.c **** 
  18:C:/Users/victim/source/repos/Paranyok/UEFI/Backend/gnu-efi-3.0.18/lib\misc.c **** #include "lib.h"
  19:C:/Users/victim/source/repos/Paranyok/UEFI/Backend/gnu-efi-3.0.18/lib\misc.c **** 
  20:C:/Users/victim/source/repos/Paranyok/UEFI/Backend/gnu-efi-3.0.18/lib\misc.c **** 
  21:C:/Users/victim/source/repos/Paranyok/UEFI/Backend/gnu-efi-3.0.18/lib\misc.c **** //
  22:C:/Users/victim/source/repos/Paranyok/UEFI/Backend/gnu-efi-3.0.18/lib\misc.c **** //
  23:C:/Users/victim/source/repos/Paranyok/UEFI/Backend/gnu-efi-3.0.18/lib\misc.c **** //
  24:C:/Users/victim/source/repos/Paranyok/UEFI/Backend/gnu-efi-3.0.18/lib\misc.c **** 
  25:C:/Users/victim/source/repos/Paranyok/UEFI/Backend/gnu-efi-3.0.18/lib\misc.c **** VOID *
  26:C:/Users/victim/source/repos/Paranyok/UEFI/Backend/gnu-efi-3.0.18/lib\misc.c **** AllocatePool (
  27:C:/Users/victim/source/repos/Paranyok/UEFI/Backend/gnu-efi-3.0.18/lib\misc.c ****     IN UINTN                Size
  28:C:/Users/victim/source/repos/Paranyok/UEFI/Backend/gnu-efi-3.0.18/lib\misc.c ****     )
  29:C:/Users/victim/source/repos/Paranyok/UEFI/Backend/gnu-efi-3.0.18/lib\misc.c **** {
  13              		.loc 1 29 1 view -0
  14              		.cfi_startproc
  15              		.loc 1 29 1 is_stmt 0 view .LVU1
  16 0000 4883EC38 		subq	$56, %rsp
  17              		.seh_stackalloc	56
  18              		.cfi_def_cfa_offset 64
  19              		.seh_endprologue
  20 0004 4889CA   		movq	%rcx, %rdx
  30:C:/Users/victim/source/repos/Paranyok/UEFI/Backend/gnu-efi-3.0.18/lib\misc.c ****     EFI_STATUS              Status;
  21              		.loc 1 30 5 is_stmt 1 view .LVU2
  31:C:/Users/victim/source/repos/Paranyok/UEFI/Backend/gnu-efi-3.0.18/lib\misc.c ****     VOID                    *p;
  22              		.loc 1 31 5 view .LVU3
  32:C:/Users/victim/source/repos/Paranyok/UEFI/Backend/gnu-efi-3.0.18/lib\misc.c **** 
  33:C:/Users/victim/source/repos/Paranyok/UEFI/Backend/gnu-efi-3.0.18/lib\misc.c ****     Status = uefi_call_wrapper(BS->AllocatePool, 3, PoolAllocationType, Size, &p);
  23              		.loc 1 33 5 view .LVU4
  24              		.loc 1 33 14 is_stmt 0 view .LVU5
  25 0007 488B0500 		movq	.refptr.BS(%rip), %rax
  25      000000
  26 000e 488B00   		movq	(%rax), %rax
  27 0011 488B0D00 		movq	.refptr.PoolAllocationType(%rip), %rcx
  27      000000
  28              	.LVL1:
  29              		.loc 1 33 14 view .LVU6
  30 0018 8B09     		movl	(%rcx), %ecx
  31 001a 4C8D4424 		leaq	40(%rsp), %r8
  31      28
  32 001f FF5040   		call	*64(%rax)
  33              	.LVL2:
  34:C:/Users/victim/source/repos/Paranyok/UEFI/Backend/gnu-efi-3.0.18/lib\misc.c ****     if (EFI_ERROR(Status)) {
  34              		.loc 1 34 5 is_stmt 1 view .LVU7
  35              		.loc 1 34 8 is_stmt 0 view .LVU8
  36 0022 4885C0   		testq	%rax, %rax
  37 0025 780A     		js	.L3
  38              	.L2:
  35:C:/Users/victim/source/repos/Paranyok/UEFI/Backend/gnu-efi-3.0.18/lib\misc.c ****         DEBUG((D_ERROR, "AllocatePool: out of pool  %x\n", Status));
  36:C:/Users/victim/source/repos/Paranyok/UEFI/Backend/gnu-efi-3.0.18/lib\misc.c ****         p = NULL;
  37:C:/Users/victim/source/repos/Paranyok/UEFI/Backend/gnu-efi-3.0.18/lib\misc.c ****     }
  38:C:/Users/victim/source/repos/Paranyok/UEFI/Backend/gnu-efi-3.0.18/lib\misc.c ****     return p;
  39              		.loc 1 38 5 is_stmt 1 view .LVU9
  39:C:/Users/victim/source/repos/Paranyok/UEFI/Backend/gnu-efi-3.0.18/lib\misc.c **** }
  40              		.loc 1 39 1 is_stmt 0 view .LVU10
  41 0027 488B4424 		movq	40(%rsp), %rax
  41      28
  42              	.LVL3:
  43              		.loc 1 39 1 view .LVU11
  44 002c 4883C438 		addq	$56, %rsp
  45              		.cfi_remember_state
  46              		.cfi_def_cfa_offset 8
  47 0030 C3       		ret
  48              	.LVL4:
  49              	.L3:
  50              		.cfi_restore_state
  35:C:/Users/victim/source/repos/Paranyok/UEFI/Backend/gnu-efi-3.0.18/lib\misc.c ****         DEBUG((D_ERROR, "AllocatePool: out of pool  %x\n", Status));
  51              		.loc 1 35 68 is_stmt 1 view .LVU12
  36:C:/Users/victim/source/repos/Paranyok/UEFI/Backend/gnu-efi-3.0.18/lib\misc.c ****     }
  52              		.loc 1 36 9 view .LVU13
  36:C:/Users/victim/source/repos/Paranyok/UEFI/Backend/gnu-efi-3.0.18/lib\misc.c ****     }
  53              		.loc 1 36 11 is_stmt 0 view .LVU14
  54 0031 48C74424 		movq	$0, 40(%rsp)
  54      28000000 
  54      00
  55 003a EBEB     		jmp	.L2
  56              		.cfi_endproc
  57              	.LFE2:
  58              		.seh_endproc
  59              		.globl	FreePool
  61              		.seh_proc	FreePool
  62              	FreePool:
  63              	.LVL5:
  64              	.LFB5:
  40:C:/Users/victim/source/repos/Paranyok/UEFI/Backend/gnu-efi-3.0.18/lib\misc.c **** 
  41:C:/Users/victim/source/repos/Paranyok/UEFI/Backend/gnu-efi-3.0.18/lib\misc.c **** VOID *
  42:C:/Users/victim/source/repos/Paranyok/UEFI/Backend/gnu-efi-3.0.18/lib\misc.c **** AllocateZeroPool (
  43:C:/Users/victim/source/repos/Paranyok/UEFI/Backend/gnu-efi-3.0.18/lib\misc.c ****     IN UINTN                Size
  44:C:/Users/victim/source/repos/Paranyok/UEFI/Backend/gnu-efi-3.0.18/lib\misc.c ****     )
  45:C:/Users/victim/source/repos/Paranyok/UEFI/Backend/gnu-efi-3.0.18/lib\misc.c **** {
  46:C:/Users/victim/source/repos/Paranyok/UEFI/Backend/gnu-efi-3.0.18/lib\misc.c ****     VOID                    *p;
  47:C:/Users/victim/source/repos/Paranyok/UEFI/Backend/gnu-efi-3.0.18/lib\misc.c **** 
  48:C:/Users/victim/source/repos/Paranyok/UEFI/Backend/gnu-efi-3.0.18/lib\misc.c ****     p = AllocatePool (Size);
  49:C:/Users/victim/source/repos/Paranyok/UEFI/Backend/gnu-efi-3.0.18/lib\misc.c ****     if (p) {
  50:C:/Users/victim/source/repos/Paranyok/UEFI/Backend/gnu-efi-3.0.18/lib\misc.c ****         ZeroMem (p, Size);
  51:C:/Users/victim/source/repos/Paranyok/UEFI/Backend/gnu-efi-3.0.18/lib\misc.c ****     }
  52:C:/Users/victim/source/repos/Paranyok/UEFI/Backend/gnu-efi-3.0.18/lib\misc.c **** 
  53:C:/Users/victim/source/repos/Paranyok/UEFI/Backend/gnu-efi-3.0.18/lib\misc.c ****     return p;
  54:C:/Users/victim/source/repos/Paranyok/UEFI/Backend/gnu-efi-3.0.18/lib\misc.c **** }
  55:C:/Users/victim/source/repos/Paranyok/UEFI/Backend/gnu-efi-3.0.18/lib\misc.c **** 
  56:C:/Users/victim/source/repos/Paranyok/UEFI/Backend/gnu-efi-3.0.18/lib\misc.c **** VOID *
  57:C:/Users/victim/source/repos/Paranyok/UEFI/Backend/gnu-efi-3.0.18/lib\misc.c **** ReallocatePool (
  58:C:/Users/victim/source/repos/Paranyok/UEFI/Backend/gnu-efi-3.0.18/lib\misc.c ****     IN VOID                 *OldPool,
  59:C:/Users/victim/source/repos/Paranyok/UEFI/Backend/gnu-efi-3.0.18/lib\misc.c ****     IN UINTN                OldSize,
  60:C:/Users/victim/source/repos/Paranyok/UEFI/Backend/gnu-efi-3.0.18/lib\misc.c ****     IN UINTN                NewSize
  61:C:/Users/victim/source/repos/Paranyok/UEFI/Backend/gnu-efi-3.0.18/lib\misc.c ****     )
  62:C:/Users/victim/source/repos/Paranyok/UEFI/Backend/gnu-efi-3.0.18/lib\misc.c **** {
  63:C:/Users/victim/source/repos/Paranyok/UEFI/Backend/gnu-efi-3.0.18/lib\misc.c ****     VOID                    *NewPool;
  64:C:/Users/victim/source/repos/Paranyok/UEFI/Backend/gnu-efi-3.0.18/lib\misc.c **** 
  65:C:/Users/victim/source/repos/Paranyok/UEFI/Backend/gnu-efi-3.0.18/lib\misc.c ****     NewPool = NULL;
  66:C:/Users/victim/source/repos/Paranyok/UEFI/Backend/gnu-efi-3.0.18/lib\misc.c ****     if (NewSize) {
  67:C:/Users/victim/source/repos/Paranyok/UEFI/Backend/gnu-efi-3.0.18/lib\misc.c ****         NewPool = AllocatePool (NewSize);
  68:C:/Users/victim/source/repos/Paranyok/UEFI/Backend/gnu-efi-3.0.18/lib\misc.c ****     }
  69:C:/Users/victim/source/repos/Paranyok/UEFI/Backend/gnu-efi-3.0.18/lib\misc.c **** 
  70:C:/Users/victim/source/repos/Paranyok/UEFI/Backend/gnu-efi-3.0.18/lib\misc.c ****     if (OldPool) {
  71:C:/Users/victim/source/repos/Paranyok/UEFI/Backend/gnu-efi-3.0.18/lib\misc.c ****         if (NewPool) {
  72:C:/Users/victim/source/repos/Paranyok/UEFI/Backend/gnu-efi-3.0.18/lib\misc.c ****             CopyMem (NewPool, OldPool, OldSize < NewSize ? OldSize : NewSize);
  73:C:/Users/victim/source/repos/Paranyok/UEFI/Backend/gnu-efi-3.0.18/lib\misc.c ****         }
  74:C:/Users/victim/source/repos/Paranyok/UEFI/Backend/gnu-efi-3.0.18/lib\misc.c ****     
  75:C:/Users/victim/source/repos/Paranyok/UEFI/Backend/gnu-efi-3.0.18/lib\misc.c ****         FreePool (OldPool);
  76:C:/Users/victim/source/repos/Paranyok/UEFI/Backend/gnu-efi-3.0.18/lib\misc.c ****     }
  77:C:/Users/victim/source/repos/Paranyok/UEFI/Backend/gnu-efi-3.0.18/lib\misc.c ****     
  78:C:/Users/victim/source/repos/Paranyok/UEFI/Backend/gnu-efi-3.0.18/lib\misc.c ****     return NewPool;
  79:C:/Users/victim/source/repos/Paranyok/UEFI/Backend/gnu-efi-3.0.18/lib\misc.c **** }
  80:C:/Users/victim/source/repos/Paranyok/UEFI/Backend/gnu-efi-3.0.18/lib\misc.c **** 
  81:C:/Users/victim/source/repos/Paranyok/UEFI/Backend/gnu-efi-3.0.18/lib\misc.c **** 
  82:C:/Users/victim/source/repos/Paranyok/UEFI/Backend/gnu-efi-3.0.18/lib\misc.c **** VOID
  83:C:/Users/victim/source/repos/Paranyok/UEFI/Backend/gnu-efi-3.0.18/lib\misc.c **** FreePool (
  84:C:/Users/victim/source/repos/Paranyok/UEFI/Backend/gnu-efi-3.0.18/lib\misc.c ****     IN VOID                 *Buffer
  85:C:/Users/victim/source/repos/Paranyok/UEFI/Backend/gnu-efi-3.0.18/lib\misc.c ****     )
  86:C:/Users/victim/source/repos/Paranyok/UEFI/Backend/gnu-efi-3.0.18/lib\misc.c **** {
  65              		.loc 1 86 1 is_stmt 1 view -0
  66              		.cfi_startproc
  67              		.loc 1 86 1 is_stmt 0 view .LVU16
  68 003c 4883EC28 		subq	$40, %rsp
  69              		.seh_stackalloc	40
  70              		.cfi_def_cfa_offset 48
  71              		.seh_endprologue
  87:C:/Users/victim/source/repos/Paranyok/UEFI/Backend/gnu-efi-3.0.18/lib\misc.c ****     uefi_call_wrapper(BS->FreePool, 1, Buffer);
  72              		.loc 1 87 5 is_stmt 1 view .LVU17
  73 0040 488B0500 		movq	.refptr.BS(%rip), %rax
  73      000000
  74 0047 488B00   		movq	(%rax), %rax
  75 004a FF5048   		call	*72(%rax)
  76 004d 90       		nop
  77              	.LVL6:
  88:C:/Users/victim/source/repos/Paranyok/UEFI/Backend/gnu-efi-3.0.18/lib\misc.c **** }
  78              		.loc 1 88 1 is_stmt 0 view .LVU18
  79 004e 4883C428 		addq	$40, %rsp
  80              		.cfi_def_cfa_offset 8
  81 0052 C3       		ret
  82              		.cfi_endproc
  83              	.LFE5:
  84              		.seh_endproc
  85              		.globl	ZeroMem
  87              		.seh_proc	ZeroMem
  88              	ZeroMem:
  89              	.LVL7:
  90              	.LFB6:
  89:C:/Users/victim/source/repos/Paranyok/UEFI/Backend/gnu-efi-3.0.18/lib\misc.c **** 
  90:C:/Users/victim/source/repos/Paranyok/UEFI/Backend/gnu-efi-3.0.18/lib\misc.c **** 
  91:C:/Users/victim/source/repos/Paranyok/UEFI/Backend/gnu-efi-3.0.18/lib\misc.c **** 
  92:C:/Users/victim/source/repos/Paranyok/UEFI/Backend/gnu-efi-3.0.18/lib\misc.c **** VOID
  93:C:/Users/victim/source/repos/Paranyok/UEFI/Backend/gnu-efi-3.0.18/lib\misc.c **** ZeroMem (
  94:C:/Users/victim/source/repos/Paranyok/UEFI/Backend/gnu-efi-3.0.18/lib\misc.c ****     IN VOID     *Buffer,
  95:C:/Users/victim/source/repos/Paranyok/UEFI/Backend/gnu-efi-3.0.18/lib\misc.c ****     IN UINTN    Size
  96:C:/Users/victim/source/repos/Paranyok/UEFI/Backend/gnu-efi-3.0.18/lib\misc.c ****     )
  97:C:/Users/victim/source/repos/Paranyok/UEFI/Backend/gnu-efi-3.0.18/lib\misc.c **** {
  91              		.loc 1 97 1 is_stmt 1 view -0
  92              		.cfi_startproc
  93              		.loc 1 97 1 is_stmt 0 view .LVU20
  94 0053 4883EC28 		subq	$40, %rsp
  95              		.seh_stackalloc	40
  96              		.cfi_def_cfa_offset 48
  97              		.seh_endprologue
  98:C:/Users/victim/source/repos/Paranyok/UEFI/Backend/gnu-efi-3.0.18/lib\misc.c ****     RtZeroMem (Buffer, Size);
  98              		.loc 1 98 5 is_stmt 1 view .LVU21
  99 0057 E8000000 		call	RtZeroMem
  99      00
 100 005c 90       		nop
 101              	.LVL8:
  99:C:/Users/victim/source/repos/Paranyok/UEFI/Backend/gnu-efi-3.0.18/lib\misc.c **** }
 102              		.loc 1 99 1 is_stmt 0 view .LVU22
 103 005d 4883C428 		addq	$40, %rsp
 104              		.cfi_def_cfa_offset 8
 105 0061 C3       		ret
 106              		.cfi_endproc
 107              	.LFE6:
 108              		.seh_endproc
 109              		.globl	AllocateZeroPool
 111              		.seh_proc	AllocateZeroPool
 112              	AllocateZeroPool:
 113              	.LVL9:
 114              	.LFB3:
  45:C:/Users/victim/source/repos/Paranyok/UEFI/Backend/gnu-efi-3.0.18/lib\misc.c ****     VOID                    *p;
 115              		.loc 1 45 1 is_stmt 1 view -0
 116              		.cfi_startproc
  45:C:/Users/victim/source/repos/Paranyok/UEFI/Backend/gnu-efi-3.0.18/lib\misc.c ****     VOID                    *p;
 117              		.loc 1 45 1 is_stmt 0 view .LVU24
 118 0062 56       		pushq	%rsi
 119              		.seh_pushreg	%rsi
 120              		.cfi_def_cfa_offset 16
 121              		.cfi_offset 4, -16
 122 0063 53       		pushq	%rbx
 123              		.seh_pushreg	%rbx
 124              		.cfi_def_cfa_offset 24
 125              		.cfi_offset 3, -24
 126 0064 4883EC28 		subq	$40, %rsp
 127              		.seh_stackalloc	40
 128              		.cfi_def_cfa_offset 64
 129              		.seh_endprologue
 130 0068 4889CE   		movq	%rcx, %rsi
  46:C:/Users/victim/source/repos/Paranyok/UEFI/Backend/gnu-efi-3.0.18/lib\misc.c **** 
 131              		.loc 1 46 5 is_stmt 1 view .LVU25
  48:C:/Users/victim/source/repos/Paranyok/UEFI/Backend/gnu-efi-3.0.18/lib\misc.c ****     if (p) {
 132              		.loc 1 48 5 view .LVU26
  48:C:/Users/victim/source/repos/Paranyok/UEFI/Backend/gnu-efi-3.0.18/lib\misc.c ****     if (p) {
 133              		.loc 1 48 9 is_stmt 0 view .LVU27
 134 006b E890FFFF 		call	AllocatePool
 134      FF
 135              	.LVL10:
  48:C:/Users/victim/source/repos/Paranyok/UEFI/Backend/gnu-efi-3.0.18/lib\misc.c ****     if (p) {
 136              		.loc 1 48 9 view .LVU28
 137 0070 4889C3   		movq	%rax, %rbx
 138              	.LVL11:
  49:C:/Users/victim/source/repos/Paranyok/UEFI/Backend/gnu-efi-3.0.18/lib\misc.c ****         ZeroMem (p, Size);
 139              		.loc 1 49 5 is_stmt 1 view .LVU29
  49:C:/Users/victim/source/repos/Paranyok/UEFI/Backend/gnu-efi-3.0.18/lib\misc.c ****         ZeroMem (p, Size);
 140              		.loc 1 49 8 is_stmt 0 view .LVU30
 141 0073 4885C0   		testq	%rax, %rax
 142 0076 740B     		je	.L6
  50:C:/Users/victim/source/repos/Paranyok/UEFI/Backend/gnu-efi-3.0.18/lib\misc.c ****     }
 143              		.loc 1 50 9 is_stmt 1 view .LVU31
 144 0078 4889F2   		movq	%rsi, %rdx
 145 007b 4889C1   		movq	%rax, %rcx
 146 007e E8D0FFFF 		call	ZeroMem
 146      FF
 147              	.LVL12:
  53:C:/Users/victim/source/repos/Paranyok/UEFI/Backend/gnu-efi-3.0.18/lib\misc.c **** }
 148              		.loc 1 53 5 view .LVU32
 149              	.L6:
  54:C:/Users/victim/source/repos/Paranyok/UEFI/Backend/gnu-efi-3.0.18/lib\misc.c **** 
 150              		.loc 1 54 1 is_stmt 0 view .LVU33
 151 0083 4889D8   		movq	%rbx, %rax
 152 0086 4883C428 		addq	$40, %rsp
 153              		.cfi_def_cfa_offset 24
 154 008a 5B       		popq	%rbx
 155              		.cfi_restore 3
 156              		.cfi_def_cfa_offset 16
 157              	.LVL13:
  54:C:/Users/victim/source/repos/Paranyok/UEFI/Backend/gnu-efi-3.0.18/lib\misc.c **** 
 158              		.loc 1 54 1 view .LVU34
 159 008b 5E       		popq	%rsi
 160              		.cfi_restore 4
 161              		.cfi_def_cfa_offset 8
 162              	.LVL14:
  54:C:/Users/victim/source/repos/Paranyok/UEFI/Backend/gnu-efi-3.0.18/lib\misc.c **** 
 163              		.loc 1 54 1 view .LVU35
 164 008c C3       		ret
 165              		.cfi_endproc
 166              	.LFE3:
 167              		.seh_endproc
 168              		.globl	SetMem
 170              		.seh_proc	SetMem
 171              	SetMem:
 172              	.LVL15:
 173              	.LFB7:
 100:C:/Users/victim/source/repos/Paranyok/UEFI/Backend/gnu-efi-3.0.18/lib\misc.c **** 
 101:C:/Users/victim/source/repos/Paranyok/UEFI/Backend/gnu-efi-3.0.18/lib\misc.c **** VOID EFIAPI
 102:C:/Users/victim/source/repos/Paranyok/UEFI/Backend/gnu-efi-3.0.18/lib\misc.c **** SetMem (
 103:C:/Users/victim/source/repos/Paranyok/UEFI/Backend/gnu-efi-3.0.18/lib\misc.c ****     IN VOID     *Buffer,
 104:C:/Users/victim/source/repos/Paranyok/UEFI/Backend/gnu-efi-3.0.18/lib\misc.c ****     IN UINTN    Size,
 105:C:/Users/victim/source/repos/Paranyok/UEFI/Backend/gnu-efi-3.0.18/lib\misc.c ****     IN UINT8    Value    
 106:C:/Users/victim/source/repos/Paranyok/UEFI/Backend/gnu-efi-3.0.18/lib\misc.c ****     )
 107:C:/Users/victim/source/repos/Paranyok/UEFI/Backend/gnu-efi-3.0.18/lib\misc.c **** {
 174              		.loc 1 107 1 is_stmt 1 view -0
 175              		.cfi_startproc
 176              		.loc 1 107 1 is_stmt 0 view .LVU37
 177 008d 4883EC28 		subq	$40, %rsp
 178              		.seh_stackalloc	40
 179              		.cfi_def_cfa_offset 48
 180              		.seh_endprologue
 108:C:/Users/victim/source/repos/Paranyok/UEFI/Backend/gnu-efi-3.0.18/lib\misc.c ****     RtSetMem (Buffer, Size, Value);
 181              		.loc 1 108 5 is_stmt 1 view .LVU38
 182 0091 450FB6C0 		movzbl	%r8b, %r8d
 183              		.loc 1 108 5 is_stmt 0 view .LVU39
 184 0095 E8000000 		call	RtSetMem
 184      00
 185 009a 90       		nop
 186              	.LVL16:
 109:C:/Users/victim/source/repos/Paranyok/UEFI/Backend/gnu-efi-3.0.18/lib\misc.c **** }
 187              		.loc 1 109 1 view .LVU40
 188 009b 4883C428 		addq	$40, %rsp
 189              		.cfi_def_cfa_offset 8
 190 009f C3       		ret
 191              		.cfi_endproc
 192              	.LFE7:
 193              		.seh_endproc
 194              		.globl	CopyMem
 196              		.seh_proc	CopyMem
 197              	CopyMem:
 198              	.LVL17:
 199              	.LFB8:
 110:C:/Users/victim/source/repos/Paranyok/UEFI/Backend/gnu-efi-3.0.18/lib\misc.c **** 
 111:C:/Users/victim/source/repos/Paranyok/UEFI/Backend/gnu-efi-3.0.18/lib\misc.c **** VOID EFIAPI
 112:C:/Users/victim/source/repos/Paranyok/UEFI/Backend/gnu-efi-3.0.18/lib\misc.c **** CopyMem (
 113:C:/Users/victim/source/repos/Paranyok/UEFI/Backend/gnu-efi-3.0.18/lib\misc.c ****     IN VOID     *Dest,
 114:C:/Users/victim/source/repos/Paranyok/UEFI/Backend/gnu-efi-3.0.18/lib\misc.c ****     IN VOID     *Src,
 115:C:/Users/victim/source/repos/Paranyok/UEFI/Backend/gnu-efi-3.0.18/lib\misc.c ****     IN UINTN    len
 116:C:/Users/victim/source/repos/Paranyok/UEFI/Backend/gnu-efi-3.0.18/lib\misc.c ****     )
 117:C:/Users/victim/source/repos/Paranyok/UEFI/Backend/gnu-efi-3.0.18/lib\misc.c **** {
 200              		.loc 1 117 1 is_stmt 1 view -0
 201              		.cfi_startproc
 202              		.loc 1 117 1 is_stmt 0 view .LVU42
 203 00a0 4883EC28 		subq	$40, %rsp
 204              		.seh_stackalloc	40
 205              		.cfi_def_cfa_offset 48
 206              		.seh_endprologue
 118:C:/Users/victim/source/repos/Paranyok/UEFI/Backend/gnu-efi-3.0.18/lib\misc.c ****     RtCopyMem (Dest, Src, len);
 207              		.loc 1 118 5 is_stmt 1 view .LVU43
 208 00a4 E8000000 		call	RtCopyMem
 208      00
 209 00a9 90       		nop
 210              	.LVL18:
 119:C:/Users/victim/source/repos/Paranyok/UEFI/Backend/gnu-efi-3.0.18/lib\misc.c **** }
 211              		.loc 1 119 1 is_stmt 0 view .LVU44
 212 00aa 4883C428 		addq	$40, %rsp
 213              		.cfi_def_cfa_offset 8
 214 00ae C3       		ret
 215              		.cfi_endproc
 216              	.LFE8:
 217              		.seh_endproc
 218              		.globl	ReallocatePool
 220              		.seh_proc	ReallocatePool
 221              	ReallocatePool:
 222              	.LVL19:
 223              	.LFB4:
  62:C:/Users/victim/source/repos/Paranyok/UEFI/Backend/gnu-efi-3.0.18/lib\misc.c ****     VOID                    *NewPool;
 224              		.loc 1 62 1 is_stmt 1 view -0
 225              		.cfi_startproc
  62:C:/Users/victim/source/repos/Paranyok/UEFI/Backend/gnu-efi-3.0.18/lib\misc.c ****     VOID                    *NewPool;
 226              		.loc 1 62 1 is_stmt 0 view .LVU46
 227 00af 55       		pushq	%rbp
 228              		.seh_pushreg	%rbp
 229              		.cfi_def_cfa_offset 16
 230              		.cfi_offset 6, -16
 231 00b0 57       		pushq	%rdi
 232              		.seh_pushreg	%rdi
 233              		.cfi_def_cfa_offset 24
 234              		.cfi_offset 5, -24
 235 00b1 56       		pushq	%rsi
 236              		.seh_pushreg	%rsi
 237              		.cfi_def_cfa_offset 32
 238              		.cfi_offset 4, -32
 239 00b2 53       		pushq	%rbx
 240              		.seh_pushreg	%rbx
 241              		.cfi_def_cfa_offset 40
 242              		.cfi_offset 3, -40
 243 00b3 4883EC28 		subq	$40, %rsp
 244              		.seh_stackalloc	40
 245              		.cfi_def_cfa_offset 80
 246              		.seh_endprologue
 247 00b7 4889CE   		movq	%rcx, %rsi
 248 00ba 4889D5   		movq	%rdx, %rbp
 249 00bd 4C89C3   		movq	%r8, %rbx
  63:C:/Users/victim/source/repos/Paranyok/UEFI/Backend/gnu-efi-3.0.18/lib\misc.c **** 
 250              		.loc 1 63 5 is_stmt 1 view .LVU47
  65:C:/Users/victim/source/repos/Paranyok/UEFI/Backend/gnu-efi-3.0.18/lib\misc.c ****     if (NewSize) {
 251              		.loc 1 65 5 view .LVU48
 252              	.LVL20:
  66:C:/Users/victim/source/repos/Paranyok/UEFI/Backend/gnu-efi-3.0.18/lib\misc.c ****         NewPool = AllocatePool (NewSize);
 253              		.loc 1 66 5 view .LVU49
  66:C:/Users/victim/source/repos/Paranyok/UEFI/Backend/gnu-efi-3.0.18/lib\misc.c ****         NewPool = AllocatePool (NewSize);
 254              		.loc 1 66 8 is_stmt 0 view .LVU50
 255 00c0 4D85C0   		testq	%r8, %r8
 256 00c3 743E     		je	.L14
  67:C:/Users/victim/source/repos/Paranyok/UEFI/Backend/gnu-efi-3.0.18/lib\misc.c ****     }
 257              		.loc 1 67 9 is_stmt 1 view .LVU51
  67:C:/Users/victim/source/repos/Paranyok/UEFI/Backend/gnu-efi-3.0.18/lib\misc.c ****     }
 258              		.loc 1 67 19 is_stmt 0 view .LVU52
 259 00c5 4C89C1   		movq	%r8, %rcx
 260              	.LVL21:
  67:C:/Users/victim/source/repos/Paranyok/UEFI/Backend/gnu-efi-3.0.18/lib\misc.c ****     }
 261              		.loc 1 67 19 view .LVU53
 262 00c8 E833FFFF 		call	AllocatePool
 262      FF
 263              	.LVL22:
  67:C:/Users/victim/source/repos/Paranyok/UEFI/Backend/gnu-efi-3.0.18/lib\misc.c ****     }
 264              		.loc 1 67 19 view .LVU54
 265 00cd 4889C7   		movq	%rax, %rdi
 266              	.LVL23:
 267              	.L11:
  70:C:/Users/victim/source/repos/Paranyok/UEFI/Backend/gnu-efi-3.0.18/lib\misc.c ****         if (NewPool) {
 268              		.loc 1 70 5 is_stmt 1 view .LVU55
  70:C:/Users/victim/source/repos/Paranyok/UEFI/Backend/gnu-efi-3.0.18/lib\misc.c ****         if (NewPool) {
 269              		.loc 1 70 8 is_stmt 0 view .LVU56
 270 00d0 4885F6   		testq	%rsi, %rsi
 271 00d3 7422     		je	.L10
  71:C:/Users/victim/source/repos/Paranyok/UEFI/Backend/gnu-efi-3.0.18/lib\misc.c ****             CopyMem (NewPool, OldPool, OldSize < NewSize ? OldSize : NewSize);
 272              		.loc 1 71 9 is_stmt 1 view .LVU57
  71:C:/Users/victim/source/repos/Paranyok/UEFI/Backend/gnu-efi-3.0.18/lib\misc.c ****             CopyMem (NewPool, OldPool, OldSize < NewSize ? OldSize : NewSize);
 273              		.loc 1 71 12 is_stmt 0 view .LVU58
 274 00d5 4885FF   		testq	%rdi, %rdi
 275 00d8 7415     		je	.L13
  72:C:/Users/victim/source/repos/Paranyok/UEFI/Backend/gnu-efi-3.0.18/lib\misc.c ****         }
 276              		.loc 1 72 13 is_stmt 1 view .LVU59
 277 00da 4839EB   		cmpq	%rbp, %rbx
 278 00dd 4989E8   		movq	%rbp, %r8
 279 00e0 4C0F46C3 		cmovbe	%rbx, %r8
 280 00e4 4889F2   		movq	%rsi, %rdx
 281 00e7 4889F9   		movq	%rdi, %rcx
 282 00ea E8B1FFFF 		call	CopyMem
 282      FF
 283              	.LVL24:
 284              	.L13:
  75:C:/Users/victim/source/repos/Paranyok/UEFI/Backend/gnu-efi-3.0.18/lib\misc.c ****     }
 285              		.loc 1 75 9 view .LVU60
 286 00ef 4889F1   		movq	%rsi, %rcx
 287 00f2 E845FFFF 		call	FreePool
 287      FF
 288              	.LVL25:
  78:C:/Users/victim/source/repos/Paranyok/UEFI/Backend/gnu-efi-3.0.18/lib\misc.c **** }
 289              		.loc 1 78 5 view .LVU61
 290              	.L10:
  79:C:/Users/victim/source/repos/Paranyok/UEFI/Backend/gnu-efi-3.0.18/lib\misc.c **** 
 291              		.loc 1 79 1 is_stmt 0 view .LVU62
 292 00f7 4889F8   		movq	%rdi, %rax
 293 00fa 4883C428 		addq	$40, %rsp
 294              		.cfi_remember_state
 295              		.cfi_def_cfa_offset 40
 296 00fe 5B       		popq	%rbx
 297              		.cfi_restore 3
 298              		.cfi_def_cfa_offset 32
 299              	.LVL26:
  79:C:/Users/victim/source/repos/Paranyok/UEFI/Backend/gnu-efi-3.0.18/lib\misc.c **** 
 300              		.loc 1 79 1 view .LVU63
 301 00ff 5E       		popq	%rsi
 302              		.cfi_restore 4
 303              		.cfi_def_cfa_offset 24
 304              	.LVL27:
  79:C:/Users/victim/source/repos/Paranyok/UEFI/Backend/gnu-efi-3.0.18/lib\misc.c **** 
 305              		.loc 1 79 1 view .LVU64
 306 0100 5F       		popq	%rdi
 307              		.cfi_restore 5
 308              		.cfi_def_cfa_offset 16
 309              	.LVL28:
  79:C:/Users/victim/source/repos/Paranyok/UEFI/Backend/gnu-efi-3.0.18/lib\misc.c **** 
 310              		.loc 1 79 1 view .LVU65
 311 0101 5D       		popq	%rbp
 312              		.cfi_restore 6
 313              		.cfi_def_cfa_offset 8
 314              	.LVL29:
  79:C:/Users/victim/source/repos/Paranyok/UEFI/Backend/gnu-efi-3.0.18/lib\misc.c **** 
 315              		.loc 1 79 1 view .LVU66
 316 0102 C3       		ret
 317              	.LVL30:
 318              	.L14:
 319              		.cfi_restore_state
  65:C:/Users/victim/source/repos/Paranyok/UEFI/Backend/gnu-efi-3.0.18/lib\misc.c ****     if (NewSize) {
 320              		.loc 1 65 13 view .LVU67
 321 0103 BF000000 		movl	$0, %edi
 321      00
 322 0108 EBC6     		jmp	.L11
 323              		.cfi_endproc
 324              	.LFE4:
 325              		.seh_endproc
 326              		.globl	CompareMem
 328              		.seh_proc	CompareMem
 329              	CompareMem:
 330              	.LVL31:
 331              	.LFB9:
 120:C:/Users/victim/source/repos/Paranyok/UEFI/Backend/gnu-efi-3.0.18/lib\misc.c **** 
 121:C:/Users/victim/source/repos/Paranyok/UEFI/Backend/gnu-efi-3.0.18/lib\misc.c **** INTN
 122:C:/Users/victim/source/repos/Paranyok/UEFI/Backend/gnu-efi-3.0.18/lib\misc.c **** CompareMem (
 123:C:/Users/victim/source/repos/Paranyok/UEFI/Backend/gnu-efi-3.0.18/lib\misc.c ****     IN CONST VOID     *Dest,
 124:C:/Users/victim/source/repos/Paranyok/UEFI/Backend/gnu-efi-3.0.18/lib\misc.c ****     IN CONST VOID     *Src,
 125:C:/Users/victim/source/repos/Paranyok/UEFI/Backend/gnu-efi-3.0.18/lib\misc.c ****     IN UINTN    len
 126:C:/Users/victim/source/repos/Paranyok/UEFI/Backend/gnu-efi-3.0.18/lib\misc.c ****     )
 127:C:/Users/victim/source/repos/Paranyok/UEFI/Backend/gnu-efi-3.0.18/lib\misc.c **** {
 332              		.loc 1 127 1 is_stmt 1 view -0
 333              		.cfi_startproc
 334              		.loc 1 127 1 is_stmt 0 view .LVU69
 335 010a 4883EC28 		subq	$40, %rsp
 336              		.seh_stackalloc	40
 337              		.cfi_def_cfa_offset 48
 338              		.seh_endprologue
 128:C:/Users/victim/source/repos/Paranyok/UEFI/Backend/gnu-efi-3.0.18/lib\misc.c ****     return RtCompareMem (Dest, Src, len);
 339              		.loc 1 128 5 is_stmt 1 view .LVU70
 340              		.loc 1 128 12 is_stmt 0 view .LVU71
 341 010e E8000000 		call	RtCompareMem
 341      00
 342              	.LVL32:
 129:C:/Users/victim/source/repos/Paranyok/UEFI/Backend/gnu-efi-3.0.18/lib\misc.c **** }
 343              		.loc 1 129 1 view .LVU72
 344 0113 4883C428 		addq	$40, %rsp
 345              		.cfi_def_cfa_offset 8
 346 0117 C3       		ret
 347              		.cfi_endproc
 348              	.LFE9:
 349              		.seh_endproc
 350              		.globl	GrowBuffer
 352              		.seh_proc	GrowBuffer
 353              	GrowBuffer:
 354              	.LVL33:
 355              	.LFB10:
 130:C:/Users/victim/source/repos/Paranyok/UEFI/Backend/gnu-efi-3.0.18/lib\misc.c **** 
 131:C:/Users/victim/source/repos/Paranyok/UEFI/Backend/gnu-efi-3.0.18/lib\misc.c **** BOOLEAN
 132:C:/Users/victim/source/repos/Paranyok/UEFI/Backend/gnu-efi-3.0.18/lib\misc.c **** GrowBuffer(
 133:C:/Users/victim/source/repos/Paranyok/UEFI/Backend/gnu-efi-3.0.18/lib\misc.c ****     IN OUT EFI_STATUS   *Status,
 134:C:/Users/victim/source/repos/Paranyok/UEFI/Backend/gnu-efi-3.0.18/lib\misc.c ****     IN OUT VOID         **Buffer,
 135:C:/Users/victim/source/repos/Paranyok/UEFI/Backend/gnu-efi-3.0.18/lib\misc.c ****     IN UINTN            BufferSize
 136:C:/Users/victim/source/repos/Paranyok/UEFI/Backend/gnu-efi-3.0.18/lib\misc.c ****     )
 137:C:/Users/victim/source/repos/Paranyok/UEFI/Backend/gnu-efi-3.0.18/lib\misc.c **** /*++
 138:C:/Users/victim/source/repos/Paranyok/UEFI/Backend/gnu-efi-3.0.18/lib\misc.c **** 
 139:C:/Users/victim/source/repos/Paranyok/UEFI/Backend/gnu-efi-3.0.18/lib\misc.c **** Routine Description:
 140:C:/Users/victim/source/repos/Paranyok/UEFI/Backend/gnu-efi-3.0.18/lib\misc.c **** 
 141:C:/Users/victim/source/repos/Paranyok/UEFI/Backend/gnu-efi-3.0.18/lib\misc.c ****     Helper function called as part of the code needed
 142:C:/Users/victim/source/repos/Paranyok/UEFI/Backend/gnu-efi-3.0.18/lib\misc.c ****     to allocate the proper sized buffer for various 
 143:C:/Users/victim/source/repos/Paranyok/UEFI/Backend/gnu-efi-3.0.18/lib\misc.c ****     EFI interfaces.
 144:C:/Users/victim/source/repos/Paranyok/UEFI/Backend/gnu-efi-3.0.18/lib\misc.c **** 
 145:C:/Users/victim/source/repos/Paranyok/UEFI/Backend/gnu-efi-3.0.18/lib\misc.c **** Arguments:
 146:C:/Users/victim/source/repos/Paranyok/UEFI/Backend/gnu-efi-3.0.18/lib\misc.c **** 
 147:C:/Users/victim/source/repos/Paranyok/UEFI/Backend/gnu-efi-3.0.18/lib\misc.c ****     Status      - Current status
 148:C:/Users/victim/source/repos/Paranyok/UEFI/Backend/gnu-efi-3.0.18/lib\misc.c **** 
 149:C:/Users/victim/source/repos/Paranyok/UEFI/Backend/gnu-efi-3.0.18/lib\misc.c ****     Buffer      - Current allocated buffer, or NULL
 150:C:/Users/victim/source/repos/Paranyok/UEFI/Backend/gnu-efi-3.0.18/lib\misc.c **** 
 151:C:/Users/victim/source/repos/Paranyok/UEFI/Backend/gnu-efi-3.0.18/lib\misc.c ****     BufferSize  - Current buffer size needed
 152:C:/Users/victim/source/repos/Paranyok/UEFI/Backend/gnu-efi-3.0.18/lib\misc.c ****     
 153:C:/Users/victim/source/repos/Paranyok/UEFI/Backend/gnu-efi-3.0.18/lib\misc.c **** Returns:
 154:C:/Users/victim/source/repos/Paranyok/UEFI/Backend/gnu-efi-3.0.18/lib\misc.c ****     
 155:C:/Users/victim/source/repos/Paranyok/UEFI/Backend/gnu-efi-3.0.18/lib\misc.c ****     TRUE - if the buffer was reallocated and the caller 
 156:C:/Users/victim/source/repos/Paranyok/UEFI/Backend/gnu-efi-3.0.18/lib\misc.c ****     should try the API again.
 157:C:/Users/victim/source/repos/Paranyok/UEFI/Backend/gnu-efi-3.0.18/lib\misc.c **** 
 158:C:/Users/victim/source/repos/Paranyok/UEFI/Backend/gnu-efi-3.0.18/lib\misc.c **** --*/
 159:C:/Users/victim/source/repos/Paranyok/UEFI/Backend/gnu-efi-3.0.18/lib\misc.c **** {
 356              		.loc 1 159 1 is_stmt 1 view -0
 357              		.cfi_startproc
 358              		.loc 1 159 1 is_stmt 0 view .LVU74
 359 0118 57       		pushq	%rdi
 360              		.seh_pushreg	%rdi
 361              		.cfi_def_cfa_offset 16
 362              		.cfi_offset 5, -16
 363 0119 56       		pushq	%rsi
 364              		.seh_pushreg	%rsi
 365              		.cfi_def_cfa_offset 24
 366              		.cfi_offset 4, -24
 367 011a 53       		pushq	%rbx
 368              		.seh_pushreg	%rbx
 369              		.cfi_def_cfa_offset 32
 370              		.cfi_offset 3, -32
 371 011b 4883EC20 		subq	$32, %rsp
 372              		.seh_stackalloc	32
 373              		.cfi_def_cfa_offset 64
 374              		.seh_endprologue
 375 011f 4889CF   		movq	%rcx, %rdi
 376 0122 4889D3   		movq	%rdx, %rbx
 377 0125 4C89C6   		movq	%r8, %rsi
 160:C:/Users/victim/source/repos/Paranyok/UEFI/Backend/gnu-efi-3.0.18/lib\misc.c ****     BOOLEAN         TryAgain;
 378              		.loc 1 160 5 is_stmt 1 view .LVU75
 161:C:/Users/victim/source/repos/Paranyok/UEFI/Backend/gnu-efi-3.0.18/lib\misc.c **** 
 162:C:/Users/victim/source/repos/Paranyok/UEFI/Backend/gnu-efi-3.0.18/lib\misc.c ****     //
 163:C:/Users/victim/source/repos/Paranyok/UEFI/Backend/gnu-efi-3.0.18/lib\misc.c ****     // If this is an initial request, buffer will be null with a new buffer size
 164:C:/Users/victim/source/repos/Paranyok/UEFI/Backend/gnu-efi-3.0.18/lib\misc.c ****     //
 165:C:/Users/victim/source/repos/Paranyok/UEFI/Backend/gnu-efi-3.0.18/lib\misc.c **** 
 166:C:/Users/victim/source/repos/Paranyok/UEFI/Backend/gnu-efi-3.0.18/lib\misc.c ****     if (!*Buffer && BufferSize) {
 379              		.loc 1 166 5 view .LVU76
 380              		.loc 1 166 8 is_stmt 0 view .LVU77
 381 0128 48833A00 		cmpq	$0, (%rdx)
 382 012c 7422     		je	.L24
 383              	.L17:
 167:C:/Users/victim/source/repos/Paranyok/UEFI/Backend/gnu-efi-3.0.18/lib\misc.c ****         *Status = EFI_BUFFER_TOO_SMALL;
 168:C:/Users/victim/source/repos/Paranyok/UEFI/Backend/gnu-efi-3.0.18/lib\misc.c ****     }
 169:C:/Users/victim/source/repos/Paranyok/UEFI/Backend/gnu-efi-3.0.18/lib\misc.c **** 
 170:C:/Users/victim/source/repos/Paranyok/UEFI/Backend/gnu-efi-3.0.18/lib\misc.c ****     //
 171:C:/Users/victim/source/repos/Paranyok/UEFI/Backend/gnu-efi-3.0.18/lib\misc.c ****     // If the status code is "buffer too small", resize the buffer
 172:C:/Users/victim/source/repos/Paranyok/UEFI/Backend/gnu-efi-3.0.18/lib\misc.c ****     //
 173:C:/Users/victim/source/repos/Paranyok/UEFI/Backend/gnu-efi-3.0.18/lib\misc.c ****         
 174:C:/Users/victim/source/repos/Paranyok/UEFI/Backend/gnu-efi-3.0.18/lib\misc.c ****     TryAgain = FALSE;
 384              		.loc 1 174 5 is_stmt 1 view .LVU78
 385              	.LVL34:
 175:C:/Users/victim/source/repos/Paranyok/UEFI/Backend/gnu-efi-3.0.18/lib\misc.c ****     if (*Status == EFI_BUFFER_TOO_SMALL) {
 386              		.loc 1 175 5 view .LVU79
 387              		.loc 1 175 8 is_stmt 0 view .LVU80
 388 012e 48B80500 		movabsq	$-9223372036854775803, %rax
 388      00000000 
 388      0080
 389 0138 483907   		cmpq	%rax, (%rdi)
 390 013b 7427     		je	.L25
 391              	.LVL35:
 392              	.L18:
 176:C:/Users/victim/source/repos/Paranyok/UEFI/Backend/gnu-efi-3.0.18/lib\misc.c **** 
 177:C:/Users/victim/source/repos/Paranyok/UEFI/Backend/gnu-efi-3.0.18/lib\misc.c ****         if (*Buffer) {
 178:C:/Users/victim/source/repos/Paranyok/UEFI/Backend/gnu-efi-3.0.18/lib\misc.c ****             FreePool (*Buffer);
 179:C:/Users/victim/source/repos/Paranyok/UEFI/Backend/gnu-efi-3.0.18/lib\misc.c ****         }
 180:C:/Users/victim/source/repos/Paranyok/UEFI/Backend/gnu-efi-3.0.18/lib\misc.c **** 
 181:C:/Users/victim/source/repos/Paranyok/UEFI/Backend/gnu-efi-3.0.18/lib\misc.c ****         *Buffer = AllocatePool (BufferSize);
 182:C:/Users/victim/source/repos/Paranyok/UEFI/Backend/gnu-efi-3.0.18/lib\misc.c **** 
 183:C:/Users/victim/source/repos/Paranyok/UEFI/Backend/gnu-efi-3.0.18/lib\misc.c ****         if (*Buffer) {
 184:C:/Users/victim/source/repos/Paranyok/UEFI/Backend/gnu-efi-3.0.18/lib\misc.c ****             TryAgain = TRUE;
 185:C:/Users/victim/source/repos/Paranyok/UEFI/Backend/gnu-efi-3.0.18/lib\misc.c ****         } else {    
 186:C:/Users/victim/source/repos/Paranyok/UEFI/Backend/gnu-efi-3.0.18/lib\misc.c ****             *Status = EFI_OUT_OF_RESOURCES;
 187:C:/Users/victim/source/repos/Paranyok/UEFI/Backend/gnu-efi-3.0.18/lib\misc.c ****         } 
 188:C:/Users/victim/source/repos/Paranyok/UEFI/Backend/gnu-efi-3.0.18/lib\misc.c ****     }
 189:C:/Users/victim/source/repos/Paranyok/UEFI/Backend/gnu-efi-3.0.18/lib\misc.c **** 
 190:C:/Users/victim/source/repos/Paranyok/UEFI/Backend/gnu-efi-3.0.18/lib\misc.c ****     //
 191:C:/Users/victim/source/repos/Paranyok/UEFI/Backend/gnu-efi-3.0.18/lib\misc.c ****     // If there's an error, free the buffer
 192:C:/Users/victim/source/repos/Paranyok/UEFI/Backend/gnu-efi-3.0.18/lib\misc.c ****     //
 193:C:/Users/victim/source/repos/Paranyok/UEFI/Backend/gnu-efi-3.0.18/lib\misc.c **** 
 194:C:/Users/victim/source/repos/Paranyok/UEFI/Backend/gnu-efi-3.0.18/lib\misc.c ****     if (!TryAgain && EFI_ERROR(*Status) && *Buffer) {
 393              		.loc 1 194 19 discriminator 1 view .LVU81
 394 013d 48833F00 		cmpq	$0, (%rdi)
 395 0141 7854     		js	.L26
 396 0143 B8000000 		movl	$0, %eax
 396      00
 397              	.L16:
 195:C:/Users/victim/source/repos/Paranyok/UEFI/Backend/gnu-efi-3.0.18/lib\misc.c ****         FreePool (*Buffer);
 196:C:/Users/victim/source/repos/Paranyok/UEFI/Backend/gnu-efi-3.0.18/lib\misc.c ****         *Buffer = NULL;
 197:C:/Users/victim/source/repos/Paranyok/UEFI/Backend/gnu-efi-3.0.18/lib\misc.c ****     }
 198:C:/Users/victim/source/repos/Paranyok/UEFI/Backend/gnu-efi-3.0.18/lib\misc.c **** 
 199:C:/Users/victim/source/repos/Paranyok/UEFI/Backend/gnu-efi-3.0.18/lib\misc.c ****     return TryAgain;
 200:C:/Users/victim/source/repos/Paranyok/UEFI/Backend/gnu-efi-3.0.18/lib\misc.c **** }
 398              		.loc 1 200 1 view .LVU82
 399 0148 4883C420 		addq	$32, %rsp
 400              		.cfi_remember_state
 401              		.cfi_def_cfa_offset 32
 402 014c 5B       		popq	%rbx
 403              		.cfi_restore 3
 404              		.cfi_def_cfa_offset 24
 405              	.LVL36:
 406              		.loc 1 200 1 view .LVU83
 407 014d 5E       		popq	%rsi
 408              		.cfi_restore 4
 409              		.cfi_def_cfa_offset 16
 410              	.LVL37:
 411              		.loc 1 200 1 view .LVU84
 412 014e 5F       		popq	%rdi
 413              		.cfi_restore 5
 414              		.cfi_def_cfa_offset 8
 415              	.LVL38:
 416              		.loc 1 200 1 view .LVU85
 417 014f C3       		ret
 418              	.LVL39:
 419              	.L24:
 420              		.cfi_restore_state
 166:C:/Users/victim/source/repos/Paranyok/UEFI/Backend/gnu-efi-3.0.18/lib\misc.c ****         *Status = EFI_BUFFER_TOO_SMALL;
 421              		.loc 1 166 18 discriminator 1 view .LVU86
 422 0150 4D85C0   		testq	%r8, %r8
 423 0153 74D9     		je	.L17
 167:C:/Users/victim/source/repos/Paranyok/UEFI/Backend/gnu-efi-3.0.18/lib\misc.c ****     }
 424              		.loc 1 167 9 is_stmt 1 view .LVU87
 167:C:/Users/victim/source/repos/Paranyok/UEFI/Backend/gnu-efi-3.0.18/lib\misc.c ****     }
 425              		.loc 1 167 17 is_stmt 0 view .LVU88
 426 0155 48B80500 		movabsq	$-9223372036854775803, %rax
 426      00000000 
 426      0080
 427 015f 488901   		movq	%rax, (%rcx)
 428 0162 EBCA     		jmp	.L17
 429              	.LVL40:
 430              	.L25:
 177:C:/Users/victim/source/repos/Paranyok/UEFI/Backend/gnu-efi-3.0.18/lib\misc.c ****             FreePool (*Buffer);
 431              		.loc 1 177 9 is_stmt 1 view .LVU89
 177:C:/Users/victim/source/repos/Paranyok/UEFI/Backend/gnu-efi-3.0.18/lib\misc.c ****             FreePool (*Buffer);
 432              		.loc 1 177 13 is_stmt 0 view .LVU90
 433 0164 488B0B   		movq	(%rbx), %rcx
 434              	.LVL41:
 177:C:/Users/victim/source/repos/Paranyok/UEFI/Backend/gnu-efi-3.0.18/lib\misc.c ****             FreePool (*Buffer);
 435              		.loc 1 177 12 view .LVU91
 436 0167 4885C9   		testq	%rcx, %rcx
 437 016a 7405     		je	.L19
 178:C:/Users/victim/source/repos/Paranyok/UEFI/Backend/gnu-efi-3.0.18/lib\misc.c ****         }
 438              		.loc 1 178 13 is_stmt 1 view .LVU92
 439 016c E8CBFEFF 		call	FreePool
 439      FF
 440              	.LVL42:
 441              	.L19:
 181:C:/Users/victim/source/repos/Paranyok/UEFI/Backend/gnu-efi-3.0.18/lib\misc.c **** 
 442              		.loc 1 181 9 view .LVU93
 181:C:/Users/victim/source/repos/Paranyok/UEFI/Backend/gnu-efi-3.0.18/lib\misc.c **** 
 443              		.loc 1 181 19 is_stmt 0 view .LVU94
 444 0171 4889F1   		movq	%rsi, %rcx
 445 0174 E887FEFF 		call	AllocatePool
 445      FF
 446              	.LVL43:
 181:C:/Users/victim/source/repos/Paranyok/UEFI/Backend/gnu-efi-3.0.18/lib\misc.c **** 
 447              		.loc 1 181 17 discriminator 1 view .LVU95
 448 0179 488903   		movq	%rax, (%rbx)
 183:C:/Users/victim/source/repos/Paranyok/UEFI/Backend/gnu-efi-3.0.18/lib\misc.c ****             TryAgain = TRUE;
 449              		.loc 1 183 9 is_stmt 1 view .LVU96
 183:C:/Users/victim/source/repos/Paranyok/UEFI/Backend/gnu-efi-3.0.18/lib\misc.c ****             TryAgain = TRUE;
 450              		.loc 1 183 12 is_stmt 0 view .LVU97
 451 017c 4885C0   		testq	%rax, %rax
 452 017f 7407     		je	.L27
 184:C:/Users/victim/source/repos/Paranyok/UEFI/Backend/gnu-efi-3.0.18/lib\misc.c ****         } else {    
 453              		.loc 1 184 22 view .LVU98
 454 0181 B8010000 		movl	$1, %eax
 454      00
 455 0186 EBC0     		jmp	.L16
 456              	.L27:
 186:C:/Users/victim/source/repos/Paranyok/UEFI/Backend/gnu-efi-3.0.18/lib\misc.c ****         } 
 457              		.loc 1 186 13 is_stmt 1 view .LVU99
 186:C:/Users/victim/source/repos/Paranyok/UEFI/Backend/gnu-efi-3.0.18/lib\misc.c ****         } 
 458              		.loc 1 186 21 is_stmt 0 view .LVU100
 459 0188 48B80900 		movabsq	$-9223372036854775799, %rax
 459      00000000 
 459      0080
 460 0192 488907   		movq	%rax, (%rdi)
 194:C:/Users/victim/source/repos/Paranyok/UEFI/Backend/gnu-efi-3.0.18/lib\misc.c ****         FreePool (*Buffer);
 461              		.loc 1 194 5 is_stmt 1 view .LVU101
 462 0195 EBA6     		jmp	.L18
 463              	.LVL44:
 464              	.L26:
 194:C:/Users/victim/source/repos/Paranyok/UEFI/Backend/gnu-efi-3.0.18/lib\misc.c ****         FreePool (*Buffer);
 465              		.loc 1 194 44 is_stmt 0 discriminator 2 view .LVU102
 466 0197 488B0B   		movq	(%rbx), %rcx
 194:C:/Users/victim/source/repos/Paranyok/UEFI/Backend/gnu-efi-3.0.18/lib\misc.c ****         FreePool (*Buffer);
 467              		.loc 1 194 41 discriminator 2 view .LVU103
 468 019a 4885C9   		testq	%rcx, %rcx
 469 019d 7413     		je	.L23
 195:C:/Users/victim/source/repos/Paranyok/UEFI/Backend/gnu-efi-3.0.18/lib\misc.c ****         *Buffer = NULL;
 470              		.loc 1 195 9 is_stmt 1 view .LVU104
 471 019f E898FEFF 		call	FreePool
 471      FF
 472              	.LVL45:
 196:C:/Users/victim/source/repos/Paranyok/UEFI/Backend/gnu-efi-3.0.18/lib\misc.c ****     }
 473              		.loc 1 196 9 view .LVU105
 196:C:/Users/victim/source/repos/Paranyok/UEFI/Backend/gnu-efi-3.0.18/lib\misc.c ****     }
 474              		.loc 1 196 17 is_stmt 0 view .LVU106
 475 01a4 48C70300 		movq	$0, (%rbx)
 475      000000
 476 01ab B8000000 		movl	$0, %eax
 476      00
 477 01b0 EB96     		jmp	.L16
 478              	.L23:
 479 01b2 B8000000 		movl	$0, %eax
 479      00
 199:C:/Users/victim/source/repos/Paranyok/UEFI/Backend/gnu-efi-3.0.18/lib\misc.c **** }
 480              		.loc 1 199 5 is_stmt 1 view .LVU107
 199:C:/Users/victim/source/repos/Paranyok/UEFI/Backend/gnu-efi-3.0.18/lib\misc.c **** }
 481              		.loc 1 199 12 is_stmt 0 view .LVU108
 482 01b7 EB8F     		jmp	.L16
 483              		.cfi_endproc
 484              	.LFE10:
 485              		.seh_endproc
 486              		.globl	LibMemoryMap
 488              		.seh_proc	LibMemoryMap
 489              	LibMemoryMap:
 490              	.LVL46:
 491              	.LFB11:
 201:C:/Users/victim/source/repos/Paranyok/UEFI/Backend/gnu-efi-3.0.18/lib\misc.c **** 
 202:C:/Users/victim/source/repos/Paranyok/UEFI/Backend/gnu-efi-3.0.18/lib\misc.c **** 
 203:C:/Users/victim/source/repos/Paranyok/UEFI/Backend/gnu-efi-3.0.18/lib\misc.c **** EFI_MEMORY_DESCRIPTOR *
 204:C:/Users/victim/source/repos/Paranyok/UEFI/Backend/gnu-efi-3.0.18/lib\misc.c **** LibMemoryMap (
 205:C:/Users/victim/source/repos/Paranyok/UEFI/Backend/gnu-efi-3.0.18/lib\misc.c ****     OUT UINTN               *NoEntries,
 206:C:/Users/victim/source/repos/Paranyok/UEFI/Backend/gnu-efi-3.0.18/lib\misc.c ****     OUT UINTN               *MapKey,
 207:C:/Users/victim/source/repos/Paranyok/UEFI/Backend/gnu-efi-3.0.18/lib\misc.c ****     OUT UINTN               *DescriptorSize,
 208:C:/Users/victim/source/repos/Paranyok/UEFI/Backend/gnu-efi-3.0.18/lib\misc.c ****     OUT UINT32              *DescriptorVersion
 209:C:/Users/victim/source/repos/Paranyok/UEFI/Backend/gnu-efi-3.0.18/lib\misc.c ****     )
 210:C:/Users/victim/source/repos/Paranyok/UEFI/Backend/gnu-efi-3.0.18/lib\misc.c **** {
 492              		.loc 1 210 1 is_stmt 1 view -0
 493              		.cfi_startproc
 494              		.loc 1 210 1 is_stmt 0 view .LVU110
 495 01b9 55       		pushq	%rbp
 496              		.seh_pushreg	%rbp
 497              		.cfi_def_cfa_offset 16
 498              		.cfi_offset 6, -16
 499 01ba 57       		pushq	%rdi
 500              		.seh_pushreg	%rdi
 501              		.cfi_def_cfa_offset 24
 502              		.cfi_offset 5, -24
 503 01bb 56       		pushq	%rsi
 504              		.seh_pushreg	%rsi
 505              		.cfi_def_cfa_offset 32
 506              		.cfi_offset 4, -32
 507 01bc 53       		pushq	%rbx
 508              		.seh_pushreg	%rbx
 509              		.cfi_def_cfa_offset 40
 510              		.cfi_offset 3, -40
 511 01bd 4883EC58 		subq	$88, %rsp
 512              		.seh_stackalloc	88
 513              		.cfi_def_cfa_offset 128
 514              		.seh_endprologue
 515 01c1 4889CD   		movq	%rcx, %rbp
 516 01c4 4889D7   		movq	%rdx, %rdi
 517 01c7 4C89C3   		movq	%r8, %rbx
 518 01ca 4C89CE   		movq	%r9, %rsi
 211:C:/Users/victim/source/repos/Paranyok/UEFI/Backend/gnu-efi-3.0.18/lib\misc.c ****     EFI_STATUS              Status;
 519              		.loc 1 211 5 is_stmt 1 view .LVU111
 212:C:/Users/victim/source/repos/Paranyok/UEFI/Backend/gnu-efi-3.0.18/lib\misc.c ****     EFI_MEMORY_DESCRIPTOR   *Buffer;
 520              		.loc 1 212 5 view .LVU112
 213:C:/Users/victim/source/repos/Paranyok/UEFI/Backend/gnu-efi-3.0.18/lib\misc.c ****     UINTN                   BufferSize;
 521              		.loc 1 213 5 view .LVU113
 214:C:/Users/victim/source/repos/Paranyok/UEFI/Backend/gnu-efi-3.0.18/lib\misc.c **** 
 215:C:/Users/victim/source/repos/Paranyok/UEFI/Backend/gnu-efi-3.0.18/lib\misc.c ****     //
 216:C:/Users/victim/source/repos/Paranyok/UEFI/Backend/gnu-efi-3.0.18/lib\misc.c ****     // Initialize for GrowBuffer loop
 217:C:/Users/victim/source/repos/Paranyok/UEFI/Backend/gnu-efi-3.0.18/lib\misc.c ****     //
 218:C:/Users/victim/source/repos/Paranyok/UEFI/Backend/gnu-efi-3.0.18/lib\misc.c **** 
 219:C:/Users/victim/source/repos/Paranyok/UEFI/Backend/gnu-efi-3.0.18/lib\misc.c ****     Status = EFI_SUCCESS;
 522              		.loc 1 219 5 view .LVU114
 523              		.loc 1 219 12 is_stmt 0 view .LVU115
 524 01cd 48C74424 		movq	$0, 72(%rsp)
 524      48000000 
 524      00
 220:C:/Users/victim/source/repos/Paranyok/UEFI/Backend/gnu-efi-3.0.18/lib\misc.c ****     Buffer = NULL;
 525              		.loc 1 220 5 is_stmt 1 view .LVU116
 526              		.loc 1 220 12 is_stmt 0 view .LVU117
 527 01d6 48C74424 		movq	$0, 64(%rsp)
 527      40000000 
 527      00
 221:C:/Users/victim/source/repos/Paranyok/UEFI/Backend/gnu-efi-3.0.18/lib\misc.c ****     BufferSize = sizeof(EFI_MEMORY_DESCRIPTOR);
 528              		.loc 1 221 5 is_stmt 1 view .LVU118
 529              		.loc 1 221 16 is_stmt 0 view .LVU119
 530 01df 48C74424 		movq	$40, 56(%rsp)
 530      38280000 
 530      00
 222:C:/Users/victim/source/repos/Paranyok/UEFI/Backend/gnu-efi-3.0.18/lib\misc.c **** 
 223:C:/Users/victim/source/repos/Paranyok/UEFI/Backend/gnu-efi-3.0.18/lib\misc.c ****     //
 224:C:/Users/victim/source/repos/Paranyok/UEFI/Backend/gnu-efi-3.0.18/lib\misc.c ****     // Call the real function
 225:C:/Users/victim/source/repos/Paranyok/UEFI/Backend/gnu-efi-3.0.18/lib\misc.c ****     //
 226:C:/Users/victim/source/repos/Paranyok/UEFI/Backend/gnu-efi-3.0.18/lib\misc.c **** 
 227:C:/Users/victim/source/repos/Paranyok/UEFI/Backend/gnu-efi-3.0.18/lib\misc.c ****     while (GrowBuffer (&Status, (VOID **) &Buffer, BufferSize)) {
 531              		.loc 1 227 5 is_stmt 1 view .LVU120
 532              		.loc 1 227 11 is_stmt 0 view .LVU121
 533 01e8 EB2A     		jmp	.L29
 534              	.LVL47:
 535              	.L30:
 228:C:/Users/victim/source/repos/Paranyok/UEFI/Backend/gnu-efi-3.0.18/lib\misc.c ****         Status = uefi_call_wrapper(BS->GetMemoryMap, 5, &BufferSize, Buffer, MapKey, DescriptorSize
 536              		.loc 1 228 9 is_stmt 1 view .LVU122
 537              		.loc 1 228 18 is_stmt 0 view .LVU123
 538 01ea 488B0500 		movq	.refptr.BS(%rip), %rax
 538      000000
 539 01f1 488B00   		movq	(%rax), %rax
 540 01f4 488B4038 		movq	56(%rax), %rax
 541 01f8 488D4C24 		leaq	56(%rsp), %rcx
 541      38
 542 01fd 48897424 		movq	%rsi, 32(%rsp)
 542      20
 543 0202 4989D9   		movq	%rbx, %r9
 544 0205 4989F8   		movq	%rdi, %r8
 545 0208 488B5424 		movq	64(%rsp), %rdx
 545      40
 546 020d FFD0     		call	*%rax
 547              	.LVL48:
 548              		.loc 1 228 16 discriminator 1 view .LVU124
 549 020f 48894424 		movq	%rax, 72(%rsp)
 549      48
 550              	.L29:
 227:C:/Users/victim/source/repos/Paranyok/UEFI/Backend/gnu-efi-3.0.18/lib\misc.c ****         Status = uefi_call_wrapper(BS->GetMemoryMap, 5, &BufferSize, Buffer, MapKey, DescriptorSize
 551              		.loc 1 227 12 is_stmt 1 view .LVU125
 552 0214 488D5424 		leaq	64(%rsp), %rdx
 552      40
 553 0219 488D4C24 		leaq	72(%rsp), %rcx
 553      48
 554 021e 4C8B4424 		movq	56(%rsp), %r8
 554      38
 555 0223 E8F0FEFF 		call	GrowBuffer
 555      FF
 556              	.LVL49:
 227:C:/Users/victim/source/repos/Paranyok/UEFI/Backend/gnu-efi-3.0.18/lib\misc.c ****         Status = uefi_call_wrapper(BS->GetMemoryMap, 5, &BufferSize, Buffer, MapKey, DescriptorSize
 557              		.loc 1 227 12 is_stmt 0 discriminator 1 view .LVU126
 558 0228 84C0     		testb	%al, %al
 559 022a 75BE     		jne	.L30
 229:C:/Users/victim/source/repos/Paranyok/UEFI/Backend/gnu-efi-3.0.18/lib\misc.c ****     }
 230:C:/Users/victim/source/repos/Paranyok/UEFI/Backend/gnu-efi-3.0.18/lib\misc.c **** 
 231:C:/Users/victim/source/repos/Paranyok/UEFI/Backend/gnu-efi-3.0.18/lib\misc.c ****     //
 232:C:/Users/victim/source/repos/Paranyok/UEFI/Backend/gnu-efi-3.0.18/lib\misc.c ****     // Convert buffer size to NoEntries
 233:C:/Users/victim/source/repos/Paranyok/UEFI/Backend/gnu-efi-3.0.18/lib\misc.c ****     //
 234:C:/Users/victim/source/repos/Paranyok/UEFI/Backend/gnu-efi-3.0.18/lib\misc.c **** 
 235:C:/Users/victim/source/repos/Paranyok/UEFI/Backend/gnu-efi-3.0.18/lib\misc.c ****     if (!EFI_ERROR(Status)) {
 560              		.loc 1 235 5 is_stmt 1 view .LVU127
 561              		.loc 1 235 8 is_stmt 0 view .LVU128
 562 022c 48837C24 		cmpq	$0, 72(%rsp)
 562      4800
 563 0232 7811     		js	.L31
 236:C:/Users/victim/source/repos/Paranyok/UEFI/Backend/gnu-efi-3.0.18/lib\misc.c ****         *NoEntries = BufferSize / *DescriptorSize;
 564              		.loc 1 236 9 is_stmt 1 view .LVU129
 565              		.loc 1 236 33 is_stmt 0 view .LVU130
 566 0234 488B4424 		movq	56(%rsp), %rax
 566      38
 567 0239 BA000000 		movl	$0, %edx
 567      00
 568 023e 48F733   		divq	(%rbx)
 569              		.loc 1 236 20 view .LVU131
 570 0241 48894500 		movq	%rax, 0(%rbp)
 571              	.L31:
 237:C:/Users/victim/source/repos/Paranyok/UEFI/Backend/gnu-efi-3.0.18/lib\misc.c ****     }
 238:C:/Users/victim/source/repos/Paranyok/UEFI/Backend/gnu-efi-3.0.18/lib\misc.c **** 
 239:C:/Users/victim/source/repos/Paranyok/UEFI/Backend/gnu-efi-3.0.18/lib\misc.c ****     return Buffer;
 572              		.loc 1 239 5 is_stmt 1 view .LVU132
 240:C:/Users/victim/source/repos/Paranyok/UEFI/Backend/gnu-efi-3.0.18/lib\misc.c **** }
 573              		.loc 1 240 1 is_stmt 0 view .LVU133
 574 0245 488B4424 		movq	64(%rsp), %rax
 574      40
 575 024a 4883C458 		addq	$88, %rsp
 576              		.cfi_def_cfa_offset 40
 577 024e 5B       		popq	%rbx
 578              		.cfi_restore 3
 579              		.cfi_def_cfa_offset 32
 580              	.LVL50:
 581              		.loc 1 240 1 view .LVU134
 582 024f 5E       		popq	%rsi
 583              		.cfi_restore 4
 584              		.cfi_def_cfa_offset 24
 585              	.LVL51:
 586              		.loc 1 240 1 view .LVU135
 587 0250 5F       		popq	%rdi
 588              		.cfi_restore 5
 589              		.cfi_def_cfa_offset 16
 590              	.LVL52:
 591              		.loc 1 240 1 view .LVU136
 592 0251 5D       		popq	%rbp
 593              		.cfi_restore 6
 594              		.cfi_def_cfa_offset 8
 595              	.LVL53:
 596              		.loc 1 240 1 view .LVU137
 597 0252 C3       		ret
 598              		.cfi_endproc
 599              	.LFE11:
 600              		.seh_endproc
 601              		.globl	LibGetVariableAndSize
 603              		.seh_proc	LibGetVariableAndSize
 604              	LibGetVariableAndSize:
 605              	.LVL54:
 606              	.LFB12:
 241:C:/Users/victim/source/repos/Paranyok/UEFI/Backend/gnu-efi-3.0.18/lib\misc.c **** 
 242:C:/Users/victim/source/repos/Paranyok/UEFI/Backend/gnu-efi-3.0.18/lib\misc.c **** VOID *
 243:C:/Users/victim/source/repos/Paranyok/UEFI/Backend/gnu-efi-3.0.18/lib\misc.c **** LibGetVariableAndSize (
 244:C:/Users/victim/source/repos/Paranyok/UEFI/Backend/gnu-efi-3.0.18/lib\misc.c ****     IN CHAR16               *Name,
 245:C:/Users/victim/source/repos/Paranyok/UEFI/Backend/gnu-efi-3.0.18/lib\misc.c ****     IN EFI_GUID             *VendorGuid,
 246:C:/Users/victim/source/repos/Paranyok/UEFI/Backend/gnu-efi-3.0.18/lib\misc.c ****     OUT UINTN               *VarSize
 247:C:/Users/victim/source/repos/Paranyok/UEFI/Backend/gnu-efi-3.0.18/lib\misc.c ****     )
 248:C:/Users/victim/source/repos/Paranyok/UEFI/Backend/gnu-efi-3.0.18/lib\misc.c **** {
 607              		.loc 1 248 1 is_stmt 1 view -0
 608              		.cfi_startproc
 609              		.loc 1 248 1 is_stmt 0 view .LVU139
 610 0253 57       		pushq	%rdi
 611              		.seh_pushreg	%rdi
 612              		.cfi_def_cfa_offset 16
 613              		.cfi_offset 5, -16
 614 0254 56       		pushq	%rsi
 615              		.seh_pushreg	%rsi
 616              		.cfi_def_cfa_offset 24
 617              		.cfi_offset 4, -24
 618 0255 53       		pushq	%rbx
 619              		.seh_pushreg	%rbx
 620              		.cfi_def_cfa_offset 32
 621              		.cfi_offset 3, -32
 622 0256 4883EC50 		subq	$80, %rsp
 623              		.seh_stackalloc	80
 624              		.cfi_def_cfa_offset 112
 625              		.seh_endprologue
 626 025a 4889CE   		movq	%rcx, %rsi
 627 025d 4889D3   		movq	%rdx, %rbx
 628 0260 4C89C7   		movq	%r8, %rdi
 249:C:/Users/victim/source/repos/Paranyok/UEFI/Backend/gnu-efi-3.0.18/lib\misc.c ****     EFI_STATUS              Status = EFI_SUCCESS;
 629              		.loc 1 249 5 is_stmt 1 view .LVU140
 630              		.loc 1 249 29 is_stmt 0 view .LVU141
 631 0263 48C74424 		movq	$0, 72(%rsp)
 631      48000000 
 631      00
 250:C:/Users/victim/source/repos/Paranyok/UEFI/Backend/gnu-efi-3.0.18/lib\misc.c ****     VOID                    *Buffer;
 632              		.loc 1 250 5 is_stmt 1 view .LVU142
 251:C:/Users/victim/source/repos/Paranyok/UEFI/Backend/gnu-efi-3.0.18/lib\misc.c ****     UINTN                   BufferSize;
 633              		.loc 1 251 5 view .LVU143
 252:C:/Users/victim/source/repos/Paranyok/UEFI/Backend/gnu-efi-3.0.18/lib\misc.c **** 
 253:C:/Users/victim/source/repos/Paranyok/UEFI/Backend/gnu-efi-3.0.18/lib\misc.c ****     //
 254:C:/Users/victim/source/repos/Paranyok/UEFI/Backend/gnu-efi-3.0.18/lib\misc.c ****     // Initialize for GrowBuffer loop
 255:C:/Users/victim/source/repos/Paranyok/UEFI/Backend/gnu-efi-3.0.18/lib\misc.c ****     //
 256:C:/Users/victim/source/repos/Paranyok/UEFI/Backend/gnu-efi-3.0.18/lib\misc.c **** 
 257:C:/Users/victim/source/repos/Paranyok/UEFI/Backend/gnu-efi-3.0.18/lib\misc.c ****     Buffer = NULL;
 634              		.loc 1 257 5 view .LVU144
 635              		.loc 1 257 12 is_stmt 0 view .LVU145
 636 026c 48C74424 		movq	$0, 64(%rsp)
 636      40000000 
 636      00
 258:C:/Users/victim/source/repos/Paranyok/UEFI/Backend/gnu-efi-3.0.18/lib\misc.c ****     BufferSize = 100;
 637              		.loc 1 258 5 is_stmt 1 view .LVU146
 638              		.loc 1 258 16 is_stmt 0 view .LVU147
 639 0275 48C74424 		movq	$100, 56(%rsp)
 639      38640000 
 639      00
 259:C:/Users/victim/source/repos/Paranyok/UEFI/Backend/gnu-efi-3.0.18/lib\misc.c **** 
 260:C:/Users/victim/source/repos/Paranyok/UEFI/Backend/gnu-efi-3.0.18/lib\misc.c ****     //
 261:C:/Users/victim/source/repos/Paranyok/UEFI/Backend/gnu-efi-3.0.18/lib\misc.c ****     // Call the real function
 262:C:/Users/victim/source/repos/Paranyok/UEFI/Backend/gnu-efi-3.0.18/lib\misc.c ****     //
 263:C:/Users/victim/source/repos/Paranyok/UEFI/Backend/gnu-efi-3.0.18/lib\misc.c **** 
 264:C:/Users/victim/source/repos/Paranyok/UEFI/Backend/gnu-efi-3.0.18/lib\misc.c ****     while (GrowBuffer (&Status, &Buffer, BufferSize)) {
 640              		.loc 1 264 5 is_stmt 1 view .LVU148
 641              		.loc 1 264 11 is_stmt 0 view .LVU149
 642 027e EB30     		jmp	.L33
 643              	.LVL55:
 644              	.L34:
 265:C:/Users/victim/source/repos/Paranyok/UEFI/Backend/gnu-efi-3.0.18/lib\misc.c ****         Status = uefi_call_wrapper(
 645              		.loc 1 265 9 is_stmt 1 view .LVU150
 646              		.loc 1 265 18 is_stmt 0 view .LVU151
 647 0280 488B0500 		movq	.refptr.RT(%rip), %rax
 647      000000
 648 0287 488B00   		movq	(%rax), %rax
 649 028a 488B4048 		movq	72(%rax), %rax
 650 028e 488B5424 		movq	64(%rsp), %rdx
 650      40
 651 0293 48895424 		movq	%rdx, 32(%rsp)
 651      20
 652 0298 4C8D4C24 		leaq	56(%rsp), %r9
 652      38
 653 029d 41B80000 		movl	$0, %r8d
 653      0000
 654 02a3 4889DA   		movq	%rbx, %rdx
 655 02a6 4889F1   		movq	%rsi, %rcx
 656 02a9 FFD0     		call	*%rax
 657              	.LVL56:
 658              		.loc 1 265 16 discriminator 1 view .LVU152
 659 02ab 48894424 		movq	%rax, 72(%rsp)
 659      48
 660              	.L33:
 264:C:/Users/victim/source/repos/Paranyok/UEFI/Backend/gnu-efi-3.0.18/lib\misc.c ****         Status = uefi_call_wrapper(
 661              		.loc 1 264 12 is_stmt 1 view .LVU153
 662 02b0 488D5424 		leaq	64(%rsp), %rdx
 662      40
 663 02b5 488D4C24 		leaq	72(%rsp), %rcx
 663      48
 664 02ba 4C8B4424 		movq	56(%rsp), %r8
 664      38
 665 02bf E854FEFF 		call	GrowBuffer
 665      FF
 666              	.LVL57:
 264:C:/Users/victim/source/repos/Paranyok/UEFI/Backend/gnu-efi-3.0.18/lib\misc.c ****         Status = uefi_call_wrapper(
 667              		.loc 1 264 12 is_stmt 0 discriminator 1 view .LVU154
 668 02c4 84C0     		testb	%al, %al
 669 02c6 75B8     		jne	.L34
 266:C:/Users/victim/source/repos/Paranyok/UEFI/Backend/gnu-efi-3.0.18/lib\misc.c **** 		    RT->GetVariable,
 267:C:/Users/victim/source/repos/Paranyok/UEFI/Backend/gnu-efi-3.0.18/lib\misc.c **** 			5,
 268:C:/Users/victim/source/repos/Paranyok/UEFI/Backend/gnu-efi-3.0.18/lib\misc.c ****                     Name,
 269:C:/Users/victim/source/repos/Paranyok/UEFI/Backend/gnu-efi-3.0.18/lib\misc.c ****                     VendorGuid,
 270:C:/Users/victim/source/repos/Paranyok/UEFI/Backend/gnu-efi-3.0.18/lib\misc.c ****                     NULL,
 271:C:/Users/victim/source/repos/Paranyok/UEFI/Backend/gnu-efi-3.0.18/lib\misc.c ****                     &BufferSize,
 272:C:/Users/victim/source/repos/Paranyok/UEFI/Backend/gnu-efi-3.0.18/lib\misc.c ****                     Buffer
 273:C:/Users/victim/source/repos/Paranyok/UEFI/Backend/gnu-efi-3.0.18/lib\misc.c ****                     );
 274:C:/Users/victim/source/repos/Paranyok/UEFI/Backend/gnu-efi-3.0.18/lib\misc.c ****     }
 275:C:/Users/victim/source/repos/Paranyok/UEFI/Backend/gnu-efi-3.0.18/lib\misc.c ****     if (Buffer) {
 670              		.loc 1 275 5 is_stmt 1 view .LVU155
 671              		.loc 1 275 8 is_stmt 0 view .LVU156
 672 02c8 48837C24 		cmpq	$0, 64(%rsp)
 672      4000
 673 02ce 7415     		je	.L35
 276:C:/Users/victim/source/repos/Paranyok/UEFI/Backend/gnu-efi-3.0.18/lib\misc.c ****         *VarSize = BufferSize;
 674              		.loc 1 276 9 is_stmt 1 view .LVU157
 675              		.loc 1 276 18 is_stmt 0 view .LVU158
 676 02d0 488B4424 		movq	56(%rsp), %rax
 676      38
 677 02d5 488907   		movq	%rax, (%rdi)
 678              	.L36:
 277:C:/Users/victim/source/repos/Paranyok/UEFI/Backend/gnu-efi-3.0.18/lib\misc.c ****     } else {
 278:C:/Users/victim/source/repos/Paranyok/UEFI/Backend/gnu-efi-3.0.18/lib\misc.c ****         *VarSize = 0;
 279:C:/Users/victim/source/repos/Paranyok/UEFI/Backend/gnu-efi-3.0.18/lib\misc.c ****     }
 280:C:/Users/victim/source/repos/Paranyok/UEFI/Backend/gnu-efi-3.0.18/lib\misc.c ****     return Buffer;
 679              		.loc 1 280 5 is_stmt 1 view .LVU159
 281:C:/Users/victim/source/repos/Paranyok/UEFI/Backend/gnu-efi-3.0.18/lib\misc.c **** }
 680              		.loc 1 281 1 is_stmt 0 view .LVU160
 681 02d8 488B4424 		movq	64(%rsp), %rax
 681      40
 682 02dd 4883C450 		addq	$80, %rsp
 683              		.cfi_remember_state
 684              		.cfi_def_cfa_offset 32
 685 02e1 5B       		popq	%rbx
 686              		.cfi_restore 3
 687              		.cfi_def_cfa_offset 24
 688              	.LVL58:
 689              		.loc 1 281 1 view .LVU161
 690 02e2 5E       		popq	%rsi
 691              		.cfi_restore 4
 692              		.cfi_def_cfa_offset 16
 693              	.LVL59:
 694              		.loc 1 281 1 view .LVU162
 695 02e3 5F       		popq	%rdi
 696              		.cfi_restore 5
 697              		.cfi_def_cfa_offset 8
 698              	.LVL60:
 699              		.loc 1 281 1 view .LVU163
 700 02e4 C3       		ret
 701              	.LVL61:
 702              	.L35:
 703              		.cfi_restore_state
 278:C:/Users/victim/source/repos/Paranyok/UEFI/Backend/gnu-efi-3.0.18/lib\misc.c ****     }
 704              		.loc 1 278 9 is_stmt 1 view .LVU164
 278:C:/Users/victim/source/repos/Paranyok/UEFI/Backend/gnu-efi-3.0.18/lib\misc.c ****     }
 705              		.loc 1 278 18 is_stmt 0 view .LVU165
 706 02e5 48C70700 		movq	$0, (%rdi)
 706      000000
 707 02ec EBEA     		jmp	.L36
 708              		.cfi_endproc
 709              	.LFE12:
 710              		.seh_endproc
 711              		.globl	LibGetVariable
 713              		.seh_proc	LibGetVariable
 714              	LibGetVariable:
 715              	.LVL62:
 716              	.LFB13:
 282:C:/Users/victim/source/repos/Paranyok/UEFI/Backend/gnu-efi-3.0.18/lib\misc.c ****     
 283:C:/Users/victim/source/repos/Paranyok/UEFI/Backend/gnu-efi-3.0.18/lib\misc.c **** VOID *
 284:C:/Users/victim/source/repos/Paranyok/UEFI/Backend/gnu-efi-3.0.18/lib\misc.c **** LibGetVariable (
 285:C:/Users/victim/source/repos/Paranyok/UEFI/Backend/gnu-efi-3.0.18/lib\misc.c ****     IN CHAR16               *Name,
 286:C:/Users/victim/source/repos/Paranyok/UEFI/Backend/gnu-efi-3.0.18/lib\misc.c ****     IN EFI_GUID             *VendorGuid
 287:C:/Users/victim/source/repos/Paranyok/UEFI/Backend/gnu-efi-3.0.18/lib\misc.c ****     )
 288:C:/Users/victim/source/repos/Paranyok/UEFI/Backend/gnu-efi-3.0.18/lib\misc.c **** {
 717              		.loc 1 288 1 is_stmt 1 view -0
 718              		.cfi_startproc
 719              		.loc 1 288 1 is_stmt 0 view .LVU167
 720 02ee 4883EC38 		subq	$56, %rsp
 721              		.seh_stackalloc	56
 722              		.cfi_def_cfa_offset 64
 723              		.seh_endprologue
 289:C:/Users/victim/source/repos/Paranyok/UEFI/Backend/gnu-efi-3.0.18/lib\misc.c ****     UINTN   VarSize;
 724              		.loc 1 289 5 is_stmt 1 view .LVU168
 290:C:/Users/victim/source/repos/Paranyok/UEFI/Backend/gnu-efi-3.0.18/lib\misc.c **** 
 291:C:/Users/victim/source/repos/Paranyok/UEFI/Backend/gnu-efi-3.0.18/lib\misc.c ****     return LibGetVariableAndSize (Name, VendorGuid, &VarSize);
 725              		.loc 1 291 5 view .LVU169
 726              		.loc 1 291 12 is_stmt 0 view .LVU170
 727 02f2 4C8D4424 		leaq	40(%rsp), %r8
 727      28
 728 02f7 E857FFFF 		call	LibGetVariableAndSize
 728      FF
 729              	.LVL63:
 292:C:/Users/victim/source/repos/Paranyok/UEFI/Backend/gnu-efi-3.0.18/lib\misc.c **** }
 730              		.loc 1 292 1 view .LVU171
 731 02fc 4883C438 		addq	$56, %rsp
 732              		.cfi_def_cfa_offset 8
 733 0300 C3       		ret
 734              		.cfi_endproc
 735              	.LFE13:
 736              		.seh_endproc
 737              		.globl	LibDeleteVariable
 739              		.seh_proc	LibDeleteVariable
 740              	LibDeleteVariable:
 741              	.LVL64:
 742              	.LFB14:
 293:C:/Users/victim/source/repos/Paranyok/UEFI/Backend/gnu-efi-3.0.18/lib\misc.c **** 
 294:C:/Users/victim/source/repos/Paranyok/UEFI/Backend/gnu-efi-3.0.18/lib\misc.c **** EFI_STATUS
 295:C:/Users/victim/source/repos/Paranyok/UEFI/Backend/gnu-efi-3.0.18/lib\misc.c **** LibDeleteVariable (
 296:C:/Users/victim/source/repos/Paranyok/UEFI/Backend/gnu-efi-3.0.18/lib\misc.c ****     IN CHAR16   *VarName,
 297:C:/Users/victim/source/repos/Paranyok/UEFI/Backend/gnu-efi-3.0.18/lib\misc.c ****     IN EFI_GUID *VarGuid
 298:C:/Users/victim/source/repos/Paranyok/UEFI/Backend/gnu-efi-3.0.18/lib\misc.c ****     )
 299:C:/Users/victim/source/repos/Paranyok/UEFI/Backend/gnu-efi-3.0.18/lib\misc.c **** {
 743              		.loc 1 299 1 is_stmt 1 view -0
 744              		.cfi_startproc
 745              		.loc 1 299 1 is_stmt 0 view .LVU173
 746 0301 57       		pushq	%rdi
 747              		.seh_pushreg	%rdi
 748              		.cfi_def_cfa_offset 16
 749              		.cfi_offset 5, -16
 750 0302 56       		pushq	%rsi
 751              		.seh_pushreg	%rsi
 752              		.cfi_def_cfa_offset 24
 753              		.cfi_offset 4, -24
 754 0303 53       		pushq	%rbx
 755              		.seh_pushreg	%rbx
 756              		.cfi_def_cfa_offset 32
 757              		.cfi_offset 3, -32
 758 0304 4883EC30 		subq	$48, %rsp
 759              		.seh_stackalloc	48
 760              		.cfi_def_cfa_offset 80
 761              		.seh_endprologue
 762 0308 4889CE   		movq	%rcx, %rsi
 763 030b 4889D7   		movq	%rdx, %rdi
 300:C:/Users/victim/source/repos/Paranyok/UEFI/Backend/gnu-efi-3.0.18/lib\misc.c ****     VOID        *VarBuf;
 764              		.loc 1 300 5 is_stmt 1 view .LVU174
 301:C:/Users/victim/source/repos/Paranyok/UEFI/Backend/gnu-efi-3.0.18/lib\misc.c ****     EFI_STATUS  Status;
 765              		.loc 1 301 5 view .LVU175
 302:C:/Users/victim/source/repos/Paranyok/UEFI/Backend/gnu-efi-3.0.18/lib\misc.c **** 
 303:C:/Users/victim/source/repos/Paranyok/UEFI/Backend/gnu-efi-3.0.18/lib\misc.c ****     VarBuf = LibGetVariable(VarName,VarGuid);
 766              		.loc 1 303 5 view .LVU176
 767              		.loc 1 303 14 is_stmt 0 view .LVU177
 768 030e E8DBFFFF 		call	LibGetVariable
 768      FF
 769              	.LVL65:
 770              		.loc 1 303 14 view .LVU178
 771 0313 4889C3   		movq	%rax, %rbx
 772              	.LVL66:
 304:C:/Users/victim/source/repos/Paranyok/UEFI/Backend/gnu-efi-3.0.18/lib\misc.c **** 
 305:C:/Users/victim/source/repos/Paranyok/UEFI/Backend/gnu-efi-3.0.18/lib\misc.c ****     Status = EFI_NOT_FOUND;
 773              		.loc 1 305 5 is_stmt 1 view .LVU179
 306:C:/Users/victim/source/repos/Paranyok/UEFI/Backend/gnu-efi-3.0.18/lib\misc.c **** 
 307:C:/Users/victim/source/repos/Paranyok/UEFI/Backend/gnu-efi-3.0.18/lib\misc.c ****     if (VarBuf) {
 774              		.loc 1 307 5 view .LVU180
 775              		.loc 1 307 8 is_stmt 0 view .LVU181
 776 0316 4885C0   		testq	%rax, %rax
 777 0319 7441     		je	.L40
 308:C:/Users/victim/source/repos/Paranyok/UEFI/Backend/gnu-efi-3.0.18/lib\misc.c ****         //
 309:C:/Users/victim/source/repos/Paranyok/UEFI/Backend/gnu-efi-3.0.18/lib\misc.c ****         // Delete variable from Storage
 310:C:/Users/victim/source/repos/Paranyok/UEFI/Backend/gnu-efi-3.0.18/lib\misc.c ****         //
 311:C:/Users/victim/source/repos/Paranyok/UEFI/Backend/gnu-efi-3.0.18/lib\misc.c ****         Status = uefi_call_wrapper(
 778              		.loc 1 311 9 is_stmt 1 view .LVU182
 779              		.loc 1 311 18 is_stmt 0 view .LVU183
 780 031b 488B0500 		movq	.refptr.RT(%rip), %rax
 780      000000
 781              	.LVL67:
 782              		.loc 1 311 18 view .LVU184
 783 0322 488B00   		movq	(%rax), %rax
 784 0325 488B4058 		movq	88(%rax), %rax
 785 0329 48C74424 		movq	$0, 32(%rsp)
 785      20000000 
 785      00
 786 0332 41B90000 		movl	$0, %r9d
 786      0000
 787 0338 41B80700 		movl	$7, %r8d
 787      0000
 788 033e 4889FA   		movq	%rdi, %rdx
 789 0341 4889F1   		movq	%rsi, %rcx
 790 0344 FFD0     		call	*%rax
 791              	.LVL68:
 792 0346 4889C6   		movq	%rax, %rsi
 793              	.LVL69:
 312:C:/Users/victim/source/repos/Paranyok/UEFI/Backend/gnu-efi-3.0.18/lib\misc.c **** 		    RT->SetVariable,
 313:C:/Users/victim/source/repos/Paranyok/UEFI/Backend/gnu-efi-3.0.18/lib\misc.c **** 			5,
 314:C:/Users/victim/source/repos/Paranyok/UEFI/Backend/gnu-efi-3.0.18/lib\misc.c ****                     VarName, VarGuid,
 315:C:/Users/victim/source/repos/Paranyok/UEFI/Backend/gnu-efi-3.0.18/lib\misc.c ****                     EFI_VARIABLE_BOOTSERVICE_ACCESS | EFI_VARIABLE_RUNTIME_ACCESS | EFI_VARIABLE_NO
 316:C:/Users/victim/source/repos/Paranyok/UEFI/Backend/gnu-efi-3.0.18/lib\misc.c ****                     0, NULL
 317:C:/Users/victim/source/repos/Paranyok/UEFI/Backend/gnu-efi-3.0.18/lib\misc.c ****                  );
 318:C:/Users/victim/source/repos/Paranyok/UEFI/Backend/gnu-efi-3.0.18/lib\misc.c ****         ASSERT (!EFI_ERROR(Status));
 794              		.loc 1 318 36 is_stmt 1 view .LVU185
 319:C:/Users/victim/source/repos/Paranyok/UEFI/Backend/gnu-efi-3.0.18/lib\misc.c ****         FreePool(VarBuf);
 795              		.loc 1 319 9 view .LVU186
 796 0349 4889D9   		movq	%rbx, %rcx
 797 034c E8EBFCFF 		call	FreePool
 797      FF
 798              	.LVL70:
 799              	.L38:
 320:C:/Users/victim/source/repos/Paranyok/UEFI/Backend/gnu-efi-3.0.18/lib\misc.c ****     }
 321:C:/Users/victim/source/repos/Paranyok/UEFI/Backend/gnu-efi-3.0.18/lib\misc.c **** 
 322:C:/Users/victim/source/repos/Paranyok/UEFI/Backend/gnu-efi-3.0.18/lib\misc.c ****     return (Status);
 323:C:/Users/victim/source/repos/Paranyok/UEFI/Backend/gnu-efi-3.0.18/lib\misc.c **** }
 800              		.loc 1 323 1 is_stmt 0 view .LVU187
 801 0351 4889F0   		movq	%rsi, %rax
 802 0354 4883C430 		addq	$48, %rsp
 803              		.cfi_remember_state
 804              		.cfi_def_cfa_offset 32
 805 0358 5B       		popq	%rbx
 806              		.cfi_restore 3
 807              		.cfi_def_cfa_offset 24
 808              	.LVL71:
 809              		.loc 1 323 1 view .LVU188
 810 0359 5E       		popq	%rsi
 811              		.cfi_restore 4
 812              		.cfi_def_cfa_offset 16
 813 035a 5F       		popq	%rdi
 814              		.cfi_restore 5
 815              		.cfi_def_cfa_offset 8
 816              	.LVL72:
 817              		.loc 1 323 1 view .LVU189
 818 035b C3       		ret
 819              	.LVL73:
 820              	.L40:
 821              		.cfi_restore_state
 305:C:/Users/victim/source/repos/Paranyok/UEFI/Backend/gnu-efi-3.0.18/lib\misc.c **** 
 822              		.loc 1 305 12 view .LVU190
 823 035c 48BE0E00 		movabsq	$-9223372036854775794, %rsi
 823      00000000 
 823      0080
 824              	.LVL74:
 322:C:/Users/victim/source/repos/Paranyok/UEFI/Backend/gnu-efi-3.0.18/lib\misc.c **** }
 825              		.loc 1 322 5 is_stmt 1 view .LVU191
 322:C:/Users/victim/source/repos/Paranyok/UEFI/Backend/gnu-efi-3.0.18/lib\misc.c **** }
 826              		.loc 1 322 12 is_stmt 0 view .LVU192
 827 0366 EBE9     		jmp	.L38
 828              		.cfi_endproc
 829              	.LFE14:
 830              		.seh_endproc
 831              		.globl	LibSetNVVariable
 833              		.seh_proc	LibSetNVVariable
 834              	LibSetNVVariable:
 835              	.LVL75:
 836              	.LFB15:
 324:C:/Users/victim/source/repos/Paranyok/UEFI/Backend/gnu-efi-3.0.18/lib\misc.c **** 
 325:C:/Users/victim/source/repos/Paranyok/UEFI/Backend/gnu-efi-3.0.18/lib\misc.c **** EFI_STATUS
 326:C:/Users/victim/source/repos/Paranyok/UEFI/Backend/gnu-efi-3.0.18/lib\misc.c **** LibSetNVVariable (
 327:C:/Users/victim/source/repos/Paranyok/UEFI/Backend/gnu-efi-3.0.18/lib\misc.c ****     IN CHAR16   *VarName,
 328:C:/Users/victim/source/repos/Paranyok/UEFI/Backend/gnu-efi-3.0.18/lib\misc.c ****     IN EFI_GUID *VarGuid,
 329:C:/Users/victim/source/repos/Paranyok/UEFI/Backend/gnu-efi-3.0.18/lib\misc.c ****     IN UINTN	 DataSize,
 330:C:/Users/victim/source/repos/Paranyok/UEFI/Backend/gnu-efi-3.0.18/lib\misc.c ****     IN VOID     *Data
 331:C:/Users/victim/source/repos/Paranyok/UEFI/Backend/gnu-efi-3.0.18/lib\misc.c ****     )
 332:C:/Users/victim/source/repos/Paranyok/UEFI/Backend/gnu-efi-3.0.18/lib\misc.c **** {
 837              		.loc 1 332 1 is_stmt 1 view -0
 838              		.cfi_startproc
 839              		.loc 1 332 1 is_stmt 0 view .LVU194
 840 0368 4883EC38 		subq	$56, %rsp
 841              		.seh_stackalloc	56
 842              		.cfi_def_cfa_offset 64
 843              		.seh_endprologue
 333:C:/Users/victim/source/repos/Paranyok/UEFI/Backend/gnu-efi-3.0.18/lib\misc.c ****     EFI_STATUS  Status;
 844              		.loc 1 333 5 is_stmt 1 view .LVU195
 334:C:/Users/victim/source/repos/Paranyok/UEFI/Backend/gnu-efi-3.0.18/lib\misc.c **** 
 335:C:/Users/victim/source/repos/Paranyok/UEFI/Backend/gnu-efi-3.0.18/lib\misc.c ****     Status = uefi_call_wrapper(
 845              		.loc 1 335 5 view .LVU196
 846              		.loc 1 335 14 is_stmt 0 view .LVU197
 847 036c 488B0500 		movq	.refptr.RT(%rip), %rax
 847      000000
 848 0373 488B00   		movq	(%rax), %rax
 849 0376 488B4058 		movq	88(%rax), %rax
 850 037a 4C894C24 		movq	%r9, 32(%rsp)
 850      20
 851 037f 4D89C1   		movq	%r8, %r9
 852              	.LVL76:
 853              		.loc 1 335 14 view .LVU198
 854 0382 41B80700 		movl	$7, %r8d
 854      0000
 855              	.LVL77:
 856              		.loc 1 335 14 view .LVU199
 857 0388 FFD0     		call	*%rax
 858              	.LVL78:
 336:C:/Users/victim/source/repos/Paranyok/UEFI/Backend/gnu-efi-3.0.18/lib\misc.c **** 	    RT->SetVariable,
 337:C:/Users/victim/source/repos/Paranyok/UEFI/Backend/gnu-efi-3.0.18/lib\misc.c **** 	    5,
 338:C:/Users/victim/source/repos/Paranyok/UEFI/Backend/gnu-efi-3.0.18/lib\misc.c **** 	    VarName, VarGuid,
 339:C:/Users/victim/source/repos/Paranyok/UEFI/Backend/gnu-efi-3.0.18/lib\misc.c **** 	    EFI_VARIABLE_BOOTSERVICE_ACCESS | EFI_VARIABLE_RUNTIME_ACCESS | EFI_VARIABLE_NON_VOLATILE,
 340:C:/Users/victim/source/repos/Paranyok/UEFI/Backend/gnu-efi-3.0.18/lib\misc.c **** 	    DataSize, Data
 341:C:/Users/victim/source/repos/Paranyok/UEFI/Backend/gnu-efi-3.0.18/lib\misc.c **** 	    );
 342:C:/Users/victim/source/repos/Paranyok/UEFI/Backend/gnu-efi-3.0.18/lib\misc.c ****     ASSERT (!EFI_ERROR(Status));
 859              		.loc 1 342 32 is_stmt 1 view .LVU200
 343:C:/Users/victim/source/repos/Paranyok/UEFI/Backend/gnu-efi-3.0.18/lib\misc.c ****     return (Status);
 860              		.loc 1 343 5 view .LVU201
 344:C:/Users/victim/source/repos/Paranyok/UEFI/Backend/gnu-efi-3.0.18/lib\misc.c **** }
 861              		.loc 1 344 1 is_stmt 0 view .LVU202
 862 038a 4883C438 		addq	$56, %rsp
 863              		.cfi_def_cfa_offset 8
 864 038e C3       		ret
 865              		.cfi_endproc
 866              	.LFE15:
 867              		.seh_endproc
 868              		.globl	LibSetVariable
 870              		.seh_proc	LibSetVariable
 871              	LibSetVariable:
 872              	.LVL79:
 873              	.LFB16:
 345:C:/Users/victim/source/repos/Paranyok/UEFI/Backend/gnu-efi-3.0.18/lib\misc.c **** 
 346:C:/Users/victim/source/repos/Paranyok/UEFI/Backend/gnu-efi-3.0.18/lib\misc.c **** EFI_STATUS
 347:C:/Users/victim/source/repos/Paranyok/UEFI/Backend/gnu-efi-3.0.18/lib\misc.c **** LibSetVariable (
 348:C:/Users/victim/source/repos/Paranyok/UEFI/Backend/gnu-efi-3.0.18/lib\misc.c ****     IN CHAR16   *VarName,
 349:C:/Users/victim/source/repos/Paranyok/UEFI/Backend/gnu-efi-3.0.18/lib\misc.c ****     IN EFI_GUID *VarGuid,
 350:C:/Users/victim/source/repos/Paranyok/UEFI/Backend/gnu-efi-3.0.18/lib\misc.c ****     IN UINTN	 DataSize,
 351:C:/Users/victim/source/repos/Paranyok/UEFI/Backend/gnu-efi-3.0.18/lib\misc.c ****     IN VOID     *Data
 352:C:/Users/victim/source/repos/Paranyok/UEFI/Backend/gnu-efi-3.0.18/lib\misc.c ****     )
 353:C:/Users/victim/source/repos/Paranyok/UEFI/Backend/gnu-efi-3.0.18/lib\misc.c **** {
 874              		.loc 1 353 1 is_stmt 1 view -0
 875              		.cfi_startproc
 876              		.loc 1 353 1 is_stmt 0 view .LVU204
 877 038f 4883EC38 		subq	$56, %rsp
 878              		.seh_stackalloc	56
 879              		.cfi_def_cfa_offset 64
 880              		.seh_endprologue
 354:C:/Users/victim/source/repos/Paranyok/UEFI/Backend/gnu-efi-3.0.18/lib\misc.c ****     EFI_STATUS  Status;
 881              		.loc 1 354 5 is_stmt 1 view .LVU205
 355:C:/Users/victim/source/repos/Paranyok/UEFI/Backend/gnu-efi-3.0.18/lib\misc.c **** 
 356:C:/Users/victim/source/repos/Paranyok/UEFI/Backend/gnu-efi-3.0.18/lib\misc.c ****     Status = uefi_call_wrapper(
 882              		.loc 1 356 5 view .LVU206
 883              		.loc 1 356 14 is_stmt 0 view .LVU207
 884 0393 488B0500 		movq	.refptr.RT(%rip), %rax
 884      000000
 885 039a 488B00   		movq	(%rax), %rax
 886 039d 488B4058 		movq	88(%rax), %rax
 887 03a1 4C894C24 		movq	%r9, 32(%rsp)
 887      20
 888 03a6 4D89C1   		movq	%r8, %r9
 889              	.LVL80:
 890              		.loc 1 356 14 view .LVU208
 891 03a9 41B80600 		movl	$6, %r8d
 891      0000
 892              	.LVL81:
 893              		.loc 1 356 14 view .LVU209
 894 03af FFD0     		call	*%rax
 895              	.LVL82:
 357:C:/Users/victim/source/repos/Paranyok/UEFI/Backend/gnu-efi-3.0.18/lib\misc.c **** 	    RT->SetVariable,
 358:C:/Users/victim/source/repos/Paranyok/UEFI/Backend/gnu-efi-3.0.18/lib\misc.c **** 	    5,
 359:C:/Users/victim/source/repos/Paranyok/UEFI/Backend/gnu-efi-3.0.18/lib\misc.c **** 	    VarName, VarGuid,
 360:C:/Users/victim/source/repos/Paranyok/UEFI/Backend/gnu-efi-3.0.18/lib\misc.c **** 	    EFI_VARIABLE_BOOTSERVICE_ACCESS | EFI_VARIABLE_RUNTIME_ACCESS,
 361:C:/Users/victim/source/repos/Paranyok/UEFI/Backend/gnu-efi-3.0.18/lib\misc.c **** 	    DataSize, Data
 362:C:/Users/victim/source/repos/Paranyok/UEFI/Backend/gnu-efi-3.0.18/lib\misc.c **** 	    );
 363:C:/Users/victim/source/repos/Paranyok/UEFI/Backend/gnu-efi-3.0.18/lib\misc.c ****     ASSERT (!EFI_ERROR(Status));
 896              		.loc 1 363 32 is_stmt 1 view .LVU210
 364:C:/Users/victim/source/repos/Paranyok/UEFI/Backend/gnu-efi-3.0.18/lib\misc.c ****     return (Status);
 897              		.loc 1 364 5 view .LVU211
 365:C:/Users/victim/source/repos/Paranyok/UEFI/Backend/gnu-efi-3.0.18/lib\misc.c **** }
 898              		.loc 1 365 1 is_stmt 0 view .LVU212
 899 03b1 4883C438 		addq	$56, %rsp
 900              		.cfi_def_cfa_offset 8
 901 03b5 C3       		ret
 902              		.cfi_endproc
 903              	.LFE16:
 904              		.seh_endproc
 905              		.section .rdata,"dr"
 906              		.align 2
 907              	.LC0:
 908 0000 42006F00 		.ascii "B\0o\0o\0t\0O\0r\0d\0e\0r\0\0\0"
 908      6F007400 
 908      4F007200 
 908      64006500 
 908      72000000 
 909 0014 00000000 		.text
 909      00000000 
 909      00000000 
 910              		.globl	LibInsertToTailOfBootOrder
 912              		.seh_proc	LibInsertToTailOfBootOrder
 913              	LibInsertToTailOfBootOrder:
 914              	.LVL83:
 915              	.LFB17:
 366:C:/Users/victim/source/repos/Paranyok/UEFI/Backend/gnu-efi-3.0.18/lib\misc.c **** 
 367:C:/Users/victim/source/repos/Paranyok/UEFI/Backend/gnu-efi-3.0.18/lib\misc.c **** EFI_STATUS
 368:C:/Users/victim/source/repos/Paranyok/UEFI/Backend/gnu-efi-3.0.18/lib\misc.c **** LibInsertToTailOfBootOrder (
 369:C:/Users/victim/source/repos/Paranyok/UEFI/Backend/gnu-efi-3.0.18/lib\misc.c ****     IN  UINT16  BootOption,
 370:C:/Users/victim/source/repos/Paranyok/UEFI/Backend/gnu-efi-3.0.18/lib\misc.c ****     IN  BOOLEAN OnlyInsertIfEmpty
 371:C:/Users/victim/source/repos/Paranyok/UEFI/Backend/gnu-efi-3.0.18/lib\misc.c ****     )
 372:C:/Users/victim/source/repos/Paranyok/UEFI/Backend/gnu-efi-3.0.18/lib\misc.c **** {
 916              		.loc 1 372 1 is_stmt 1 view -0
 917              		.cfi_startproc
 918              		.loc 1 372 1 is_stmt 0 view .LVU214
 919 03b6 57       		pushq	%rdi
 920              		.seh_pushreg	%rdi
 921              		.cfi_def_cfa_offset 16
 922              		.cfi_offset 5, -16
 923 03b7 56       		pushq	%rsi
 924              		.seh_pushreg	%rsi
 925              		.cfi_def_cfa_offset 24
 926              		.cfi_offset 4, -24
 927 03b8 53       		pushq	%rbx
 928              		.seh_pushreg	%rbx
 929              		.cfi_def_cfa_offset 32
 930              		.cfi_offset 3, -32
 931 03b9 4883EC40 		subq	$64, %rsp
 932              		.seh_stackalloc	64
 933              		.cfi_def_cfa_offset 96
 934              		.seh_endprologue
 935 03bd 89CF     		movl	%ecx, %edi
 936 03bf 89D3     		movl	%edx, %ebx
 373:C:/Users/victim/source/repos/Paranyok/UEFI/Backend/gnu-efi-3.0.18/lib\misc.c ****     UINT16      *BootOptionArray;
 937              		.loc 1 373 5 is_stmt 1 view .LVU215
 374:C:/Users/victim/source/repos/Paranyok/UEFI/Backend/gnu-efi-3.0.18/lib\misc.c ****     UINT16      *NewBootOptionArray;
 938              		.loc 1 374 5 view .LVU216
 375:C:/Users/victim/source/repos/Paranyok/UEFI/Backend/gnu-efi-3.0.18/lib\misc.c ****     UINTN       VarSize;
 939              		.loc 1 375 5 view .LVU217
 376:C:/Users/victim/source/repos/Paranyok/UEFI/Backend/gnu-efi-3.0.18/lib\misc.c ****     UINTN       Index;
 940              		.loc 1 376 5 view .LVU218
 377:C:/Users/victim/source/repos/Paranyok/UEFI/Backend/gnu-efi-3.0.18/lib\misc.c ****     EFI_STATUS  Status;
 941              		.loc 1 377 5 view .LVU219
 378:C:/Users/victim/source/repos/Paranyok/UEFI/Backend/gnu-efi-3.0.18/lib\misc.c **** 
 379:C:/Users/victim/source/repos/Paranyok/UEFI/Backend/gnu-efi-3.0.18/lib\misc.c ****     BootOptionArray = LibGetVariableAndSize (VarBootOrder, &EfiGlobalVariable, &VarSize);    
 942              		.loc 1 379 5 view .LVU220
 943              		.loc 1 379 23 is_stmt 0 view .LVU221
 944 03c1 4C8D4424 		leaq	56(%rsp), %r8
 944      38
 945 03c6 488B1500 		movq	.refptr.gEfiGlobalVariableGuid(%rip), %rdx
 945      000000
 946              	.LVL84:
 947              		.loc 1 379 23 view .LVU222
 948 03cd 488D0D00 		leaq	.LC0(%rip), %rcx
 948      000000
 949              	.LVL85:
 950              		.loc 1 379 23 view .LVU223
 951 03d4 E87AFEFF 		call	LibGetVariableAndSize
 951      FF
 952              	.LVL86:
 953 03d9 4889C6   		movq	%rax, %rsi
 954              	.LVL87:
 380:C:/Users/victim/source/repos/Paranyok/UEFI/Backend/gnu-efi-3.0.18/lib\misc.c ****     if (VarSize != 0 && OnlyInsertIfEmpty) {
 955              		.loc 1 380 5 is_stmt 1 view .LVU224
 956              		.loc 1 380 17 is_stmt 0 view .LVU225
 957 03dc 488B4C24 		movq	56(%rsp), %rcx
 957      38
 958              		.loc 1 380 8 view .LVU226
 959 03e1 4885C9   		testq	%rcx, %rcx
 960 03e4 7404     		je	.L44
 961              		.loc 1 380 22 discriminator 1 view .LVU227
 962 03e6 84DB     		testb	%bl, %bl
 963 03e8 7521     		jne	.L50
 964              	.L44:
 381:C:/Users/victim/source/repos/Paranyok/UEFI/Backend/gnu-efi-3.0.18/lib\misc.c ****         if (BootOptionArray) {
 382:C:/Users/victim/source/repos/Paranyok/UEFI/Backend/gnu-efi-3.0.18/lib\misc.c ****             FreePool (BootOptionArray);
 383:C:/Users/victim/source/repos/Paranyok/UEFI/Backend/gnu-efi-3.0.18/lib\misc.c ****         }
 384:C:/Users/victim/source/repos/Paranyok/UEFI/Backend/gnu-efi-3.0.18/lib\misc.c ****         return EFI_UNSUPPORTED;
 385:C:/Users/victim/source/repos/Paranyok/UEFI/Backend/gnu-efi-3.0.18/lib\misc.c ****     }
 386:C:/Users/victim/source/repos/Paranyok/UEFI/Backend/gnu-efi-3.0.18/lib\misc.c **** 
 387:C:/Users/victim/source/repos/Paranyok/UEFI/Backend/gnu-efi-3.0.18/lib\misc.c ****     VarSize += sizeof(UINT16);
 965              		.loc 1 387 5 is_stmt 1 view .LVU228
 966              		.loc 1 387 13 is_stmt 0 view .LVU229
 967 03ea 4883C102 		addq	$2, %rcx
 968 03ee 48894C24 		movq	%rcx, 56(%rsp)
 968      38
 388:C:/Users/victim/source/repos/Paranyok/UEFI/Backend/gnu-efi-3.0.18/lib\misc.c ****     NewBootOptionArray = AllocatePool (VarSize);
 969              		.loc 1 388 5 is_stmt 1 view .LVU230
 970              		.loc 1 388 26 is_stmt 0 view .LVU231
 971 03f3 E808FCFF 		call	AllocatePool
 971      FF
 972              	.LVL88:
 973              		.loc 1 388 26 view .LVU232
 974 03f8 4889C3   		movq	%rax, %rbx
 975              	.LVL89:
 389:C:/Users/victim/source/repos/Paranyok/UEFI/Backend/gnu-efi-3.0.18/lib\misc.c ****     if (!NewBootOptionArray)
 976              		.loc 1 389 5 is_stmt 1 view .LVU233
 977              		.loc 1 389 8 is_stmt 0 view .LVU234
 978 03fb 4885C0   		testq	%rax, %rax
 979 03fe 0F84AE00 		je	.L49
 979      0000
 390:C:/Users/victim/source/repos/Paranyok/UEFI/Backend/gnu-efi-3.0.18/lib\misc.c ****         return EFI_OUT_OF_RESOURCES;
 391:C:/Users/victim/source/repos/Paranyok/UEFI/Backend/gnu-efi-3.0.18/lib\misc.c **** 
 392:C:/Users/victim/source/repos/Paranyok/UEFI/Backend/gnu-efi-3.0.18/lib\misc.c ****     for (Index = 0; Index < ((VarSize/sizeof(UINT16)) - 1); Index++) {
 980              		.loc 1 392 16 view .LVU235
 981 0404 BA000000 		movl	$0, %edx
 981      00
 982 0409 EB41     		jmp	.L47
 983              	.LVL90:
 984              	.L50:
 381:C:/Users/victim/source/repos/Paranyok/UEFI/Backend/gnu-efi-3.0.18/lib\misc.c ****             FreePool (BootOptionArray);
 985              		.loc 1 381 9 is_stmt 1 view .LVU236
 381:C:/Users/victim/source/repos/Paranyok/UEFI/Backend/gnu-efi-3.0.18/lib\misc.c ****             FreePool (BootOptionArray);
 986              		.loc 1 381 12 is_stmt 0 view .LVU237
 987 040b 4885C0   		testq	%rax, %rax
 988 040e 7408     		je	.L45
 382:C:/Users/victim/source/repos/Paranyok/UEFI/Backend/gnu-efi-3.0.18/lib\misc.c ****         }
 989              		.loc 1 382 13 is_stmt 1 view .LVU238
 990 0410 4889C1   		movq	%rax, %rcx
 991 0413 E824FCFF 		call	FreePool
 991      FF
 992              	.LVL91:
 993              	.L45:
 384:C:/Users/victim/source/repos/Paranyok/UEFI/Backend/gnu-efi-3.0.18/lib\misc.c ****     }
 994              		.loc 1 384 9 view .LVU239
 384:C:/Users/victim/source/repos/Paranyok/UEFI/Backend/gnu-efi-3.0.18/lib\misc.c ****     }
 995              		.loc 1 384 16 is_stmt 0 view .LVU240
 996 0418 48BF0300 		movabsq	$-9223372036854775805, %rdi
 996      00000000 
 996      0080
 997              	.LVL92:
 384:C:/Users/victim/source/repos/Paranyok/UEFI/Backend/gnu-efi-3.0.18/lib\misc.c ****     }
 998              		.loc 1 384 16 view .LVU241
 999 0422 E9800000 		jmp	.L43
 999      00
 1000              	.LVL93:
 384:C:/Users/victim/source/repos/Paranyok/UEFI/Backend/gnu-efi-3.0.18/lib\misc.c ****     }
 1001              		.loc 1 384 16 view .LVU242
 1002 0427 66662E0F 		.p2align 5
 1002      1F840000 
 1002      00000066 
 1002      662E0F1F 
 1002      84000000 
 1003              	.L48:
 393:C:/Users/victim/source/repos/Paranyok/UEFI/Backend/gnu-efi-3.0.18/lib\misc.c ****         NewBootOptionArray[Index] = BootOptionArray[Index];
 1004              		.loc 1 393 9 is_stmt 1 view .LVU243
 1005              		.loc 1 393 52 is_stmt 0 view .LVU244
 1006 0440 0FB70456 		movzwl	(%rsi,%rdx,2), %eax
 1007              		.loc 1 393 35 view .LVU245
 1008 0444 66890453 		movw	%ax, (%rbx,%rdx,2)
 392:C:/Users/victim/source/repos/Paranyok/UEFI/Backend/gnu-efi-3.0.18/lib\misc.c ****         NewBootOptionArray[Index] = BootOptionArray[Index];
 1009              		.loc 1 392 66 is_stmt 1 discriminator 3 view .LVU246
 1010 0448 4883C201 		addq	$1, %rdx
 1011              	.LVL94:
 1012              	.L47:
 392:C:/Users/victim/source/repos/Paranyok/UEFI/Backend/gnu-efi-3.0.18/lib\misc.c ****         NewBootOptionArray[Index] = BootOptionArray[Index];
 1013              		.loc 1 392 27 discriminator 1 view .LVU247
 392:C:/Users/victim/source/repos/Paranyok/UEFI/Backend/gnu-efi-3.0.18/lib\misc.c ****         NewBootOptionArray[Index] = BootOptionArray[Index];
 1014              		.loc 1 392 38 is_stmt 0 discriminator 1 view .LVU248
 1015 044c 488B4424 		movq	56(%rsp), %rax
 1015      38
 1016 0451 48D1E8   		shrq	%rax
 392:C:/Users/victim/source/repos/Paranyok/UEFI/Backend/gnu-efi-3.0.18/lib\misc.c ****         NewBootOptionArray[Index] = BootOptionArray[Index];
 1017              		.loc 1 392 55 discriminator 1 view .LVU249
 1018 0454 4883E801 		subq	$1, %rax
 392:C:/Users/victim/source/repos/Paranyok/UEFI/Backend/gnu-efi-3.0.18/lib\misc.c ****         NewBootOptionArray[Index] = BootOptionArray[Index];
 1019              		.loc 1 392 27 discriminator 1 view .LVU250
 1020 0458 4839C2   		cmpq	%rax, %rdx
 1021 045b 72E3     		jb	.L48
 394:C:/Users/victim/source/repos/Paranyok/UEFI/Backend/gnu-efi-3.0.18/lib\misc.c ****     }
 395:C:/Users/victim/source/repos/Paranyok/UEFI/Backend/gnu-efi-3.0.18/lib\misc.c ****     //
 396:C:/Users/victim/source/repos/Paranyok/UEFI/Backend/gnu-efi-3.0.18/lib\misc.c ****     // Insert in the tail of the array
 397:C:/Users/victim/source/repos/Paranyok/UEFI/Backend/gnu-efi-3.0.18/lib\misc.c ****     //
 398:C:/Users/victim/source/repos/Paranyok/UEFI/Backend/gnu-efi-3.0.18/lib\misc.c ****     NewBootOptionArray[Index] = BootOption;
 1022              		.loc 1 398 5 is_stmt 1 view .LVU251
 1023              		.loc 1 398 31 is_stmt 0 view .LVU252
 1024 045d 66893C53 		movw	%di, (%rbx,%rdx,2)
 399:C:/Users/victim/source/repos/Paranyok/UEFI/Backend/gnu-efi-3.0.18/lib\misc.c **** 
 400:C:/Users/victim/source/repos/Paranyok/UEFI/Backend/gnu-efi-3.0.18/lib\misc.c ****     Status = uefi_call_wrapper(
 1025              		.loc 1 400 5 is_stmt 1 view .LVU253
 1026              		.loc 1 400 14 is_stmt 0 view .LVU254
 1027 0461 488B0500 		movq	.refptr.RT(%rip), %rax
 1027      000000
 1028 0468 488B00   		movq	(%rax), %rax
 1029 046b 488B4058 		movq	88(%rax), %rax
 1030 046f 48895C24 		movq	%rbx, 32(%rsp)
 1030      20
 1031 0474 4C8B4C24 		movq	56(%rsp), %r9
 1031      38
 1032 0479 41B80700 		movl	$7, %r8d
 1032      0000
 1033 047f 488B1500 		movq	.refptr.gEfiGlobalVariableGuid(%rip), %rdx
 1033      000000
 1034              	.LVL95:
 1035              		.loc 1 400 14 view .LVU255
 1036 0486 488D0D00 		leaq	.LC0(%rip), %rcx
 1036      000000
 1037 048d FFD0     		call	*%rax
 1038              	.LVL96:
 1039 048f 4889C7   		movq	%rax, %rdi
 1040              	.LVL97:
 401:C:/Users/victim/source/repos/Paranyok/UEFI/Backend/gnu-efi-3.0.18/lib\misc.c **** 		RT->SetVariable,
 402:C:/Users/victim/source/repos/Paranyok/UEFI/Backend/gnu-efi-3.0.18/lib\misc.c **** 		5,
 403:C:/Users/victim/source/repos/Paranyok/UEFI/Backend/gnu-efi-3.0.18/lib\misc.c ****                 VarBootOrder, &EfiGlobalVariable,
 404:C:/Users/victim/source/repos/Paranyok/UEFI/Backend/gnu-efi-3.0.18/lib\misc.c ****                 EFI_VARIABLE_BOOTSERVICE_ACCESS | EFI_VARIABLE_RUNTIME_ACCESS | EFI_VARIABLE_NON_VO
 405:C:/Users/victim/source/repos/Paranyok/UEFI/Backend/gnu-efi-3.0.18/lib\misc.c ****                 VarSize, (VOID*) NewBootOptionArray
 406:C:/Users/victim/source/repos/Paranyok/UEFI/Backend/gnu-efi-3.0.18/lib\misc.c ****                 );
 407:C:/Users/victim/source/repos/Paranyok/UEFI/Backend/gnu-efi-3.0.18/lib\misc.c **** 
 408:C:/Users/victim/source/repos/Paranyok/UEFI/Backend/gnu-efi-3.0.18/lib\misc.c ****     FreePool (NewBootOptionArray);
 1041              		.loc 1 408 5 is_stmt 1 view .LVU256
 1042 0492 4889D9   		movq	%rbx, %rcx
 1043 0495 E8A2FBFF 		call	FreePool
 1043      FF
 1044              	.LVL98:
 409:C:/Users/victim/source/repos/Paranyok/UEFI/Backend/gnu-efi-3.0.18/lib\misc.c ****     if (BootOptionArray) {
 1045              		.loc 1 409 5 view .LVU257
 1046              		.loc 1 409 8 is_stmt 0 view .LVU258
 1047 049a 4885F6   		testq	%rsi, %rsi
 1048 049d 7408     		je	.L43
 410:C:/Users/victim/source/repos/Paranyok/UEFI/Backend/gnu-efi-3.0.18/lib\misc.c ****         FreePool (BootOptionArray);
 1049              		.loc 1 410 9 is_stmt 1 view .LVU259
 1050 049f 4889F1   		movq	%rsi, %rcx
 1051 04a2 E895FBFF 		call	FreePool
 1051      FF
 1052              	.LVL99:
 1053              	.L43:
 411:C:/Users/victim/source/repos/Paranyok/UEFI/Backend/gnu-efi-3.0.18/lib\misc.c ****     }
 412:C:/Users/victim/source/repos/Paranyok/UEFI/Backend/gnu-efi-3.0.18/lib\misc.c ****     return Status;
 413:C:/Users/victim/source/repos/Paranyok/UEFI/Backend/gnu-efi-3.0.18/lib\misc.c **** }
 1054              		.loc 1 413 1 is_stmt 0 view .LVU260
 1055 04a7 4889F8   		movq	%rdi, %rax
 1056 04aa 4883C440 		addq	$64, %rsp
 1057              		.cfi_remember_state
 1058              		.cfi_def_cfa_offset 32
 1059 04ae 5B       		popq	%rbx
 1060              		.cfi_restore 3
 1061              		.cfi_def_cfa_offset 24
 1062 04af 5E       		popq	%rsi
 1063              		.cfi_restore 4
 1064              		.cfi_def_cfa_offset 16
 1065              	.LVL100:
 1066              		.loc 1 413 1 view .LVU261
 1067 04b0 5F       		popq	%rdi
 1068              		.cfi_restore 5
 1069              		.cfi_def_cfa_offset 8
 1070 04b1 C3       		ret
 1071              	.LVL101:
 1072              	.L49:
 1073              		.cfi_restore_state
 390:C:/Users/victim/source/repos/Paranyok/UEFI/Backend/gnu-efi-3.0.18/lib\misc.c **** 
 1074              		.loc 1 390 16 view .LVU262
 1075 04b2 48BF0900 		movabsq	$-9223372036854775799, %rdi
 1075      00000000 
 1075      0080
 1076 04bc EBE9     		jmp	.L43
 1077              		.cfi_endproc
 1078              	.LFE17:
 1079              		.seh_endproc
 1080              		.globl	ValidMBR
 1082              		.seh_proc	ValidMBR
 1083              	ValidMBR:
 1084              	.LVL102:
 1085              	.LFB18:
 414:C:/Users/victim/source/repos/Paranyok/UEFI/Backend/gnu-efi-3.0.18/lib\misc.c **** 
 415:C:/Users/victim/source/repos/Paranyok/UEFI/Backend/gnu-efi-3.0.18/lib\misc.c **** 
 416:C:/Users/victim/source/repos/Paranyok/UEFI/Backend/gnu-efi-3.0.18/lib\misc.c **** BOOLEAN
 417:C:/Users/victim/source/repos/Paranyok/UEFI/Backend/gnu-efi-3.0.18/lib\misc.c **** ValidMBR(
 418:C:/Users/victim/source/repos/Paranyok/UEFI/Backend/gnu-efi-3.0.18/lib\misc.c ****     IN  MASTER_BOOT_RECORD  *Mbr,
 419:C:/Users/victim/source/repos/Paranyok/UEFI/Backend/gnu-efi-3.0.18/lib\misc.c ****     IN  EFI_BLOCK_IO        *BlkIo
 420:C:/Users/victim/source/repos/Paranyok/UEFI/Backend/gnu-efi-3.0.18/lib\misc.c ****     )
 421:C:/Users/victim/source/repos/Paranyok/UEFI/Backend/gnu-efi-3.0.18/lib\misc.c **** {
 1086              		.loc 1 421 1 is_stmt 1 view -0
 1087              		.cfi_startproc
 1088              		.loc 1 421 1 is_stmt 0 view .LVU264
 1089 04be 57       		pushq	%rdi
 1090              		.seh_pushreg	%rdi
 1091              		.cfi_def_cfa_offset 16
 1092              		.cfi_offset 5, -16
 1093 04bf 56       		pushq	%rsi
 1094              		.seh_pushreg	%rsi
 1095              		.cfi_def_cfa_offset 24
 1096              		.cfi_offset 4, -24
 1097 04c0 53       		pushq	%rbx
 1098              		.seh_pushreg	%rbx
 1099              		.cfi_def_cfa_offset 32
 1100              		.cfi_offset 3, -32
 1101              		.seh_endprologue
 1102 04c1 4989C8   		movq	%rcx, %r8
 1103 04c4 4889D3   		movq	%rdx, %rbx
 422:C:/Users/victim/source/repos/Paranyok/UEFI/Backend/gnu-efi-3.0.18/lib\misc.c ****     UINT32      StartingLBA, EndingLBA;
 1104              		.loc 1 422 5 is_stmt 1 view .LVU265
 423:C:/Users/victim/source/repos/Paranyok/UEFI/Backend/gnu-efi-3.0.18/lib\misc.c ****     UINT32      NewEndingLBA;
 1105              		.loc 1 423 5 view .LVU266
 424:C:/Users/victim/source/repos/Paranyok/UEFI/Backend/gnu-efi-3.0.18/lib\misc.c ****     INTN        i, j;
 1106              		.loc 1 424 5 view .LVU267
 425:C:/Users/victim/source/repos/Paranyok/UEFI/Backend/gnu-efi-3.0.18/lib\misc.c ****     BOOLEAN     ValidMbr;
 1107              		.loc 1 425 5 view .LVU268
 426:C:/Users/victim/source/repos/Paranyok/UEFI/Backend/gnu-efi-3.0.18/lib\misc.c **** 
 427:C:/Users/victim/source/repos/Paranyok/UEFI/Backend/gnu-efi-3.0.18/lib\misc.c ****     if (Mbr->Signature != MBR_SIGNATURE) {
 1108              		.loc 1 427 5 view .LVU269
 1109              		.loc 1 427 8 is_stmt 0 view .LVU270
 1110 04c7 6681B9FE 		cmpw	$-21931, 510(%rcx)
 1110      01000055 
 1110      AA
 1111 04d0 0F85B001 		jne	.L61
 1111      0000
 428:C:/Users/victim/source/repos/Paranyok/UEFI/Backend/gnu-efi-3.0.18/lib\misc.c ****         //
 429:C:/Users/victim/source/repos/Paranyok/UEFI/Backend/gnu-efi-3.0.18/lib\misc.c ****         // The BPB also has this signature, so it can not be used alone.
 430:C:/Users/victim/source/repos/Paranyok/UEFI/Backend/gnu-efi-3.0.18/lib\misc.c ****         //
 431:C:/Users/victim/source/repos/Paranyok/UEFI/Backend/gnu-efi-3.0.18/lib\misc.c ****         return FALSE;
 432:C:/Users/victim/source/repos/Paranyok/UEFI/Backend/gnu-efi-3.0.18/lib\misc.c ****     } 
 433:C:/Users/victim/source/repos/Paranyok/UEFI/Backend/gnu-efi-3.0.18/lib\misc.c **** 
 434:C:/Users/victim/source/repos/Paranyok/UEFI/Backend/gnu-efi-3.0.18/lib\misc.c ****     ValidMbr = FALSE;
 1112              		.loc 1 434 14 view .LVU271
 1113 04d6 41B90000 		movl	$0, %r9d
 1113      0000
 435:C:/Users/victim/source/repos/Paranyok/UEFI/Backend/gnu-efi-3.0.18/lib\misc.c ****     for (i=0; i<MAX_MBR_PARTITIONS; i++) {
 1114              		.loc 1 435 11 view .LVU272
 1115 04dc 41BA0000 		movl	$0, %r10d
 1115      0000
 1116 04e2 E9D70000 		jmp	.L53
 1116      00
 1117              	.LVL103:
 1118              	.L58:
 436:C:/Users/victim/source/repos/Paranyok/UEFI/Backend/gnu-efi-3.0.18/lib\misc.c ****         if ( Mbr->Partition[i].OSIndicator == 0x00 || EXTRACT_UINT32(Mbr->Partition[i].SizeInLBA) =
 437:C:/Users/victim/source/repos/Paranyok/UEFI/Backend/gnu-efi-3.0.18/lib\misc.c ****             continue;
 438:C:/Users/victim/source/repos/Paranyok/UEFI/Backend/gnu-efi-3.0.18/lib\misc.c ****         }
 439:C:/Users/victim/source/repos/Paranyok/UEFI/Backend/gnu-efi-3.0.18/lib\misc.c ****         ValidMbr = TRUE;
 440:C:/Users/victim/source/repos/Paranyok/UEFI/Backend/gnu-efi-3.0.18/lib\misc.c ****         StartingLBA = EXTRACT_UINT32(Mbr->Partition[i].StartingLBA);
 441:C:/Users/victim/source/repos/Paranyok/UEFI/Backend/gnu-efi-3.0.18/lib\misc.c ****         EndingLBA = StartingLBA + EXTRACT_UINT32(Mbr->Partition[i].SizeInLBA) - 1;
 442:C:/Users/victim/source/repos/Paranyok/UEFI/Backend/gnu-efi-3.0.18/lib\misc.c ****         if (EndingLBA > BlkIo->Media->LastBlock) {
 443:C:/Users/victim/source/repos/Paranyok/UEFI/Backend/gnu-efi-3.0.18/lib\misc.c ****             //
 444:C:/Users/victim/source/repos/Paranyok/UEFI/Backend/gnu-efi-3.0.18/lib\misc.c ****             // Compatability Errata:
 445:C:/Users/victim/source/repos/Paranyok/UEFI/Backend/gnu-efi-3.0.18/lib\misc.c ****             //  Some systems try to hide drive space with thier INT 13h driver
 446:C:/Users/victim/source/repos/Paranyok/UEFI/Backend/gnu-efi-3.0.18/lib\misc.c ****             //  This does not hide space from the OS driver. This means the MBR
 447:C:/Users/victim/source/repos/Paranyok/UEFI/Backend/gnu-efi-3.0.18/lib\misc.c ****             //  that gets created from DOS is smaller than the MBR created from 
 448:C:/Users/victim/source/repos/Paranyok/UEFI/Backend/gnu-efi-3.0.18/lib\misc.c ****             //  a real OS (NT & Win98). This leads to BlkIo->LastBlock being 
 449:C:/Users/victim/source/repos/Paranyok/UEFI/Backend/gnu-efi-3.0.18/lib\misc.c ****             //  wrong on some systems FDISKed by the OS.
 450:C:/Users/victim/source/repos/Paranyok/UEFI/Backend/gnu-efi-3.0.18/lib\misc.c ****             //
 451:C:/Users/victim/source/repos/Paranyok/UEFI/Backend/gnu-efi-3.0.18/lib\misc.c ****             //
 452:C:/Users/victim/source/repos/Paranyok/UEFI/Backend/gnu-efi-3.0.18/lib\misc.c ****             if (BlkIo->Media->LastBlock < MIN_MBR_DEVICE_SIZE) {
 453:C:/Users/victim/source/repos/Paranyok/UEFI/Backend/gnu-efi-3.0.18/lib\misc.c ****                 //
 454:C:/Users/victim/source/repos/Paranyok/UEFI/Backend/gnu-efi-3.0.18/lib\misc.c ****                 // If this is a very small device then trust the BlkIo->LastBlock
 455:C:/Users/victim/source/repos/Paranyok/UEFI/Backend/gnu-efi-3.0.18/lib\misc.c ****                 //
 456:C:/Users/victim/source/repos/Paranyok/UEFI/Backend/gnu-efi-3.0.18/lib\misc.c ****                 return FALSE;
 457:C:/Users/victim/source/repos/Paranyok/UEFI/Backend/gnu-efi-3.0.18/lib\misc.c ****             }
 458:C:/Users/victim/source/repos/Paranyok/UEFI/Backend/gnu-efi-3.0.18/lib\misc.c **** 
 459:C:/Users/victim/source/repos/Paranyok/UEFI/Backend/gnu-efi-3.0.18/lib\misc.c ****             if (EndingLBA > (BlkIo->Media->LastBlock + MBR_ERRATA_PAD)) {
 460:C:/Users/victim/source/repos/Paranyok/UEFI/Backend/gnu-efi-3.0.18/lib\misc.c ****                 return FALSE;
 461:C:/Users/victim/source/repos/Paranyok/UEFI/Backend/gnu-efi-3.0.18/lib\misc.c ****             }
 462:C:/Users/victim/source/repos/Paranyok/UEFI/Backend/gnu-efi-3.0.18/lib\misc.c **** 
 463:C:/Users/victim/source/repos/Paranyok/UEFI/Backend/gnu-efi-3.0.18/lib\misc.c ****         }
 464:C:/Users/victim/source/repos/Paranyok/UEFI/Backend/gnu-efi-3.0.18/lib\misc.c ****         for (j=i+1; j<MAX_MBR_PARTITIONS; j++) {
 465:C:/Users/victim/source/repos/Paranyok/UEFI/Backend/gnu-efi-3.0.18/lib\misc.c ****             if (Mbr->Partition[j].OSIndicator == 0x00 || EXTRACT_UINT32(Mbr->Partition[j].SizeInLBA
 466:C:/Users/victim/source/repos/Paranyok/UEFI/Backend/gnu-efi-3.0.18/lib\misc.c ****                 continue;
 467:C:/Users/victim/source/repos/Paranyok/UEFI/Backend/gnu-efi-3.0.18/lib\misc.c ****             }
 468:C:/Users/victim/source/repos/Paranyok/UEFI/Backend/gnu-efi-3.0.18/lib\misc.c ****             if (   EXTRACT_UINT32(Mbr->Partition[j].StartingLBA) >= StartingLBA && 
 469:C:/Users/victim/source/repos/Paranyok/UEFI/Backend/gnu-efi-3.0.18/lib\misc.c ****                    EXTRACT_UINT32(Mbr->Partition[j].StartingLBA) <= EndingLBA       ) {
 470:C:/Users/victim/source/repos/Paranyok/UEFI/Backend/gnu-efi-3.0.18/lib\misc.c ****                 //
 471:C:/Users/victim/source/repos/Paranyok/UEFI/Backend/gnu-efi-3.0.18/lib\misc.c ****                 // The Start of this region overlaps with the i'th region
 472:C:/Users/victim/source/repos/Paranyok/UEFI/Backend/gnu-efi-3.0.18/lib\misc.c ****                 //
 473:C:/Users/victim/source/repos/Paranyok/UEFI/Backend/gnu-efi-3.0.18/lib\misc.c ****                 return FALSE;
 474:C:/Users/victim/source/repos/Paranyok/UEFI/Backend/gnu-efi-3.0.18/lib\misc.c ****             } 
 475:C:/Users/victim/source/repos/Paranyok/UEFI/Backend/gnu-efi-3.0.18/lib\misc.c ****             NewEndingLBA = EXTRACT_UINT32(Mbr->Partition[j].StartingLBA) + EXTRACT_UINT32(Mbr->Part
 1119              		.loc 1 475 13 is_stmt 1 view .LVU273
 1120              		.loc 1 475 26 is_stmt 0 view .LVU274
 1121 04e7 8D540AFF 		leal	-1(%rdx,%rcx), %edx
 1122              	.LVL104:
 476:C:/Users/victim/source/repos/Paranyok/UEFI/Backend/gnu-efi-3.0.18/lib\misc.c ****             if ( NewEndingLBA >= StartingLBA && NewEndingLBA <= EndingLBA ) {
 1123              		.loc 1 476 13 is_stmt 1 view .LVU275
 1124              		.loc 1 476 31 is_stmt 0 view .LVU276
 1125 04eb 4439CA   		cmpl	%r9d, %edx
 1126 04ee 0F93C1   		setnb	%cl
 1127              		.loc 1 476 62 view .LVU277
 1128 04f1 4139D3   		cmpl	%edx, %r11d
 1129 04f4 0F93C2   		setnb	%dl
 1130              	.LVL105:
 1131              		.loc 1 476 16 view .LVU278
 1132 04f7 84D1     		testb	%dl, %cl
 1133 04f9 0F85A401 		jne	.L65
 1133      0000
 1134              	.LVL106:
 1135              	.L57:
 464:C:/Users/victim/source/repos/Paranyok/UEFI/Backend/gnu-efi-3.0.18/lib\misc.c ****             if (Mbr->Partition[j].OSIndicator == 0x00 || EXTRACT_UINT32(Mbr->Partition[j].SizeInLBA
 1136              		.loc 1 464 44 is_stmt 1 discriminator 2 view .LVU279
 1137 04ff 4883C001 		addq	$1, %rax
 1138              	.LVL107:
 1139              	.L56:
 464:C:/Users/victim/source/repos/Paranyok/UEFI/Backend/gnu-efi-3.0.18/lib\misc.c ****             if (Mbr->Partition[j].OSIndicator == 0x00 || EXTRACT_UINT32(Mbr->Partition[j].SizeInLBA
 1140              		.loc 1 464 22 discriminator 1 view .LVU280
 1141 0503 4883F803 		cmpq	$3, %rax
 1142 0507 0F8FA700 		jg	.L66
 1142      0000
 465:C:/Users/victim/source/repos/Paranyok/UEFI/Backend/gnu-efi-3.0.18/lib\misc.c ****                 continue;
 1143              		.loc 1 465 13 view .LVU281
 465:C:/Users/victim/source/repos/Paranyok/UEFI/Backend/gnu-efi-3.0.18/lib\misc.c ****                 continue;
 1144              		.loc 1 465 34 is_stmt 0 view .LVU282
 1145 050d 488D501B 		leaq	27(%rax), %rdx
 1146 0511 48C1E204 		salq	$4, %rdx
 465:C:/Users/victim/source/repos/Paranyok/UEFI/Backend/gnu-efi-3.0.18/lib\misc.c ****                 continue;
 1147              		.loc 1 465 16 view .LVU283
 1148 0515 41807C10 		cmpb	$0, 18(%r8,%rdx)
 1148      1200
 1149 051b 74E2     		je	.L57
 465:C:/Users/victim/source/repos/Paranyok/UEFI/Backend/gnu-efi-3.0.18/lib\misc.c ****                 continue;
 1150              		.loc 1 465 58 discriminator 2 view .LVU284
 1151 051d 488D501B 		leaq	27(%rax), %rdx
 1152 0521 48C1E204 		salq	$4, %rdx
 1153 0525 410FB654 		movzbl	26(%r8,%rdx), %edx
 1153      101A
 1154 052b 4889C1   		movq	%rax, %rcx
 1155 052e 48C1E104 		salq	$4, %rcx
 1156 0532 4C01C1   		addq	%r8, %rcx
 1157 0535 0FB6B1CB 		movzbl	459(%rcx), %esi
 1157      010000
 1158 053c C1E608   		sall	$8, %esi
 1159 053f 09F2     		orl	%esi, %edx
 1160 0541 0FB6B1CC 		movzbl	460(%rcx), %esi
 1160      010000
 1161 0548 C1E610   		sall	$16, %esi
 1162 054b 09F2     		orl	%esi, %edx
 1163 054d 0FB689CD 		movzbl	461(%rcx), %ecx
 1163      010000
 1164 0554 C1E118   		sall	$24, %ecx
 465:C:/Users/victim/source/repos/Paranyok/UEFI/Backend/gnu-efi-3.0.18/lib\misc.c ****                 continue;
 1165              		.loc 1 465 55 discriminator 2 view .LVU285
 1166 0557 09CA     		orl	%ecx, %edx
 1167 0559 74A4     		je	.L57
 468:C:/Users/victim/source/repos/Paranyok/UEFI/Backend/gnu-efi-3.0.18/lib\misc.c ****                    EXTRACT_UINT32(Mbr->Partition[j].StartingLBA) <= EndingLBA       ) {
 1168              		.loc 1 468 13 is_stmt 1 view .LVU286
 468:C:/Users/victim/source/repos/Paranyok/UEFI/Backend/gnu-efi-3.0.18/lib\misc.c ****                    EXTRACT_UINT32(Mbr->Partition[j].StartingLBA) <= EndingLBA       ) {
 1169              		.loc 1 468 20 is_stmt 0 view .LVU287
 1170 055b 488D481B 		leaq	27(%rax), %rcx
 1171 055f 48C1E104 		salq	$4, %rcx
 1172 0563 410FB64C 		movzbl	22(%r8,%rcx), %ecx
 1172      0816
 1173 0569 4889C6   		movq	%rax, %rsi
 1174 056c 48C1E604 		salq	$4, %rsi
 1175 0570 4C01C6   		addq	%r8, %rsi
 1176 0573 0FB6BEC7 		movzbl	455(%rsi), %edi
 1176      010000
 1177 057a C1E708   		sall	$8, %edi
 1178 057d 09F9     		orl	%edi, %ecx
 1179 057f 0FB6BEC8 		movzbl	456(%rsi), %edi
 1179      010000
 1180 0586 C1E710   		sall	$16, %edi
 1181 0589 09F9     		orl	%edi, %ecx
 1182 058b 0FB6B6C9 		movzbl	457(%rsi), %esi
 1182      010000
 1183 0592 C1E618   		sall	$24, %esi
 1184 0595 09F1     		orl	%esi, %ecx
 468:C:/Users/victim/source/repos/Paranyok/UEFI/Backend/gnu-efi-3.0.18/lib\misc.c ****                    EXTRACT_UINT32(Mbr->Partition[j].StartingLBA) <= EndingLBA       ) {
 1185              		.loc 1 468 16 view .LVU288
 1186 0597 4439C9   		cmpl	%r9d, %ecx
 1187 059a 0F8247FF 		jb	.L58
 1187      FFFF
 468:C:/Users/victim/source/repos/Paranyok/UEFI/Backend/gnu-efi-3.0.18/lib\misc.c ****                    EXTRACT_UINT32(Mbr->Partition[j].StartingLBA) <= EndingLBA       ) {
 1188              		.loc 1 468 81 discriminator 1 view .LVU289
 1189 05a0 4139CB   		cmpl	%ecx, %r11d
 1190 05a3 0F823EFF 		jb	.L58
 1190      FFFF
 473:C:/Users/victim/source/repos/Paranyok/UEFI/Backend/gnu-efi-3.0.18/lib\misc.c ****             } 
 1191              		.loc 1 473 24 view .LVU290
 1192 05a9 41B90000 		movl	$0, %r9d
 1192      0000
 1193              	.LVL108:
 473:C:/Users/victim/source/repos/Paranyok/UEFI/Backend/gnu-efi-3.0.18/lib\misc.c ****             } 
 1194              		.loc 1 473 24 view .LVU291
 1195 05af E9D80000 		jmp	.L51
 1195      00
 1196              	.LVL109:
 1197              	.L66:
 439:C:/Users/victim/source/repos/Paranyok/UEFI/Backend/gnu-efi-3.0.18/lib\misc.c ****         StartingLBA = EXTRACT_UINT32(Mbr->Partition[i].StartingLBA);
 1198              		.loc 1 439 18 view .LVU292
 1199 05b4 41B90100 		movl	$1, %r9d
 1199      0000
 1200              	.LVL110:
 1201              	.L54:
 435:C:/Users/victim/source/repos/Paranyok/UEFI/Backend/gnu-efi-3.0.18/lib\misc.c ****         if ( Mbr->Partition[i].OSIndicator == 0x00 || EXTRACT_UINT32(Mbr->Partition[i].SizeInLBA) =
 1202              		.loc 1 435 38 is_stmt 1 discriminator 2 view .LVU293
 1203 05ba 4983C201 		addq	$1, %r10
 1204              	.LVL111:
 1205              	.L53:
 435:C:/Users/victim/source/repos/Paranyok/UEFI/Backend/gnu-efi-3.0.18/lib\misc.c ****         if ( Mbr->Partition[i].OSIndicator == 0x00 || EXTRACT_UINT32(Mbr->Partition[i].SizeInLBA) =
 1206              		.loc 1 435 16 discriminator 1 view .LVU294
 1207 05be 4983FA03 		cmpq	$3, %r10
 1208 05c2 0F8FC400 		jg	.L51
 1208      0000
 436:C:/Users/victim/source/repos/Paranyok/UEFI/Backend/gnu-efi-3.0.18/lib\misc.c ****             continue;
 1209              		.loc 1 436 9 view .LVU295
 436:C:/Users/victim/source/repos/Paranyok/UEFI/Backend/gnu-efi-3.0.18/lib\misc.c ****             continue;
 1210              		.loc 1 436 31 is_stmt 0 view .LVU296
 1211 05c8 498D421B 		leaq	27(%r10), %rax
 1212 05cc 48C1E004 		salq	$4, %rax
 436:C:/Users/victim/source/repos/Paranyok/UEFI/Backend/gnu-efi-3.0.18/lib\misc.c ****             continue;
 1213              		.loc 1 436 12 view .LVU297
 1214 05d0 41807C00 		cmpb	$0, 18(%r8,%rax)
 1214      1200
 1215 05d6 74E2     		je	.L54
 436:C:/Users/victim/source/repos/Paranyok/UEFI/Backend/gnu-efi-3.0.18/lib\misc.c ****             continue;
 1216              		.loc 1 436 55 discriminator 2 view .LVU298
 1217 05d8 498D421B 		leaq	27(%r10), %rax
 1218 05dc 48C1E004 		salq	$4, %rax
 1219 05e0 410FB644 		movzbl	26(%r8,%rax), %eax
 1219      001A
 1220 05e6 4C89D2   		movq	%r10, %rdx
 1221 05e9 48C1E204 		salq	$4, %rdx
 1222 05ed 4C01C2   		addq	%r8, %rdx
 1223 05f0 0FB68ACB 		movzbl	459(%rdx), %ecx
 1223      010000
 1224 05f7 C1E108   		sall	$8, %ecx
 1225 05fa 09C8     		orl	%ecx, %eax
 1226 05fc 0FB68ACC 		movzbl	460(%rdx), %ecx
 1226      010000
 1227 0603 C1E110   		sall	$16, %ecx
 1228 0606 09C8     		orl	%ecx, %eax
 1229 0608 0FB692CD 		movzbl	461(%rdx), %edx
 1229      010000
 1230 060f C1E218   		sall	$24, %edx
 436:C:/Users/victim/source/repos/Paranyok/UEFI/Backend/gnu-efi-3.0.18/lib\misc.c ****             continue;
 1231              		.loc 1 436 52 discriminator 2 view .LVU299
 1232 0612 09D0     		orl	%edx, %eax
 1233 0614 74A4     		je	.L54
 439:C:/Users/victim/source/repos/Paranyok/UEFI/Backend/gnu-efi-3.0.18/lib\misc.c ****         StartingLBA = EXTRACT_UINT32(Mbr->Partition[i].StartingLBA);
 1234              		.loc 1 439 9 is_stmt 1 view .LVU300
 1235              	.LVL112:
 440:C:/Users/victim/source/repos/Paranyok/UEFI/Backend/gnu-efi-3.0.18/lib\misc.c ****         EndingLBA = StartingLBA + EXTRACT_UINT32(Mbr->Partition[i].SizeInLBA) - 1;
 1236              		.loc 1 440 9 view .LVU301
 440:C:/Users/victim/source/repos/Paranyok/UEFI/Backend/gnu-efi-3.0.18/lib\misc.c ****         EndingLBA = StartingLBA + EXTRACT_UINT32(Mbr->Partition[i].SizeInLBA) - 1;
 1237              		.loc 1 440 23 is_stmt 0 view .LVU302
 1238 0616 498D521B 		leaq	27(%r10), %rdx
 1239 061a 48C1E204 		salq	$4, %rdx
 1240 061e 450FB64C 		movzbl	22(%r8,%rdx), %r9d
 1240      1016
 1241 0624 4C89D2   		movq	%r10, %rdx
 1242 0627 48C1E204 		salq	$4, %rdx
 1243 062b 4C01C2   		addq	%r8, %rdx
 1244 062e 0FB68AC7 		movzbl	455(%rdx), %ecx
 1244      010000
 1245 0635 C1E108   		sall	$8, %ecx
 1246 0638 4109C9   		orl	%ecx, %r9d
 1247 063b 0FB68AC8 		movzbl	456(%rdx), %ecx
 1247      010000
 1248 0642 C1E110   		sall	$16, %ecx
 1249 0645 4109C9   		orl	%ecx, %r9d
 1250 0648 0FB692C9 		movzbl	457(%rdx), %edx
 1250      010000
 1251 064f C1E218   		sall	$24, %edx
 1252 0652 4109D1   		orl	%edx, %r9d
 1253              	.LVL113:
 441:C:/Users/victim/source/repos/Paranyok/UEFI/Backend/gnu-efi-3.0.18/lib\misc.c ****         if (EndingLBA > BlkIo->Media->LastBlock) {
 1254              		.loc 1 441 9 is_stmt 1 view .LVU303
 441:C:/Users/victim/source/repos/Paranyok/UEFI/Backend/gnu-efi-3.0.18/lib\misc.c ****         if (EndingLBA > BlkIo->Media->LastBlock) {
 1255              		.loc 1 441 19 is_stmt 0 view .LVU304
 1256 0655 468D5C08 		leal	-1(%rax,%r9), %r11d
 1256      FF
 1257              	.LVL114:
 442:C:/Users/victim/source/repos/Paranyok/UEFI/Backend/gnu-efi-3.0.18/lib\misc.c ****             //
 1258              		.loc 1 442 9 is_stmt 1 view .LVU305
 442:C:/Users/victim/source/repos/Paranyok/UEFI/Backend/gnu-efi-3.0.18/lib\misc.c ****             //
 1259              		.loc 1 442 23 is_stmt 0 view .LVU306
 1260 065a 4489DA   		movl	%r11d, %edx
 442:C:/Users/victim/source/repos/Paranyok/UEFI/Backend/gnu-efi-3.0.18/lib\misc.c ****             //
 1261              		.loc 1 442 30 view .LVU307
 1262 065d 488B4308 		movq	8(%rbx), %rax
 442:C:/Users/victim/source/repos/Paranyok/UEFI/Backend/gnu-efi-3.0.18/lib\misc.c ****             //
 1263              		.loc 1 442 37 view .LVU308
 1264 0661 488B4018 		movq	24(%rax), %rax
 442:C:/Users/victim/source/repos/Paranyok/UEFI/Backend/gnu-efi-3.0.18/lib\misc.c ****             //
 1265              		.loc 1 442 12 view .LVU309
 1266 0665 4839D0   		cmpq	%rdx, %rax
 1267 0668 7313     		jnb	.L55
 452:C:/Users/victim/source/repos/Paranyok/UEFI/Backend/gnu-efi-3.0.18/lib\misc.c ****                 //
 1268              		.loc 1 452 13 is_stmt 1 view .LVU310
 452:C:/Users/victim/source/repos/Paranyok/UEFI/Backend/gnu-efi-3.0.18/lib\misc.c ****                 //
 1269              		.loc 1 452 16 is_stmt 0 view .LVU311
 1270 066a 483DFFFF 		cmpq	$524287, %rax
 1270      0700
 1271 0670 7621     		jbe	.L62
 459:C:/Users/victim/source/repos/Paranyok/UEFI/Backend/gnu-efi-3.0.18/lib\misc.c ****                 return FALSE;
 1272              		.loc 1 459 13 is_stmt 1 view .LVU312
 459:C:/Users/victim/source/repos/Paranyok/UEFI/Backend/gnu-efi-3.0.18/lib\misc.c ****                 return FALSE;
 1273              		.loc 1 459 54 is_stmt 0 view .LVU313
 1274 0672 48050000 		addq	$262144, %rax
 1274      0400
 459:C:/Users/victim/source/repos/Paranyok/UEFI/Backend/gnu-efi-3.0.18/lib\misc.c ****                 return FALSE;
 1275              		.loc 1 459 16 view .LVU314
 1276 0678 4839D0   		cmpq	%rdx, %rax
 1277 067b 721E     		jb	.L63
 1278              	.L55:
 464:C:/Users/victim/source/repos/Paranyok/UEFI/Backend/gnu-efi-3.0.18/lib\misc.c ****             if (Mbr->Partition[j].OSIndicator == 0x00 || EXTRACT_UINT32(Mbr->Partition[j].SizeInLBA
 1279              		.loc 1 464 9 is_stmt 1 view .LVU315
 464:C:/Users/victim/source/repos/Paranyok/UEFI/Backend/gnu-efi-3.0.18/lib\misc.c ****             if (Mbr->Partition[j].OSIndicator == 0x00 || EXTRACT_UINT32(Mbr->Partition[j].SizeInLBA
 1280              		.loc 1 464 15 is_stmt 0 view .LVU316
 1281 067d 498D4201 		leaq	1(%r10), %rax
 1282              	.LVL115:
 464:C:/Users/victim/source/repos/Paranyok/UEFI/Backend/gnu-efi-3.0.18/lib\misc.c ****             if (Mbr->Partition[j].OSIndicator == 0x00 || EXTRACT_UINT32(Mbr->Partition[j].SizeInLBA
 1283              		.loc 1 464 9 view .LVU317
 1284 0681 E97DFEFF 		jmp	.L56
 1284      FF
 1285              	.LVL116:
 1286              	.L61:
 431:C:/Users/victim/source/repos/Paranyok/UEFI/Backend/gnu-efi-3.0.18/lib\misc.c ****     } 
 1287              		.loc 1 431 16 view .LVU318
 1288 0686 41B90000 		movl	$0, %r9d
 1288      0000
 1289              	.LVL117:
 1290              	.L51:
 477:C:/Users/victim/source/repos/Paranyok/UEFI/Backend/gnu-efi-3.0.18/lib\misc.c ****                 //
 478:C:/Users/victim/source/repos/Paranyok/UEFI/Backend/gnu-efi-3.0.18/lib\misc.c ****                 // The End of this region overlaps with the i'th region
 479:C:/Users/victim/source/repos/Paranyok/UEFI/Backend/gnu-efi-3.0.18/lib\misc.c ****                 //
 480:C:/Users/victim/source/repos/Paranyok/UEFI/Backend/gnu-efi-3.0.18/lib\misc.c ****                 return FALSE;
 481:C:/Users/victim/source/repos/Paranyok/UEFI/Backend/gnu-efi-3.0.18/lib\misc.c ****             }
 482:C:/Users/victim/source/repos/Paranyok/UEFI/Backend/gnu-efi-3.0.18/lib\misc.c ****         }
 483:C:/Users/victim/source/repos/Paranyok/UEFI/Backend/gnu-efi-3.0.18/lib\misc.c ****     }
 484:C:/Users/victim/source/repos/Paranyok/UEFI/Backend/gnu-efi-3.0.18/lib\misc.c ****     //
 485:C:/Users/victim/source/repos/Paranyok/UEFI/Backend/gnu-efi-3.0.18/lib\misc.c ****     // Non of the regions overlapped so MBR is O.K.
 486:C:/Users/victim/source/repos/Paranyok/UEFI/Backend/gnu-efi-3.0.18/lib\misc.c ****     //
 487:C:/Users/victim/source/repos/Paranyok/UEFI/Backend/gnu-efi-3.0.18/lib\misc.c ****     return ValidMbr;
 488:C:/Users/victim/source/repos/Paranyok/UEFI/Backend/gnu-efi-3.0.18/lib\misc.c **** } 
 1291              		.loc 1 488 1 view .LVU319
 1292 068c 4489C8   		movl	%r9d, %eax
 1293 068f 5B       		popq	%rbx
 1294              		.cfi_remember_state
 1295              		.cfi_restore 3
 1296              		.cfi_def_cfa_offset 24
 1297              	.LVL118:
 1298              		.loc 1 488 1 view .LVU320
 1299 0690 5E       		popq	%rsi
 1300              		.cfi_restore 4
 1301              		.cfi_def_cfa_offset 16
 1302 0691 5F       		popq	%rdi
 1303              		.cfi_restore 5
 1304              		.cfi_def_cfa_offset 8
 1305 0692 C3       		ret
 1306              	.LVL119:
 1307              	.L62:
 1308              		.cfi_restore_state
 456:C:/Users/victim/source/repos/Paranyok/UEFI/Backend/gnu-efi-3.0.18/lib\misc.c ****             }
 1309              		.loc 1 456 24 view .LVU321
 1310 0693 41B90000 		movl	$0, %r9d
 1310      0000
 1311              	.LVL120:
 456:C:/Users/victim/source/repos/Paranyok/UEFI/Backend/gnu-efi-3.0.18/lib\misc.c ****             }
 1312              		.loc 1 456 24 view .LVU322
 1313 0699 EBF1     		jmp	.L51
 1314              	.LVL121:
 1315              	.L63:
 460:C:/Users/victim/source/repos/Paranyok/UEFI/Backend/gnu-efi-3.0.18/lib\misc.c ****             }
 1316              		.loc 1 460 24 view .LVU323
 1317 069b 41B90000 		movl	$0, %r9d
 1317      0000
 1318              	.LVL122:
 460:C:/Users/victim/source/repos/Paranyok/UEFI/Backend/gnu-efi-3.0.18/lib\misc.c ****             }
 1319              		.loc 1 460 24 view .LVU324
 1320 06a1 EBE9     		jmp	.L51
 1321              	.LVL123:
 1322              	.L65:
 480:C:/Users/victim/source/repos/Paranyok/UEFI/Backend/gnu-efi-3.0.18/lib\misc.c ****             }
 1323              		.loc 1 480 24 view .LVU325
 1324 06a3 41B90000 		movl	$0, %r9d
 1324      0000
 1325              	.LVL124:
 480:C:/Users/victim/source/repos/Paranyok/UEFI/Backend/gnu-efi-3.0.18/lib\misc.c ****             }
 1326              		.loc 1 480 24 view .LVU326
 1327 06a9 EBE1     		jmp	.L51
 1328              		.cfi_endproc
 1329              	.LFE18:
 1330              		.seh_endproc
 1331              		.globl	DecimaltoBCD
 1333              		.seh_proc	DecimaltoBCD
 1334              	DecimaltoBCD:
 1335              	.LVL125:
 1336              	.LFB19:
 489:C:/Users/victim/source/repos/Paranyok/UEFI/Backend/gnu-efi-3.0.18/lib\misc.c ****    
 490:C:/Users/victim/source/repos/Paranyok/UEFI/Backend/gnu-efi-3.0.18/lib\misc.c **** 
 491:C:/Users/victim/source/repos/Paranyok/UEFI/Backend/gnu-efi-3.0.18/lib\misc.c **** UINT8
 492:C:/Users/victim/source/repos/Paranyok/UEFI/Backend/gnu-efi-3.0.18/lib\misc.c **** DecimaltoBCD(
 493:C:/Users/victim/source/repos/Paranyok/UEFI/Backend/gnu-efi-3.0.18/lib\misc.c ****     IN  UINT8 DecValue
 494:C:/Users/victim/source/repos/Paranyok/UEFI/Backend/gnu-efi-3.0.18/lib\misc.c ****     )
 495:C:/Users/victim/source/repos/Paranyok/UEFI/Backend/gnu-efi-3.0.18/lib\misc.c **** {
 1337              		.loc 1 495 1 is_stmt 1 view -0
 1338              		.cfi_startproc
 1339              		.loc 1 495 1 is_stmt 0 view .LVU328
 1340 06ab 4883EC28 		subq	$40, %rsp
 1341              		.seh_stackalloc	40
 1342              		.cfi_def_cfa_offset 48
 1343              		.seh_endprologue
 496:C:/Users/victim/source/repos/Paranyok/UEFI/Backend/gnu-efi-3.0.18/lib\misc.c ****     return RtDecimaltoBCD (DecValue);
 1344              		.loc 1 496 5 is_stmt 1 view .LVU329
 1345              		.loc 1 496 12 is_stmt 0 view .LVU330
 1346 06af 0FB6C9   		movzbl	%cl, %ecx
 1347              		.loc 1 496 12 view .LVU331
 1348 06b2 E8000000 		call	RtDecimaltoBCD
 1348      00
 1349              	.LVL126:
 497:C:/Users/victim/source/repos/Paranyok/UEFI/Backend/gnu-efi-3.0.18/lib\misc.c **** }
 1350              		.loc 1 497 1 view .LVU332
 1351 06b7 4883C428 		addq	$40, %rsp
 1352              		.cfi_def_cfa_offset 8
 1353 06bb C3       		ret
 1354              		.cfi_endproc
 1355              	.LFE19:
 1356              		.seh_endproc
 1357              		.globl	BCDtoDecimal
 1359              		.seh_proc	BCDtoDecimal
 1360              	BCDtoDecimal:
 1361              	.LVL127:
 1362              	.LFB20:
 498:C:/Users/victim/source/repos/Paranyok/UEFI/Backend/gnu-efi-3.0.18/lib\misc.c **** 
 499:C:/Users/victim/source/repos/Paranyok/UEFI/Backend/gnu-efi-3.0.18/lib\misc.c **** 
 500:C:/Users/victim/source/repos/Paranyok/UEFI/Backend/gnu-efi-3.0.18/lib\misc.c **** UINT8
 501:C:/Users/victim/source/repos/Paranyok/UEFI/Backend/gnu-efi-3.0.18/lib\misc.c **** BCDtoDecimal(
 502:C:/Users/victim/source/repos/Paranyok/UEFI/Backend/gnu-efi-3.0.18/lib\misc.c ****     IN  UINT8 BcdValue
 503:C:/Users/victim/source/repos/Paranyok/UEFI/Backend/gnu-efi-3.0.18/lib\misc.c ****     )
 504:C:/Users/victim/source/repos/Paranyok/UEFI/Backend/gnu-efi-3.0.18/lib\misc.c **** {
 1363              		.loc 1 504 1 is_stmt 1 view -0
 1364              		.cfi_startproc
 1365              		.loc 1 504 1 is_stmt 0 view .LVU334
 1366 06bc 4883EC28 		subq	$40, %rsp
 1367              		.seh_stackalloc	40
 1368              		.cfi_def_cfa_offset 48
 1369              		.seh_endprologue
 505:C:/Users/victim/source/repos/Paranyok/UEFI/Backend/gnu-efi-3.0.18/lib\misc.c ****     return RtBCDtoDecimal (BcdValue);
 1370              		.loc 1 505 5 is_stmt 1 view .LVU335
 1371              		.loc 1 505 12 is_stmt 0 view .LVU336
 1372 06c0 0FB6C9   		movzbl	%cl, %ecx
 1373              		.loc 1 505 12 view .LVU337
 1374 06c3 E8000000 		call	RtBCDtoDecimal
 1374      00
 1375              	.LVL128:
 506:C:/Users/victim/source/repos/Paranyok/UEFI/Backend/gnu-efi-3.0.18/lib\misc.c **** }
 1376              		.loc 1 506 1 view .LVU338
 1377 06c8 4883C428 		addq	$40, %rsp
 1378              		.cfi_def_cfa_offset 8
 1379 06cc C3       		ret
 1380              		.cfi_endproc
 1381              	.LFE20:
 1382              		.seh_endproc
 1383              		.globl	LibGetSystemConfigurationTable
 1385              		.seh_proc	LibGetSystemConfigurationTable
 1386              	LibGetSystemConfigurationTable:
 1387              	.LVL129:
 1388              	.LFB21:
 507:C:/Users/victim/source/repos/Paranyok/UEFI/Backend/gnu-efi-3.0.18/lib\misc.c **** 
 508:C:/Users/victim/source/repos/Paranyok/UEFI/Backend/gnu-efi-3.0.18/lib\misc.c **** EFI_STATUS
 509:C:/Users/victim/source/repos/Paranyok/UEFI/Backend/gnu-efi-3.0.18/lib\misc.c **** LibGetSystemConfigurationTable(
 510:C:/Users/victim/source/repos/Paranyok/UEFI/Backend/gnu-efi-3.0.18/lib\misc.c ****     IN EFI_GUID *TableGuid,
 511:C:/Users/victim/source/repos/Paranyok/UEFI/Backend/gnu-efi-3.0.18/lib\misc.c ****     IN OUT VOID **Table
 512:C:/Users/victim/source/repos/Paranyok/UEFI/Backend/gnu-efi-3.0.18/lib\misc.c ****     )
 513:C:/Users/victim/source/repos/Paranyok/UEFI/Backend/gnu-efi-3.0.18/lib\misc.c **** 
 514:C:/Users/victim/source/repos/Paranyok/UEFI/Backend/gnu-efi-3.0.18/lib\misc.c **** {
 1389              		.loc 1 514 1 is_stmt 1 view -0
 1390              		.cfi_startproc
 1391              		.loc 1 514 1 is_stmt 0 view .LVU340
 1392 06cd 55       		pushq	%rbp
 1393              		.seh_pushreg	%rbp
 1394              		.cfi_def_cfa_offset 16
 1395              		.cfi_offset 6, -16
 1396 06ce 57       		pushq	%rdi
 1397              		.seh_pushreg	%rdi
 1398              		.cfi_def_cfa_offset 24
 1399              		.cfi_offset 5, -24
 1400 06cf 56       		pushq	%rsi
 1401              		.seh_pushreg	%rsi
 1402              		.cfi_def_cfa_offset 32
 1403              		.cfi_offset 4, -32
 1404 06d0 53       		pushq	%rbx
 1405              		.seh_pushreg	%rbx
 1406              		.cfi_def_cfa_offset 40
 1407              		.cfi_offset 3, -40
 1408 06d1 4883EC28 		subq	$40, %rsp
 1409              		.seh_stackalloc	40
 1410              		.cfi_def_cfa_offset 80
 1411              		.seh_endprologue
 1412 06d5 4889CD   		movq	%rcx, %rbp
 1413 06d8 4889D7   		movq	%rdx, %rdi
 515:C:/Users/victim/source/repos/Paranyok/UEFI/Backend/gnu-efi-3.0.18/lib\misc.c ****     UINTN Index;
 1414              		.loc 1 515 5 is_stmt 1 view .LVU341
 516:C:/Users/victim/source/repos/Paranyok/UEFI/Backend/gnu-efi-3.0.18/lib\misc.c **** 
 517:C:/Users/victim/source/repos/Paranyok/UEFI/Backend/gnu-efi-3.0.18/lib\misc.c ****     for(Index=0;Index<ST->NumberOfTableEntries;Index++) {
 1415              		.loc 1 517 5 view .LVU342
 1416              	.LVL130:
 1417              		.loc 1 517 14 is_stmt 0 view .LVU343
 1418 06db BB000000 		movl	$0, %ebx
 1418      00
 1419              		.loc 1 517 5 view .LVU344
 1420 06e0 EB04     		jmp	.L70
 1421              	.LVL131:
 1422              	.L71:
 1423              		.loc 1 517 53 is_stmt 1 discriminator 2 view .LVU345
 1424 06e2 4883C301 		addq	$1, %rbx
 1425              	.LVL132:
 1426              	.L70:
 1427              		.loc 1 517 22 discriminator 1 view .LVU346
 1428              		.loc 1 517 25 is_stmt 0 discriminator 1 view .LVU347
 1429 06e6 488B0500 		movq	.refptr.ST(%rip), %rax
 1429      000000
 1430 06ed 488B00   		movq	(%rax), %rax
 1431              		.loc 1 517 22 discriminator 1 view .LVU348
 1432 06f0 483B5868 		cmpq	104(%rax), %rbx
 1433 06f4 7338     		jnb	.L74
 518:C:/Users/victim/source/repos/Paranyok/UEFI/Backend/gnu-efi-3.0.18/lib\misc.c ****         if (CompareGuid(TableGuid,&(ST->ConfigurationTable[Index].VendorGuid))==0) {
 1434              		.loc 1 518 9 is_stmt 1 view .LVU349
 1435              		.loc 1 518 59 is_stmt 0 view .LVU350
 1436 06f6 488D345B 		leaq	(%rbx,%rbx,2), %rsi
 1437 06fa 48C1E603 		salq	$3, %rsi
 1438 06fe 4889F2   		movq	%rsi, %rdx
 1439 0701 48035070 		addq	112(%rax), %rdx
 1440              		.loc 1 518 13 view .LVU351
 1441 0705 4889E9   		movq	%rbp, %rcx
 1442 0708 E8000000 		call	CompareGuid
 1442      00
 1443              	.LVL133:
 1444              		.loc 1 518 12 discriminator 1 view .LVU352
 1445 070d 4885C0   		testq	%rax, %rax
 1446 0710 75D0     		jne	.L71
 519:C:/Users/victim/source/repos/Paranyok/UEFI/Backend/gnu-efi-3.0.18/lib\misc.c ****             *Table = ST->ConfigurationTable[Index].VendorTable;
 1447              		.loc 1 519 13 is_stmt 1 view .LVU353
 1448              		.loc 1 519 24 is_stmt 0 view .LVU354
 1449 0712 488B0500 		movq	.refptr.ST(%rip), %rax
 1449      000000
 1450 0719 488B00   		movq	(%rax), %rax
 1451              		.loc 1 519 44 view .LVU355
 1452 071c 48037070 		addq	112(%rax), %rsi
 1453              		.loc 1 519 51 view .LVU356
 1454 0720 488B4610 		movq	16(%rsi), %rax
 1455              		.loc 1 519 20 view .LVU357
 1456 0724 488907   		movq	%rax, (%rdi)
 520:C:/Users/victim/source/repos/Paranyok/UEFI/Backend/gnu-efi-3.0.18/lib\misc.c ****             return EFI_SUCCESS;
 1457              		.loc 1 520 13 is_stmt 1 view .LVU358
 1458              		.loc 1 520 20 is_stmt 0 view .LVU359
 1459 0727 B8000000 		movl	$0, %eax
 1459      00
 1460 072c EB0A     		jmp	.L69
 1461              	.L74:
 521:C:/Users/victim/source/repos/Paranyok/UEFI/Backend/gnu-efi-3.0.18/lib\misc.c ****         }
 522:C:/Users/victim/source/repos/Paranyok/UEFI/Backend/gnu-efi-3.0.18/lib\misc.c ****     }
 523:C:/Users/victim/source/repos/Paranyok/UEFI/Backend/gnu-efi-3.0.18/lib\misc.c ****     return EFI_NOT_FOUND;
 1462              		.loc 1 523 12 view .LVU360
 1463 072e 48B80E00 		movabsq	$-9223372036854775794, %rax
 1463      00000000 
 1463      0080
 1464              	.L69:
 524:C:/Users/victim/source/repos/Paranyok/UEFI/Backend/gnu-efi-3.0.18/lib\misc.c **** }
 1465              		.loc 1 524 1 view .LVU361
 1466 0738 4883C428 		addq	$40, %rsp
 1467              		.cfi_def_cfa_offset 40
 1468 073c 5B       		popq	%rbx
 1469              		.cfi_restore 3
 1470              		.cfi_def_cfa_offset 32
 1471              	.LVL134:
 1472              		.loc 1 524 1 view .LVU362
 1473 073d 5E       		popq	%rsi
 1474              		.cfi_restore 4
 1475              		.cfi_def_cfa_offset 24
 1476 073e 5F       		popq	%rdi
 1477              		.cfi_restore 5
 1478              		.cfi_def_cfa_offset 16
 1479              	.LVL135:
 1480              		.loc 1 524 1 view .LVU363
 1481 073f 5D       		popq	%rbp
 1482              		.cfi_restore 6
 1483              		.cfi_def_cfa_offset 8
 1484              	.LVL136:
 1485              		.loc 1 524 1 view .LVU364
 1486 0740 C3       		ret
 1487              		.cfi_endproc
 1488              	.LFE21:
 1489              		.seh_endproc
 1490              		.globl	LibGetUiString
 1492              		.seh_proc	LibGetUiString
 1493              	LibGetUiString:
 1494              	.LVL137:
 1495              	.LFB22:
 525:C:/Users/victim/source/repos/Paranyok/UEFI/Backend/gnu-efi-3.0.18/lib\misc.c **** 
 526:C:/Users/victim/source/repos/Paranyok/UEFI/Backend/gnu-efi-3.0.18/lib\misc.c **** 
 527:C:/Users/victim/source/repos/Paranyok/UEFI/Backend/gnu-efi-3.0.18/lib\misc.c **** CHAR16 *
 528:C:/Users/victim/source/repos/Paranyok/UEFI/Backend/gnu-efi-3.0.18/lib\misc.c **** LibGetUiString (
 529:C:/Users/victim/source/repos/Paranyok/UEFI/Backend/gnu-efi-3.0.18/lib\misc.c ****     IN  EFI_HANDLE      Handle,
 530:C:/Users/victim/source/repos/Paranyok/UEFI/Backend/gnu-efi-3.0.18/lib\misc.c ****     IN  UI_STRING_TYPE  StringType,
 531:C:/Users/victim/source/repos/Paranyok/UEFI/Backend/gnu-efi-3.0.18/lib\misc.c ****     IN  ISO_639_2       *LangCode,
 532:C:/Users/victim/source/repos/Paranyok/UEFI/Backend/gnu-efi-3.0.18/lib\misc.c ****     IN  BOOLEAN         ReturnDevicePathStrOnMismatch
 533:C:/Users/victim/source/repos/Paranyok/UEFI/Backend/gnu-efi-3.0.18/lib\misc.c ****     )
 534:C:/Users/victim/source/repos/Paranyok/UEFI/Backend/gnu-efi-3.0.18/lib\misc.c **** {
 1496              		.loc 1 534 1 is_stmt 1 view -0
 1497              		.cfi_startproc
 1498              		.loc 1 534 1 is_stmt 0 view .LVU366
 1499 0741 4154     		pushq	%r12
 1500              		.seh_pushreg	%r12
 1501              		.cfi_def_cfa_offset 16
 1502              		.cfi_offset 12, -16
 1503 0743 55       		pushq	%rbp
 1504              		.seh_pushreg	%rbp
 1505              		.cfi_def_cfa_offset 24
 1506              		.cfi_offset 6, -24
 1507 0744 57       		pushq	%rdi
 1508              		.seh_pushreg	%rdi
 1509              		.cfi_def_cfa_offset 32
 1510              		.cfi_offset 5, -32
 1511 0745 56       		pushq	%rsi
 1512              		.seh_pushreg	%rsi
 1513              		.cfi_def_cfa_offset 40
 1514              		.cfi_offset 4, -40
 1515 0746 53       		pushq	%rbx
 1516              		.seh_pushreg	%rbx
 1517              		.cfi_def_cfa_offset 48
 1518              		.cfi_offset 3, -48
 1519 0747 4883EC30 		subq	$48, %rsp
 1520              		.seh_stackalloc	48
 1521              		.cfi_def_cfa_offset 96
 1522              		.seh_endprologue
 1523 074b 4889CD   		movq	%rcx, %rbp
 1524 074e 89D6     		movl	%edx, %esi
 1525 0750 4C89C7   		movq	%r8, %rdi
 1526 0753 4589CC   		movl	%r9d, %r12d
 535:C:/Users/victim/source/repos/Paranyok/UEFI/Backend/gnu-efi-3.0.18/lib\misc.c ****     UI_INTERFACE    *Ui;
 1527              		.loc 1 535 5 is_stmt 1 view .LVU367
 536:C:/Users/victim/source/repos/Paranyok/UEFI/Backend/gnu-efi-3.0.18/lib\misc.c ****     UI_STRING_TYPE  Index;
 1528              		.loc 1 536 5 view .LVU368
 537:C:/Users/victim/source/repos/Paranyok/UEFI/Backend/gnu-efi-3.0.18/lib\misc.c ****     UI_STRING_ENTRY *Array;
 1529              		.loc 1 537 5 view .LVU369
 538:C:/Users/victim/source/repos/Paranyok/UEFI/Backend/gnu-efi-3.0.18/lib\misc.c ****     EFI_STATUS      Status;
 1530              		.loc 1 538 5 view .LVU370
 539:C:/Users/victim/source/repos/Paranyok/UEFI/Backend/gnu-efi-3.0.18/lib\misc.c ****     
 540:C:/Users/victim/source/repos/Paranyok/UEFI/Backend/gnu-efi-3.0.18/lib\misc.c ****     Status = uefi_call_wrapper(BS->HandleProtocol, 3, Handle, &UiProtocol, (VOID *)&Ui);
 1531              		.loc 1 540 5 view .LVU371
 1532              		.loc 1 540 14 is_stmt 0 view .LVU372
 1533 0756 488B0500 		movq	.refptr.BS(%rip), %rax
 1533      000000
 1534 075d 488B00   		movq	(%rax), %rax
 1535 0760 4C8D4424 		leaq	40(%rsp), %r8
 1535      28
 1536              	.LVL138:
 1537              		.loc 1 540 14 view .LVU373
 1538 0765 488B1500 		movq	.refptr.gEFiUiInterfaceProtocolGuid(%rip), %rdx
 1538      000000
 1539              	.LVL139:
 1540              		.loc 1 540 14 view .LVU374
 1541 076c FF909800 		call	*152(%rax)
 1541      0000
 1542              	.LVL140:
 541:C:/Users/victim/source/repos/Paranyok/UEFI/Backend/gnu-efi-3.0.18/lib\misc.c ****     if (EFI_ERROR(Status)) {
 1543              		.loc 1 541 5 is_stmt 1 view .LVU375
 1544              		.loc 1 541 8 is_stmt 0 view .LVU376
 1545 0772 4885C0   		testq	%rax, %rax
 1546 0775 7810     		js	.L85
 542:C:/Users/victim/source/repos/Paranyok/UEFI/Backend/gnu-efi-3.0.18/lib\misc.c ****         return (ReturnDevicePathStrOnMismatch) ? DevicePathToStr(DevicePathFromHandle(Handle)) : NU
 543:C:/Users/victim/source/repos/Paranyok/UEFI/Backend/gnu-efi-3.0.18/lib\misc.c ****     }
 544:C:/Users/victim/source/repos/Paranyok/UEFI/Backend/gnu-efi-3.0.18/lib\misc.c **** 
 545:C:/Users/victim/source/repos/Paranyok/UEFI/Backend/gnu-efi-3.0.18/lib\misc.c ****     //
 546:C:/Users/victim/source/repos/Paranyok/UEFI/Backend/gnu-efi-3.0.18/lib\misc.c ****     // Skip the first strings
 547:C:/Users/victim/source/repos/Paranyok/UEFI/Backend/gnu-efi-3.0.18/lib\misc.c ****     //
 548:C:/Users/victim/source/repos/Paranyok/UEFI/Backend/gnu-efi-3.0.18/lib\misc.c ****     for (Index = UiDeviceString, Array = Ui->Entry; Index < StringType; Index++, Array++) {
 1547              		.loc 1 548 5 is_stmt 1 view .LVU377
 1548              	.LVL141:
 1549              		.loc 1 548 44 is_stmt 0 view .LVU378
 1550 0777 488B4424 		movq	40(%rsp), %rax
 1550      28
 1551              	.LVL142:
 1552              		.loc 1 548 40 view .LVU379
 1553 077c 488B5808 		movq	8(%rax), %rbx
 1554              	.LVL143:
 1555              		.loc 1 548 16 view .LVU380
 1556 0780 B8000000 		movl	$0, %eax
 1556      00
 1557              		.loc 1 548 5 view .LVU381
 1558 0785 EB3A     		jmp	.L79
 1559              	.LVL144:
 1560              	.L85:
 542:C:/Users/victim/source/repos/Paranyok/UEFI/Backend/gnu-efi-3.0.18/lib\misc.c ****         return (ReturnDevicePathStrOnMismatch) ? DevicePathToStr(DevicePathFromHandle(Handle)) : NU
 1561              		.loc 1 542 9 is_stmt 1 view .LVU382
 542:C:/Users/victim/source/repos/Paranyok/UEFI/Backend/gnu-efi-3.0.18/lib\misc.c ****         return (ReturnDevicePathStrOnMismatch) ? DevicePathToStr(DevicePathFromHandle(Handle)) : NU
 1562              		.loc 1 542 96 is_stmt 0 view .LVU383
 1563 0787 4584E4   		testb	%r12b, %r12b
 1564 078a 7507     		jne	.L86
 542:C:/Users/victim/source/repos/Paranyok/UEFI/Backend/gnu-efi-3.0.18/lib\misc.c ****         return (ReturnDevicePathStrOnMismatch) ? DevicePathToStr(DevicePathFromHandle(Handle)) : NU
 1565              		.loc 1 542 96 discriminator 2 view .LVU384
 1566 078c B9000000 		movl	$0, %ecx
 1566      00
 542:C:/Users/victim/source/repos/Paranyok/UEFI/Backend/gnu-efi-3.0.18/lib\misc.c ****         return (ReturnDevicePathStrOnMismatch) ? DevicePathToStr(DevicePathFromHandle(Handle)) : NU
 1567              		.loc 1 542 96 view .LVU385
 1568 0791 EB4B     		jmp	.L75
 1569              	.L86:
 542:C:/Users/victim/source/repos/Paranyok/UEFI/Backend/gnu-efi-3.0.18/lib\misc.c ****         return (ReturnDevicePathStrOnMismatch) ? DevicePathToStr(DevicePathFromHandle(Handle)) : NU
 1570              		.loc 1 542 50 discriminator 1 view .LVU386
 1571 0793 4889E9   		movq	%rbp, %rcx
 1572 0796 E8000000 		call	DevicePathFromHandle
 1572      00
 1573              	.LVL145:
 542:C:/Users/victim/source/repos/Paranyok/UEFI/Backend/gnu-efi-3.0.18/lib\misc.c ****         return (ReturnDevicePathStrOnMismatch) ? DevicePathToStr(DevicePathFromHandle(Handle)) : NU
 1574              		.loc 1 542 50 discriminator 1 view .LVU387
 1575 079b 4889C1   		movq	%rax, %rcx
 1576 079e E8000000 		call	DevicePathToStr
 1576      00
 1577              	.LVL146:
 1578 07a3 4889C1   		movq	%rax, %rcx
 1579 07a6 EB36     		jmp	.L75
 1580              	.LVL147:
 542:C:/Users/victim/source/repos/Paranyok/UEFI/Backend/gnu-efi-3.0.18/lib\misc.c ****         return (ReturnDevicePathStrOnMismatch) ? DevicePathToStr(DevicePathFromHandle(Handle)) : NU
 1581              		.loc 1 542 50 discriminator 1 view .LVU388
 1582 07a8 0F1F8400 		.p2align 4
 1582      00000000 
 1583              	.L80:
 549:C:/Users/victim/source/repos/Paranyok/UEFI/Backend/gnu-efi-3.0.18/lib\misc.c ****         while (Array->LangCode) {
 550:C:/Users/victim/source/repos/Paranyok/UEFI/Backend/gnu-efi-3.0.18/lib\misc.c ****             Array++;
 1584              		.loc 1 550 13 is_stmt 1 view .LVU389
 1585              		.loc 1 550 18 is_stmt 0 view .LVU390
 1586 07b0 4883C310 		addq	$16, %rbx
 1587              	.LVL148:
 1588              	.L81:
 549:C:/Users/victim/source/repos/Paranyok/UEFI/Backend/gnu-efi-3.0.18/lib\misc.c ****         while (Array->LangCode) {
 1589              		.loc 1 549 16 is_stmt 1 view .LVU391
 1590 07b4 48833B00 		cmpq	$0, (%rbx)
 1591 07b8 75F6     		jne	.L80
 548:C:/Users/victim/source/repos/Paranyok/UEFI/Backend/gnu-efi-3.0.18/lib\misc.c ****         while (Array->LangCode) {
 1592              		.loc 1 548 80 discriminator 2 view .LVU392
 548:C:/Users/victim/source/repos/Paranyok/UEFI/Backend/gnu-efi-3.0.18/lib\misc.c ****         while (Array->LangCode) {
 1593              		.loc 1 548 78 is_stmt 0 discriminator 2 view .LVU393
 1594 07ba 83C001   		addl	$1, %eax
 1595              	.LVL149:
 548:C:/Users/victim/source/repos/Paranyok/UEFI/Backend/gnu-efi-3.0.18/lib\misc.c ****         while (Array->LangCode) {
 1596              		.loc 1 548 87 discriminator 2 view .LVU394
 1597 07bd 4883C310 		addq	$16, %rbx
 1598              	.LVL150:
 1599              	.L79:
 548:C:/Users/victim/source/repos/Paranyok/UEFI/Backend/gnu-efi-3.0.18/lib\misc.c ****         while (Array->LangCode) {
 1600              		.loc 1 548 59 is_stmt 1 discriminator 1 view .LVU395
 1601 07c1 39F0     		cmpl	%esi, %eax
 1602 07c3 72EF     		jb	.L81
 1603              	.LVL151:
 1604              	.L82:
 551:C:/Users/victim/source/repos/Paranyok/UEFI/Backend/gnu-efi-3.0.18/lib\misc.c ****         }
 552:C:/Users/victim/source/repos/Paranyok/UEFI/Backend/gnu-efi-3.0.18/lib\misc.c ****     }
 553:C:/Users/victim/source/repos/Paranyok/UEFI/Backend/gnu-efi-3.0.18/lib\misc.c **** 
 554:C:/Users/victim/source/repos/Paranyok/UEFI/Backend/gnu-efi-3.0.18/lib\misc.c ****     //
 555:C:/Users/victim/source/repos/Paranyok/UEFI/Backend/gnu-efi-3.0.18/lib\misc.c ****     // Search for the match
 556:C:/Users/victim/source/repos/Paranyok/UEFI/Backend/gnu-efi-3.0.18/lib\misc.c ****     //
 557:C:/Users/victim/source/repos/Paranyok/UEFI/Backend/gnu-efi-3.0.18/lib\misc.c ****     while (Array->LangCode) {
 1605              		.loc 1 557 12 view .LVU396
 1606              		.loc 1 557 17 is_stmt 0 view .LVU397
 1607 07c5 488B0B   		movq	(%rbx), %rcx
 1608              		.loc 1 557 12 view .LVU398
 1609 07c8 4885C9   		testq	%rcx, %rcx
 1610 07cb 741F     		je	.L87
 558:C:/Users/victim/source/repos/Paranyok/UEFI/Backend/gnu-efi-3.0.18/lib\misc.c ****         if (strcmpa (Array->LangCode, LangCode) == 0) {
 1611              		.loc 1 558 9 is_stmt 1 view .LVU399
 1612              		.loc 1 558 13 is_stmt 0 view .LVU400
 1613 07cd 4889FA   		movq	%rdi, %rdx
 1614 07d0 E8000000 		call	strcmpa
 1614      00
 1615              	.LVL152:
 1616              		.loc 1 558 12 discriminator 1 view .LVU401
 1617 07d5 4885C0   		testq	%rax, %rax
 1618 07d8 75EB     		jne	.L82
 559:C:/Users/victim/source/repos/Paranyok/UEFI/Backend/gnu-efi-3.0.18/lib\misc.c ****             return Array->UiString; 
 1619              		.loc 1 559 13 is_stmt 1 view .LVU402
 1620              		.loc 1 559 25 is_stmt 0 view .LVU403
 1621 07da 488B4B08 		movq	8(%rbx), %rcx
 1622              	.LVL153:
 1623              	.L75:
 560:C:/Users/victim/source/repos/Paranyok/UEFI/Backend/gnu-efi-3.0.18/lib\misc.c ****         }
 561:C:/Users/victim/source/repos/Paranyok/UEFI/Backend/gnu-efi-3.0.18/lib\misc.c ****     }
 562:C:/Users/victim/source/repos/Paranyok/UEFI/Backend/gnu-efi-3.0.18/lib\misc.c ****     return (ReturnDevicePathStrOnMismatch) ? DevicePathToStr(DevicePathFromHandle(Handle)) : NULL;
 563:C:/Users/victim/source/repos/Paranyok/UEFI/Backend/gnu-efi-3.0.18/lib\misc.c **** }
 1624              		.loc 1 563 1 view .LVU404
 1625 07de 4889C8   		movq	%rcx, %rax
 1626 07e1 4883C430 		addq	$48, %rsp
 1627              		.cfi_remember_state
 1628              		.cfi_def_cfa_offset 48
 1629 07e5 5B       		popq	%rbx
 1630              		.cfi_restore 3
 1631              		.cfi_def_cfa_offset 40
 1632 07e6 5E       		popq	%rsi
 1633              		.cfi_restore 4
 1634              		.cfi_def_cfa_offset 32
 1635              	.LVL154:
 1636              		.loc 1 563 1 view .LVU405
 1637 07e7 5F       		popq	%rdi
 1638              		.cfi_restore 5
 1639              		.cfi_def_cfa_offset 24
 1640              	.LVL155:
 1641              		.loc 1 563 1 view .LVU406
 1642 07e8 5D       		popq	%rbp
 1643              		.cfi_restore 6
 1644              		.cfi_def_cfa_offset 16
 1645              	.LVL156:
 1646              		.loc 1 563 1 view .LVU407
 1647 07e9 415C     		popq	%r12
 1648              		.cfi_restore 12
 1649              		.cfi_def_cfa_offset 8
 1650              	.LVL157:
 1651              		.loc 1 563 1 view .LVU408
 1652 07eb C3       		ret
 1653              	.LVL158:
 1654              	.L87:
 1655              		.cfi_restore_state
 562:C:/Users/victim/source/repos/Paranyok/UEFI/Backend/gnu-efi-3.0.18/lib\misc.c **** }
 1656              		.loc 1 562 5 is_stmt 1 view .LVU409
 562:C:/Users/victim/source/repos/Paranyok/UEFI/Backend/gnu-efi-3.0.18/lib\misc.c **** }
 1657              		.loc 1 562 92 is_stmt 0 view .LVU410
 1658 07ec 4584E4   		testb	%r12b, %r12b
 1659 07ef 74ED     		je	.L75
 562:C:/Users/victim/source/repos/Paranyok/UEFI/Backend/gnu-efi-3.0.18/lib\misc.c **** }
 1660              		.loc 1 562 46 discriminator 1 view .LVU411
 1661 07f1 4889E9   		movq	%rbp, %rcx
 1662 07f4 E8000000 		call	DevicePathFromHandle
 1662      00
 1663              	.LVL159:
 1664 07f9 4889C1   		movq	%rax, %rcx
 1665 07fc E8000000 		call	DevicePathToStr
 1665      00
 1666              	.LVL160:
 1667 0801 4889C1   		movq	%rax, %rcx
 1668 0804 EBD8     		jmp	.L75
 1669              		.cfi_endproc
 1670              	.LFE22:
 1671              		.seh_endproc
 1672              	.Letext0:
 1673              		.file 2 "C:/Users/victim/source/repos/Paranyok/UEFI/Backend/mingw64/lib/gcc/x86_64-w64-mingw32/14.
 1674              		.file 3 "C:/Users/victim/source/repos/Paranyok/UEFI/Backend/mingw64/include/corecrt.h"
 1675              		.file 4 "gnu-efi-3.0.18/inc/x86_64/efibind.h"
 1676              		.file 5 "gnu-efi-3.0.18/inc/efidef.h"
 1677              		.file 6 "gnu-efi-3.0.18/inc/efidevp.h"
 1678              		.file 7 "gnu-efi-3.0.18/inc/efiprot.h"
 1679              		.file 8 "gnu-efi-3.0.18/inc/efiapi.h"
 1680              		.file 9 "gnu-efi-3.0.18/inc/eficon.h"
 1681              		.file 10 "gnu-efi-3.0.18/inc/efiui.h"
 1682              		.file 11 "gnu-efi-3.0.18/inc/efipart.h"
 1683              		.file 12 "gnu-efi-3.0.18/inc/efilib.h"
 1684              		.file 13 "gnu-efi-3.0.18/inc/efirtlib.h"
 1685 0806 90909090 		.section	.debug_info,"dr"
 1685      90909090 
 1685      90909090 
 1685      90909090 
 1685      90909090 
 1686              	.Ldebug_info0:
 1687 0000 183C0000 		.long	0x3c18
 1688 0004 0500     		.word	0x5
 1689 0006 01       		.byte	0x1
 1690 0007 08       		.byte	0x8
 1691 0008 00000000 		.secrel32	.Ldebug_abbrev0
 1692 000c 30       		.uleb128 0x30
 1693 000d 474E5520 		.ascii "GNU C11 14.2.0 -mno-stack-arg-probe -m64 -mno-red-zone -maccumulate-outgoing-args -mtune=g
 1693      43313120 
 1693      31342E32 
 1693      2E30202D 
 1693      6D6E6F2D 
 1694 0111 1D       		.byte	0x1d
 1695 0112 33000000 		.secrel32	.LASF0
 1696 0116 00000000 		.secrel32	.LASF1
 1697 011a 00000000 		.quad	.Ltext0
 1697      00000000 
 1698 0122 06080000 		.quad	.Letext0-.Ltext0
 1698      00000000 
 1699 012a 00000000 		.secrel32	.Ldebug_line0
 1700 012e 00000000 		.secrel32	.Ldebug_macro0
 1701 0132 0E       		.uleb128 0xe
 1702 0133 01       		.byte	0x1
 1703 0134 06       		.byte	0x6
 1704 0135 7369676E 		.ascii "signed char\0"
 1704      65642063 
 1704      68617200 
 1705 0141 03       		.uleb128 0x3
 1706 0142 696E7431 		.ascii "int16_t\0"
 1706      365F7400 
 1707 014a 02       		.byte	0x2
 1708 014b 25       		.byte	0x25
 1709 014c 18       		.byte	0x18
 1710 014d 51010000 		.long	0x151
 1711 0151 0E       		.uleb128 0xe
 1712 0152 02       		.byte	0x2
 1713 0153 05       		.byte	0x5
 1714 0154 73686F72 		.ascii "short int\0"
 1714      7420696E 
 1714      7400
 1715 015e 03       		.uleb128 0x3
 1716 015f 696E7433 		.ascii "int32_t\0"
 1716      325F7400 
 1717 0167 02       		.byte	0x2
 1718 0168 28       		.byte	0x28
 1719 0169 18       		.byte	0x18
 1720 016a 6E010000 		.long	0x16e
 1721 016e 0E       		.uleb128 0xe
 1722 016f 04       		.byte	0x4
 1723 0170 05       		.byte	0x5
 1724 0171 696E7400 		.ascii "int\0"
 1725 0175 03       		.uleb128 0x3
 1726 0176 696E7436 		.ascii "int64_t\0"
 1726      345F7400 
 1727 017e 02       		.byte	0x2
 1728 017f 2B       		.byte	0x2b
 1729 0180 18       		.byte	0x18
 1730 0181 85010000 		.long	0x185
 1731 0185 0E       		.uleb128 0xe
 1732 0186 08       		.byte	0x8
 1733 0187 05       		.byte	0x5
 1734 0188 6C6F6E67 		.ascii "long long int\0"
 1734      206C6F6E 
 1734      6720696E 
 1734      7400
 1735 0196 03       		.uleb128 0x3
 1736 0197 75696E74 		.ascii "uint8_t\0"
 1736      385F7400 
 1737 019f 02       		.byte	0x2
 1738 01a0 2E       		.byte	0x2e
 1739 01a1 18       		.byte	0x18
 1740 01a2 A6010000 		.long	0x1a6
 1741 01a6 0E       		.uleb128 0xe
 1742 01a7 01       		.byte	0x1
 1743 01a8 08       		.byte	0x8
 1744 01a9 756E7369 		.ascii "unsigned char\0"
 1744      676E6564 
 1744      20636861 
 1744      7200
 1745 01b7 03       		.uleb128 0x3
 1746 01b8 75696E74 		.ascii "uint16_t\0"
 1746      31365F74 
 1746      00
 1747 01c1 02       		.byte	0x2
 1748 01c2 31       		.byte	0x31
 1749 01c3 19       		.byte	0x19
 1750 01c4 C8010000 		.long	0x1c8
 1751 01c8 0E       		.uleb128 0xe
 1752 01c9 02       		.byte	0x2
 1753 01ca 07       		.byte	0x7
 1754 01cb 73686F72 		.ascii "short unsigned int\0"
 1754      7420756E 
 1754      7369676E 
 1754      65642069 
 1754      6E7400
 1755 01de 03       		.uleb128 0x3
 1756 01df 75696E74 		.ascii "uint32_t\0"
 1756      33325F74 
 1756      00
 1757 01e8 02       		.byte	0x2
 1758 01e9 34       		.byte	0x34
 1759 01ea 19       		.byte	0x19
 1760 01eb EF010000 		.long	0x1ef
 1761 01ef 0E       		.uleb128 0xe
 1762 01f0 04       		.byte	0x4
 1763 01f1 07       		.byte	0x7
 1764 01f2 756E7369 		.ascii "unsigned int\0"
 1764      676E6564 
 1764      20696E74 
 1764      00
 1765 01ff 03       		.uleb128 0x3
 1766 0200 75696E74 		.ascii "uint64_t\0"
 1766      36345F74 
 1766      00
 1767 0209 02       		.byte	0x2
 1768 020a 37       		.byte	0x37
 1769 020b 19       		.byte	0x19
 1770 020c 10020000 		.long	0x210
 1771 0210 0E       		.uleb128 0xe
 1772 0211 08       		.byte	0x8
 1773 0212 07       		.byte	0x7
 1774 0213 6C6F6E67 		.ascii "long long unsigned int\0"
 1774      206C6F6E 
 1774      6720756E 
 1774      7369676E 
 1774      65642069 
 1775 022a 0E       		.uleb128 0xe
 1776 022b 01       		.byte	0x1
 1777 022c 06       		.byte	0x6
 1778 022d 63686172 		.ascii "char\0"
 1778      00
 1779 0232 03       		.uleb128 0x3
 1780 0233 77636861 		.ascii "wchar_t\0"
 1780      725F7400 
 1781 023b 03       		.byte	0x3
 1782 023c 62       		.byte	0x62
 1783 023d 18       		.byte	0x18
 1784 023e C8010000 		.long	0x1c8
 1785 0242 0E       		.uleb128 0xe
 1786 0243 04       		.byte	0x4
 1787 0244 05       		.byte	0x5
 1788 0245 6C6F6E67 		.ascii "long int\0"
 1788      20696E74 
 1788      00
 1789 024e 0E       		.uleb128 0xe
 1790 024f 04       		.byte	0x4
 1791 0250 07       		.byte	0x7
 1792 0251 6C6F6E67 		.ascii "long unsigned int\0"
 1792      20756E73 
 1792      69676E65 
 1792      6420696E 
 1792      7400
 1793 0263 0E       		.uleb128 0xe
 1794 0264 10       		.byte	0x10
 1795 0265 04       		.byte	0x4
 1796 0266 6C6F6E67 		.ascii "long double\0"
 1796      20646F75 
 1796      626C6500 
 1797 0272 03       		.uleb128 0x3
 1798 0273 43484152 		.ascii "CHAR16\0"
 1798      313600
 1799 027a 04       		.byte	0x4
 1800 027b 65       		.byte	0x65
 1801 027c 11       		.byte	0x11
 1802 027d 32020000 		.long	0x232
 1803 0281 03       		.uleb128 0x3
 1804 0282 55494E54 		.ascii "UINT64\0"
 1804      363400
 1805 0289 04       		.byte	0x4
 1806 028a 68       		.byte	0x68
 1807 028b 14       		.byte	0x14
 1808 028c FF010000 		.long	0x1ff
 1809 0290 03       		.uleb128 0x3
 1810 0291 55494E54 		.ascii "UINT32\0"
 1810      333200
 1811 0298 04       		.byte	0x4
 1812 0299 6C       		.byte	0x6c
 1813 029a 18       		.byte	0x18
 1814 029b DE010000 		.long	0x1de
 1815 029f 03       		.uleb128 0x3
 1816 02a0 494E5433 		.ascii "INT32\0"
 1816      3200
 1817 02a6 04       		.byte	0x4
 1818 02a7 6D       		.byte	0x6d
 1819 02a8 18       		.byte	0x18
 1820 02a9 5E010000 		.long	0x15e
 1821 02ad 03       		.uleb128 0x3
 1822 02ae 55494E54 		.ascii "UINT16\0"
 1822      313600
 1823 02b5 04       		.byte	0x4
 1824 02b6 70       		.byte	0x70
 1825 02b7 14       		.byte	0x14
 1826 02b8 B7010000 		.long	0x1b7
 1827 02bc 03       		.uleb128 0x3
 1828 02bd 494E5431 		.ascii "INT16\0"
 1828      3600
 1829 02c3 04       		.byte	0x4
 1830 02c4 71       		.byte	0x71
 1831 02c5 14       		.byte	0x14
 1832 02c6 41010000 		.long	0x141
 1833 02ca 03       		.uleb128 0x3
 1834 02cb 55494E54 		.ascii "UINT8\0"
 1834      3800
 1835 02d1 04       		.byte	0x4
 1836 02d2 73       		.byte	0x73
 1837 02d3 14       		.byte	0x14
 1838 02d4 96010000 		.long	0x196
 1839 02d8 03       		.uleb128 0x3
 1840 02d9 43484152 		.ascii "CHAR8\0"
 1840      3800
 1841 02df 04       		.byte	0x4
 1842 02e0 74       		.byte	0x74
 1843 02e1 14       		.byte	0x14
 1844 02e2 2A020000 		.long	0x22a
 1845 02e6 26       		.uleb128 0x26
 1846 02e7 D8020000 		.long	0x2d8
 1847 02eb 31       		.uleb128 0x31
 1848 02ec 564F4944 		.ascii "VOID\0"
 1848      00
 1849 02f1 04       		.byte	0x4
 1850 02f2 78       		.byte	0x78
 1851 02f3 14       		.byte	0x14
 1852 02f4 26       		.uleb128 0x26
 1853 02f5 EB020000 		.long	0x2eb
 1854 02f9 03       		.uleb128 0x3
 1855 02fa 494E544E 		.ascii "INTN\0"
 1855      00
 1856 02ff 04       		.byte	0x4
 1857 0300 7B       		.byte	0x7b
 1858 0301 14       		.byte	0x14
 1859 0302 75010000 		.long	0x175
 1860 0306 03       		.uleb128 0x3
 1861 0307 55494E54 		.ascii "UINTN\0"
 1861      4E00
 1862 030d 04       		.byte	0x4
 1863 030e 7C       		.byte	0x7c
 1864 030f 14       		.byte	0x14
 1865 0310 FF010000 		.long	0x1ff
 1866 0314 03       		.uleb128 0x3
 1867 0315 424F4F4C 		.ascii "BOOLEAN\0"
 1867      45414E00 
 1868 031d 05       		.byte	0x5
 1869 031e 19       		.byte	0x19
 1870 031f 0F       		.byte	0xf
 1871 0320 24030000 		.long	0x324
 1872 0324 0E       		.uleb128 0xe
 1873 0325 01       		.byte	0x1
 1874 0326 02       		.byte	0x2
 1875 0327 5F426F6F 		.ascii "_Bool\0"
 1875      6C00
 1876 032d 03       		.uleb128 0x3
 1877 032e 4546495F 		.ascii "EFI_STATUS\0"
 1877      53544154 
 1877      555300
 1878 0339 05       		.byte	0x5
 1879 033a 3A       		.byte	0x3a
 1880 033b 19       		.byte	0x19
 1881 033c 06030000 		.long	0x306
 1882 0340 03       		.uleb128 0x3
 1883 0341 4546495F 		.ascii "EFI_LBA\0"
 1883      4C424100 
 1884 0349 05       		.byte	0x5
 1885 034a 3B       		.byte	0x3b
 1886 034b 19       		.byte	0x19
 1887 034c 81020000 		.long	0x281
 1888 0350 03       		.uleb128 0x3
 1889 0351 4546495F 		.ascii "EFI_TPL\0"
 1889      54504C00 
 1890 0359 05       		.byte	0x5
 1891 035a 3C       		.byte	0x3c
 1892 035b 19       		.byte	0x19
 1893 035c 06030000 		.long	0x306
 1894 0360 03       		.uleb128 0x3
 1895 0361 4546495F 		.ascii "EFI_HANDLE\0"
 1895      48414E44 
 1895      4C4500
 1896 036c 05       		.byte	0x5
 1897 036d 3D       		.byte	0x3d
 1898 036e 1A       		.byte	0x1a
 1899 036f 73030000 		.long	0x373
 1900 0373 02       		.uleb128 0x2
 1901 0374 EB020000 		.long	0x2eb
 1902 0378 03       		.uleb128 0x3
 1903 0379 4546495F 		.ascii "EFI_EVENT\0"
 1903      4556454E 
 1903      5400
 1904 0383 05       		.byte	0x5
 1905 0384 3E       		.byte	0x3e
 1906 0385 1A       		.byte	0x1a
 1907 0386 73030000 		.long	0x373
 1908 038a 13       		.uleb128 0x13
 1909 038b 10       		.byte	0x10
 1910 038c 05       		.byte	0x5
 1911 038d 55       		.byte	0x55
 1912 038e CF030000 		.long	0x3cf
 1913 0392 06       		.uleb128 0x6
 1914 0393 44617461 		.ascii "Data1\0"
 1914      3100
 1915 0399 05       		.byte	0x5
 1916 039a 56       		.byte	0x56
 1917 039b 0D       		.byte	0xd
 1918 039c 90020000 		.long	0x290
 1919 03a0 00       		.byte	0
 1920 03a1 06       		.uleb128 0x6
 1921 03a2 44617461 		.ascii "Data2\0"
 1921      3200
 1922 03a8 05       		.byte	0x5
 1923 03a9 57       		.byte	0x57
 1924 03aa 0D       		.byte	0xd
 1925 03ab AD020000 		.long	0x2ad
 1926 03af 04       		.byte	0x4
 1927 03b0 06       		.uleb128 0x6
 1928 03b1 44617461 		.ascii "Data3\0"
 1928      3300
 1929 03b7 05       		.byte	0x5
 1930 03b8 58       		.byte	0x58
 1931 03b9 0D       		.byte	0xd
 1932 03ba AD020000 		.long	0x2ad
 1933 03be 06       		.byte	0x6
 1934 03bf 06       		.uleb128 0x6
 1935 03c0 44617461 		.ascii "Data4\0"
 1935      3400
 1936 03c6 05       		.byte	0x5
 1937 03c7 59       		.byte	0x59
 1938 03c8 0D       		.byte	0xd
 1939 03c9 CF030000 		.long	0x3cf
 1940 03cd 08       		.byte	0x8
 1941 03ce 00       		.byte	0
 1942 03cf 1A       		.uleb128 0x1a
 1943 03d0 CA020000 		.long	0x2ca
 1944 03d4 DF030000 		.long	0x3df
 1945 03d8 1E       		.uleb128 0x1e
 1946 03d9 10020000 		.long	0x210
 1947 03dd 07       		.byte	0x7
 1948 03de 00       		.byte	0
 1949 03df 03       		.uleb128 0x3
 1950 03e0 4546495F 		.ascii "EFI_GUID\0"
 1950      47554944 
 1950      00
 1951 03e9 05       		.byte	0x5
 1952 03ea 5A       		.byte	0x5a
 1953 03eb 03       		.byte	0x3
 1954 03ec 8A030000 		.long	0x38a
 1955 03f0 26       		.uleb128 0x26
 1956 03f1 DF030000 		.long	0x3df
 1957 03f5 13       		.uleb128 0x13
 1958 03f6 10       		.byte	0x10
 1959 03f7 05       		.byte	0x5
 1960 03f8 61       		.byte	0x61
 1961 03f9 AA040000 		.long	0x4aa
 1962 03fd 06       		.uleb128 0x6
 1963 03fe 59656172 		.ascii "Year\0"
 1963      00
 1964 0403 05       		.byte	0x5
 1965 0404 62       		.byte	0x62
 1966 0405 11       		.byte	0x11
 1967 0406 AD020000 		.long	0x2ad
 1968 040a 00       		.byte	0
 1969 040b 06       		.uleb128 0x6
 1970 040c 4D6F6E74 		.ascii "Month\0"
 1970      6800
 1971 0412 05       		.byte	0x5
 1972 0413 63       		.byte	0x63
 1973 0414 11       		.byte	0x11
 1974 0415 CA020000 		.long	0x2ca
 1975 0419 02       		.byte	0x2
 1976 041a 06       		.uleb128 0x6
 1977 041b 44617900 		.ascii "Day\0"
 1978 041f 05       		.byte	0x5
 1979 0420 64       		.byte	0x64
 1980 0421 11       		.byte	0x11
 1981 0422 CA020000 		.long	0x2ca
 1982 0426 03       		.byte	0x3
 1983 0427 06       		.uleb128 0x6
 1984 0428 486F7572 		.ascii "Hour\0"
 1984      00
 1985 042d 05       		.byte	0x5
 1986 042e 65       		.byte	0x65
 1987 042f 11       		.byte	0x11
 1988 0430 CA020000 		.long	0x2ca
 1989 0434 04       		.byte	0x4
 1990 0435 06       		.uleb128 0x6
 1991 0436 4D696E75 		.ascii "Minute\0"
 1991      746500
 1992 043d 05       		.byte	0x5
 1993 043e 66       		.byte	0x66
 1994 043f 11       		.byte	0x11
 1995 0440 CA020000 		.long	0x2ca
 1996 0444 05       		.byte	0x5
 1997 0445 06       		.uleb128 0x6
 1998 0446 5365636F 		.ascii "Second\0"
 1998      6E6400
 1999 044d 05       		.byte	0x5
 2000 044e 67       		.byte	0x67
 2001 044f 11       		.byte	0x11
 2002 0450 CA020000 		.long	0x2ca
 2003 0454 06       		.byte	0x6
 2004 0455 06       		.uleb128 0x6
 2005 0456 50616431 		.ascii "Pad1\0"
 2005      00
 2006 045b 05       		.byte	0x5
 2007 045c 68       		.byte	0x68
 2008 045d 11       		.byte	0x11
 2009 045e CA020000 		.long	0x2ca
 2010 0462 07       		.byte	0x7
 2011 0463 06       		.uleb128 0x6
 2012 0464 4E616E6F 		.ascii "Nanosecond\0"
 2012      7365636F 
 2012      6E6400
 2013 046f 05       		.byte	0x5
 2014 0470 69       		.byte	0x69
 2015 0471 11       		.byte	0x11
 2016 0472 90020000 		.long	0x290
 2017 0476 08       		.byte	0x8
 2018 0477 06       		.uleb128 0x6
 2019 0478 54696D65 		.ascii "TimeZone\0"
 2019      5A6F6E65 
 2019      00
 2020 0481 05       		.byte	0x5
 2021 0482 6A       		.byte	0x6a
 2022 0483 11       		.byte	0x11
 2023 0484 BC020000 		.long	0x2bc
 2024 0488 0C       		.byte	0xc
 2025 0489 06       		.uleb128 0x6
 2026 048a 4461796C 		.ascii "Daylight\0"
 2026      69676874 
 2026      00
 2027 0493 05       		.byte	0x5
 2028 0494 6B       		.byte	0x6b
 2029 0495 11       		.byte	0x11
 2030 0496 CA020000 		.long	0x2ca
 2031 049a 0E       		.byte	0xe
 2032 049b 06       		.uleb128 0x6
 2033 049c 50616432 		.ascii "Pad2\0"
 2033      00
 2034 04a1 05       		.byte	0x5
 2035 04a2 6C       		.byte	0x6c
 2036 04a3 11       		.byte	0x11
 2037 04a4 CA020000 		.long	0x2ca
 2038 04a8 0F       		.byte	0xf
 2039 04a9 00       		.byte	0
 2040 04aa 03       		.uleb128 0x3
 2041 04ab 4546495F 		.ascii "EFI_TIME\0"
 2041      54494D45 
 2041      00
 2042 04b4 05       		.byte	0x5
 2043 04b5 6D       		.byte	0x6d
 2044 04b6 03       		.byte	0x3
 2045 04b7 F5030000 		.long	0x3f5
 2046 04bb 1A       		.uleb128 0x1a
 2047 04bc CA020000 		.long	0x2ca
 2048 04c0 CB040000 		.long	0x4cb
 2049 04c4 1E       		.uleb128 0x1e
 2050 04c5 10020000 		.long	0x210
 2051 04c9 03       		.byte	0x3
 2052 04ca 00       		.byte	0
 2053 04cb 03       		.uleb128 0x3
 2054 04cc 4546495F 		.ascii "EFI_PHYSICAL_ADDRESS\0"
 2054      50485953 
 2054      4943414C 
 2054      5F414444 
 2054      52455353 
 2055 04e1 05       		.byte	0x5
 2056 04e2 99       		.byte	0x99
 2057 04e3 19       		.byte	0x19
 2058 04e4 81020000 		.long	0x281
 2059 04e8 03       		.uleb128 0x3
 2060 04e9 4546495F 		.ascii "EFI_VIRTUAL_ADDRESS\0"
 2060      56495254 
 2060      55414C5F 
 2060      41444452 
 2060      45535300 
 2061 04fd 05       		.byte	0x5
 2062 04fe 9A       		.byte	0x9a
 2063 04ff 19       		.byte	0x19
 2064 0500 81020000 		.long	0x281
 2065 0504 1F       		.uleb128 0x1f
 2066 0505 EF010000 		.long	0x1ef
 2067 0509 05       		.byte	0x5
 2068 050a 9C       		.byte	0x9c
 2069 050b 5C050000 		.long	0x55c
 2070 050f 09       		.uleb128 0x9
 2071 0510 416C6C6F 		.ascii "AllocateAnyPages\0"
 2071      63617465 
 2071      416E7950 
 2071      61676573 
 2071      00
 2072 0521 00       		.byte	0
 2073 0522 09       		.uleb128 0x9
 2074 0523 416C6C6F 		.ascii "AllocateMaxAddress\0"
 2074      63617465 
 2074      4D617841 
 2074      64647265 
 2074      737300
 2075 0536 01       		.byte	0x1
 2076 0537 09       		.uleb128 0x9
 2077 0538 416C6C6F 		.ascii "AllocateAddress\0"
 2077      63617465 
 2077      41646472 
 2077      65737300 
 2078 0548 02       		.byte	0x2
 2079 0549 09       		.uleb128 0x9
 2080 054a 4D617841 		.ascii "MaxAllocateType\0"
 2080      6C6C6F63 
 2080      61746554 
 2080      79706500 
 2081 055a 03       		.byte	0x3
 2082 055b 00       		.byte	0
 2083 055c 03       		.uleb128 0x3
 2084 055d 4546495F 		.ascii "EFI_ALLOCATE_TYPE\0"
 2084      414C4C4F 
 2084      43415445 
 2084      5F545950 
 2084      4500
 2085 056f 05       		.byte	0x5
 2086 0570 A1       		.byte	0xa1
 2087 0571 03       		.byte	0x3
 2088 0572 04050000 		.long	0x504
 2089 0576 1F       		.uleb128 0x1f
 2090 0577 EF010000 		.long	0x1ef
 2091 057b 05       		.byte	0x5
 2092 057c AA       		.byte	0xaa
 2093 057d EF060000 		.long	0x6ef
 2094 0581 09       		.uleb128 0x9
 2095 0582 45666952 		.ascii "EfiReservedMemoryType\0"
 2095      65736572 
 2095      7665644D 
 2095      656D6F72 
 2095      79547970 
 2096 0598 00       		.byte	0
 2097 0599 09       		.uleb128 0x9
 2098 059a 4566694C 		.ascii "EfiLoaderCode\0"
 2098      6F616465 
 2098      72436F64 
 2098      6500
 2099 05a8 01       		.byte	0x1
 2100 05a9 09       		.uleb128 0x9
 2101 05aa 4566694C 		.ascii "EfiLoaderData\0"
 2101      6F616465 
 2101      72446174 
 2101      6100
 2102 05b8 02       		.byte	0x2
 2103 05b9 09       		.uleb128 0x9
 2104 05ba 45666942 		.ascii "EfiBootServicesCode\0"
 2104      6F6F7453 
 2104      65727669 
 2104      63657343 
 2104      6F646500 
 2105 05ce 03       		.byte	0x3
 2106 05cf 09       		.uleb128 0x9
 2107 05d0 45666942 		.ascii "EfiBootServicesData\0"
 2107      6F6F7453 
 2107      65727669 
 2107      63657344 
 2107      61746100 
 2108 05e4 04       		.byte	0x4
 2109 05e5 09       		.uleb128 0x9
 2110 05e6 45666952 		.ascii "EfiRuntimeServicesCode\0"
 2110      756E7469 
 2110      6D655365 
 2110      72766963 
 2110      6573436F 
 2111 05fd 05       		.byte	0x5
 2112 05fe 09       		.uleb128 0x9
 2113 05ff 45666952 		.ascii "EfiRuntimeServicesData\0"
 2113      756E7469 
 2113      6D655365 
 2113      72766963 
 2113      65734461 
 2114 0616 06       		.byte	0x6
 2115 0617 09       		.uleb128 0x9
 2116 0618 45666943 		.ascii "EfiConventionalMemory\0"
 2116      6F6E7665 
 2116      6E74696F 
 2116      6E616C4D 
 2116      656D6F72 
 2117 062e 07       		.byte	0x7
 2118 062f 09       		.uleb128 0x9
 2119 0630 45666955 		.ascii "EfiUnusableMemory\0"
 2119      6E757361 
 2119      626C654D 
 2119      656D6F72 
 2119      7900
 2120 0642 08       		.byte	0x8
 2121 0643 09       		.uleb128 0x9
 2122 0644 45666941 		.ascii "EfiACPIReclaimMemory\0"
 2122      43504952 
 2122      65636C61 
 2122      696D4D65 
 2122      6D6F7279 
 2123 0659 09       		.byte	0x9
 2124 065a 09       		.uleb128 0x9
 2125 065b 45666941 		.ascii "EfiACPIMemoryNVS\0"
 2125      4350494D 
 2125      656D6F72 
 2125      794E5653 
 2125      00
 2126 066c 0A       		.byte	0xa
 2127 066d 09       		.uleb128 0x9
 2128 066e 4566694D 		.ascii "EfiMemoryMappedIO\0"
 2128      656D6F72 
 2128      794D6170 
 2128      70656449 
 2128      4F00
 2129 0680 0B       		.byte	0xb
 2130 0681 09       		.uleb128 0x9
 2131 0682 4566694D 		.ascii "EfiMemoryMappedIOPortSpace\0"
 2131      656D6F72 
 2131      794D6170 
 2131      70656449 
 2131      4F506F72 
 2132 069d 0C       		.byte	0xc
 2133 069e 09       		.uleb128 0x9
 2134 069f 45666950 		.ascii "EfiPalCode\0"
 2134      616C436F 
 2134      646500
 2135 06aa 0D       		.byte	0xd
 2136 06ab 09       		.uleb128 0x9
 2137 06ac 45666950 		.ascii "EfiPersistentMemory\0"
 2137      65727369 
 2137      7374656E 
 2137      744D656D 
 2137      6F727900 
 2138 06c0 0E       		.byte	0xe
 2139 06c1 09       		.uleb128 0x9
 2140 06c2 45666955 		.ascii "EfiUnacceptedMemoryType\0"
 2140      6E616363 
 2140      65707465 
 2140      644D656D 
 2140      6F727954 
 2141 06da 0F       		.byte	0xf
 2142 06db 09       		.uleb128 0x9
 2143 06dc 4566694D 		.ascii "EfiMaxMemoryType\0"
 2143      61784D65 
 2143      6D6F7279 
 2143      54797065 
 2143      00
 2144 06ed 10       		.byte	0x10
 2145 06ee 00       		.byte	0
 2146 06ef 03       		.uleb128 0x3
 2147 06f0 4546495F 		.ascii "EFI_MEMORY_TYPE\0"
 2147      4D454D4F 
 2147      52595F54 
 2147      59504500 
 2148 0700 05       		.byte	0x5
 2149 0701 BC       		.byte	0xbc
 2150 0702 03       		.byte	0x3
 2151 0703 76050000 		.long	0x576
 2152 0707 13       		.uleb128 0x13
 2153 0708 28       		.byte	0x28
 2154 0709 05       		.byte	0x5
 2155 070a D9       		.byte	0xd9
 2156 070b 7C070000 		.long	0x77c
 2157 070f 06       		.uleb128 0x6
 2158 0710 54797065 		.ascii "Type\0"
 2158      00
 2159 0715 05       		.byte	0x5
 2160 0716 DA       		.byte	0xda
 2161 0717 25       		.byte	0x25
 2162 0718 90020000 		.long	0x290
 2163 071c 00       		.byte	0
 2164 071d 06       		.uleb128 0x6
 2165 071e 50616400 		.ascii "Pad\0"
 2166 0722 05       		.byte	0x5
 2167 0723 DB       		.byte	0xdb
 2168 0724 25       		.byte	0x25
 2169 0725 90020000 		.long	0x290
 2170 0729 04       		.byte	0x4
 2171 072a 06       		.uleb128 0x6
 2172 072b 50687973 		.ascii "PhysicalStart\0"
 2172      6963616C 
 2172      53746172 
 2172      7400
 2173 0739 05       		.byte	0x5
 2174 073a DC       		.byte	0xdc
 2175 073b 25       		.byte	0x25
 2176 073c CB040000 		.long	0x4cb
 2177 0740 08       		.byte	0x8
 2178 0741 06       		.uleb128 0x6
 2179 0742 56697274 		.ascii "VirtualStart\0"
 2179      75616C53 
 2179      74617274 
 2179      00
 2180 074f 05       		.byte	0x5
 2181 0750 DD       		.byte	0xdd
 2182 0751 25       		.byte	0x25
 2183 0752 E8040000 		.long	0x4e8
 2184 0756 10       		.byte	0x10
 2185 0757 06       		.uleb128 0x6
 2186 0758 4E756D62 		.ascii "NumberOfPages\0"
 2186      65724F66 
 2186      50616765 
 2186      7300
 2187 0766 05       		.byte	0x5
 2188 0767 DE       		.byte	0xde
 2189 0768 25       		.byte	0x25
 2190 0769 81020000 		.long	0x281
 2191 076d 18       		.byte	0x18
 2192 076e 1B       		.uleb128 0x1b
 2193 076f 25000000 		.secrel32	.LASF2
 2194 0773 05       		.byte	0x5
 2195 0774 DF       		.byte	0xdf
 2196 0775 25       		.byte	0x25
 2197 0776 81020000 		.long	0x281
 2198 077a 20       		.byte	0x20
 2199 077b 00       		.byte	0
 2200 077c 03       		.uleb128 0x3
 2201 077d 4546495F 		.ascii "EFI_MEMORY_DESCRIPTOR\0"
 2201      4D454D4F 
 2201      52595F44 
 2201      45534352 
 2201      4950544F 
 2202 0793 05       		.byte	0x5
 2203 0794 E0       		.byte	0xe0
 2204 0795 03       		.byte	0x3
 2205 0796 07070000 		.long	0x707
 2206 079a 03       		.uleb128 0x3
 2207 079b 49534F5F 		.ascii "ISO_639_2\0"
 2207      3633395F 
 2207      3200
 2208 07a5 05       		.byte	0x5
 2209 07a6 E6       		.byte	0xe6
 2210 07a7 0F       		.byte	0xf
 2211 07a8 D8020000 		.long	0x2d8
 2212 07ac 20       		.uleb128 0x20
 2213 07ad 5F454649 		.ascii "_EFI_DEVICE_PATH_PROTOCOL\0"
 2213      5F444556 
 2213      4943455F 
 2213      50415448 
 2213      5F50524F 
 2214 07c7 04       		.byte	0x4
 2215 07c8 06       		.byte	0x6
 2216 07c9 1A       		.byte	0x1a
 2217 07ca FE070000 		.long	0x7fe
 2218 07ce 06       		.uleb128 0x6
 2219 07cf 54797065 		.ascii "Type\0"
 2219      00
 2220 07d4 06       		.byte	0x6
 2221 07d5 1B       		.byte	0x1b
 2222 07d6 29       		.byte	0x29
 2223 07d7 CA020000 		.long	0x2ca
 2224 07db 00       		.byte	0
 2225 07dc 06       		.uleb128 0x6
 2226 07dd 53756254 		.ascii "SubType\0"
 2226      79706500 
 2227 07e5 06       		.byte	0x6
 2228 07e6 1C       		.byte	0x1c
 2229 07e7 29       		.byte	0x29
 2230 07e8 CA020000 		.long	0x2ca
 2231 07ec 01       		.byte	0x1
 2232 07ed 06       		.uleb128 0x6
 2233 07ee 4C656E67 		.ascii "Length\0"
 2233      746800
 2234 07f5 06       		.byte	0x6
 2235 07f6 1D       		.byte	0x1d
 2236 07f7 29       		.byte	0x29
 2237 07f8 FE070000 		.long	0x7fe
 2238 07fc 02       		.byte	0x2
 2239 07fd 00       		.byte	0
 2240 07fe 1A       		.uleb128 0x1a
 2241 07ff CA020000 		.long	0x2ca
 2242 0803 0E080000 		.long	0x80e
 2243 0807 1E       		.uleb128 0x1e
 2244 0808 10020000 		.long	0x210
 2245 080c 01       		.byte	0x1
 2246 080d 00       		.byte	0
 2247 080e 03       		.uleb128 0x3
 2248 080f 4546495F 		.ascii "EFI_DEVICE_PATH_PROTOCOL\0"
 2248      44455649 
 2248      43455F50 
 2248      4154485F 
 2248      50524F54 
 2249 0828 06       		.byte	0x6
 2250 0829 1E       		.byte	0x1e
 2251 082a 03       		.byte	0x3
 2252 082b AC070000 		.long	0x7ac
 2253 082f 03       		.uleb128 0x3
 2254 0830 4546495F 		.ascii "EFI_DEVICE_PATH\0"
 2254      44455649 
 2254      43455F50 
 2254      41544800 
 2255 0840 06       		.byte	0x6
 2256 0841 21       		.byte	0x21
 2257 0842 22       		.byte	0x22
 2258 0843 0E080000 		.long	0x80e
 2259 0847 02       		.uleb128 0x2
 2260 0848 72020000 		.long	0x272
 2261 084c 02       		.uleb128 0x2
 2262 084d 06030000 		.long	0x306
 2263 0851 02       		.uleb128 0x2
 2264 0852 81020000 		.long	0x281
 2265 0856 02       		.uleb128 0x2
 2266 0857 73030000 		.long	0x373
 2267 085b 02       		.uleb128 0x2
 2268 085c CB040000 		.long	0x4cb
 2269 0860 03       		.uleb128 0x3
 2270 0861 4546495F 		.ascii "EFI_BLOCK_RESET\0"
 2270      424C4F43 
 2270      4B5F5245 
 2270      53455400 
 2271 0871 07       		.byte	0x7
 2272 0872 39       		.byte	0x39
 2273 0873 0A       		.byte	0xa
 2274 0874 78080000 		.long	0x878
 2275 0878 02       		.uleb128 0x2
 2276 0879 7D080000 		.long	0x87d
 2277 087d 07       		.uleb128 0x7
 2278 087e 2D030000 		.long	0x32d
 2279 0882 91080000 		.long	0x891
 2280 0886 01       		.uleb128 0x1
 2281 0887 91080000 		.long	0x891
 2282 088b 01       		.uleb128 0x1
 2283 088c 14030000 		.long	0x314
 2284 0890 00       		.byte	0
 2285 0891 02       		.uleb128 0x2
 2286 0892 96080000 		.long	0x896
 2287 0896 20       		.uleb128 0x20
 2288 0897 5F454649 		.ascii "_EFI_BLOCK_IO_PROTOCOL\0"
 2288      5F424C4F 
 2288      434B5F49 
 2288      4F5F5052 
 2288      4F544F43 
 2289 08ae 30       		.byte	0x30
 2290 08af 07       		.byte	0x7
 2291 08b0 71       		.byte	0x71
 2292 08b1 1F090000 		.long	0x91f
 2293 08b5 1B       		.uleb128 0x1b
 2294 08b6 7B000000 		.secrel32	.LASF3
 2295 08ba 07       		.byte	0x7
 2296 08bb 72       		.byte	0x72
 2297 08bc 1D       		.byte	0x1d
 2298 08bd 81020000 		.long	0x281
 2299 08c1 00       		.byte	0
 2300 08c2 06       		.uleb128 0x6
 2301 08c3 4D656469 		.ascii "Media\0"
 2301      6100
 2302 08c9 07       		.byte	0x7
 2303 08ca 74       		.byte	0x74
 2304 08cb 1E       		.byte	0x1e
 2305 08cc E90A0000 		.long	0xae9
 2306 08d0 08       		.byte	0x8
 2307 08d1 06       		.uleb128 0x6
 2308 08d2 52657365 		.ascii "Reset\0"
 2308      7400
 2309 08d8 07       		.byte	0x7
 2310 08d9 76       		.byte	0x76
 2311 08da 1D       		.byte	0x1d
 2312 08db 60080000 		.long	0x860
 2313 08df 10       		.byte	0x10
 2314 08e0 06       		.uleb128 0x6
 2315 08e1 52656164 		.ascii "ReadBlocks\0"
 2315      426C6F63 
 2315      6B7300
 2316 08ec 07       		.byte	0x7
 2317 08ed 77       		.byte	0x77
 2318 08ee 1D       		.byte	0x1d
 2319 08ef 1F090000 		.long	0x91f
 2320 08f3 18       		.byte	0x18
 2321 08f4 06       		.uleb128 0x6
 2322 08f5 57726974 		.ascii "WriteBlocks\0"
 2322      65426C6F 
 2322      636B7300 
 2323 0901 07       		.byte	0x7
 2324 0902 78       		.byte	0x78
 2325 0903 1D       		.byte	0x1d
 2326 0904 5E090000 		.long	0x95e
 2327 0908 20       		.byte	0x20
 2328 0909 06       		.uleb128 0x6
 2329 090a 466C7573 		.ascii "FlushBlocks\0"
 2329      68426C6F 
 2329      636B7300 
 2330 0916 07       		.byte	0x7
 2331 0917 79       		.byte	0x79
 2332 0918 1D       		.byte	0x1d
 2333 0919 76090000 		.long	0x976
 2334 091d 28       		.byte	0x28
 2335 091e 00       		.byte	0
 2336 091f 03       		.uleb128 0x3
 2337 0920 4546495F 		.ascii "EFI_BLOCK_READ\0"
 2337      424C4F43 
 2337      4B5F5245 
 2337      414400
 2338 092f 07       		.byte	0x7
 2339 0930 40       		.byte	0x40
 2340 0931 0A       		.byte	0xa
 2341 0932 36090000 		.long	0x936
 2342 0936 02       		.uleb128 0x2
 2343 0937 3B090000 		.long	0x93b
 2344 093b 07       		.uleb128 0x7
 2345 093c 2D030000 		.long	0x32d
 2346 0940 5E090000 		.long	0x95e
 2347 0944 01       		.uleb128 0x1
 2348 0945 91080000 		.long	0x891
 2349 0949 01       		.uleb128 0x1
 2350 094a 90020000 		.long	0x290
 2351 094e 01       		.uleb128 0x1
 2352 094f 40030000 		.long	0x340
 2353 0953 01       		.uleb128 0x1
 2354 0954 06030000 		.long	0x306
 2355 0958 01       		.uleb128 0x1
 2356 0959 73030000 		.long	0x373
 2357 095d 00       		.byte	0
 2358 095e 03       		.uleb128 0x3
 2359 095f 4546495F 		.ascii "EFI_BLOCK_WRITE\0"
 2359      424C4F43 
 2359      4B5F5752 
 2359      49544500 
 2360 096f 07       		.byte	0x7
 2361 0970 4B       		.byte	0x4b
 2362 0971 0A       		.byte	0xa
 2363 0972 36090000 		.long	0x936
 2364 0976 03       		.uleb128 0x3
 2365 0977 4546495F 		.ascii "EFI_BLOCK_FLUSH\0"
 2365      424C4F43 
 2365      4B5F464C 
 2365      55534800 
 2366 0987 07       		.byte	0x7
 2367 0988 56       		.byte	0x56
 2368 0989 0A       		.byte	0xa
 2369 098a 8E090000 		.long	0x98e
 2370 098e 02       		.uleb128 0x2
 2371 098f 93090000 		.long	0x993
 2372 0993 07       		.uleb128 0x7
 2373 0994 2D030000 		.long	0x32d
 2374 0998 A2090000 		.long	0x9a2
 2375 099c 01       		.uleb128 0x1
 2376 099d 91080000 		.long	0x891
 2377 09a1 00       		.byte	0
 2378 09a2 13       		.uleb128 0x13
 2379 09a3 30       		.byte	0x30
 2380 09a4 07       		.byte	0x7
 2381 09a5 5C       		.byte	0x5c
 2382 09a6 CE0A0000 		.long	0xace
 2383 09aa 06       		.uleb128 0x6
 2384 09ab 4D656469 		.ascii "MediaId\0"
 2384      61496400 
 2385 09b3 07       		.byte	0x7
 2386 09b4 5D       		.byte	0x5d
 2387 09b5 19       		.byte	0x19
 2388 09b6 90020000 		.long	0x290
 2389 09ba 00       		.byte	0
 2390 09bb 06       		.uleb128 0x6
 2391 09bc 52656D6F 		.ascii "RemovableMedia\0"
 2391      7661626C 
 2391      654D6564 
 2391      696100
 2392 09cb 07       		.byte	0x7
 2393 09cc 5E       		.byte	0x5e
 2394 09cd 19       		.byte	0x19
 2395 09ce 14030000 		.long	0x314
 2396 09d2 04       		.byte	0x4
 2397 09d3 06       		.uleb128 0x6
 2398 09d4 4D656469 		.ascii "MediaPresent\0"
 2398      61507265 
 2398      73656E74 
 2398      00
 2399 09e1 07       		.byte	0x7
 2400 09e2 5F       		.byte	0x5f
 2401 09e3 19       		.byte	0x19
 2402 09e4 14030000 		.long	0x314
 2403 09e8 05       		.byte	0x5
 2404 09e9 06       		.uleb128 0x6
 2405 09ea 4C6F6769 		.ascii "LogicalPartition\0"
 2405      63616C50 
 2405      61727469 
 2405      74696F6E 
 2405      00
 2406 09fb 07       		.byte	0x7
 2407 09fc 61       		.byte	0x61
 2408 09fd 19       		.byte	0x19
 2409 09fe 14030000 		.long	0x314
 2410 0a02 06       		.byte	0x6
 2411 0a03 06       		.uleb128 0x6
 2412 0a04 52656164 		.ascii "ReadOnly\0"
 2412      4F6E6C79 
 2412      00
 2413 0a0d 07       		.byte	0x7
 2414 0a0e 62       		.byte	0x62
 2415 0a0f 19       		.byte	0x19
 2416 0a10 14030000 		.long	0x314
 2417 0a14 07       		.byte	0x7
 2418 0a15 06       		.uleb128 0x6
 2419 0a16 57726974 		.ascii "WriteCaching\0"
 2419      65436163 
 2419      68696E67 
 2419      00
 2420 0a23 07       		.byte	0x7
 2421 0a24 63       		.byte	0x63
 2422 0a25 19       		.byte	0x19
 2423 0a26 14030000 		.long	0x314
 2424 0a2a 08       		.byte	0x8
 2425 0a2b 06       		.uleb128 0x6
 2426 0a2c 426C6F63 		.ascii "BlockSize\0"
 2426      6B53697A 
 2426      6500
 2427 0a36 07       		.byte	0x7
 2428 0a37 65       		.byte	0x65
 2429 0a38 19       		.byte	0x19
 2430 0a39 90020000 		.long	0x290
 2431 0a3d 0C       		.byte	0xc
 2432 0a3e 06       		.uleb128 0x6
 2433 0a3f 496F416C 		.ascii "IoAlign\0"
 2433      69676E00 
 2434 0a47 07       		.byte	0x7
 2435 0a48 66       		.byte	0x66
 2436 0a49 19       		.byte	0x19
 2437 0a4a 90020000 		.long	0x290
 2438 0a4e 10       		.byte	0x10
 2439 0a4f 06       		.uleb128 0x6
 2440 0a50 4C617374 		.ascii "LastBlock\0"
 2440      426C6F63 
 2440      6B00
 2441 0a5a 07       		.byte	0x7
 2442 0a5b 68       		.byte	0x68
 2443 0a5c 19       		.byte	0x19
 2444 0a5d 40030000 		.long	0x340
 2445 0a61 18       		.byte	0x18
 2446 0a62 06       		.uleb128 0x6
 2447 0a63 4C6F7765 		.ascii "LowestAlignedLba\0"
 2447      7374416C 
 2447      69676E65 
 2447      644C6261 
 2447      00
 2448 0a74 07       		.byte	0x7
 2449 0a75 6B       		.byte	0x6b
 2450 0a76 19       		.byte	0x19
 2451 0a77 40030000 		.long	0x340
 2452 0a7b 20       		.byte	0x20
 2453 0a7c 06       		.uleb128 0x6
 2454 0a7d 4C6F6769 		.ascii "LogicalBlocksPerPhysicalBlock\0"
 2454      63616C42 
 2454      6C6F636B 
 2454      73506572 
 2454      50687973 
 2455 0a9b 07       		.byte	0x7
 2456 0a9c 6C       		.byte	0x6c
 2457 0a9d 19       		.byte	0x19
 2458 0a9e 90020000 		.long	0x290
 2459 0aa2 28       		.byte	0x28
 2460 0aa3 06       		.uleb128 0x6
 2461 0aa4 4F707469 		.ascii "OptimalTransferLengthGranularity\0"
 2461      6D616C54 
 2461      72616E73 
 2461      6665724C 
 2461      656E6774 
 2462 0ac5 07       		.byte	0x7
 2463 0ac6 6E       		.byte	0x6e
 2464 0ac7 19       		.byte	0x19
 2465 0ac8 90020000 		.long	0x290
 2466 0acc 2C       		.byte	0x2c
 2467 0acd 00       		.byte	0
 2468 0ace 03       		.uleb128 0x3
 2469 0acf 4546495F 		.ascii "EFI_BLOCK_IO_MEDIA\0"
 2469      424C4F43 
 2469      4B5F494F 
 2469      5F4D4544 
 2469      494100
 2470 0ae2 07       		.byte	0x7
 2471 0ae3 6F       		.byte	0x6f
 2472 0ae4 03       		.byte	0x3
 2473 0ae5 A2090000 		.long	0x9a2
 2474 0ae9 02       		.uleb128 0x2
 2475 0aea CE0A0000 		.long	0xace
 2476 0aee 03       		.uleb128 0x3
 2477 0aef 4546495F 		.ascii "EFI_BLOCK_IO_PROTOCOL\0"
 2477      424C4F43 
 2477      4B5F494F 
 2477      5F50524F 
 2477      544F434F 
 2478 0b05 07       		.byte	0x7
 2479 0b06 7B       		.byte	0x7b
 2480 0b07 03       		.byte	0x3
 2481 0b08 96080000 		.long	0x896
 2482 0b0c 03       		.uleb128 0x3
 2483 0b0d 4546495F 		.ascii "EFI_BLOCK_IO\0"
 2483      424C4F43 
 2483      4B5F494F 
 2483      00
 2484 0b1a 07       		.byte	0x7
 2485 0b1b 7E       		.byte	0x7e
 2486 0b1c 1F       		.byte	0x1f
 2487 0b1d EE0A0000 		.long	0xaee
 2488 0b21 02       		.uleb128 0x2
 2489 0b22 DF030000 		.long	0x3df
 2490 0b26 02       		.uleb128 0x2
 2491 0b27 2F080000 		.long	0x82f
 2492 0b2b 02       		.uleb128 0x2
 2493 0b2c 260B0000 		.long	0xb26
 2494 0b30 02       		.uleb128 0x2
 2495 0b31 F0030000 		.long	0x3f0
 2496 0b35 02       		.uleb128 0x2
 2497 0b36 60030000 		.long	0x360
 2498 0b3a 02       		.uleb128 0x2
 2499 0b3b 90020000 		.long	0x290
 2500 0b3f 02       		.uleb128 0x2
 2501 0b40 47080000 		.long	0x847
 2502 0b44 08       		.uleb128 0x8
 2503 0b45 4546495F 		.ascii "EFI_IMAGE_UNLOAD\0"
 2503      494D4147 
 2503      455F554E 
 2503      4C4F4144 
 2503      00
 2504 0b56 07       		.byte	0x7
 2505 0b57 C604     		.word	0x4c6
 2506 0b59 0A       		.byte	0xa
 2507 0b5a 5E0B0000 		.long	0xb5e
 2508 0b5e 02       		.uleb128 0x2
 2509 0b5f 630B0000 		.long	0xb63
 2510 0b63 07       		.uleb128 0x7
 2511 0b64 2D030000 		.long	0x32d
 2512 0b68 720B0000 		.long	0xb72
 2513 0b6c 01       		.uleb128 0x1
 2514 0b6d 60030000 		.long	0x360
 2515 0b71 00       		.byte	0
 2516 0b72 21       		.uleb128 0x21
 2517 0b73 5F454649 		.ascii "_EFI_SYSTEM_TABLE\0"
 2517      5F535953 
 2517      54454D5F 
 2517      5441424C 
 2517      4500
 2518 0b85 78       		.byte	0x78
 2519 0b86 08       		.byte	0x8
 2520 0b87 F203     		.word	0x3f2
 2521 0b89 C20C0000 		.long	0xcc2
 2522 0b8d 04       		.uleb128 0x4
 2523 0b8e 48647200 		.ascii "Hdr\0"
 2524 0b92 08       		.byte	0x8
 2525 0b93 F303     		.word	0x3f3
 2526 0b95 25       		.byte	0x25
 2527 0b96 F7210000 		.long	0x21f7
 2528 0b9a 00       		.byte	0
 2529 0b9b 04       		.uleb128 0x4
 2530 0b9c 4669726D 		.ascii "FirmwareVendor\0"
 2530      77617265 
 2530      56656E64 
 2530      6F7200
 2531 0bab 08       		.byte	0x8
 2532 0bac F503     		.word	0x3f5
 2533 0bae 26       		.byte	0x26
 2534 0baf 47080000 		.long	0x847
 2535 0bb3 18       		.byte	0x18
 2536 0bb4 04       		.uleb128 0x4
 2537 0bb5 4669726D 		.ascii "FirmwareRevision\0"
 2537      77617265 
 2537      52657669 
 2537      73696F6E 
 2537      00
 2538 0bc6 08       		.byte	0x8
 2539 0bc7 F603     		.word	0x3f6
 2540 0bc9 25       		.byte	0x25
 2541 0bca 90020000 		.long	0x290
 2542 0bce 20       		.byte	0x20
 2543 0bcf 04       		.uleb128 0x4
 2544 0bd0 436F6E73 		.ascii "ConsoleInHandle\0"
 2544      6F6C6549 
 2544      6E48616E 
 2544      646C6500 
 2545 0be0 08       		.byte	0x8
 2546 0be1 F803     		.word	0x3f8
 2547 0be3 25       		.byte	0x25
 2548 0be4 60030000 		.long	0x360
 2549 0be8 28       		.byte	0x28
 2550 0be9 04       		.uleb128 0x4
 2551 0bea 436F6E49 		.ascii "ConIn\0"
 2551      6E00
 2552 0bf0 08       		.byte	0x8
 2553 0bf1 F903     		.word	0x3f9
 2554 0bf3 26       		.byte	0x26
 2555 0bf4 BA280000 		.long	0x28ba
 2556 0bf8 30       		.byte	0x30
 2557 0bf9 04       		.uleb128 0x4
 2558 0bfa 436F6E73 		.ascii "ConsoleOutHandle\0"
 2558      6F6C654F 
 2558      75744861 
 2558      6E646C65 
 2558      00
 2559 0c0b 08       		.byte	0x8
 2560 0c0c FB03     		.word	0x3fb
 2561 0c0e 25       		.byte	0x25
 2562 0c0f 60030000 		.long	0x360
 2563 0c13 38       		.byte	0x38
 2564 0c14 04       		.uleb128 0x4
 2565 0c15 436F6E4F 		.ascii "ConOut\0"
 2565      757400
 2566 0c1c 08       		.byte	0x8
 2567 0c1d FC03     		.word	0x3fc
 2568 0c1f 26       		.byte	0x26
 2569 0c20 BF280000 		.long	0x28bf
 2570 0c24 40       		.byte	0x40
 2571 0c25 04       		.uleb128 0x4
 2572 0c26 5374616E 		.ascii "StandardErrorHandle\0"
 2572      64617264 
 2572      4572726F 
 2572      7248616E 
 2572      646C6500 
 2573 0c3a 08       		.byte	0x8
 2574 0c3b FE03     		.word	0x3fe
 2575 0c3d 25       		.byte	0x25
 2576 0c3e 60030000 		.long	0x360
 2577 0c42 48       		.byte	0x48
 2578 0c43 04       		.uleb128 0x4
 2579 0c44 53746445 		.ascii "StdErr\0"
 2579      727200
 2580 0c4b 08       		.byte	0x8
 2581 0c4c FF03     		.word	0x3ff
 2582 0c4e 26       		.byte	0x26
 2583 0c4f BF280000 		.long	0x28bf
 2584 0c53 50       		.byte	0x50
 2585 0c54 04       		.uleb128 0x4
 2586 0c55 52756E74 		.ascii "RuntimeServices\0"
 2586      696D6553 
 2586      65727669 
 2586      63657300 
 2587 0c65 08       		.byte	0x8
 2588 0c66 0104     		.word	0x401
 2589 0c68 26       		.byte	0x26
 2590 0c69 C4280000 		.long	0x28c4
 2591 0c6d 58       		.byte	0x58
 2592 0c6e 04       		.uleb128 0x4
 2593 0c6f 426F6F74 		.ascii "BootServices\0"
 2593      53657276 
 2593      69636573 
 2593      00
 2594 0c7c 08       		.byte	0x8
 2595 0c7d 0204     		.word	0x402
 2596 0c7f 26       		.byte	0x26
 2597 0c80 C9280000 		.long	0x28c9
 2598 0c84 60       		.byte	0x60
 2599 0c85 04       		.uleb128 0x4
 2600 0c86 4E756D62 		.ascii "NumberOfTableEntries\0"
 2600      65724F66 
 2600      5461626C 
 2600      65456E74 
 2600      72696573 
 2601 0c9b 08       		.byte	0x8
 2602 0c9c 0404     		.word	0x404
 2603 0c9e 25       		.byte	0x25
 2604 0c9f 06030000 		.long	0x306
 2605 0ca3 68       		.byte	0x68
 2606 0ca4 04       		.uleb128 0x4
 2607 0ca5 436F6E66 		.ascii "ConfigurationTable\0"
 2607      69677572 
 2607      6174696F 
 2607      6E546162 
 2607      6C6500
 2608 0cb8 08       		.byte	0x8
 2609 0cb9 0504     		.word	0x405
 2610 0cbb 26       		.byte	0x26
 2611 0cbc CE280000 		.long	0x28ce
 2612 0cc0 70       		.byte	0x70
 2613 0cc1 00       		.byte	0
 2614 0cc2 03       		.uleb128 0x3
 2615 0cc3 4546495F 		.ascii "EFI_TEXT_RESET\0"
 2615      54455854 
 2615      5F524553 
 2615      455400
 2616 0cd2 09       		.byte	0x9
 2617 0cd3 22       		.byte	0x22
 2618 0cd4 0A       		.byte	0xa
 2619 0cd5 D90C0000 		.long	0xcd9
 2620 0cd9 02       		.uleb128 0x2
 2621 0cda DE0C0000 		.long	0xcde
 2622 0cde 07       		.uleb128 0x7
 2623 0cdf 2D030000 		.long	0x32d
 2624 0ce3 F20C0000 		.long	0xcf2
 2625 0ce7 01       		.uleb128 0x1
 2626 0ce8 F20C0000 		.long	0xcf2
 2627 0cec 01       		.uleb128 0x1
 2628 0ced 14030000 		.long	0x314
 2629 0cf1 00       		.byte	0
 2630 0cf2 02       		.uleb128 0x2
 2631 0cf3 F70C0000 		.long	0xcf7
 2632 0cf7 20       		.uleb128 0x20
 2633 0cf8 5F53494D 		.ascii "_SIMPLE_TEXT_OUTPUT_INTERFACE\0"
 2633      504C455F 
 2633      54455854 
 2633      5F4F5554 
 2633      5055545F 
 2634 0d16 50       		.byte	0x50
 2635 0d17 09       		.byte	0x9
 2636 0d18 89       		.byte	0x89
 2637 0d19 E50D0000 		.long	0xde5
 2638 0d1d 06       		.uleb128 0x6
 2639 0d1e 52657365 		.ascii "Reset\0"
 2639      7400
 2640 0d24 09       		.byte	0x9
 2641 0d25 8A       		.byte	0x8a
 2642 0d26 25       		.byte	0x25
 2643 0d27 C20C0000 		.long	0xcc2
 2644 0d2b 00       		.byte	0
 2645 0d2c 06       		.uleb128 0x6
 2646 0d2d 4F757470 		.ascii "OutputString\0"
 2646      75745374 
 2646      72696E67 
 2646      00
 2647 0d3a 09       		.byte	0x9
 2648 0d3b 8C       		.byte	0x8c
 2649 0d3c 25       		.byte	0x25
 2650 0d3d E50D0000 		.long	0xde5
 2651 0d41 08       		.byte	0x8
 2652 0d42 06       		.uleb128 0x6
 2653 0d43 54657374 		.ascii "TestString\0"
 2653      53747269 
 2653      6E6700
 2654 0d4e 09       		.byte	0x9
 2655 0d4f 8D       		.byte	0x8d
 2656 0d50 25       		.byte	0x25
 2657 0d51 1D0E0000 		.long	0xe1d
 2658 0d55 10       		.byte	0x10
 2659 0d56 06       		.uleb128 0x6
 2660 0d57 51756572 		.ascii "QueryMode\0"
 2660      794D6F64 
 2660      6500
 2661 0d61 09       		.byte	0x9
 2662 0d62 8F       		.byte	0x8f
 2663 0d63 25       		.byte	0x25
 2664 0d64 3A0E0000 		.long	0xe3a
 2665 0d68 18       		.byte	0x18
 2666 0d69 06       		.uleb128 0x6
 2667 0d6a 5365744D 		.ascii "SetMode\0"
 2667      6F646500 
 2668 0d72 09       		.byte	0x9
 2669 0d73 90       		.byte	0x90
 2670 0d74 25       		.byte	0x25
 2671 0d75 790E0000 		.long	0xe79
 2672 0d79 20       		.byte	0x20
 2673 0d7a 06       		.uleb128 0x6
 2674 0d7b 53657441 		.ascii "SetAttribute\0"
 2674      74747269 
 2674      62757465 
 2674      00
 2675 0d88 09       		.byte	0x9
 2676 0d89 91       		.byte	0x91
 2677 0d8a 25       		.byte	0x25
 2678 0d8b AC0E0000 		.long	0xeac
 2679 0d8f 28       		.byte	0x28
 2680 0d90 06       		.uleb128 0x6
 2681 0d91 436C6561 		.ascii "ClearScreen\0"
 2681      72536372 
 2681      65656E00 
 2682 0d9d 09       		.byte	0x9
 2683 0d9e 93       		.byte	0x93
 2684 0d9f 25       		.byte	0x25
 2685 0da0 CB0E0000 		.long	0xecb
 2686 0da4 30       		.byte	0x30
 2687 0da5 06       		.uleb128 0x6
 2688 0da6 53657443 		.ascii "SetCursorPosition\0"
 2688      7572736F 
 2688      72506F73 
 2688      6974696F 
 2688      6E00
 2689 0db8 09       		.byte	0x9
 2690 0db9 94       		.byte	0x94
 2691 0dba 25       		.byte	0x25
 2692 0dbb FD0E0000 		.long	0xefd
 2693 0dbf 38       		.byte	0x38
 2694 0dc0 06       		.uleb128 0x6
 2695 0dc1 456E6162 		.ascii "EnableCursor\0"
 2695      6C654375 
 2695      72736F72 
 2695      00
 2696 0dce 09       		.byte	0x9
 2697 0dcf 95       		.byte	0x95
 2698 0dd0 25       		.byte	0x25
 2699 0dd1 400F0000 		.long	0xf40
 2700 0dd5 40       		.byte	0x40
 2701 0dd6 06       		.uleb128 0x6
 2702 0dd7 4D6F6465 		.ascii "Mode\0"
 2702      00
 2703 0ddc 09       		.byte	0x9
 2704 0ddd 98       		.byte	0x98
 2705 0dde 26       		.byte	0x26
 2706 0ddf F40F0000 		.long	0xff4
 2707 0de3 48       		.byte	0x48
 2708 0de4 00       		.byte	0
 2709 0de5 03       		.uleb128 0x3
 2710 0de6 4546495F 		.ascii "EFI_TEXT_OUTPUT_STRING\0"
 2710      54455854 
 2710      5F4F5554 
 2710      5055545F 
 2710      53545249 
 2711 0dfd 09       		.byte	0x9
 2712 0dfe 29       		.byte	0x29
 2713 0dff 0A       		.byte	0xa
 2714 0e00 040E0000 		.long	0xe04
 2715 0e04 02       		.uleb128 0x2
 2716 0e05 090E0000 		.long	0xe09
 2717 0e09 07       		.uleb128 0x7
 2718 0e0a 2D030000 		.long	0x32d
 2719 0e0e 1D0E0000 		.long	0xe1d
 2720 0e12 01       		.uleb128 0x1
 2721 0e13 F20C0000 		.long	0xcf2
 2722 0e17 01       		.uleb128 0x1
 2723 0e18 47080000 		.long	0x847
 2724 0e1c 00       		.byte	0
 2725 0e1d 03       		.uleb128 0x3
 2726 0e1e 4546495F 		.ascii "EFI_TEXT_TEST_STRING\0"
 2726      54455854 
 2726      5F544553 
 2726      545F5354 
 2726      52494E47 
 2727 0e33 09       		.byte	0x9
 2728 0e34 30       		.byte	0x30
 2729 0e35 0A       		.byte	0xa
 2730 0e36 040E0000 		.long	0xe04
 2731 0e3a 03       		.uleb128 0x3
 2732 0e3b 4546495F 		.ascii "EFI_TEXT_QUERY_MODE\0"
 2732      54455854 
 2732      5F515545 
 2732      52595F4D 
 2732      4F444500 
 2733 0e4f 09       		.byte	0x9
 2734 0e50 37       		.byte	0x37
 2735 0e51 0A       		.byte	0xa
 2736 0e52 560E0000 		.long	0xe56
 2737 0e56 02       		.uleb128 0x2
 2738 0e57 5B0E0000 		.long	0xe5b
 2739 0e5b 07       		.uleb128 0x7
 2740 0e5c 2D030000 		.long	0x32d
 2741 0e60 790E0000 		.long	0xe79
 2742 0e64 01       		.uleb128 0x1
 2743 0e65 F20C0000 		.long	0xcf2
 2744 0e69 01       		.uleb128 0x1
 2745 0e6a 06030000 		.long	0x306
 2746 0e6e 01       		.uleb128 0x1
 2747 0e6f 4C080000 		.long	0x84c
 2748 0e73 01       		.uleb128 0x1
 2749 0e74 4C080000 		.long	0x84c
 2750 0e78 00       		.byte	0
 2751 0e79 03       		.uleb128 0x3
 2752 0e7a 4546495F 		.ascii "EFI_TEXT_SET_MODE\0"
 2752      54455854 
 2752      5F534554 
 2752      5F4D4F44 
 2752      4500
 2753 0e8c 09       		.byte	0x9
 2754 0e8d 40       		.byte	0x40
 2755 0e8e 0A       		.byte	0xa
 2756 0e8f 930E0000 		.long	0xe93
 2757 0e93 02       		.uleb128 0x2
 2758 0e94 980E0000 		.long	0xe98
 2759 0e98 07       		.uleb128 0x7
 2760 0e99 2D030000 		.long	0x32d
 2761 0e9d AC0E0000 		.long	0xeac
 2762 0ea1 01       		.uleb128 0x1
 2763 0ea2 F20C0000 		.long	0xcf2
 2764 0ea6 01       		.uleb128 0x1
 2765 0ea7 06030000 		.long	0x306
 2766 0eab 00       		.byte	0
 2767 0eac 03       		.uleb128 0x3
 2768 0ead 4546495F 		.ascii "EFI_TEXT_SET_ATTRIBUTE\0"
 2768      54455854 
 2768      5F534554 
 2768      5F415454 
 2768      52494255 
 2769 0ec4 09       		.byte	0x9
 2770 0ec5 47       		.byte	0x47
 2771 0ec6 0A       		.byte	0xa
 2772 0ec7 930E0000 		.long	0xe93
 2773 0ecb 03       		.uleb128 0x3
 2774 0ecc 4546495F 		.ascii "EFI_TEXT_CLEAR_SCREEN\0"
 2774      54455854 
 2774      5F434C45 
 2774      41525F53 
 2774      43524545 
 2775 0ee2 09       		.byte	0x9
 2776 0ee3 6C       		.byte	0x6c
 2777 0ee4 0A       		.byte	0xa
 2778 0ee5 E90E0000 		.long	0xee9
 2779 0ee9 02       		.uleb128 0x2
 2780 0eea EE0E0000 		.long	0xeee
 2781 0eee 07       		.uleb128 0x7
 2782 0eef 2D030000 		.long	0x32d
 2783 0ef3 FD0E0000 		.long	0xefd
 2784 0ef7 01       		.uleb128 0x1
 2785 0ef8 F20C0000 		.long	0xcf2
 2786 0efc 00       		.byte	0
 2787 0efd 03       		.uleb128 0x3
 2788 0efe 4546495F 		.ascii "EFI_TEXT_SET_CURSOR_POSITION\0"
 2788      54455854 
 2788      5F534554 
 2788      5F435552 
 2788      534F525F 
 2789 0f1b 09       		.byte	0x9
 2790 0f1c 72       		.byte	0x72
 2791 0f1d 0A       		.byte	0xa
 2792 0f1e 220F0000 		.long	0xf22
 2793 0f22 02       		.uleb128 0x2
 2794 0f23 270F0000 		.long	0xf27
 2795 0f27 07       		.uleb128 0x7
 2796 0f28 2D030000 		.long	0x32d
 2797 0f2c 400F0000 		.long	0xf40
 2798 0f30 01       		.uleb128 0x1
 2799 0f31 F20C0000 		.long	0xcf2
 2800 0f35 01       		.uleb128 0x1
 2801 0f36 06030000 		.long	0x306
 2802 0f3a 01       		.uleb128 0x1
 2803 0f3b 06030000 		.long	0x306
 2804 0f3f 00       		.byte	0
 2805 0f40 03       		.uleb128 0x3
 2806 0f41 4546495F 		.ascii "EFI_TEXT_ENABLE_CURSOR\0"
 2806      54455854 
 2806      5F454E41 
 2806      424C455F 
 2806      43555253 
 2807 0f58 09       		.byte	0x9
 2808 0f59 7A       		.byte	0x7a
 2809 0f5a 0A       		.byte	0xa
 2810 0f5b D90C0000 		.long	0xcd9
 2811 0f5f 13       		.uleb128 0x13
 2812 0f60 18       		.byte	0x18
 2813 0f61 09       		.byte	0x9
 2814 0f62 7F       		.byte	0x7f
 2815 0f63 D40F0000 		.long	0xfd4
 2816 0f67 06       		.uleb128 0x6
 2817 0f68 4D61784D 		.ascii "MaxMode\0"
 2817      6F646500 
 2818 0f70 09       		.byte	0x9
 2819 0f71 80       		.byte	0x80
 2820 0f72 25       		.byte	0x25
 2821 0f73 9F020000 		.long	0x29f
 2822 0f77 00       		.byte	0
 2823 0f78 06       		.uleb128 0x6
 2824 0f79 4D6F6465 		.ascii "Mode\0"
 2824      00
 2825 0f7e 09       		.byte	0x9
 2826 0f7f 82       		.byte	0x82
 2827 0f80 25       		.byte	0x25
 2828 0f81 9F020000 		.long	0x29f
 2829 0f85 04       		.byte	0x4
 2830 0f86 1B       		.uleb128 0x1b
 2831 0f87 25000000 		.secrel32	.LASF2
 2832 0f8b 09       		.byte	0x9
 2833 0f8c 83       		.byte	0x83
 2834 0f8d 25       		.byte	0x25
 2835 0f8e 9F020000 		.long	0x29f
 2836 0f92 08       		.byte	0x8
 2837 0f93 06       		.uleb128 0x6
 2838 0f94 43757273 		.ascii "CursorColumn\0"
 2838      6F72436F 
 2838      6C756D6E 
 2838      00
 2839 0fa1 09       		.byte	0x9
 2840 0fa2 84       		.byte	0x84
 2841 0fa3 25       		.byte	0x25
 2842 0fa4 9F020000 		.long	0x29f
 2843 0fa8 0C       		.byte	0xc
 2844 0fa9 06       		.uleb128 0x6
 2845 0faa 43757273 		.ascii "CursorRow\0"
 2845      6F72526F 
 2845      7700
 2846 0fb4 09       		.byte	0x9
 2847 0fb5 85       		.byte	0x85
 2848 0fb6 25       		.byte	0x25
 2849 0fb7 9F020000 		.long	0x29f
 2850 0fbb 10       		.byte	0x10
 2851 0fbc 06       		.uleb128 0x6
 2852 0fbd 43757273 		.ascii "CursorVisible\0"
 2852      6F725669 
 2852      7369626C 
 2852      6500
 2853 0fcb 09       		.byte	0x9
 2854 0fcc 86       		.byte	0x86
 2855 0fcd 25       		.byte	0x25
 2856 0fce 14030000 		.long	0x314
 2857 0fd2 14       		.byte	0x14
 2858 0fd3 00       		.byte	0
 2859 0fd4 03       		.uleb128 0x3
 2860 0fd5 53494D50 		.ascii "SIMPLE_TEXT_OUTPUT_MODE\0"
 2860      4C455F54 
 2860      4558545F 
 2860      4F555450 
 2860      55545F4D 
 2861 0fed 09       		.byte	0x9
 2862 0fee 87       		.byte	0x87
 2863 0fef 03       		.byte	0x3
 2864 0ff0 5F0F0000 		.long	0xf5f
 2865 0ff4 02       		.uleb128 0x2
 2866 0ff5 D40F0000 		.long	0xfd4
 2867 0ff9 03       		.uleb128 0x3
 2868 0ffa 53494D50 		.ascii "SIMPLE_TEXT_OUTPUT_INTERFACE\0"
 2868      4C455F54 
 2868      4558545F 
 2868      4F555450 
 2868      55545F49 
 2869 1017 09       		.byte	0x9
 2870 1018 99       		.byte	0x99
 2871 1019 03       		.byte	0x3
 2872 101a F70C0000 		.long	0xcf7
 2873 101e 13       		.uleb128 0x13
 2874 101f 04       		.byte	0x4
 2875 1020 09       		.byte	0x9
 2876 1021 F1       		.byte	0xf1
 2877 1022 4E100000 		.long	0x104e
 2878 1026 06       		.uleb128 0x6
 2879 1027 5363616E 		.ascii "ScanCode\0"
 2879      436F6465 
 2879      00
 2880 1030 09       		.byte	0x9
 2881 1031 F2       		.byte	0xf2
 2882 1032 29       		.byte	0x29
 2883 1033 AD020000 		.long	0x2ad
 2884 1037 00       		.byte	0
 2885 1038 06       		.uleb128 0x6
 2886 1039 556E6963 		.ascii "UnicodeChar\0"
 2886      6F646543 
 2886      68617200 
 2887 1045 09       		.byte	0x9
 2888 1046 F3       		.byte	0xf3
 2889 1047 29       		.byte	0x29
 2890 1048 72020000 		.long	0x272
 2891 104c 02       		.byte	0x2
 2892 104d 00       		.byte	0
 2893 104e 03       		.uleb128 0x3
 2894 104f 4546495F 		.ascii "EFI_INPUT_KEY\0"
 2894      494E5055 
 2894      545F4B45 
 2894      5900
 2895 105d 09       		.byte	0x9
 2896 105e F4       		.byte	0xf4
 2897 105f 03       		.byte	0x3
 2898 1060 1E100000 		.long	0x101e
 2899 1064 08       		.uleb128 0x8
 2900 1065 4546495F 		.ascii "EFI_INPUT_RESET\0"
 2900      494E5055 
 2900      545F5245 
 2900      53455400 
 2901 1075 09       		.byte	0x9
 2902 1076 1F01     		.word	0x11f
 2903 1078 0A       		.byte	0xa
 2904 1079 7D100000 		.long	0x107d
 2905 107d 02       		.uleb128 0x2
 2906 107e 82100000 		.long	0x1082
 2907 1082 07       		.uleb128 0x7
 2908 1083 2D030000 		.long	0x32d
 2909 1087 96100000 		.long	0x1096
 2910 108b 01       		.uleb128 0x1
 2911 108c 96100000 		.long	0x1096
 2912 1090 01       		.uleb128 0x1
 2913 1091 14030000 		.long	0x314
 2914 1095 00       		.byte	0
 2915 1096 02       		.uleb128 0x2
 2916 1097 9B100000 		.long	0x109b
 2917 109b 21       		.uleb128 0x21
 2918 109c 5F53494D 		.ascii "_SIMPLE_INPUT_INTERFACE\0"
 2918      504C455F 
 2918      494E5055 
 2918      545F494E 
 2918      54455246 
 2919 10b4 18       		.byte	0x18
 2920 10b5 09       		.byte	0x9
 2921 10b6 2B01     		.word	0x12b
 2922 10b8 FA100000 		.long	0x10fa
 2923 10bc 04       		.uleb128 0x4
 2924 10bd 52657365 		.ascii "Reset\0"
 2924      7400
 2925 10c3 09       		.byte	0x9
 2926 10c4 2C01     		.word	0x12c
 2927 10c6 29       		.byte	0x29
 2928 10c7 64100000 		.long	0x1064
 2929 10cb 00       		.byte	0
 2930 10cc 04       		.uleb128 0x4
 2931 10cd 52656164 		.ascii "ReadKeyStroke\0"
 2931      4B657953 
 2931      74726F6B 
 2931      6500
 2932 10db 09       		.byte	0x9
 2933 10dc 2D01     		.word	0x12d
 2934 10de 29       		.byte	0x29
 2935 10df FA100000 		.long	0x10fa
 2936 10e3 08       		.byte	0x8
 2937 10e4 04       		.uleb128 0x4
 2938 10e5 57616974 		.ascii "WaitForKey\0"
 2938      466F724B 
 2938      657900
 2939 10f0 09       		.byte	0x9
 2940 10f1 2E01     		.word	0x12e
 2941 10f3 29       		.byte	0x29
 2942 10f4 78030000 		.long	0x378
 2943 10f8 10       		.byte	0x10
 2944 10f9 00       		.byte	0
 2945 10fa 08       		.uleb128 0x8
 2946 10fb 4546495F 		.ascii "EFI_INPUT_READ_KEY\0"
 2946      494E5055 
 2946      545F5245 
 2946      41445F4B 
 2946      455900
 2947 110e 09       		.byte	0x9
 2948 110f 2601     		.word	0x126
 2949 1111 0A       		.byte	0xa
 2950 1112 16110000 		.long	0x1116
 2951 1116 02       		.uleb128 0x2
 2952 1117 1B110000 		.long	0x111b
 2953 111b 07       		.uleb128 0x7
 2954 111c 2D030000 		.long	0x32d
 2955 1120 2F110000 		.long	0x112f
 2956 1124 01       		.uleb128 0x1
 2957 1125 96100000 		.long	0x1096
 2958 1129 01       		.uleb128 0x1
 2959 112a 2F110000 		.long	0x112f
 2960 112e 00       		.byte	0
 2961 112f 02       		.uleb128 0x2
 2962 1130 4E100000 		.long	0x104e
 2963 1134 08       		.uleb128 0x8
 2964 1135 53494D50 		.ascii "SIMPLE_INPUT_INTERFACE\0"
 2964      4C455F49 
 2964      4E505554 
 2964      5F494E54 
 2964      45524641 
 2965 114c 09       		.byte	0x9
 2966 114d 2F01     		.word	0x12f
 2967 114f 03       		.byte	0x3
 2968 1150 9B100000 		.long	0x109b
 2969 1154 02       		.uleb128 0x2
 2970 1155 AD020000 		.long	0x2ad
 2971 1159 02       		.uleb128 0x2
 2972 115a 14030000 		.long	0x314
 2973 115e 03       		.uleb128 0x3
 2974 115f 4546495F 		.ascii "EFI_ALLOCATE_PAGES\0"
 2974      414C4C4F 
 2974      43415445 
 2974      5F504147 
 2974      455300
 2975 1172 08       		.byte	0x8
 2976 1173 2C       		.byte	0x2c
 2977 1174 0A       		.byte	0xa
 2978 1175 79110000 		.long	0x1179
 2979 1179 02       		.uleb128 0x2
 2980 117a 7E110000 		.long	0x117e
 2981 117e 07       		.uleb128 0x7
 2982 117f 2D030000 		.long	0x32d
 2983 1183 9C110000 		.long	0x119c
 2984 1187 01       		.uleb128 0x1
 2985 1188 5C050000 		.long	0x55c
 2986 118c 01       		.uleb128 0x1
 2987 118d EF060000 		.long	0x6ef
 2988 1191 01       		.uleb128 0x1
 2989 1192 06030000 		.long	0x306
 2990 1196 01       		.uleb128 0x1
 2991 1197 5B080000 		.long	0x85b
 2992 119b 00       		.byte	0
 2993 119c 03       		.uleb128 0x3
 2994 119d 4546495F 		.ascii "EFI_FREE_PAGES\0"
 2994      46524545 
 2994      5F504147 
 2994      455300
 2995 11ac 08       		.byte	0x8
 2996 11ad 35       		.byte	0x35
 2997 11ae 0A       		.byte	0xa
 2998 11af B3110000 		.long	0x11b3
 2999 11b3 02       		.uleb128 0x2
 3000 11b4 B8110000 		.long	0x11b8
 3001 11b8 07       		.uleb128 0x7
 3002 11b9 2D030000 		.long	0x32d
 3003 11bd CC110000 		.long	0x11cc
 3004 11c1 01       		.uleb128 0x1
 3005 11c2 CB040000 		.long	0x4cb
 3006 11c6 01       		.uleb128 0x1
 3007 11c7 06030000 		.long	0x306
 3008 11cb 00       		.byte	0
 3009 11cc 03       		.uleb128 0x3
 3010 11cd 4546495F 		.ascii "EFI_GET_MEMORY_MAP\0"
 3010      4745545F 
 3010      4D454D4F 
 3010      52595F4D 
 3010      415000
 3011 11e0 08       		.byte	0x8
 3012 11e1 3C       		.byte	0x3c
 3013 11e2 0A       		.byte	0xa
 3014 11e3 E7110000 		.long	0x11e7
 3015 11e7 02       		.uleb128 0x2
 3016 11e8 EC110000 		.long	0x11ec
 3017 11ec 07       		.uleb128 0x7
 3018 11ed 2D030000 		.long	0x32d
 3019 11f1 0F120000 		.long	0x120f
 3020 11f5 01       		.uleb128 0x1
 3021 11f6 4C080000 		.long	0x84c
 3022 11fa 01       		.uleb128 0x1
 3023 11fb 0F120000 		.long	0x120f
 3024 11ff 01       		.uleb128 0x1
 3025 1200 4C080000 		.long	0x84c
 3026 1204 01       		.uleb128 0x1
 3027 1205 4C080000 		.long	0x84c
 3028 1209 01       		.uleb128 0x1
 3029 120a 3A0B0000 		.long	0xb3a
 3030 120e 00       		.byte	0
 3031 120f 02       		.uleb128 0x2
 3032 1210 7C070000 		.long	0x77c
 3033 1214 03       		.uleb128 0x3
 3034 1215 4546495F 		.ascii "EFI_ALLOCATE_POOL\0"
 3034      414C4C4F 
 3034      43415445 
 3034      5F504F4F 
 3034      4C00
 3035 1227 08       		.byte	0x8
 3036 1228 49       		.byte	0x49
 3037 1229 0A       		.byte	0xa
 3038 122a 2E120000 		.long	0x122e
 3039 122e 02       		.uleb128 0x2
 3040 122f 33120000 		.long	0x1233
 3041 1233 07       		.uleb128 0x7
 3042 1234 2D030000 		.long	0x32d
 3043 1238 4C120000 		.long	0x124c
 3044 123c 01       		.uleb128 0x1
 3045 123d EF060000 		.long	0x6ef
 3046 1241 01       		.uleb128 0x1
 3047 1242 06030000 		.long	0x306
 3048 1246 01       		.uleb128 0x1
 3049 1247 56080000 		.long	0x856
 3050 124b 00       		.byte	0
 3051 124c 03       		.uleb128 0x3
 3052 124d 4546495F 		.ascii "EFI_FREE_POOL\0"
 3052      46524545 
 3052      5F504F4F 
 3052      4C00
 3053 125b 08       		.byte	0x8
 3054 125c 51       		.byte	0x51
 3055 125d 0A       		.byte	0xa
 3056 125e 62120000 		.long	0x1262
 3057 1262 02       		.uleb128 0x2
 3058 1263 67120000 		.long	0x1267
 3059 1267 07       		.uleb128 0x7
 3060 1268 2D030000 		.long	0x32d
 3061 126c 76120000 		.long	0x1276
 3062 1270 01       		.uleb128 0x1
 3063 1271 73030000 		.long	0x373
 3064 1275 00       		.byte	0
 3065 1276 03       		.uleb128 0x3
 3066 1277 4546495F 		.ascii "EFI_SET_VIRTUAL_ADDRESS_MAP\0"
 3066      5345545F 
 3066      56495254 
 3066      55414C5F 
 3066      41444452 
 3067 1293 08       		.byte	0x8
 3068 1294 57       		.byte	0x57
 3069 1295 0A       		.byte	0xa
 3070 1296 9A120000 		.long	0x129a
 3071 129a 02       		.uleb128 0x2
 3072 129b 9F120000 		.long	0x129f
 3073 129f 07       		.uleb128 0x7
 3074 12a0 2D030000 		.long	0x32d
 3075 12a4 BD120000 		.long	0x12bd
 3076 12a8 01       		.uleb128 0x1
 3077 12a9 06030000 		.long	0x306
 3078 12ad 01       		.uleb128 0x1
 3079 12ae 06030000 		.long	0x306
 3080 12b2 01       		.uleb128 0x1
 3081 12b3 90020000 		.long	0x290
 3082 12b7 01       		.uleb128 0x1
 3083 12b8 0F120000 		.long	0x120f
 3084 12bc 00       		.byte	0
 3085 12bd 03       		.uleb128 0x3
 3086 12be 4546495F 		.ascii "EFI_CONVERT_POINTER\0"
 3086      434F4E56 
 3086      4552545F 
 3086      504F494E 
 3086      54455200 
 3087 12d2 08       		.byte	0x8
 3088 12d3 66       		.byte	0x66
 3089 12d4 0A       		.byte	0xa
 3090 12d5 D9120000 		.long	0x12d9
 3091 12d9 02       		.uleb128 0x2
 3092 12da DE120000 		.long	0x12de
 3093 12de 07       		.uleb128 0x7
 3094 12df 2D030000 		.long	0x32d
 3095 12e3 F2120000 		.long	0x12f2
 3096 12e7 01       		.uleb128 0x1
 3097 12e8 06030000 		.long	0x306
 3098 12ec 01       		.uleb128 0x1
 3099 12ed 56080000 		.long	0x856
 3100 12f1 00       		.byte	0
 3101 12f2 03       		.uleb128 0x3
 3102 12f3 4546495F 		.ascii "EFI_EVENT_NOTIFY\0"
 3102      4556454E 
 3102      545F4E4F 
 3102      54494659 
 3102      00
 3103 1304 08       		.byte	0x8
 3104 1305 8A       		.byte	0x8a
 3105 1306 0A       		.byte	0xa
 3106 1307 0B130000 		.long	0x130b
 3107 130b 02       		.uleb128 0x2
 3108 130c 10130000 		.long	0x1310
 3109 1310 22       		.uleb128 0x22
 3110 1311 20130000 		.long	0x1320
 3111 1315 01       		.uleb128 0x1
 3112 1316 78030000 		.long	0x378
 3113 131a 01       		.uleb128 0x1
 3114 131b 73030000 		.long	0x373
 3115 131f 00       		.byte	0
 3116 1320 03       		.uleb128 0x3
 3117 1321 4546495F 		.ascii "EFI_CREATE_EVENT\0"
 3117      43524541 
 3117      54455F45 
 3117      56454E54 
 3117      00
 3118 1332 08       		.byte	0x8
 3119 1333 91       		.byte	0x91
 3120 1334 0A       		.byte	0xa
 3121 1335 39130000 		.long	0x1339
 3122 1339 02       		.uleb128 0x2
 3123 133a 3E130000 		.long	0x133e
 3124 133e 07       		.uleb128 0x7
 3125 133f 2D030000 		.long	0x32d
 3126 1343 61130000 		.long	0x1361
 3127 1347 01       		.uleb128 0x1
 3128 1348 90020000 		.long	0x290
 3129 134c 01       		.uleb128 0x1
 3130 134d 50030000 		.long	0x350
 3131 1351 01       		.uleb128 0x1
 3132 1352 F2120000 		.long	0x12f2
 3133 1356 01       		.uleb128 0x1
 3134 1357 73030000 		.long	0x373
 3135 135b 01       		.uleb128 0x1
 3136 135c 61130000 		.long	0x1361
 3137 1360 00       		.byte	0
 3138 1361 02       		.uleb128 0x2
 3139 1362 78030000 		.long	0x378
 3140 1366 1F       		.uleb128 0x1f
 3141 1367 EF010000 		.long	0x1ef
 3142 136b 08       		.byte	0x8
 3143 136c 99       		.byte	0x99
 3144 136d AF130000 		.long	0x13af
 3145 1371 09       		.uleb128 0x9
 3146 1372 54696D65 		.ascii "TimerCancel\0"
 3146      7243616E 
 3146      63656C00 
 3147 137e 00       		.byte	0
 3148 137f 09       		.uleb128 0x9
 3149 1380 54696D65 		.ascii "TimerPeriodic\0"
 3149      72506572 
 3149      696F6469 
 3149      6300
 3150 138e 01       		.byte	0x1
 3151 138f 09       		.uleb128 0x9
 3152 1390 54696D65 		.ascii "TimerRelative\0"
 3152      7252656C 
 3152      61746976 
 3152      6500
 3153 139e 02       		.byte	0x2
 3154 139f 09       		.uleb128 0x9
 3155 13a0 54696D65 		.ascii "TimerTypeMax\0"
 3155      72547970 
 3155      654D6178 
 3155      00
 3156 13ad 03       		.byte	0x3
 3157 13ae 00       		.byte	0
 3158 13af 03       		.uleb128 0x3
 3159 13b0 4546495F 		.ascii "EFI_TIMER_DELAY\0"
 3159      54494D45 
 3159      525F4445 
 3159      4C415900 
 3160 13c0 08       		.byte	0x8
 3161 13c1 9E       		.byte	0x9e
 3162 13c2 03       		.byte	0x3
 3163 13c3 66130000 		.long	0x1366
 3164 13c7 03       		.uleb128 0x3
 3165 13c8 4546495F 		.ascii "EFI_SET_TIMER\0"
 3165      5345545F 
 3165      54494D45 
 3165      5200
 3166 13d6 08       		.byte	0x8
 3167 13d7 A2       		.byte	0xa2
 3168 13d8 0A       		.byte	0xa
 3169 13d9 DD130000 		.long	0x13dd
 3170 13dd 02       		.uleb128 0x2
 3171 13de E2130000 		.long	0x13e2
 3172 13e2 07       		.uleb128 0x7
 3173 13e3 2D030000 		.long	0x32d
 3174 13e7 FB130000 		.long	0x13fb
 3175 13eb 01       		.uleb128 0x1
 3176 13ec 78030000 		.long	0x378
 3177 13f0 01       		.uleb128 0x1
 3178 13f1 AF130000 		.long	0x13af
 3179 13f5 01       		.uleb128 0x1
 3180 13f6 81020000 		.long	0x281
 3181 13fa 00       		.byte	0
 3182 13fb 03       		.uleb128 0x3
 3183 13fc 4546495F 		.ascii "EFI_SIGNAL_EVENT\0"
 3183      5349474E 
 3183      414C5F45 
 3183      56454E54 
 3183      00
 3184 140d 08       		.byte	0x8
 3185 140e AA       		.byte	0xaa
 3186 140f 0A       		.byte	0xa
 3187 1410 14140000 		.long	0x1414
 3188 1414 02       		.uleb128 0x2
 3189 1415 19140000 		.long	0x1419
 3190 1419 07       		.uleb128 0x7
 3191 141a 2D030000 		.long	0x32d
 3192 141e 28140000 		.long	0x1428
 3193 1422 01       		.uleb128 0x1
 3194 1423 78030000 		.long	0x378
 3195 1427 00       		.byte	0
 3196 1428 03       		.uleb128 0x3
 3197 1429 4546495F 		.ascii "EFI_WAIT_FOR_EVENT\0"
 3197      57414954 
 3197      5F464F52 
 3197      5F455645 
 3197      4E5400
 3198 143c 08       		.byte	0x8
 3199 143d B0       		.byte	0xb0
 3200 143e 0A       		.byte	0xa
 3201 143f 43140000 		.long	0x1443
 3202 1443 02       		.uleb128 0x2
 3203 1444 48140000 		.long	0x1448
 3204 1448 07       		.uleb128 0x7
 3205 1449 2D030000 		.long	0x32d
 3206 144d 61140000 		.long	0x1461
 3207 1451 01       		.uleb128 0x1
 3208 1452 06030000 		.long	0x306
 3209 1456 01       		.uleb128 0x1
 3210 1457 61130000 		.long	0x1361
 3211 145b 01       		.uleb128 0x1
 3212 145c 4C080000 		.long	0x84c
 3213 1460 00       		.byte	0
 3214 1461 03       		.uleb128 0x3
 3215 1462 4546495F 		.ascii "EFI_CLOSE_EVENT\0"
 3215      434C4F53 
 3215      455F4556 
 3215      454E5400 
 3216 1472 08       		.byte	0x8
 3217 1473 B8       		.byte	0xb8
 3218 1474 0A       		.byte	0xa
 3219 1475 14140000 		.long	0x1414
 3220 1479 03       		.uleb128 0x3
 3221 147a 4546495F 		.ascii "EFI_CHECK_EVENT\0"
 3221      43484543 
 3221      4B5F4556 
 3221      454E5400 
 3222 148a 08       		.byte	0x8
 3223 148b BE       		.byte	0xbe
 3224 148c 0A       		.byte	0xa
 3225 148d 14140000 		.long	0x1414
 3226 1491 03       		.uleb128 0x3
 3227 1492 4546495F 		.ascii "EFI_RAISE_TPL\0"
 3227      52414953 
 3227      455F5450 
 3227      4C00
 3228 14a0 08       		.byte	0x8
 3229 14a1 D0       		.byte	0xd0
 3230 14a2 0A       		.byte	0xa
 3231 14a3 A7140000 		.long	0x14a7
 3232 14a7 02       		.uleb128 0x2
 3233 14a8 AC140000 		.long	0x14ac
 3234 14ac 07       		.uleb128 0x7
 3235 14ad 50030000 		.long	0x350
 3236 14b1 BB140000 		.long	0x14bb
 3237 14b5 01       		.uleb128 0x1
 3238 14b6 50030000 		.long	0x350
 3239 14ba 00       		.byte	0
 3240 14bb 03       		.uleb128 0x3
 3241 14bc 4546495F 		.ascii "EFI_RESTORE_TPL\0"
 3241      52455354 
 3241      4F52455F 
 3241      54504C00 
 3242 14cc 08       		.byte	0x8
 3243 14cd D6       		.byte	0xd6
 3244 14ce 0A       		.byte	0xa
 3245 14cf D3140000 		.long	0x14d3
 3246 14d3 02       		.uleb128 0x2
 3247 14d4 D8140000 		.long	0x14d8
 3248 14d8 22       		.uleb128 0x22
 3249 14d9 E3140000 		.long	0x14e3
 3250 14dd 01       		.uleb128 0x1
 3251 14de 50030000 		.long	0x350
 3252 14e2 00       		.byte	0
 3253 14e3 03       		.uleb128 0x3
 3254 14e4 4546495F 		.ascii "EFI_GET_VARIABLE\0"
 3254      4745545F 
 3254      56415249 
 3254      41424C45 
 3254      00
 3255 14f5 08       		.byte	0x8
 3256 14f6 F1       		.byte	0xf1
 3257 14f7 0A       		.byte	0xa
 3258 14f8 FC140000 		.long	0x14fc
 3259 14fc 02       		.uleb128 0x2
 3260 14fd 01150000 		.long	0x1501
 3261 1501 07       		.uleb128 0x7
 3262 1502 2D030000 		.long	0x32d
 3263 1506 24150000 		.long	0x1524
 3264 150a 01       		.uleb128 0x1
 3265 150b 47080000 		.long	0x847
 3266 150f 01       		.uleb128 0x1
 3267 1510 210B0000 		.long	0xb21
 3268 1514 01       		.uleb128 0x1
 3269 1515 3A0B0000 		.long	0xb3a
 3270 1519 01       		.uleb128 0x1
 3271 151a 4C080000 		.long	0x84c
 3272 151e 01       		.uleb128 0x1
 3273 151f 73030000 		.long	0x373
 3274 1523 00       		.byte	0
 3275 1524 03       		.uleb128 0x3
 3276 1525 4546495F 		.ascii "EFI_GET_NEXT_VARIABLE_NAME\0"
 3276      4745545F 
 3276      4E455854 
 3276      5F564152 
 3276      4941424C 
 3277 1540 08       		.byte	0x8
 3278 1541 FB       		.byte	0xfb
 3279 1542 0A       		.byte	0xa
 3280 1543 47150000 		.long	0x1547
 3281 1547 02       		.uleb128 0x2
 3282 1548 4C150000 		.long	0x154c
 3283 154c 07       		.uleb128 0x7
 3284 154d 2D030000 		.long	0x32d
 3285 1551 65150000 		.long	0x1565
 3286 1555 01       		.uleb128 0x1
 3287 1556 4C080000 		.long	0x84c
 3288 155a 01       		.uleb128 0x1
 3289 155b 47080000 		.long	0x847
 3290 155f 01       		.uleb128 0x1
 3291 1560 210B0000 		.long	0xb21
 3292 1564 00       		.byte	0
 3293 1565 08       		.uleb128 0x8
 3294 1566 4546495F 		.ascii "EFI_SET_VARIABLE\0"
 3294      5345545F 
 3294      56415249 
 3294      41424C45 
 3294      00
 3295 1577 08       		.byte	0x8
 3296 1578 0401     		.word	0x104
 3297 157a 0A       		.byte	0xa
 3298 157b 7F150000 		.long	0x157f
 3299 157f 02       		.uleb128 0x2
 3300 1580 84150000 		.long	0x1584
 3301 1584 07       		.uleb128 0x7
 3302 1585 2D030000 		.long	0x32d
 3303 1589 A7150000 		.long	0x15a7
 3304 158d 01       		.uleb128 0x1
 3305 158e 47080000 		.long	0x847
 3306 1592 01       		.uleb128 0x1
 3307 1593 210B0000 		.long	0xb21
 3308 1597 01       		.uleb128 0x1
 3309 1598 90020000 		.long	0x290
 3310 159c 01       		.uleb128 0x1
 3311 159d 06030000 		.long	0x306
 3312 15a1 01       		.uleb128 0x1
 3313 15a2 73030000 		.long	0x373
 3314 15a6 00       		.byte	0
 3315 15a7 23       		.uleb128 0x23
 3316 15a8 0C       		.byte	0xc
 3317 15a9 1101     		.word	0x111
 3318 15ab ED150000 		.long	0x15ed
 3319 15af 04       		.uleb128 0x4
 3320 15b0 5265736F 		.ascii "Resolution\0"
 3320      6C757469 
 3320      6F6E00
 3321 15bb 08       		.byte	0x8
 3322 15bc 1201     		.word	0x112
 3323 15be 25       		.byte	0x25
 3324 15bf 90020000 		.long	0x290
 3325 15c3 00       		.byte	0
 3326 15c4 04       		.uleb128 0x4
 3327 15c5 41636375 		.ascii "Accuracy\0"
 3327      72616379 
 3327      00
 3328 15ce 08       		.byte	0x8
 3329 15cf 1301     		.word	0x113
 3330 15d1 25       		.byte	0x25
 3331 15d2 90020000 		.long	0x290
 3332 15d6 04       		.byte	0x4
 3333 15d7 04       		.uleb128 0x4
 3334 15d8 53657473 		.ascii "SetsToZero\0"
 3334      546F5A65 
 3334      726F00
 3335 15e3 08       		.byte	0x8
 3336 15e4 1401     		.word	0x114
 3337 15e6 25       		.byte	0x25
 3338 15e7 14030000 		.long	0x314
 3339 15eb 08       		.byte	0x8
 3340 15ec 00       		.byte	0
 3341 15ed 08       		.uleb128 0x8
 3342 15ee 4546495F 		.ascii "EFI_TIME_CAPABILITIES\0"
 3342      54494D45 
 3342      5F434150 
 3342      4142494C 
 3342      49544945 
 3343 1604 08       		.byte	0x8
 3344 1605 1501     		.word	0x115
 3345 1607 03       		.byte	0x3
 3346 1608 A7150000 		.long	0x15a7
 3347 160c 08       		.uleb128 0x8
 3348 160d 4546495F 		.ascii "EFI_GET_TIME\0"
 3348      4745545F 
 3348      54494D45 
 3348      00
 3349 161a 08       		.byte	0x8
 3350 161b 1A01     		.word	0x11a
 3351 161d 0A       		.byte	0xa
 3352 161e 22160000 		.long	0x1622
 3353 1622 02       		.uleb128 0x2
 3354 1623 27160000 		.long	0x1627
 3355 1627 07       		.uleb128 0x7
 3356 1628 2D030000 		.long	0x32d
 3357 162c 3B160000 		.long	0x163b
 3358 1630 01       		.uleb128 0x1
 3359 1631 3B160000 		.long	0x163b
 3360 1635 01       		.uleb128 0x1
 3361 1636 40160000 		.long	0x1640
 3362 163a 00       		.byte	0
 3363 163b 02       		.uleb128 0x2
 3364 163c AA040000 		.long	0x4aa
 3365 1640 02       		.uleb128 0x2
 3366 1641 ED150000 		.long	0x15ed
 3367 1645 08       		.uleb128 0x8
 3368 1646 4546495F 		.ascii "EFI_SET_TIME\0"
 3368      5345545F 
 3368      54494D45 
 3368      00
 3369 1653 08       		.byte	0x8
 3370 1654 2101     		.word	0x121
 3371 1656 0A       		.byte	0xa
 3372 1657 5B160000 		.long	0x165b
 3373 165b 02       		.uleb128 0x2
 3374 165c 60160000 		.long	0x1660
 3375 1660 07       		.uleb128 0x7
 3376 1661 2D030000 		.long	0x32d
 3377 1665 6F160000 		.long	0x166f
 3378 1669 01       		.uleb128 0x1
 3379 166a 3B160000 		.long	0x163b
 3380 166e 00       		.byte	0
 3381 166f 08       		.uleb128 0x8
 3382 1670 4546495F 		.ascii "EFI_GET_WAKEUP_TIME\0"
 3382      4745545F 
 3382      57414B45 
 3382      55505F54 
 3382      494D4500 
 3383 1684 08       		.byte	0x8
 3384 1685 2701     		.word	0x127
 3385 1687 0A       		.byte	0xa
 3386 1688 8C160000 		.long	0x168c
 3387 168c 02       		.uleb128 0x2
 3388 168d 91160000 		.long	0x1691
 3389 1691 07       		.uleb128 0x7
 3390 1692 2D030000 		.long	0x32d
 3391 1696 AA160000 		.long	0x16aa
 3392 169a 01       		.uleb128 0x1
 3393 169b 59110000 		.long	0x1159
 3394 169f 01       		.uleb128 0x1
 3395 16a0 59110000 		.long	0x1159
 3396 16a4 01       		.uleb128 0x1
 3397 16a5 3B160000 		.long	0x163b
 3398 16a9 00       		.byte	0
 3399 16aa 08       		.uleb128 0x8
 3400 16ab 4546495F 		.ascii "EFI_SET_WAKEUP_TIME\0"
 3400      5345545F 
 3400      57414B45 
 3400      55505F54 
 3400      494D4500 
 3401 16bf 08       		.byte	0x8
 3402 16c0 2F01     		.word	0x12f
 3403 16c2 0A       		.byte	0xa
 3404 16c3 C7160000 		.long	0x16c7
 3405 16c7 02       		.uleb128 0x2
 3406 16c8 CC160000 		.long	0x16cc
 3407 16cc 07       		.uleb128 0x7
 3408 16cd 2D030000 		.long	0x32d
 3409 16d1 E0160000 		.long	0x16e0
 3410 16d5 01       		.uleb128 0x1
 3411 16d6 14030000 		.long	0x314
 3412 16da 01       		.uleb128 0x1
 3413 16db 3B160000 		.long	0x163b
 3414 16df 00       		.byte	0
 3415 16e0 08       		.uleb128 0x8
 3416 16e1 4546495F 		.ascii "EFI_IMAGE_LOAD\0"
 3416      494D4147 
 3416      455F4C4F 
 3416      414400
 3417 16f0 08       		.byte	0x8
 3418 16f1 7B01     		.word	0x17b
 3419 16f3 0A       		.byte	0xa
 3420 16f4 F8160000 		.long	0x16f8
 3421 16f8 02       		.uleb128 0x2
 3422 16f9 FD160000 		.long	0x16fd
 3423 16fd 07       		.uleb128 0x7
 3424 16fe 2D030000 		.long	0x32d
 3425 1702 25170000 		.long	0x1725
 3426 1706 01       		.uleb128 0x1
 3427 1707 14030000 		.long	0x314
 3428 170b 01       		.uleb128 0x1
 3429 170c 60030000 		.long	0x360
 3430 1710 01       		.uleb128 0x1
 3431 1711 260B0000 		.long	0xb26
 3432 1715 01       		.uleb128 0x1
 3433 1716 73030000 		.long	0x373
 3434 171a 01       		.uleb128 0x1
 3435 171b 06030000 		.long	0x306
 3436 171f 01       		.uleb128 0x1
 3437 1720 350B0000 		.long	0xb35
 3438 1724 00       		.byte	0
 3439 1725 08       		.uleb128 0x8
 3440 1726 4546495F 		.ascii "EFI_IMAGE_START\0"
 3440      494D4147 
 3440      455F5354 
 3440      41525400 
 3441 1736 08       		.byte	0x8
 3442 1737 8601     		.word	0x186
 3443 1739 0A       		.byte	0xa
 3444 173a 3E170000 		.long	0x173e
 3445 173e 02       		.uleb128 0x2
 3446 173f 43170000 		.long	0x1743
 3447 1743 07       		.uleb128 0x7
 3448 1744 2D030000 		.long	0x32d
 3449 1748 5C170000 		.long	0x175c
 3450 174c 01       		.uleb128 0x1
 3451 174d 60030000 		.long	0x360
 3452 1751 01       		.uleb128 0x1
 3453 1752 4C080000 		.long	0x84c
 3454 1756 01       		.uleb128 0x1
 3455 1757 3F0B0000 		.long	0xb3f
 3456 175b 00       		.byte	0
 3457 175c 08       		.uleb128 0x8
 3458 175d 4546495F 		.ascii "EFI_EXIT\0"
 3458      45584954 
 3458      00
 3459 1766 08       		.byte	0x8
 3460 1767 8E01     		.word	0x18e
 3461 1769 0A       		.byte	0xa
 3462 176a 6E170000 		.long	0x176e
 3463 176e 02       		.uleb128 0x2
 3464 176f 73170000 		.long	0x1773
 3465 1773 07       		.uleb128 0x7
 3466 1774 2D030000 		.long	0x32d
 3467 1778 91170000 		.long	0x1791
 3468 177c 01       		.uleb128 0x1
 3469 177d 60030000 		.long	0x360
 3470 1781 01       		.uleb128 0x1
 3471 1782 2D030000 		.long	0x32d
 3472 1786 01       		.uleb128 0x1
 3473 1787 06030000 		.long	0x306
 3474 178b 01       		.uleb128 0x1
 3475 178c 47080000 		.long	0x847
 3476 1790 00       		.byte	0
 3477 1791 08       		.uleb128 0x8
 3478 1792 4546495F 		.ascii "EFI_EXIT_BOOT_SERVICES\0"
 3478      45584954 
 3478      5F424F4F 
 3478      545F5345 
 3478      52564943 
 3479 17a9 08       		.byte	0x8
 3480 17aa B701     		.word	0x1b7
 3481 17ac 0A       		.byte	0xa
 3482 17ad B1170000 		.long	0x17b1
 3483 17b1 02       		.uleb128 0x2
 3484 17b2 B6170000 		.long	0x17b6
 3485 17b6 07       		.uleb128 0x7
 3486 17b7 2D030000 		.long	0x32d
 3487 17bb CA170000 		.long	0x17ca
 3488 17bf 01       		.uleb128 0x1
 3489 17c0 60030000 		.long	0x360
 3490 17c4 01       		.uleb128 0x1
 3491 17c5 06030000 		.long	0x306
 3492 17c9 00       		.byte	0
 3493 17ca 08       		.uleb128 0x8
 3494 17cb 4546495F 		.ascii "EFI_STALL\0"
 3494      5354414C 
 3494      4C00
 3495 17d5 08       		.byte	0x8
 3496 17d6 C301     		.word	0x1c3
 3497 17d8 0A       		.byte	0xa
 3498 17d9 DD170000 		.long	0x17dd
 3499 17dd 02       		.uleb128 0x2
 3500 17de E2170000 		.long	0x17e2
 3501 17e2 07       		.uleb128 0x7
 3502 17e3 2D030000 		.long	0x32d
 3503 17e7 F1170000 		.long	0x17f1
 3504 17eb 01       		.uleb128 0x1
 3505 17ec 06030000 		.long	0x306
 3506 17f0 00       		.byte	0
 3507 17f1 08       		.uleb128 0x8
 3508 17f2 4546495F 		.ascii "EFI_SET_WATCHDOG_TIMER\0"
 3508      5345545F 
 3508      57415443 
 3508      48444F47 
 3508      5F54494D 
 3509 1809 08       		.byte	0x8
 3510 180a C901     		.word	0x1c9
 3511 180c 0A       		.byte	0xa
 3512 180d 11180000 		.long	0x1811
 3513 1811 02       		.uleb128 0x2
 3514 1812 16180000 		.long	0x1816
 3515 1816 07       		.uleb128 0x7
 3516 1817 2D030000 		.long	0x32d
 3517 181b 34180000 		.long	0x1834
 3518 181f 01       		.uleb128 0x1
 3519 1820 06030000 		.long	0x306
 3520 1824 01       		.uleb128 0x1
 3521 1825 81020000 		.long	0x281
 3522 1829 01       		.uleb128 0x1
 3523 182a 06030000 		.long	0x306
 3524 182e 01       		.uleb128 0x1
 3525 182f 47080000 		.long	0x847
 3526 1833 00       		.byte	0
 3527 1834 08       		.uleb128 0x8
 3528 1835 4546495F 		.ascii "EFI_CONNECT_CONTROLLER\0"
 3528      434F4E4E 
 3528      4543545F 
 3528      434F4E54 
 3528      524F4C4C 
 3529 184c 08       		.byte	0x8
 3530 184d D201     		.word	0x1d2
 3531 184f 0A       		.byte	0xa
 3532 1850 54180000 		.long	0x1854
 3533 1854 02       		.uleb128 0x2
 3534 1855 59180000 		.long	0x1859
 3535 1859 07       		.uleb128 0x7
 3536 185a 2D030000 		.long	0x32d
 3537 185e 77180000 		.long	0x1877
 3538 1862 01       		.uleb128 0x1
 3539 1863 60030000 		.long	0x360
 3540 1867 01       		.uleb128 0x1
 3541 1868 350B0000 		.long	0xb35
 3542 186c 01       		.uleb128 0x1
 3543 186d 260B0000 		.long	0xb26
 3544 1871 01       		.uleb128 0x1
 3545 1872 14030000 		.long	0x314
 3546 1876 00       		.byte	0
 3547 1877 08       		.uleb128 0x8
 3548 1878 4546495F 		.ascii "EFI_DISCONNECT_CONTROLLER\0"
 3548      44495343 
 3548      4F4E4E45 
 3548      43545F43 
 3548      4F4E5452 
 3549 1892 08       		.byte	0x8
 3550 1893 DB01     		.word	0x1db
 3551 1895 0A       		.byte	0xa
 3552 1896 9A180000 		.long	0x189a
 3553 189a 02       		.uleb128 0x2
 3554 189b 9F180000 		.long	0x189f
 3555 189f 07       		.uleb128 0x7
 3556 18a0 2D030000 		.long	0x32d
 3557 18a4 B8180000 		.long	0x18b8
 3558 18a8 01       		.uleb128 0x1
 3559 18a9 60030000 		.long	0x360
 3560 18ad 01       		.uleb128 0x1
 3561 18ae 60030000 		.long	0x360
 3562 18b2 01       		.uleb128 0x1
 3563 18b3 60030000 		.long	0x360
 3564 18b7 00       		.byte	0
 3565 18b8 08       		.uleb128 0x8
 3566 18b9 4546495F 		.ascii "EFI_OPEN_PROTOCOL\0"
 3566      4F50454E 
 3566      5F50524F 
 3566      544F434F 
 3566      4C00
 3567 18cb 08       		.byte	0x8
 3568 18cc EA01     		.word	0x1ea
 3569 18ce 0A       		.byte	0xa
 3570 18cf D3180000 		.long	0x18d3
 3571 18d3 02       		.uleb128 0x2
 3572 18d4 D8180000 		.long	0x18d8
 3573 18d8 07       		.uleb128 0x7
 3574 18d9 2D030000 		.long	0x32d
 3575 18dd 00190000 		.long	0x1900
 3576 18e1 01       		.uleb128 0x1
 3577 18e2 60030000 		.long	0x360
 3578 18e6 01       		.uleb128 0x1
 3579 18e7 210B0000 		.long	0xb21
 3580 18eb 01       		.uleb128 0x1
 3581 18ec 56080000 		.long	0x856
 3582 18f0 01       		.uleb128 0x1
 3583 18f1 60030000 		.long	0x360
 3584 18f5 01       		.uleb128 0x1
 3585 18f6 60030000 		.long	0x360
 3586 18fa 01       		.uleb128 0x1
 3587 18fb 90020000 		.long	0x290
 3588 18ff 00       		.byte	0
 3589 1900 08       		.uleb128 0x8
 3590 1901 4546495F 		.ascii "EFI_CLOSE_PROTOCOL\0"
 3590      434C4F53 
 3590      455F5052 
 3590      4F544F43 
 3590      4F4C00
 3591 1914 08       		.byte	0x8
 3592 1915 F501     		.word	0x1f5
 3593 1917 0A       		.byte	0xa
 3594 1918 1C190000 		.long	0x191c
 3595 191c 02       		.uleb128 0x2
 3596 191d 21190000 		.long	0x1921
 3597 1921 07       		.uleb128 0x7
 3598 1922 2D030000 		.long	0x32d
 3599 1926 3F190000 		.long	0x193f
 3600 192a 01       		.uleb128 0x1
 3601 192b 60030000 		.long	0x360
 3602 192f 01       		.uleb128 0x1
 3603 1930 210B0000 		.long	0xb21
 3604 1934 01       		.uleb128 0x1
 3605 1935 60030000 		.long	0x360
 3606 1939 01       		.uleb128 0x1
 3607 193a 60030000 		.long	0x360
 3608 193e 00       		.byte	0
 3609 193f 23       		.uleb128 0x23
 3610 1940 18       		.byte	0x18
 3611 1941 FC01     		.word	0x1fc
 3612 1943 A2190000 		.long	0x19a2
 3613 1947 04       		.uleb128 0x4
 3614 1948 4167656E 		.ascii "AgentHandle\0"
 3614      7448616E 
 3614      646C6500 
 3615 1954 08       		.byte	0x8
 3616 1955 FD01     		.word	0x1fd
 3617 1957 21       		.byte	0x21
 3618 1958 60030000 		.long	0x360
 3619 195c 00       		.byte	0
 3620 195d 04       		.uleb128 0x4
 3621 195e 436F6E74 		.ascii "ControllerHandle\0"
 3621      726F6C6C 
 3621      65724861 
 3621      6E646C65 
 3621      00
 3622 196f 08       		.byte	0x8
 3623 1970 FE01     		.word	0x1fe
 3624 1972 21       		.byte	0x21
 3625 1973 60030000 		.long	0x360
 3626 1977 08       		.byte	0x8
 3627 1978 04       		.uleb128 0x4
 3628 1979 41747472 		.ascii "Attributes\0"
 3628      69627574 
 3628      657300
 3629 1984 08       		.byte	0x8
 3630 1985 FF01     		.word	0x1ff
 3631 1987 21       		.byte	0x21
 3632 1988 90020000 		.long	0x290
 3633 198c 10       		.byte	0x10
 3634 198d 04       		.uleb128 0x4
 3635 198e 4F70656E 		.ascii "OpenCount\0"
 3635      436F756E 
 3635      7400
 3636 1998 08       		.byte	0x8
 3637 1999 0002     		.word	0x200
 3638 199b 21       		.byte	0x21
 3639 199c 90020000 		.long	0x290
 3640 19a0 14       		.byte	0x14
 3641 19a1 00       		.byte	0
 3642 19a2 08       		.uleb128 0x8
 3643 19a3 4546495F 		.ascii "EFI_OPEN_PROTOCOL_INFORMATION_ENTRY\0"
 3643      4F50454E 
 3643      5F50524F 
 3643      544F434F 
 3643      4C5F494E 
 3644 19c7 08       		.byte	0x8
 3645 19c8 0102     		.word	0x201
 3646 19ca 03       		.byte	0x3
 3647 19cb 3F190000 		.long	0x193f
 3648 19cf 08       		.uleb128 0x8
 3649 19d0 4546495F 		.ascii "EFI_OPEN_PROTOCOL_INFORMATION\0"
 3649      4F50454E 
 3649      5F50524F 
 3649      544F434F 
 3649      4C5F494E 
 3650 19ee 08       		.byte	0x8
 3651 19ef 0502     		.word	0x205
 3652 19f1 0A       		.byte	0xa
 3653 19f2 F6190000 		.long	0x19f6
 3654 19f6 02       		.uleb128 0x2
 3655 19f7 FB190000 		.long	0x19fb
 3656 19fb 07       		.uleb128 0x7
 3657 19fc 2D030000 		.long	0x32d
 3658 1a00 191A0000 		.long	0x1a19
 3659 1a04 01       		.uleb128 0x1
 3660 1a05 60030000 		.long	0x360
 3661 1a09 01       		.uleb128 0x1
 3662 1a0a 210B0000 		.long	0xb21
 3663 1a0e 01       		.uleb128 0x1
 3664 1a0f 191A0000 		.long	0x1a19
 3665 1a13 01       		.uleb128 0x1
 3666 1a14 4C080000 		.long	0x84c
 3667 1a18 00       		.byte	0
 3668 1a19 02       		.uleb128 0x2
 3669 1a1a 1E1A0000 		.long	0x1a1e
 3670 1a1e 02       		.uleb128 0x2
 3671 1a1f A2190000 		.long	0x19a2
 3672 1a23 08       		.uleb128 0x8
 3673 1a24 4546495F 		.ascii "EFI_PROTOCOLS_PER_HANDLE\0"
 3673      50524F54 
 3673      4F434F4C 
 3673      535F5045 
 3673      525F4841 
 3674 1a3d 08       		.byte	0x8
 3675 1a3e 0E02     		.word	0x20e
 3676 1a40 0A       		.byte	0xa
 3677 1a41 451A0000 		.long	0x1a45
 3678 1a45 02       		.uleb128 0x2
 3679 1a46 4A1A0000 		.long	0x1a4a
 3680 1a4a 07       		.uleb128 0x7
 3681 1a4b 2D030000 		.long	0x32d
 3682 1a4f 631A0000 		.long	0x1a63
 3683 1a53 01       		.uleb128 0x1
 3684 1a54 60030000 		.long	0x360
 3685 1a58 01       		.uleb128 0x1
 3686 1a59 631A0000 		.long	0x1a63
 3687 1a5d 01       		.uleb128 0x1
 3688 1a5e 4C080000 		.long	0x84c
 3689 1a62 00       		.byte	0
 3690 1a63 02       		.uleb128 0x2
 3691 1a64 681A0000 		.long	0x1a68
 3692 1a68 02       		.uleb128 0x2
 3693 1a69 210B0000 		.long	0xb21
 3694 1a6d 27       		.uleb128 0x27
 3695 1a6e EF010000 		.long	0x1ef
 3696 1a72 1402     		.word	0x214
 3697 1a74 A61A0000 		.long	0x1aa6
 3698 1a78 09       		.uleb128 0x9
 3699 1a79 416C6C48 		.ascii "AllHandles\0"
 3699      616E646C 
 3699      657300
 3700 1a84 00       		.byte	0
 3701 1a85 09       		.uleb128 0x9
 3702 1a86 42795265 		.ascii "ByRegisterNotify\0"
 3702      67697374 
 3702      65724E6F 
 3702      74696679 
 3702      00
 3703 1a97 01       		.byte	0x1
 3704 1a98 09       		.uleb128 0x9
 3705 1a99 42795072 		.ascii "ByProtocol\0"
 3705      6F746F63 
 3705      6F6C00
 3706 1aa4 02       		.byte	0x2
 3707 1aa5 00       		.byte	0
 3708 1aa6 08       		.uleb128 0x8
 3709 1aa7 4546495F 		.ascii "EFI_LOCATE_SEARCH_TYPE\0"
 3709      4C4F4341 
 3709      54455F53 
 3709      45415243 
 3709      485F5459 
 3710 1abe 08       		.byte	0x8
 3711 1abf 1802     		.word	0x218
 3712 1ac1 03       		.byte	0x3
 3713 1ac2 6D1A0000 		.long	0x1a6d
 3714 1ac6 08       		.uleb128 0x8
 3715 1ac7 4546495F 		.ascii "EFI_LOCATE_HANDLE_BUFFER\0"
 3715      4C4F4341 
 3715      54455F48 
 3715      414E444C 
 3715      455F4255 
 3716 1ae0 08       		.byte	0x8
 3717 1ae1 1C02     		.word	0x21c
 3718 1ae3 0A       		.byte	0xa
 3719 1ae4 E81A0000 		.long	0x1ae8
 3720 1ae8 02       		.uleb128 0x2
 3721 1ae9 ED1A0000 		.long	0x1aed
 3722 1aed 07       		.uleb128 0x7
 3723 1aee 2D030000 		.long	0x32d
 3724 1af2 101B0000 		.long	0x1b10
 3725 1af6 01       		.uleb128 0x1
 3726 1af7 A61A0000 		.long	0x1aa6
 3727 1afb 01       		.uleb128 0x1
 3728 1afc 210B0000 		.long	0xb21
 3729 1b00 01       		.uleb128 0x1
 3730 1b01 73030000 		.long	0x373
 3731 1b05 01       		.uleb128 0x1
 3732 1b06 4C080000 		.long	0x84c
 3733 1b0a 01       		.uleb128 0x1
 3734 1b0b 101B0000 		.long	0x1b10
 3735 1b0f 00       		.byte	0
 3736 1b10 02       		.uleb128 0x2
 3737 1b11 350B0000 		.long	0xb35
 3738 1b15 08       		.uleb128 0x8
 3739 1b16 4546495F 		.ascii "EFI_LOCATE_PROTOCOL\0"
 3739      4C4F4341 
 3739      54455F50 
 3739      524F544F 
 3739      434F4C00 
 3740 1b2a 08       		.byte	0x8
 3741 1b2b 2602     		.word	0x226
 3742 1b2d 0A       		.byte	0xa
 3743 1b2e 321B0000 		.long	0x1b32
 3744 1b32 02       		.uleb128 0x2
 3745 1b33 371B0000 		.long	0x1b37
 3746 1b37 07       		.uleb128 0x7
 3747 1b38 2D030000 		.long	0x32d
 3748 1b3c 501B0000 		.long	0x1b50
 3749 1b40 01       		.uleb128 0x1
 3750 1b41 210B0000 		.long	0xb21
 3751 1b45 01       		.uleb128 0x1
 3752 1b46 73030000 		.long	0x373
 3753 1b4a 01       		.uleb128 0x1
 3754 1b4b 56080000 		.long	0x856
 3755 1b4f 00       		.byte	0
 3756 1b50 08       		.uleb128 0x8
 3757 1b51 4546495F 		.ascii "EFI_INSTALL_MULTIPLE_PROTOCOL_INTERFACES\0"
 3757      494E5354 
 3757      414C4C5F 
 3757      4D554C54 
 3757      49504C45 
 3758 1b7a 08       		.byte	0x8
 3759 1b7b 2E02     		.word	0x22e
 3760 1b7d 0A       		.byte	0xa
 3761 1b7e 821B0000 		.long	0x1b82
 3762 1b82 02       		.uleb128 0x2
 3763 1b83 871B0000 		.long	0x1b87
 3764 1b87 07       		.uleb128 0x7
 3765 1b88 2D030000 		.long	0x32d
 3766 1b8c 971B0000 		.long	0x1b97
 3767 1b90 01       		.uleb128 0x1
 3768 1b91 350B0000 		.long	0xb35
 3769 1b95 2E       		.uleb128 0x2e
 3770 1b96 00       		.byte	0
 3771 1b97 08       		.uleb128 0x8
 3772 1b98 4546495F 		.ascii "EFI_UNINSTALL_MULTIPLE_PROTOCOL_INTERFACES\0"
 3772      554E494E 
 3772      5354414C 
 3772      4C5F4D55 
 3772      4C544950 
 3773 1bc3 08       		.byte	0x8
 3774 1bc4 3502     		.word	0x235
 3775 1bc6 0A       		.byte	0xa
 3776 1bc7 CB1B0000 		.long	0x1bcb
 3777 1bcb 02       		.uleb128 0x2
 3778 1bcc D01B0000 		.long	0x1bd0
 3779 1bd0 07       		.uleb128 0x7
 3780 1bd1 2D030000 		.long	0x32d
 3781 1bd5 E01B0000 		.long	0x1be0
 3782 1bd9 01       		.uleb128 0x1
 3783 1bda 60030000 		.long	0x360
 3784 1bde 2E       		.uleb128 0x2e
 3785 1bdf 00       		.byte	0
 3786 1be0 08       		.uleb128 0x8
 3787 1be1 4546495F 		.ascii "EFI_CALCULATE_CRC32\0"
 3787      43414C43 
 3787      554C4154 
 3787      455F4352 
 3787      43333200 
 3788 1bf5 08       		.byte	0x8
 3789 1bf6 3C02     		.word	0x23c
 3790 1bf8 0A       		.byte	0xa
 3791 1bf9 FD1B0000 		.long	0x1bfd
 3792 1bfd 02       		.uleb128 0x2
 3793 1bfe 021C0000 		.long	0x1c02
 3794 1c02 07       		.uleb128 0x7
 3795 1c03 2D030000 		.long	0x32d
 3796 1c07 1B1C0000 		.long	0x1c1b
 3797 1c0b 01       		.uleb128 0x1
 3798 1c0c 73030000 		.long	0x373
 3799 1c10 01       		.uleb128 0x1
 3800 1c11 06030000 		.long	0x306
 3801 1c15 01       		.uleb128 0x1
 3802 1c16 3A0B0000 		.long	0xb3a
 3803 1c1a 00       		.byte	0
 3804 1c1b 08       		.uleb128 0x8
 3805 1c1c 4546495F 		.ascii "EFI_COPY_MEM\0"
 3805      434F5059 
 3805      5F4D454D 
 3805      00
 3806 1c29 08       		.byte	0x8
 3807 1c2a 4402     		.word	0x244
 3808 1c2c 0A       		.byte	0xa
 3809 1c2d 311C0000 		.long	0x1c31
 3810 1c31 02       		.uleb128 0x2
 3811 1c32 361C0000 		.long	0x1c36
 3812 1c36 22       		.uleb128 0x22
 3813 1c37 4B1C0000 		.long	0x1c4b
 3814 1c3b 01       		.uleb128 0x1
 3815 1c3c 73030000 		.long	0x373
 3816 1c40 01       		.uleb128 0x1
 3817 1c41 73030000 		.long	0x373
 3818 1c45 01       		.uleb128 0x1
 3819 1c46 06030000 		.long	0x306
 3820 1c4a 00       		.byte	0
 3821 1c4b 08       		.uleb128 0x8
 3822 1c4c 4546495F 		.ascii "EFI_SET_MEM\0"
 3822      5345545F 
 3822      4D454D00 
 3823 1c58 08       		.byte	0x8
 3824 1c59 4C02     		.word	0x24c
 3825 1c5b 0A       		.byte	0xa
 3826 1c5c 601C0000 		.long	0x1c60
 3827 1c60 02       		.uleb128 0x2
 3828 1c61 651C0000 		.long	0x1c65
 3829 1c65 22       		.uleb128 0x22
 3830 1c66 7A1C0000 		.long	0x1c7a
 3831 1c6a 01       		.uleb128 0x1
 3832 1c6b 73030000 		.long	0x373
 3833 1c6f 01       		.uleb128 0x1
 3834 1c70 06030000 		.long	0x306
 3835 1c74 01       		.uleb128 0x1
 3836 1c75 CA020000 		.long	0x2ca
 3837 1c79 00       		.byte	0
 3838 1c7a 08       		.uleb128 0x8
 3839 1c7b 4546495F 		.ascii "EFI_CREATE_EVENT_EX\0"
 3839      43524541 
 3839      54455F45 
 3839      56454E54 
 3839      5F455800 
 3840 1c8f 08       		.byte	0x8
 3841 1c90 5502     		.word	0x255
 3842 1c92 0A       		.byte	0xa
 3843 1c93 971C0000 		.long	0x1c97
 3844 1c97 02       		.uleb128 0x2
 3845 1c98 9C1C0000 		.long	0x1c9c
 3846 1c9c 07       		.uleb128 0x7
 3847 1c9d 2D030000 		.long	0x32d
 3848 1ca1 C41C0000 		.long	0x1cc4
 3849 1ca5 01       		.uleb128 0x1
 3850 1ca6 90020000 		.long	0x290
 3851 1caa 01       		.uleb128 0x1
 3852 1cab 50030000 		.long	0x350
 3853 1caf 01       		.uleb128 0x1
 3854 1cb0 F2120000 		.long	0x12f2
 3855 1cb4 01       		.uleb128 0x1
 3856 1cb5 C41C0000 		.long	0x1cc4
 3857 1cb9 01       		.uleb128 0x1
 3858 1cba 300B0000 		.long	0xb30
 3859 1cbe 01       		.uleb128 0x1
 3860 1cbf 61130000 		.long	0x1361
 3861 1cc3 00       		.byte	0
 3862 1cc4 02       		.uleb128 0x2
 3863 1cc5 F4020000 		.long	0x2f4
 3864 1cc9 27       		.uleb128 0x27
 3865 1cca EF010000 		.long	0x1ef
 3866 1cce 5E02     		.word	0x25e
 3867 1cd0 061D0000 		.long	0x1d06
 3868 1cd4 09       		.uleb128 0x9
 3869 1cd5 45666952 		.ascii "EfiResetCold\0"
 3869      65736574 
 3869      436F6C64 
 3869      00
 3870 1ce2 00       		.byte	0
 3871 1ce3 09       		.uleb128 0x9
 3872 1ce4 45666952 		.ascii "EfiResetWarm\0"
 3872      65736574 
 3872      5761726D 
 3872      00
 3873 1cf1 01       		.byte	0x1
 3874 1cf2 09       		.uleb128 0x9
 3875 1cf3 45666952 		.ascii "EfiResetShutdown\0"
 3875      65736574 
 3875      53687574 
 3875      646F776E 
 3875      00
 3876 1d04 02       		.byte	0x2
 3877 1d05 00       		.byte	0
 3878 1d06 08       		.uleb128 0x8
 3879 1d07 4546495F 		.ascii "EFI_RESET_TYPE\0"
 3879      52455345 
 3879      545F5459 
 3879      504500
 3880 1d16 08       		.byte	0x8
 3881 1d17 6202     		.word	0x262
 3882 1d19 03       		.byte	0x3
 3883 1d1a C91C0000 		.long	0x1cc9
 3884 1d1e 08       		.uleb128 0x8
 3885 1d1f 4546495F 		.ascii "EFI_RESET_SYSTEM\0"
 3885      52455345 
 3885      545F5359 
 3885      5354454D 
 3885      00
 3886 1d30 08       		.byte	0x8
 3887 1d31 6602     		.word	0x266
 3888 1d33 0A       		.byte	0xa
 3889 1d34 381D0000 		.long	0x1d38
 3890 1d38 02       		.uleb128 0x2
 3891 1d39 3D1D0000 		.long	0x1d3d
 3892 1d3d 07       		.uleb128 0x7
 3893 1d3e 2D030000 		.long	0x32d
 3894 1d42 5B1D0000 		.long	0x1d5b
 3895 1d46 01       		.uleb128 0x1
 3896 1d47 061D0000 		.long	0x1d06
 3897 1d4b 01       		.uleb128 0x1
 3898 1d4c 2D030000 		.long	0x32d
 3899 1d50 01       		.uleb128 0x1
 3900 1d51 06030000 		.long	0x306
 3901 1d55 01       		.uleb128 0x1
 3902 1d56 47080000 		.long	0x847
 3903 1d5a 00       		.byte	0
 3904 1d5b 08       		.uleb128 0x8
 3905 1d5c 4546495F 		.ascii "EFI_GET_NEXT_MONOTONIC_COUNT\0"
 3905      4745545F 
 3905      4E455854 
 3905      5F4D4F4E 
 3905      4F544F4E 
 3906 1d79 08       		.byte	0x8
 3907 1d7a 6F02     		.word	0x26f
 3908 1d7c 0A       		.byte	0xa
 3909 1d7d 811D0000 		.long	0x1d81
 3910 1d81 02       		.uleb128 0x2
 3911 1d82 861D0000 		.long	0x1d86
 3912 1d86 07       		.uleb128 0x7
 3913 1d87 2D030000 		.long	0x32d
 3914 1d8b 951D0000 		.long	0x1d95
 3915 1d8f 01       		.uleb128 0x1
 3916 1d90 51080000 		.long	0x851
 3917 1d94 00       		.byte	0
 3918 1d95 08       		.uleb128 0x8
 3919 1d96 4546495F 		.ascii "EFI_GET_NEXT_HIGH_MONO_COUNT\0"
 3919      4745545F 
 3919      4E455854 
 3919      5F484947 
 3919      485F4D4F 
 3920 1db3 08       		.byte	0x8
 3921 1db4 7502     		.word	0x275
 3922 1db6 0A       		.byte	0xa
 3923 1db7 BB1D0000 		.long	0x1dbb
 3924 1dbb 02       		.uleb128 0x2
 3925 1dbc C01D0000 		.long	0x1dc0
 3926 1dc0 07       		.uleb128 0x7
 3927 1dc1 2D030000 		.long	0x32d
 3928 1dc5 CF1D0000 		.long	0x1dcf
 3929 1dc9 01       		.uleb128 0x1
 3930 1dca 3A0B0000 		.long	0xb3a
 3931 1dce 00       		.byte	0
 3932 1dcf 23       		.uleb128 0x23
 3933 1dd0 1C       		.byte	0x1c
 3934 1dd1 8102     		.word	0x281
 3935 1dd3 261E0000 		.long	0x1e26
 3936 1dd7 04       		.uleb128 0x4
 3937 1dd8 43617073 		.ascii "CapsuleGuid\0"
 3937      756C6547 
 3937      75696400 
 3938 1de4 08       		.byte	0x8
 3939 1de5 8202     		.word	0x282
 3940 1de7 21       		.byte	0x21
 3941 1de8 DF030000 		.long	0x3df
 3942 1dec 00       		.byte	0
 3943 1ded 15       		.uleb128 0x15
 3944 1dee 8D000000 		.secrel32	.LASF4
 3945 1df2 8302     		.word	0x283
 3946 1df4 21       		.byte	0x21
 3947 1df5 90020000 		.long	0x290
 3948 1df9 10       		.byte	0x10
 3949 1dfa 04       		.uleb128 0x4
 3950 1dfb 466C6167 		.ascii "Flags\0"
 3950      7300
 3951 1e01 08       		.byte	0x8
 3952 1e02 8402     		.word	0x284
 3953 1e04 21       		.byte	0x21
 3954 1e05 90020000 		.long	0x290
 3955 1e09 14       		.byte	0x14
 3956 1e0a 04       		.uleb128 0x4
 3957 1e0b 43617073 		.ascii "CapsuleImageSize\0"
 3957      756C6549 
 3957      6D616765 
 3957      53697A65 
 3957      00
 3958 1e1c 08       		.byte	0x8
 3959 1e1d 8502     		.word	0x285
 3960 1e1f 21       		.byte	0x21
 3961 1e20 90020000 		.long	0x290
 3962 1e24 18       		.byte	0x18
 3963 1e25 00       		.byte	0
 3964 1e26 08       		.uleb128 0x8
 3965 1e27 4546495F 		.ascii "EFI_CAPSULE_HEADER\0"
 3965      43415053 
 3965      554C455F 
 3965      48454144 
 3965      455200
 3966 1e3a 08       		.byte	0x8
 3967 1e3b 8602     		.word	0x286
 3968 1e3d 03       		.byte	0x3
 3969 1e3e CF1D0000 		.long	0x1dcf
 3970 1e42 08       		.uleb128 0x8
 3971 1e43 4546495F 		.ascii "EFI_UPDATE_CAPSULE\0"
 3971      55504441 
 3971      54455F43 
 3971      41505355 
 3971      4C4500
 3972 1e56 08       		.byte	0x8
 3973 1e57 8E02     		.word	0x28e
 3974 1e59 0A       		.byte	0xa
 3975 1e5a 5E1E0000 		.long	0x1e5e
 3976 1e5e 02       		.uleb128 0x2
 3977 1e5f 631E0000 		.long	0x1e63
 3978 1e63 07       		.uleb128 0x7
 3979 1e64 2D030000 		.long	0x32d
 3980 1e68 7C1E0000 		.long	0x1e7c
 3981 1e6c 01       		.uleb128 0x1
 3982 1e6d 7C1E0000 		.long	0x1e7c
 3983 1e71 01       		.uleb128 0x1
 3984 1e72 06030000 		.long	0x306
 3985 1e76 01       		.uleb128 0x1
 3986 1e77 CB040000 		.long	0x4cb
 3987 1e7b 00       		.byte	0
 3988 1e7c 02       		.uleb128 0x2
 3989 1e7d 811E0000 		.long	0x1e81
 3990 1e81 02       		.uleb128 0x2
 3991 1e82 261E0000 		.long	0x1e26
 3992 1e86 08       		.uleb128 0x8
 3993 1e87 4546495F 		.ascii "EFI_QUERY_CAPSULE_CAPABILITIES\0"
 3993      51554552 
 3993      595F4341 
 3993      5053554C 
 3993      455F4341 
 3994 1ea6 08       		.byte	0x8
 3995 1ea7 9602     		.word	0x296
 3996 1ea9 0A       		.byte	0xa
 3997 1eaa AE1E0000 		.long	0x1eae
 3998 1eae 02       		.uleb128 0x2
 3999 1eaf B31E0000 		.long	0x1eb3
 4000 1eb3 07       		.uleb128 0x7
 4001 1eb4 2D030000 		.long	0x32d
 4002 1eb8 D11E0000 		.long	0x1ed1
 4003 1ebc 01       		.uleb128 0x1
 4004 1ebd 7C1E0000 		.long	0x1e7c
 4005 1ec1 01       		.uleb128 0x1
 4006 1ec2 06030000 		.long	0x306
 4007 1ec6 01       		.uleb128 0x1
 4008 1ec7 51080000 		.long	0x851
 4009 1ecb 01       		.uleb128 0x1
 4010 1ecc D11E0000 		.long	0x1ed1
 4011 1ed0 00       		.byte	0
 4012 1ed1 02       		.uleb128 0x2
 4013 1ed2 061D0000 		.long	0x1d06
 4014 1ed6 08       		.uleb128 0x8
 4015 1ed7 4546495F 		.ascii "EFI_QUERY_VARIABLE_INFO\0"
 4015      51554552 
 4015      595F5641 
 4015      52494142 
 4015      4C455F49 
 4016 1eef 08       		.byte	0x8
 4017 1ef0 9F02     		.word	0x29f
 4018 1ef2 0A       		.byte	0xa
 4019 1ef3 F71E0000 		.long	0x1ef7
 4020 1ef7 02       		.uleb128 0x2
 4021 1ef8 FC1E0000 		.long	0x1efc
 4022 1efc 07       		.uleb128 0x7
 4023 1efd 2D030000 		.long	0x32d
 4024 1f01 1A1F0000 		.long	0x1f1a
 4025 1f05 01       		.uleb128 0x1
 4026 1f06 90020000 		.long	0x290
 4027 1f0a 01       		.uleb128 0x1
 4028 1f0b 51080000 		.long	0x851
 4029 1f0f 01       		.uleb128 0x1
 4030 1f10 51080000 		.long	0x851
 4031 1f14 01       		.uleb128 0x1
 4032 1f15 51080000 		.long	0x851
 4033 1f19 00       		.byte	0
 4034 1f1a 27       		.uleb128 0x27
 4035 1f1b EF010000 		.long	0x1ef
 4036 1f1f AA02     		.word	0x2aa
 4037 1f21 531F0000 		.long	0x1f53
 4038 1f25 09       		.uleb128 0x9
 4039 1f26 4546495F 		.ascii "EFI_NATIVE_INTERFACE\0"
 4039      4E415449 
 4039      56455F49 
 4039      4E544552 
 4039      46414345 
 4040 1f3b 00       		.byte	0
 4041 1f3c 09       		.uleb128 0x9
 4042 1f3d 4546495F 		.ascii "EFI_PCODE_INTERFACE\0"
 4042      50434F44 
 4042      455F494E 
 4042      54455246 
 4042      41434500 
 4043 1f51 01       		.byte	0x1
 4044 1f52 00       		.byte	0
 4045 1f53 08       		.uleb128 0x8
 4046 1f54 4546495F 		.ascii "EFI_INTERFACE_TYPE\0"
 4046      494E5445 
 4046      52464143 
 4046      455F5459 
 4046      504500
 4047 1f67 08       		.byte	0x8
 4048 1f68 AD02     		.word	0x2ad
 4049 1f6a 03       		.byte	0x3
 4050 1f6b 1A1F0000 		.long	0x1f1a
 4051 1f6f 08       		.uleb128 0x8
 4052 1f70 4546495F 		.ascii "EFI_INSTALL_PROTOCOL_INTERFACE\0"
 4052      494E5354 
 4052      414C4C5F 
 4052      50524F54 
 4052      4F434F4C 
 4053 1f8f 08       		.byte	0x8
 4054 1f90 B102     		.word	0x2b1
 4055 1f92 0A       		.byte	0xa
 4056 1f93 971F0000 		.long	0x1f97
 4057 1f97 02       		.uleb128 0x2
 4058 1f98 9C1F0000 		.long	0x1f9c
 4059 1f9c 07       		.uleb128 0x7
 4060 1f9d 2D030000 		.long	0x32d
 4061 1fa1 BA1F0000 		.long	0x1fba
 4062 1fa5 01       		.uleb128 0x1
 4063 1fa6 350B0000 		.long	0xb35
 4064 1faa 01       		.uleb128 0x1
 4065 1fab 210B0000 		.long	0xb21
 4066 1faf 01       		.uleb128 0x1
 4067 1fb0 531F0000 		.long	0x1f53
 4068 1fb4 01       		.uleb128 0x1
 4069 1fb5 73030000 		.long	0x373
 4070 1fb9 00       		.byte	0
 4071 1fba 08       		.uleb128 0x8
 4072 1fbb 4546495F 		.ascii "EFI_REINSTALL_PROTOCOL_INTERFACE\0"
 4072      5245494E 
 4072      5354414C 
 4072      4C5F5052 
 4072      4F544F43 
 4073 1fdc 08       		.byte	0x8
 4074 1fdd BA02     		.word	0x2ba
 4075 1fdf 0A       		.byte	0xa
 4076 1fe0 E41F0000 		.long	0x1fe4
 4077 1fe4 02       		.uleb128 0x2
 4078 1fe5 E91F0000 		.long	0x1fe9
 4079 1fe9 07       		.uleb128 0x7
 4080 1fea 2D030000 		.long	0x32d
 4081 1fee 07200000 		.long	0x2007
 4082 1ff2 01       		.uleb128 0x1
 4083 1ff3 60030000 		.long	0x360
 4084 1ff7 01       		.uleb128 0x1
 4085 1ff8 210B0000 		.long	0xb21
 4086 1ffc 01       		.uleb128 0x1
 4087 1ffd 73030000 		.long	0x373
 4088 2001 01       		.uleb128 0x1
 4089 2002 73030000 		.long	0x373
 4090 2006 00       		.byte	0
 4091 2007 08       		.uleb128 0x8
 4092 2008 4546495F 		.ascii "EFI_UNINSTALL_PROTOCOL_INTERFACE\0"
 4092      554E494E 
 4092      5354414C 
 4092      4C5F5052 
 4092      4F544F43 
 4093 2029 08       		.byte	0x8
 4094 202a C302     		.word	0x2c3
 4095 202c 0A       		.byte	0xa
 4096 202d 31200000 		.long	0x2031
 4097 2031 02       		.uleb128 0x2
 4098 2032 36200000 		.long	0x2036
 4099 2036 07       		.uleb128 0x7
 4100 2037 2D030000 		.long	0x32d
 4101 203b 4F200000 		.long	0x204f
 4102 203f 01       		.uleb128 0x1
 4103 2040 60030000 		.long	0x360
 4104 2044 01       		.uleb128 0x1
 4105 2045 210B0000 		.long	0xb21
 4106 2049 01       		.uleb128 0x1
 4107 204a 73030000 		.long	0x373
 4108 204e 00       		.byte	0
 4109 204f 08       		.uleb128 0x8
 4110 2050 4546495F 		.ascii "EFI_HANDLE_PROTOCOL\0"
 4110      48414E44 
 4110      4C455F50 
 4110      524F544F 
 4110      434F4C00 
 4111 2064 08       		.byte	0x8
 4112 2065 CB02     		.word	0x2cb
 4113 2067 0A       		.byte	0xa
 4114 2068 6C200000 		.long	0x206c
 4115 206c 02       		.uleb128 0x2
 4116 206d 71200000 		.long	0x2071
 4117 2071 07       		.uleb128 0x7
 4118 2072 2D030000 		.long	0x32d
 4119 2076 8A200000 		.long	0x208a
 4120 207a 01       		.uleb128 0x1
 4121 207b 60030000 		.long	0x360
 4122 207f 01       		.uleb128 0x1
 4123 2080 210B0000 		.long	0xb21
 4124 2084 01       		.uleb128 0x1
 4125 2085 56080000 		.long	0x856
 4126 2089 00       		.byte	0
 4127 208a 08       		.uleb128 0x8
 4128 208b 4546495F 		.ascii "EFI_REGISTER_PROTOCOL_NOTIFY\0"
 4128      52454749 
 4128      53544552 
 4128      5F50524F 
 4128      544F434F 
 4129 20a8 08       		.byte	0x8
 4130 20a9 D302     		.word	0x2d3
 4131 20ab 0A       		.byte	0xa
 4132 20ac B0200000 		.long	0x20b0
 4133 20b0 02       		.uleb128 0x2
 4134 20b1 B5200000 		.long	0x20b5
 4135 20b5 07       		.uleb128 0x7
 4136 20b6 2D030000 		.long	0x32d
 4137 20ba CE200000 		.long	0x20ce
 4138 20be 01       		.uleb128 0x1
 4139 20bf 210B0000 		.long	0xb21
 4140 20c3 01       		.uleb128 0x1
 4141 20c4 78030000 		.long	0x378
 4142 20c8 01       		.uleb128 0x1
 4143 20c9 56080000 		.long	0x856
 4144 20cd 00       		.byte	0
 4145 20ce 08       		.uleb128 0x8
 4146 20cf 4546495F 		.ascii "EFI_LOCATE_HANDLE\0"
 4146      4C4F4341 
 4146      54455F48 
 4146      414E444C 
 4146      4500
 4147 20e1 08       		.byte	0x8
 4148 20e2 DB02     		.word	0x2db
 4149 20e4 0A       		.byte	0xa
 4150 20e5 E9200000 		.long	0x20e9
 4151 20e9 02       		.uleb128 0x2
 4152 20ea EE200000 		.long	0x20ee
 4153 20ee 07       		.uleb128 0x7
 4154 20ef 2D030000 		.long	0x32d
 4155 20f3 11210000 		.long	0x2111
 4156 20f7 01       		.uleb128 0x1
 4157 20f8 A61A0000 		.long	0x1aa6
 4158 20fc 01       		.uleb128 0x1
 4159 20fd 210B0000 		.long	0xb21
 4160 2101 01       		.uleb128 0x1
 4161 2102 73030000 		.long	0x373
 4162 2106 01       		.uleb128 0x1
 4163 2107 4C080000 		.long	0x84c
 4164 210b 01       		.uleb128 0x1
 4165 210c 350B0000 		.long	0xb35
 4166 2110 00       		.byte	0
 4167 2111 08       		.uleb128 0x8
 4168 2112 4546495F 		.ascii "EFI_LOCATE_DEVICE_PATH\0"
 4168      4C4F4341 
 4168      54455F44 
 4168      45564943 
 4168      455F5041 
 4169 2129 08       		.byte	0x8
 4170 212a E502     		.word	0x2e5
 4171 212c 0A       		.byte	0xa
 4172 212d 31210000 		.long	0x2131
 4173 2131 02       		.uleb128 0x2
 4174 2132 36210000 		.long	0x2136
 4175 2136 07       		.uleb128 0x7
 4176 2137 2D030000 		.long	0x32d
 4177 213b 4F210000 		.long	0x214f
 4178 213f 01       		.uleb128 0x1
 4179 2140 210B0000 		.long	0xb21
 4180 2144 01       		.uleb128 0x1
 4181 2145 2B0B0000 		.long	0xb2b
 4182 2149 01       		.uleb128 0x1
 4183 214a 350B0000 		.long	0xb35
 4184 214e 00       		.byte	0
 4185 214f 08       		.uleb128 0x8
 4186 2150 4546495F 		.ascii "EFI_INSTALL_CONFIGURATION_TABLE\0"
 4186      494E5354 
 4186      414C4C5F 
 4186      434F4E46 
 4186      49475552 
 4187 2170 08       		.byte	0x8
 4188 2171 ED02     		.word	0x2ed
 4189 2173 0A       		.byte	0xa
 4190 2174 78210000 		.long	0x2178
 4191 2178 02       		.uleb128 0x2
 4192 2179 7D210000 		.long	0x217d
 4193 217d 07       		.uleb128 0x7
 4194 217e 2D030000 		.long	0x32d
 4195 2182 91210000 		.long	0x2191
 4196 2186 01       		.uleb128 0x1
 4197 2187 210B0000 		.long	0xb21
 4198 218b 01       		.uleb128 0x1
 4199 218c 73030000 		.long	0x373
 4200 2190 00       		.byte	0
 4201 2191 21       		.uleb128 0x21
 4202 2192 5F454649 		.ascii "_EFI_TABLE_HEADER\0"
 4202      5F544142 
 4202      4C455F48 
 4202      45414445 
 4202      5200
 4203 21a4 18       		.byte	0x18
 4204 21a5 08       		.byte	0x8
 4205 21a6 FB02     		.word	0x2fb
 4206 21a8 F7210000 		.long	0x21f7
 4207 21ac 15       		.uleb128 0x15
 4208 21ad 1B000000 		.secrel32	.LASF5
 4209 21b1 FC02     		.word	0x2fc
 4210 21b3 21       		.byte	0x21
 4211 21b4 81020000 		.long	0x281
 4212 21b8 00       		.byte	0
 4213 21b9 15       		.uleb128 0x15
 4214 21ba 7B000000 		.secrel32	.LASF3
 4215 21be FD02     		.word	0x2fd
 4216 21c0 21       		.byte	0x21
 4217 21c1 90020000 		.long	0x290
 4218 21c5 08       		.byte	0x8
 4219 21c6 15       		.uleb128 0x15
 4220 21c7 8D000000 		.secrel32	.LASF4
 4221 21cb FE02     		.word	0x2fe
 4222 21cd 21       		.byte	0x21
 4223 21ce 90020000 		.long	0x290
 4224 21d2 0C       		.byte	0xc
 4225 21d3 04       		.uleb128 0x4
 4226 21d4 43524333 		.ascii "CRC32\0"
 4226      3200
 4227 21da 08       		.byte	0x8
 4228 21db FF02     		.word	0x2ff
 4229 21dd 21       		.byte	0x21
 4230 21de 90020000 		.long	0x290
 4231 21e2 10       		.byte	0x10
 4232 21e3 04       		.uleb128 0x4
 4233 21e4 52657365 		.ascii "Reserved\0"
 4233      72766564 
 4233      00
 4234 21ed 08       		.byte	0x8
 4235 21ee 0003     		.word	0x300
 4236 21f0 21       		.byte	0x21
 4237 21f1 90020000 		.long	0x290
 4238 21f5 14       		.byte	0x14
 4239 21f6 00       		.byte	0
 4240 21f7 08       		.uleb128 0x8
 4241 21f8 4546495F 		.ascii "EFI_TABLE_HEADER\0"
 4241      5441424C 
 4241      455F4845 
 4241      41444552 
 4241      00
 4242 2209 08       		.byte	0x8
 4243 220a 0103     		.word	0x301
 4244 220c 03       		.byte	0x3
 4245 220d 91210000 		.long	0x2191
 4246 2211 23       		.uleb128 0x23
 4247 2212 88       		.byte	0x88
 4248 2213 1903     		.word	0x319
 4249 2215 8F230000 		.long	0x238f
 4250 2219 04       		.uleb128 0x4
 4251 221a 48647200 		.ascii "Hdr\0"
 4252 221e 08       		.byte	0x8
 4253 221f 1A03     		.word	0x31a
 4254 2221 25       		.byte	0x25
 4255 2222 F7210000 		.long	0x21f7
 4256 2226 00       		.byte	0
 4257 2227 04       		.uleb128 0x4
 4258 2228 47657454 		.ascii "GetTime\0"
 4258      696D6500 
 4259 2230 08       		.byte	0x8
 4260 2231 2003     		.word	0x320
 4261 2233 25       		.byte	0x25
 4262 2234 0C160000 		.long	0x160c
 4263 2238 18       		.byte	0x18
 4264 2239 04       		.uleb128 0x4
 4265 223a 53657454 		.ascii "SetTime\0"
 4265      696D6500 
 4266 2242 08       		.byte	0x8
 4267 2243 2103     		.word	0x321
 4268 2245 25       		.byte	0x25
 4269 2246 45160000 		.long	0x1645
 4270 224a 20       		.byte	0x20
 4271 224b 04       		.uleb128 0x4
 4272 224c 47657457 		.ascii "GetWakeupTime\0"
 4272      616B6575 
 4272      7054696D 
 4272      6500
 4273 225a 08       		.byte	0x8
 4274 225b 2203     		.word	0x322
 4275 225d 25       		.byte	0x25
 4276 225e 6F160000 		.long	0x166f
 4277 2262 28       		.byte	0x28
 4278 2263 04       		.uleb128 0x4
 4279 2264 53657457 		.ascii "SetWakeupTime\0"
 4279      616B6575 
 4279      7054696D 
 4279      6500
 4280 2272 08       		.byte	0x8
 4281 2273 2303     		.word	0x323
 4282 2275 25       		.byte	0x25
 4283 2276 AA160000 		.long	0x16aa
 4284 227a 30       		.byte	0x30
 4285 227b 04       		.uleb128 0x4
 4286 227c 53657456 		.ascii "SetVirtualAddressMap\0"
 4286      69727475 
 4286      616C4164 
 4286      64726573 
 4286      734D6170 
 4287 2291 08       		.byte	0x8
 4288 2292 2903     		.word	0x329
 4289 2294 25       		.byte	0x25
 4290 2295 76120000 		.long	0x1276
 4291 2299 38       		.byte	0x38
 4292 229a 04       		.uleb128 0x4
 4293 229b 436F6E76 		.ascii "ConvertPointer\0"
 4293      65727450 
 4293      6F696E74 
 4293      657200
 4294 22aa 08       		.byte	0x8
 4295 22ab 2A03     		.word	0x32a
 4296 22ad 25       		.byte	0x25
 4297 22ae BD120000 		.long	0x12bd
 4298 22b2 40       		.byte	0x40
 4299 22b3 04       		.uleb128 0x4
 4300 22b4 47657456 		.ascii "GetVariable\0"
 4300      61726961 
 4300      626C6500 
 4301 22c0 08       		.byte	0x8
 4302 22c1 3003     		.word	0x330
 4303 22c3 25       		.byte	0x25
 4304 22c4 E3140000 		.long	0x14e3
 4305 22c8 48       		.byte	0x48
 4306 22c9 04       		.uleb128 0x4
 4307 22ca 4765744E 		.ascii "GetNextVariableName\0"
 4307      65787456 
 4307      61726961 
 4307      626C654E 
 4307      616D6500 
 4308 22de 08       		.byte	0x8
 4309 22df 3103     		.word	0x331
 4310 22e1 25       		.byte	0x25
 4311 22e2 24150000 		.long	0x1524
 4312 22e6 50       		.byte	0x50
 4313 22e7 04       		.uleb128 0x4
 4314 22e8 53657456 		.ascii "SetVariable\0"
 4314      61726961 
 4314      626C6500 
 4315 22f4 08       		.byte	0x8
 4316 22f5 3203     		.word	0x332
 4317 22f7 25       		.byte	0x25
 4318 22f8 65150000 		.long	0x1565
 4319 22fc 58       		.byte	0x58
 4320 22fd 04       		.uleb128 0x4
 4321 22fe 4765744E 		.ascii "GetNextHighMonotonicCount\0"
 4321      65787448 
 4321      6967684D 
 4321      6F6E6F74 
 4321      6F6E6963 
 4322 2318 08       		.byte	0x8
 4323 2319 3803     		.word	0x338
 4324 231b 25       		.byte	0x25
 4325 231c 951D0000 		.long	0x1d95
 4326 2320 60       		.byte	0x60
 4327 2321 04       		.uleb128 0x4
 4328 2322 52657365 		.ascii "ResetSystem\0"
 4328      74537973 
 4328      74656D00 
 4329 232e 08       		.byte	0x8
 4330 232f 3903     		.word	0x339
 4331 2331 25       		.byte	0x25
 4332 2332 1E1D0000 		.long	0x1d1e
 4333 2336 68       		.byte	0x68
 4334 2337 04       		.uleb128 0x4
 4335 2338 55706461 		.ascii "UpdateCapsule\0"
 4335      74654361 
 4335      7073756C 
 4335      6500
 4336 2346 08       		.byte	0x8
 4337 2347 3B03     		.word	0x33b
 4338 2349 25       		.byte	0x25
 4339 234a 421E0000 		.long	0x1e42
 4340 234e 70       		.byte	0x70
 4341 234f 04       		.uleb128 0x4
 4342 2350 51756572 		.ascii "QueryCapsuleCapabilities\0"
 4342      79436170 
 4342      73756C65 
 4342      43617061 
 4342      62696C69 
 4343 2369 08       		.byte	0x8
 4344 236a 3C03     		.word	0x33c
 4345 236c 25       		.byte	0x25
 4346 236d 861E0000 		.long	0x1e86
 4347 2371 78       		.byte	0x78
 4348 2372 04       		.uleb128 0x4
 4349 2373 51756572 		.ascii "QueryVariableInfo\0"
 4349      79566172 
 4349      6961626C 
 4349      65496E66 
 4349      6F00
 4350 2385 08       		.byte	0x8
 4351 2386 3D03     		.word	0x33d
 4352 2388 25       		.byte	0x25
 4353 2389 D61E0000 		.long	0x1ed6
 4354 238d 80       		.byte	0x80
 4355 238e 00       		.byte	0
 4356 238f 08       		.uleb128 0x8
 4357 2390 4546495F 		.ascii "EFI_RUNTIME_SERVICES\0"
 4357      52554E54 
 4357      494D455F 
 4357      53455256 
 4357      49434553 
 4358 23a5 08       		.byte	0x8
 4359 23a6 3E03     		.word	0x33e
 4360 23a8 03       		.byte	0x3
 4361 23a9 11220000 		.long	0x2211
 4362 23ad 32       		.uleb128 0x32
 4363 23ae 5F454649 		.ascii "_EFI_BOOT_SERVICES\0"
 4363      5F424F4F 
 4363      545F5345 
 4363      52564943 
 4363      455300
 4364 23c1 7801     		.word	0x178
 4365 23c3 08       		.byte	0x8
 4366 23c4 5603     		.word	0x356
 4367 23c6 10       		.byte	0x10
 4368 23c7 38280000 		.long	0x2838
 4369 23cb 04       		.uleb128 0x4
 4370 23cc 48647200 		.ascii "Hdr\0"
 4371 23d0 08       		.byte	0x8
 4372 23d1 5803     		.word	0x358
 4373 23d3 25       		.byte	0x25
 4374 23d4 F7210000 		.long	0x21f7
 4375 23d8 00       		.byte	0
 4376 23d9 04       		.uleb128 0x4
 4377 23da 52616973 		.ascii "RaiseTPL\0"
 4377      6554504C 
 4377      00
 4378 23e3 08       		.byte	0x8
 4379 23e4 5E03     		.word	0x35e
 4380 23e6 25       		.byte	0x25
 4381 23e7 91140000 		.long	0x1491
 4382 23eb 18       		.byte	0x18
 4383 23ec 04       		.uleb128 0x4
 4384 23ed 52657374 		.ascii "RestoreTPL\0"
 4384      6F726554 
 4384      504C00
 4385 23f8 08       		.byte	0x8
 4386 23f9 5F03     		.word	0x35f
 4387 23fb 25       		.byte	0x25
 4388 23fc BB140000 		.long	0x14bb
 4389 2400 20       		.byte	0x20
 4390 2401 04       		.uleb128 0x4
 4391 2402 416C6C6F 		.ascii "AllocatePages\0"
 4391      63617465 
 4391      50616765 
 4391      7300
 4392 2410 08       		.byte	0x8
 4393 2411 6503     		.word	0x365
 4394 2413 25       		.byte	0x25
 4395 2414 5E110000 		.long	0x115e
 4396 2418 28       		.byte	0x28
 4397 2419 04       		.uleb128 0x4
 4398 241a 46726565 		.ascii "FreePages\0"
 4398      50616765 
 4398      7300
 4399 2424 08       		.byte	0x8
 4400 2425 6603     		.word	0x366
 4401 2427 25       		.byte	0x25
 4402 2428 9C110000 		.long	0x119c
 4403 242c 30       		.byte	0x30
 4404 242d 04       		.uleb128 0x4
 4405 242e 4765744D 		.ascii "GetMemoryMap\0"
 4405      656D6F72 
 4405      794D6170 
 4405      00
 4406 243b 08       		.byte	0x8
 4407 243c 6703     		.word	0x367
 4408 243e 25       		.byte	0x25
 4409 243f CC110000 		.long	0x11cc
 4410 2443 38       		.byte	0x38
 4411 2444 15       		.uleb128 0x15
 4412 2445 4C000000 		.secrel32	.LASF6
 4413 2449 6803     		.word	0x368
 4414 244b 25       		.byte	0x25
 4415 244c 14120000 		.long	0x1214
 4416 2450 40       		.byte	0x40
 4417 2451 15       		.uleb128 0x15
 4418 2452 62000000 		.secrel32	.LASF7
 4419 2456 6903     		.word	0x369
 4420 2458 25       		.byte	0x25
 4421 2459 4C120000 		.long	0x124c
 4422 245d 48       		.byte	0x48
 4423 245e 04       		.uleb128 0x4
 4424 245f 43726561 		.ascii "CreateEvent\0"
 4424      74654576 
 4424      656E7400 
 4425 246b 08       		.byte	0x8
 4426 246c 6F03     		.word	0x36f
 4427 246e 25       		.byte	0x25
 4428 246f 20130000 		.long	0x1320
 4429 2473 50       		.byte	0x50
 4430 2474 04       		.uleb128 0x4
 4431 2475 53657454 		.ascii "SetTimer\0"
 4431      696D6572 
 4431      00
 4432 247e 08       		.byte	0x8
 4433 247f 7003     		.word	0x370
 4434 2481 25       		.byte	0x25
 4435 2482 C7130000 		.long	0x13c7
 4436 2486 58       		.byte	0x58
 4437 2487 04       		.uleb128 0x4
 4438 2488 57616974 		.ascii "WaitForEvent\0"
 4438      466F7245 
 4438      76656E74 
 4438      00
 4439 2495 08       		.byte	0x8
 4440 2496 7103     		.word	0x371
 4441 2498 25       		.byte	0x25
 4442 2499 28140000 		.long	0x1428
 4443 249d 60       		.byte	0x60
 4444 249e 04       		.uleb128 0x4
 4445 249f 5369676E 		.ascii "SignalEvent\0"
 4445      616C4576 
 4445      656E7400 
 4446 24ab 08       		.byte	0x8
 4447 24ac 7203     		.word	0x372
 4448 24ae 25       		.byte	0x25
 4449 24af FB130000 		.long	0x13fb
 4450 24b3 68       		.byte	0x68
 4451 24b4 04       		.uleb128 0x4
 4452 24b5 436C6F73 		.ascii "CloseEvent\0"
 4452      65457665 
 4452      6E7400
 4453 24c0 08       		.byte	0x8
 4454 24c1 7303     		.word	0x373
 4455 24c3 25       		.byte	0x25
 4456 24c4 61140000 		.long	0x1461
 4457 24c8 70       		.byte	0x70
 4458 24c9 04       		.uleb128 0x4
 4459 24ca 43686563 		.ascii "CheckEvent\0"
 4459      6B457665 
 4459      6E7400
 4460 24d5 08       		.byte	0x8
 4461 24d6 7403     		.word	0x374
 4462 24d8 25       		.byte	0x25
 4463 24d9 79140000 		.long	0x1479
 4464 24dd 78       		.byte	0x78
 4465 24de 04       		.uleb128 0x4
 4466 24df 496E7374 		.ascii "InstallProtocolInterface\0"
 4466      616C6C50 
 4466      726F746F 
 4466      636F6C49 
 4466      6E746572 
 4467 24f8 08       		.byte	0x8
 4468 24f9 7A03     		.word	0x37a
 4469 24fb 25       		.byte	0x25
 4470 24fc 6F1F0000 		.long	0x1f6f
 4471 2500 80       		.byte	0x80
 4472 2501 04       		.uleb128 0x4
 4473 2502 5265696E 		.ascii "ReinstallProtocolInterface\0"
 4473      7374616C 
 4473      6C50726F 
 4473      746F636F 
 4473      6C496E74 
 4474 251d 08       		.byte	0x8
 4475 251e 7B03     		.word	0x37b
 4476 2520 26       		.byte	0x26
 4477 2521 BA1F0000 		.long	0x1fba
 4478 2525 88       		.byte	0x88
 4479 2526 04       		.uleb128 0x4
 4480 2527 556E696E 		.ascii "UninstallProtocolInterface\0"
 4480      7374616C 
 4480      6C50726F 
 4480      746F636F 
 4480      6C496E74 
 4481 2542 08       		.byte	0x8
 4482 2543 7C03     		.word	0x37c
 4483 2545 26       		.byte	0x26
 4484 2546 07200000 		.long	0x2007
 4485 254a 90       		.byte	0x90
 4486 254b 04       		.uleb128 0x4
 4487 254c 48616E64 		.ascii "HandleProtocol\0"
 4487      6C655072 
 4487      6F746F63 
 4487      6F6C00
 4488 255b 08       		.byte	0x8
 4489 255c 7D03     		.word	0x37d
 4490 255e 25       		.byte	0x25
 4491 255f 4F200000 		.long	0x204f
 4492 2563 98       		.byte	0x98
 4493 2564 04       		.uleb128 0x4
 4494 2565 50434861 		.ascii "PCHandleProtocol\0"
 4494      6E646C65 
 4494      50726F74 
 4494      6F636F6C 
 4494      00
 4495 2576 08       		.byte	0x8
 4496 2577 7E03     		.word	0x37e
 4497 2579 25       		.byte	0x25
 4498 257a 4F200000 		.long	0x204f
 4499 257e A0       		.byte	0xa0
 4500 257f 04       		.uleb128 0x4
 4501 2580 52656769 		.ascii "RegisterProtocolNotify\0"
 4501      73746572 
 4501      50726F74 
 4501      6F636F6C 
 4501      4E6F7469 
 4502 2597 08       		.byte	0x8
 4503 2598 7F03     		.word	0x37f
 4504 259a 25       		.byte	0x25
 4505 259b 8A200000 		.long	0x208a
 4506 259f A8       		.byte	0xa8
 4507 25a0 04       		.uleb128 0x4
 4508 25a1 4C6F6361 		.ascii "LocateHandle\0"
 4508      74654861 
 4508      6E646C65 
 4508      00
 4509 25ae 08       		.byte	0x8
 4510 25af 8003     		.word	0x380
 4511 25b1 25       		.byte	0x25
 4512 25b2 CE200000 		.long	0x20ce
 4513 25b6 B0       		.byte	0xb0
 4514 25b7 04       		.uleb128 0x4
 4515 25b8 4C6F6361 		.ascii "LocateDevicePath\0"
 4515      74654465 
 4515      76696365 
 4515      50617468 
 4515      00
 4516 25c9 08       		.byte	0x8
 4517 25ca 8103     		.word	0x381
 4518 25cc 25       		.byte	0x25
 4519 25cd 11210000 		.long	0x2111
 4520 25d1 B8       		.byte	0xb8
 4521 25d2 04       		.uleb128 0x4
 4522 25d3 496E7374 		.ascii "InstallConfigurationTable\0"
 4522      616C6C43 
 4522      6F6E6669 
 4522      67757261 
 4522      74696F6E 
 4523 25ed 08       		.byte	0x8
 4524 25ee 8203     		.word	0x382
 4525 25f0 25       		.byte	0x25
 4526 25f1 4F210000 		.long	0x214f
 4527 25f5 C0       		.byte	0xc0
 4528 25f6 04       		.uleb128 0x4
 4529 25f7 4C6F6164 		.ascii "LoadImage\0"
 4529      496D6167 
 4529      6500
 4530 2601 08       		.byte	0x8
 4531 2602 8803     		.word	0x388
 4532 2604 25       		.byte	0x25
 4533 2605 E0160000 		.long	0x16e0
 4534 2609 C8       		.byte	0xc8
 4535 260a 04       		.uleb128 0x4
 4536 260b 53746172 		.ascii "StartImage\0"
 4536      74496D61 
 4536      676500
 4537 2616 08       		.byte	0x8
 4538 2617 8903     		.word	0x389
 4539 2619 25       		.byte	0x25
 4540 261a 25170000 		.long	0x1725
 4541 261e D0       		.byte	0xd0
 4542 261f 04       		.uleb128 0x4
 4543 2620 45786974 		.ascii "Exit\0"
 4543      00
 4544 2625 08       		.byte	0x8
 4545 2626 8A03     		.word	0x38a
 4546 2628 25       		.byte	0x25
 4547 2629 5C170000 		.long	0x175c
 4548 262d D8       		.byte	0xd8
 4549 262e 04       		.uleb128 0x4
 4550 262f 556E6C6F 		.ascii "UnloadImage\0"
 4550      6164496D 
 4550      61676500 
 4551 263b 08       		.byte	0x8
 4552 263c 8B03     		.word	0x38b
 4553 263e 25       		.byte	0x25
 4554 263f 440B0000 		.long	0xb44
 4555 2643 E0       		.byte	0xe0
 4556 2644 04       		.uleb128 0x4
 4557 2645 45786974 		.ascii "ExitBootServices\0"
 4557      426F6F74 
 4557      53657276 
 4557      69636573 
 4557      00
 4558 2656 08       		.byte	0x8
 4559 2657 8C03     		.word	0x38c
 4560 2659 25       		.byte	0x25
 4561 265a 91170000 		.long	0x1791
 4562 265e E8       		.byte	0xe8
 4563 265f 04       		.uleb128 0x4
 4564 2660 4765744E 		.ascii "GetNextMonotonicCount\0"
 4564      6578744D 
 4564      6F6E6F74 
 4564      6F6E6963 
 4564      436F756E 
 4565 2676 08       		.byte	0x8
 4566 2677 9203     		.word	0x392
 4567 2679 25       		.byte	0x25
 4568 267a 5B1D0000 		.long	0x1d5b
 4569 267e F0       		.byte	0xf0
 4570 267f 04       		.uleb128 0x4
 4571 2680 5374616C 		.ascii "Stall\0"
 4571      6C00
 4572 2686 08       		.byte	0x8
 4573 2687 9303     		.word	0x393
 4574 2689 25       		.byte	0x25
 4575 268a CA170000 		.long	0x17ca
 4576 268e F8       		.byte	0xf8
 4577 268f 0B       		.uleb128 0xb
 4578 2690 53657457 		.ascii "SetWatchdogTimer\0"
 4578      61746368 
 4578      646F6754 
 4578      696D6572 
 4578      00
 4579 26a1 9403     		.word	0x394
 4580 26a3 25       		.byte	0x25
 4581 26a4 F1170000 		.long	0x17f1
 4582 26a8 0001     		.word	0x100
 4583 26aa 0B       		.uleb128 0xb
 4584 26ab 436F6E6E 		.ascii "ConnectController\0"
 4584      65637443 
 4584      6F6E7472 
 4584      6F6C6C65 
 4584      7200
 4585 26bd 9A03     		.word	0x39a
 4586 26bf 25       		.byte	0x25
 4587 26c0 34180000 		.long	0x1834
 4588 26c4 0801     		.word	0x108
 4589 26c6 0B       		.uleb128 0xb
 4590 26c7 44697363 		.ascii "DisconnectController\0"
 4590      6F6E6E65 
 4590      6374436F 
 4590      6E74726F 
 4590      6C6C6572 
 4591 26dc 9B03     		.word	0x39b
 4592 26de 25       		.byte	0x25
 4593 26df 77180000 		.long	0x1877
 4594 26e3 1001     		.word	0x110
 4595 26e5 0B       		.uleb128 0xb
 4596 26e6 4F70656E 		.ascii "OpenProtocol\0"
 4596      50726F74 
 4596      6F636F6C 
 4596      00
 4597 26f3 A003     		.word	0x3a0
 4598 26f5 25       		.byte	0x25
 4599 26f6 B8180000 		.long	0x18b8
 4600 26fa 1801     		.word	0x118
 4601 26fc 0B       		.uleb128 0xb
 4602 26fd 436C6F73 		.ascii "CloseProtocol\0"
 4602      6550726F 
 4602      746F636F 
 4602      6C00
 4603 270b A103     		.word	0x3a1
 4604 270d 25       		.byte	0x25
 4605 270e 00190000 		.long	0x1900
 4606 2712 2001     		.word	0x120
 4607 2714 0B       		.uleb128 0xb
 4608 2715 4F70656E 		.ascii "OpenProtocolInformation\0"
 4608      50726F74 
 4608      6F636F6C 
 4608      496E666F 
 4608      726D6174 
 4609 272d A203     		.word	0x3a2
 4610 272f 25       		.byte	0x25
 4611 2730 CF190000 		.long	0x19cf
 4612 2734 2801     		.word	0x128
 4613 2736 0B       		.uleb128 0xb
 4614 2737 50726F74 		.ascii "ProtocolsPerHandle\0"
 4614      6F636F6C 
 4614      73506572 
 4614      48616E64 
 4614      6C6500
 4615 274a A703     		.word	0x3a7
 4616 274c 25       		.byte	0x25
 4617 274d 231A0000 		.long	0x1a23
 4618 2751 3001     		.word	0x130
 4619 2753 0B       		.uleb128 0xb
 4620 2754 4C6F6361 		.ascii "LocateHandleBuffer\0"
 4620      74654861 
 4620      6E646C65 
 4620      42756666 
 4620      657200
 4621 2767 A803     		.word	0x3a8
 4622 2769 25       		.byte	0x25
 4623 276a C61A0000 		.long	0x1ac6
 4624 276e 3801     		.word	0x138
 4625 2770 0B       		.uleb128 0xb
 4626 2771 4C6F6361 		.ascii "LocateProtocol\0"
 4626      74655072 
 4626      6F746F63 
 4626      6F6C00
 4627 2780 A903     		.word	0x3a9
 4628 2782 25       		.byte	0x25
 4629 2783 151B0000 		.long	0x1b15
 4630 2787 4001     		.word	0x140
 4631 2789 0B       		.uleb128 0xb
 4632 278a 496E7374 		.ascii "InstallMultipleProtocolInterfaces\0"
 4632      616C6C4D 
 4632      756C7469 
 4632      706C6550 
 4632      726F746F 
 4633 27ac AA03     		.word	0x3aa
 4634 27ae 2E       		.byte	0x2e
 4635 27af 501B0000 		.long	0x1b50
 4636 27b3 4801     		.word	0x148
 4637 27b5 0B       		.uleb128 0xb
 4638 27b6 556E696E 		.ascii "UninstallMultipleProtocolInterfaces\0"
 4638      7374616C 
 4638      6C4D756C 
 4638      7469706C 
 4638      6550726F 
 4639 27da AB03     		.word	0x3ab
 4640 27dc 30       		.byte	0x30
 4641 27dd 971B0000 		.long	0x1b97
 4642 27e1 5001     		.word	0x150
 4643 27e3 0B       		.uleb128 0xb
 4644 27e4 43616C63 		.ascii "CalculateCrc32\0"
 4644      756C6174 
 4644      65437263 
 4644      333200
 4645 27f3 B003     		.word	0x3b0
 4646 27f5 25       		.byte	0x25
 4647 27f6 E01B0000 		.long	0x1be0
 4648 27fa 5801     		.word	0x158
 4649 27fc 0B       		.uleb128 0xb
 4650 27fd 436F7079 		.ascii "CopyMem\0"
 4650      4D656D00 
 4651 2805 B503     		.word	0x3b5
 4652 2807 25       		.byte	0x25
 4653 2808 1B1C0000 		.long	0x1c1b
 4654 280c 6001     		.word	0x160
 4655 280e 0B       		.uleb128 0xb
 4656 280f 5365744D 		.ascii "SetMem\0"
 4656      656D00
 4657 2816 B603     		.word	0x3b6
 4658 2818 25       		.byte	0x25
 4659 2819 4B1C0000 		.long	0x1c4b
 4660 281d 6801     		.word	0x168
 4661 281f 0B       		.uleb128 0xb
 4662 2820 43726561 		.ascii "CreateEventEx\0"
 4662      74654576 
 4662      656E7445 
 4662      7800
 4663 282e B703     		.word	0x3b7
 4664 2830 25       		.byte	0x25
 4665 2831 7A1C0000 		.long	0x1c7a
 4666 2835 7001     		.word	0x170
 4667 2837 00       		.byte	0
 4668 2838 08       		.uleb128 0x8
 4669 2839 4546495F 		.ascii "EFI_BOOT_SERVICES\0"
 4669      424F4F54 
 4669      5F534552 
 4669      56494345 
 4669      5300
 4670 284b 08       		.byte	0x8
 4671 284c B803     		.word	0x3b8
 4672 284e 03       		.byte	0x3
 4673 284f AD230000 		.long	0x23ad
 4674 2853 21       		.uleb128 0x21
 4675 2854 5F454649 		.ascii "_EFI_CONFIGURATION_TABLE\0"
 4675      5F434F4E 
 4675      46494755 
 4675      52415449 
 4675      4F4E5F54 
 4676 286d 18       		.byte	0x18
 4677 286e 08       		.byte	0x8
 4678 286f D403     		.word	0x3d4
 4679 2871 99280000 		.long	0x2899
 4680 2875 15       		.uleb128 0x15
 4681 2876 2F000000 		.secrel32	.LASF8
 4682 287a D503     		.word	0x3d5
 4683 287c 1D       		.byte	0x1d
 4684 287d DF030000 		.long	0x3df
 4685 2881 00       		.byte	0
 4686 2882 04       		.uleb128 0x4
 4687 2883 56656E64 		.ascii "VendorTable\0"
 4687      6F725461 
 4687      626C6500 
 4688 288f 08       		.byte	0x8
 4689 2890 D603     		.word	0x3d6
 4690 2892 1E       		.byte	0x1e
 4691 2893 73030000 		.long	0x373
 4692 2897 10       		.byte	0x10
 4693 2898 00       		.byte	0
 4694 2899 08       		.uleb128 0x8
 4695 289a 4546495F 		.ascii "EFI_CONFIGURATION_TABLE\0"
 4695      434F4E46 
 4695      49475552 
 4695      4154494F 
 4695      4E5F5441 
 4696 28b2 08       		.byte	0x8
 4697 28b3 D703     		.word	0x3d7
 4698 28b5 03       		.byte	0x3
 4699 28b6 53280000 		.long	0x2853
 4700 28ba 02       		.uleb128 0x2
 4701 28bb 34110000 		.long	0x1134
 4702 28bf 02       		.uleb128 0x2
 4703 28c0 F90F0000 		.long	0xff9
 4704 28c4 02       		.uleb128 0x2
 4705 28c5 8F230000 		.long	0x238f
 4706 28c9 02       		.uleb128 0x2
 4707 28ca 38280000 		.long	0x2838
 4708 28ce 02       		.uleb128 0x2
 4709 28cf 99280000 		.long	0x2899
 4710 28d3 08       		.uleb128 0x8
 4711 28d4 4546495F 		.ascii "EFI_SYSTEM_TABLE\0"
 4711      53595354 
 4711      454D5F54 
 4711      41424C45 
 4711      00
 4712 28e5 08       		.byte	0x8
 4713 28e6 0704     		.word	0x407
 4714 28e8 03       		.byte	0x3
 4715 28e9 720B0000 		.long	0xb72
 4716 28ed 1F       		.uleb128 0x1f
 4717 28ee EF010000 		.long	0x1ef
 4718 28f2 0A       		.byte	0xa
 4719 28f3 24       		.byte	0x24
 4720 28f4 29290000 		.long	0x2929
 4721 28f8 09       		.uleb128 0x9
 4722 28f9 55694465 		.ascii "UiDeviceString\0"
 4722      76696365 
 4722      53747269 
 4722      6E6700
 4723 2908 00       		.byte	0
 4724 2909 09       		.uleb128 0x9
 4725 290a 55695665 		.ascii "UiVendorString\0"
 4725      6E646F72 
 4725      53747269 
 4725      6E6700
 4726 2919 01       		.byte	0x1
 4727 291a 09       		.uleb128 0x9
 4728 291b 55694D61 		.ascii "UiMaxString\0"
 4728      78537472 
 4728      696E6700 
 4729 2927 02       		.byte	0x2
 4730 2928 00       		.byte	0
 4731 2929 03       		.uleb128 0x3
 4732 292a 55495F53 		.ascii "UI_STRING_TYPE\0"
 4732      5452494E 
 4732      475F5459 
 4732      504500
 4733 2939 0A       		.byte	0xa
 4734 293a 28       		.byte	0x28
 4735 293b 03       		.byte	0x3
 4736 293c ED280000 		.long	0x28ed
 4737 2940 13       		.uleb128 0x13
 4738 2941 10       		.byte	0x10
 4739 2942 0A       		.byte	0xa
 4740 2943 2A       		.byte	0x2a
 4741 2944 68290000 		.long	0x2968
 4742 2948 1B       		.uleb128 0x1b
 4743 2949 84000000 		.secrel32	.LASF9
 4744 294d 0A       		.byte	0xa
 4745 294e 2B       		.byte	0x2b
 4746 294f 12       		.byte	0x12
 4747 2950 68290000 		.long	0x2968
 4748 2954 00       		.byte	0
 4749 2955 06       		.uleb128 0x6
 4750 2956 55695374 		.ascii "UiString\0"
 4750      72696E67 
 4750      00
 4751 295f 0A       		.byte	0xa
 4752 2960 2C       		.byte	0x2c
 4753 2961 12       		.byte	0x12
 4754 2962 47080000 		.long	0x847
 4755 2966 08       		.byte	0x8
 4756 2967 00       		.byte	0
 4757 2968 02       		.uleb128 0x2
 4758 2969 9A070000 		.long	0x79a
 4759 296d 03       		.uleb128 0x3
 4760 296e 55495F53 		.ascii "UI_STRING_ENTRY\0"
 4760      5452494E 
 4760      475F454E 
 4760      54525900 
 4761 297e 0A       		.byte	0xa
 4762 297f 2D       		.byte	0x2d
 4763 2980 03       		.byte	0x3
 4764 2981 40290000 		.long	0x2940
 4765 2985 20       		.uleb128 0x20
 4766 2986 5F454649 		.ascii "_EFI_UI_INTERFACE_PROTOCOL\0"
 4766      5F55495F 
 4766      494E5445 
 4766      52464143 
 4766      455F5052 
 4767 29a1 10       		.byte	0x10
 4768 29a2 0A       		.byte	0xa
 4769 29a3 32       		.byte	0x32
 4770 29a4 C9290000 		.long	0x29c9
 4771 29a8 06       		.uleb128 0x6
 4772 29a9 56657273 		.ascii "Version\0"
 4772      696F6E00 
 4773 29b1 0A       		.byte	0xa
 4774 29b2 33       		.byte	0x33
 4775 29b3 15       		.byte	0x15
 4776 29b4 90020000 		.long	0x290
 4777 29b8 00       		.byte	0
 4778 29b9 06       		.uleb128 0x6
 4779 29ba 456E7472 		.ascii "Entry\0"
 4779      7900
 4780 29c0 0A       		.byte	0xa
 4781 29c1 34       		.byte	0x34
 4782 29c2 16       		.byte	0x16
 4783 29c3 C9290000 		.long	0x29c9
 4784 29c7 08       		.byte	0x8
 4785 29c8 00       		.byte	0
 4786 29c9 02       		.uleb128 0x2
 4787 29ca 6D290000 		.long	0x296d
 4788 29ce 03       		.uleb128 0x3
 4789 29cf 4546495F 		.ascii "EFI_UI_INTERFACE_PROTOCOL\0"
 4789      55495F49 
 4789      4E544552 
 4789      46414345 
 4789      5F50524F 
 4790 29e9 0A       		.byte	0xa
 4791 29ea 35       		.byte	0x35
 4792 29eb 03       		.byte	0x3
 4793 29ec 85290000 		.long	0x2985
 4794 29f0 03       		.uleb128 0x3
 4795 29f1 55495F49 		.ascii "UI_INTERFACE\0"
 4795      4E544552 
 4795      46414345 
 4795      00
 4796 29fe 0A       		.byte	0xa
 4797 29ff 38       		.byte	0x38
 4798 2a00 23       		.byte	0x23
 4799 2a01 CE290000 		.long	0x29ce
 4800 2a05 02       		.uleb128 0x2
 4801 2a06 2D030000 		.long	0x32d
 4802 2a0a 02       		.uleb128 0x2
 4803 2a0b D3280000 		.long	0x28d3
 4804 2a0f 02       		.uleb128 0x2
 4805 2a10 E6020000 		.long	0x2e6
 4806 2a14 13       		.uleb128 0x13
 4807 2a15 10       		.byte	0x10
 4808 2a16 0B       		.byte	0xb
 4809 2a17 1F       		.byte	0x1f
 4810 2a18 DB2A0000 		.long	0x2adb
 4811 2a1c 06       		.uleb128 0x6
 4812 2a1d 426F6F74 		.ascii "BootIndicator\0"
 4812      496E6469 
 4812      6361746F 
 4812      7200
 4813 2a2b 0B       		.byte	0xb
 4814 2a2c 20       		.byte	0x20
 4815 2a2d 11       		.byte	0x11
 4816 2a2e CA020000 		.long	0x2ca
 4817 2a32 00       		.byte	0
 4818 2a33 06       		.uleb128 0x6
 4819 2a34 53746172 		.ascii "StartHead\0"
 4819      74486561 
 4819      6400
 4820 2a3e 0B       		.byte	0xb
 4821 2a3f 21       		.byte	0x21
 4822 2a40 11       		.byte	0x11
 4823 2a41 CA020000 		.long	0x2ca
 4824 2a45 01       		.byte	0x1
 4825 2a46 06       		.uleb128 0x6
 4826 2a47 53746172 		.ascii "StartSector\0"
 4826      74536563 
 4826      746F7200 
 4827 2a53 0B       		.byte	0xb
 4828 2a54 22       		.byte	0x22
 4829 2a55 11       		.byte	0x11
 4830 2a56 CA020000 		.long	0x2ca
 4831 2a5a 02       		.byte	0x2
 4832 2a5b 06       		.uleb128 0x6
 4833 2a5c 53746172 		.ascii "StartTrack\0"
 4833      74547261 
 4833      636B00
 4834 2a67 0B       		.byte	0xb
 4835 2a68 23       		.byte	0x23
 4836 2a69 11       		.byte	0x11
 4837 2a6a CA020000 		.long	0x2ca
 4838 2a6e 03       		.byte	0x3
 4839 2a6f 06       		.uleb128 0x6
 4840 2a70 4F53496E 		.ascii "OSIndicator\0"
 4840      64696361 
 4840      746F7200 
 4841 2a7c 0B       		.byte	0xb
 4842 2a7d 24       		.byte	0x24
 4843 2a7e 11       		.byte	0x11
 4844 2a7f CA020000 		.long	0x2ca
 4845 2a83 04       		.byte	0x4
 4846 2a84 06       		.uleb128 0x6
 4847 2a85 456E6448 		.ascii "EndHead\0"
 4847      65616400 
 4848 2a8d 0B       		.byte	0xb
 4849 2a8e 25       		.byte	0x25
 4850 2a8f 11       		.byte	0x11
 4851 2a90 CA020000 		.long	0x2ca
 4852 2a94 05       		.byte	0x5
 4853 2a95 06       		.uleb128 0x6
 4854 2a96 456E6453 		.ascii "EndSector\0"
 4854      6563746F 
 4854      7200
 4855 2aa0 0B       		.byte	0xb
 4856 2aa1 26       		.byte	0x26
 4857 2aa2 11       		.byte	0x11
 4858 2aa3 CA020000 		.long	0x2ca
 4859 2aa7 06       		.byte	0x6
 4860 2aa8 06       		.uleb128 0x6
 4861 2aa9 456E6454 		.ascii "EndTrack\0"
 4861      7261636B 
 4861      00
 4862 2ab2 0B       		.byte	0xb
 4863 2ab3 27       		.byte	0x27
 4864 2ab4 11       		.byte	0x11
 4865 2ab5 CA020000 		.long	0x2ca
 4866 2ab9 07       		.byte	0x7
 4867 2aba 1B       		.uleb128 0x1b
 4868 2abb 0F000000 		.secrel32	.LASF10
 4869 2abf 0B       		.byte	0xb
 4870 2ac0 28       		.byte	0x28
 4871 2ac1 11       		.byte	0x11
 4872 2ac2 BB040000 		.long	0x4bb
 4873 2ac6 08       		.byte	0x8
 4874 2ac7 06       		.uleb128 0x6
 4875 2ac8 53697A65 		.ascii "SizeInLBA\0"
 4875      496E4C42 
 4875      4100
 4876 2ad2 0B       		.byte	0xb
 4877 2ad3 29       		.byte	0x29
 4878 2ad4 11       		.byte	0x11
 4879 2ad5 BB040000 		.long	0x4bb
 4880 2ad9 0C       		.byte	0xc
 4881 2ada 00       		.byte	0
 4882 2adb 03       		.uleb128 0x3
 4883 2adc 4D42525F 		.ascii "MBR_PARTITION_RECORD\0"
 4883      50415254 
 4883      4954494F 
 4883      4E5F5245 
 4883      434F5244 
 4884 2af1 0B       		.byte	0xb
 4885 2af2 2A       		.byte	0x2a
 4886 2af3 03       		.byte	0x3
 4887 2af4 142A0000 		.long	0x2a14
 4888 2af8 33       		.uleb128 0x33
 4889 2af9 0002     		.word	0x200
 4890 2afb 0B       		.byte	0xb
 4891 2afc 33       		.byte	0x33
 4892 2afd 09       		.byte	0x9
 4893 2afe 652B0000 		.long	0x2b65
 4894 2b02 06       		.uleb128 0x6
 4895 2b03 426F6F74 		.ascii "BootStrapCode\0"
 4895      53747261 
 4895      70436F64 
 4895      6500
 4896 2b11 0B       		.byte	0xb
 4897 2b12 34       		.byte	0x34
 4898 2b13 1D       		.byte	0x1d
 4899 2b14 652B0000 		.long	0x2b65
 4900 2b18 00       		.byte	0
 4901 2b19 28       		.uleb128 0x28
 4902 2b1a 556E6971 		.ascii "UniqueMbrSignature\0"
 4902      75654D62 
 4902      72536967 
 4902      6E617475 
 4902      726500
 4903 2b2d 35       		.byte	0x35
 4904 2b2e BB040000 		.long	0x4bb
 4905 2b32 B801     		.word	0x1b8
 4906 2b34 28       		.uleb128 0x28
 4907 2b35 556E6B6E 		.ascii "Unknown\0"
 4907      6F776E00 
 4908 2b3d 36       		.byte	0x36
 4909 2b3e FE070000 		.long	0x7fe
 4910 2b42 BC01     		.word	0x1bc
 4911 2b44 28       		.uleb128 0x28
 4912 2b45 50617274 		.ascii "Partition\0"
 4912      6974696F 
 4912      6E00
 4913 2b4f 37       		.byte	0x37
 4914 2b50 762B0000 		.long	0x2b76
 4915 2b54 BE01     		.word	0x1be
 4916 2b56 34       		.uleb128 0x34
 4917 2b57 1B000000 		.secrel32	.LASF5
 4918 2b5b 0B       		.byte	0xb
 4919 2b5c 38       		.byte	0x38
 4920 2b5d 1D       		.byte	0x1d
 4921 2b5e AD020000 		.long	0x2ad
 4922 2b62 FE01     		.word	0x1fe
 4923 2b64 00       		.byte	0
 4924 2b65 1A       		.uleb128 0x1a
 4925 2b66 CA020000 		.long	0x2ca
 4926 2b6a 762B0000 		.long	0x2b76
 4927 2b6e 35       		.uleb128 0x35
 4928 2b6f 10020000 		.long	0x210
 4929 2b73 B701     		.word	0x1b7
 4930 2b75 00       		.byte	0
 4931 2b76 1A       		.uleb128 0x1a
 4932 2b77 DB2A0000 		.long	0x2adb
 4933 2b7b 862B0000 		.long	0x2b86
 4934 2b7f 1E       		.uleb128 0x1e
 4935 2b80 10020000 		.long	0x210
 4936 2b84 03       		.byte	0x3
 4937 2b85 00       		.byte	0
 4938 2b86 03       		.uleb128 0x3
 4939 2b87 4D415354 		.ascii "MASTER_BOOT_RECORD\0"
 4939      45525F42 
 4939      4F4F545F 
 4939      5245434F 
 4939      524400
 4940 2b9a 0B       		.byte	0xb
 4941 2b9b 39       		.byte	0x39
 4942 2b9c 03       		.byte	0x3
 4943 2b9d F82A0000 		.long	0x2af8
 4944 2ba1 16       		.uleb128 0x16
 4945 2ba2 535400   		.ascii "ST\0"
 4946 2ba5 37       		.byte	0x37
 4947 2ba6 22       		.byte	0x22
 4948 2ba7 0A2A0000 		.long	0x2a0a
 4949 2bab 16       		.uleb128 0x16
 4950 2bac 425300   		.ascii "BS\0"
 4951 2baf 39       		.byte	0x39
 4952 2bb0 22       		.byte	0x22
 4953 2bb1 C9280000 		.long	0x28c9
 4954 2bb5 16       		.uleb128 0x16
 4955 2bb6 525400   		.ascii "RT\0"
 4956 2bb9 3B       		.byte	0x3b
 4957 2bba 22       		.byte	0x22
 4958 2bbb C4280000 		.long	0x28c4
 4959 2bbf 16       		.uleb128 0x16
 4960 2bc0 67454669 		.ascii "gEFiUiInterfaceProtocolGuid\0"
 4960      5569496E 
 4960      74657266 
 4960      61636550 
 4960      726F746F 
 4961 2bdc 74       		.byte	0x74
 4962 2bdd 11       		.byte	0x11
 4963 2bde DF030000 		.long	0x3df
 4964 2be2 16       		.uleb128 0x16
 4965 2be3 67456669 		.ascii "gEfiGlobalVariableGuid\0"
 4965      476C6F62 
 4965      616C5661 
 4965      72696162 
 4965      6C654775 
 4966 2bfa 8A       		.byte	0x8a
 4967 2bfb 11       		.byte	0x11
 4968 2bfc DF030000 		.long	0x3df
 4969 2c00 16       		.uleb128 0x16
 4970 2c01 506F6F6C 		.ascii "PoolAllocationType\0"
 4970      416C6C6F 
 4970      63617469 
 4970      6F6E5479 
 4970      706500
 4971 2c14 D1       		.byte	0xd1
 4972 2c15 18       		.byte	0x18
 4973 2c16 EF060000 		.long	0x6ef
 4974 2c1a 24       		.uleb128 0x24
 4975 2c1b 73747263 		.ascii "strcmpa\0"
 4975      6D706100 
 4976 2c23 9601     		.word	0x196
 4977 2c25 06030000 		.long	0x306
 4978 2c29 382C0000 		.long	0x2c38
 4979 2c2d 01       		.uleb128 0x1
 4980 2c2e 0F2A0000 		.long	0x2a0f
 4981 2c32 01       		.uleb128 0x1
 4982 2c33 0F2A0000 		.long	0x2a0f
 4983 2c37 00       		.byte	0
 4984 2c38 24       		.uleb128 0x24
 4985 2c39 44657669 		.ascii "DevicePathToStr\0"
 4985      63655061 
 4985      7468546F 
 4985      53747200 
 4986 2c49 8303     		.word	0x383
 4987 2c4b 47080000 		.long	0x847
 4988 2c4f 592C0000 		.long	0x2c59
 4989 2c53 01       		.uleb128 0x1
 4990 2c54 260B0000 		.long	0xb26
 4991 2c58 00       		.byte	0
 4992 2c59 24       		.uleb128 0x24
 4993 2c5a 44657669 		.ascii "DevicePathFromHandle\0"
 4993      63655061 
 4993      74684672 
 4993      6F6D4861 
 4993      6E646C65 
 4994 2c6f 4503     		.word	0x345
 4995 2c71 260B0000 		.long	0xb26
 4996 2c75 7F2C0000 		.long	0x2c7f
 4997 2c79 01       		.uleb128 0x1
 4998 2c7a 60030000 		.long	0x360
 4999 2c7e 00       		.byte	0
 5000 2c7f 24       		.uleb128 0x24
 5001 2c80 436F6D70 		.ascii "CompareGuid\0"
 5001      61726547 
 5001      75696400 
 5002 2c8c E301     		.word	0x1e3
 5003 2c8e F9020000 		.long	0x2f9
 5004 2c92 A12C0000 		.long	0x2ca1
 5005 2c96 01       		.uleb128 0x1
 5006 2c97 210B0000 		.long	0xb21
 5007 2c9b 01       		.uleb128 0x1
 5008 2c9c 210B0000 		.long	0xb21
 5009 2ca0 00       		.byte	0
 5010 2ca1 29       		.uleb128 0x29
 5011 2ca2 52744243 		.ascii "RtBCDtoDecimal\0"
 5011      44746F44 
 5011      6563696D 
 5011      616C00
 5012 2cb1 9E       		.byte	0x9e
 5013 2cb2 CA020000 		.long	0x2ca
 5014 2cb6 C02C0000 		.long	0x2cc0
 5015 2cba 01       		.uleb128 0x1
 5016 2cbb CA020000 		.long	0x2ca
 5017 2cbf 00       		.byte	0
 5018 2cc0 29       		.uleb128 0x29
 5019 2cc1 52744465 		.ascii "RtDecimaltoBCD\0"
 5019      63696D61 
 5019      6C746F42 
 5019      434400
 5020 2cd0 98       		.byte	0x98
 5021 2cd1 CA020000 		.long	0x2ca
 5022 2cd5 DF2C0000 		.long	0x2cdf
 5023 2cd9 01       		.uleb128 0x1
 5024 2cda CA020000 		.long	0x2ca
 5025 2cde 00       		.byte	0
 5026 2cdf 29       		.uleb128 0x29
 5027 2ce0 5274436F 		.ascii "RtCompareMem\0"
 5027      6D706172 
 5027      654D656D 
 5027      00
 5028 2ced 41       		.byte	0x41
 5029 2cee F9020000 		.long	0x2f9
 5030 2cf2 062D0000 		.long	0x2d06
 5031 2cf6 01       		.uleb128 0x1
 5032 2cf7 C41C0000 		.long	0x1cc4
 5033 2cfb 01       		.uleb128 0x1
 5034 2cfc C41C0000 		.long	0x1cc4
 5035 2d00 01       		.uleb128 0x1
 5036 2d01 06030000 		.long	0x306
 5037 2d05 00       		.byte	0
 5038 2d06 2A       		.uleb128 0x2a
 5039 2d07 5274436F 		.ascii "RtCopyMem\0"
 5039      70794D65 
 5039      6D00
 5040 2d11 39       		.byte	0x39
 5041 2d12 262D0000 		.long	0x2d26
 5042 2d16 01       		.uleb128 0x1
 5043 2d17 73030000 		.long	0x373
 5044 2d1b 01       		.uleb128 0x1
 5045 2d1c C41C0000 		.long	0x1cc4
 5046 2d20 01       		.uleb128 0x1
 5047 2d21 06030000 		.long	0x306
 5048 2d25 00       		.byte	0
 5049 2d26 2A       		.uleb128 0x2a
 5050 2d27 52745365 		.ascii "RtSetMem\0"
 5050      744D656D 
 5050      00
 5051 2d30 31       		.byte	0x31
 5052 2d31 452D0000 		.long	0x2d45
 5053 2d35 01       		.uleb128 0x1
 5054 2d36 73030000 		.long	0x373
 5055 2d3a 01       		.uleb128 0x1
 5056 2d3b 06030000 		.long	0x306
 5057 2d3f 01       		.uleb128 0x1
 5058 2d40 CA020000 		.long	0x2ca
 5059 2d44 00       		.byte	0
 5060 2d45 2A       		.uleb128 0x2a
 5061 2d46 52745A65 		.ascii "RtZeroMem\0"
 5061      726F4D65 
 5061      6D00
 5062 2d50 2A       		.byte	0x2a
 5063 2d51 602D0000 		.long	0x2d60
 5064 2d55 01       		.uleb128 0x1
 5065 2d56 73030000 		.long	0x373
 5066 2d5a 01       		.uleb128 0x1
 5067 2d5b 06030000 		.long	0x306
 5068 2d5f 00       		.byte	0
 5069 2d60 11       		.uleb128 0x11
 5070 2d61 4C696247 		.ascii "LibGetUiString\0"
 5070      65745569 
 5070      53747269 
 5070      6E6700
 5071 2d70 1002     		.word	0x210
 5072 2d72 47080000 		.long	0x847
 5073 2d76 41070000 		.quad	.LFB22
 5073      00000000 
 5074 2d7e C5000000 		.quad	.LFE22-.LFB22
 5074      00000000 
 5075 2d86 01       		.uleb128 0x1
 5076 2d87 9C       		.byte	0x9c
 5077 2d88 CF2E0000 		.long	0x2ecf
 5078 2d8c 0C       		.uleb128 0xc
 5079 2d8d 48616E64 		.ascii "Handle\0"
 5079      6C6500
 5080 2d94 1102     		.word	0x211
 5081 2d96 19       		.byte	0x19
 5082 2d97 60030000 		.long	0x360
 5083 2d9b 14000000 		.secrel32	.LLST66
 5084 2d9f 0C000000 		.secrel32	.LVUS66
 5085 2da3 0C       		.uleb128 0xc
 5086 2da4 53747269 		.ascii "StringType\0"
 5086      6E675479 
 5086      706500
 5087 2daf 1202     		.word	0x212
 5088 2db1 19       		.byte	0x19
 5089 2db2 29290000 		.long	0x2929
 5090 2db6 3C000000 		.secrel32	.LLST67
 5091 2dba 34000000 		.secrel32	.LVUS67
 5092 2dbe 12       		.uleb128 0x12
 5093 2dbf 84000000 		.secrel32	.LASF9
 5094 2dc3 1302     		.word	0x213
 5095 2dc5 1A       		.byte	0x1a
 5096 2dc6 68290000 		.long	0x2968
 5097 2dca 64000000 		.secrel32	.LLST68
 5098 2dce 5C000000 		.secrel32	.LVUS68
 5099 2dd2 0C       		.uleb128 0xc
 5100 2dd3 52657475 		.ascii "ReturnDevicePathStrOnMismatch\0"
 5100      726E4465 
 5100      76696365 
 5100      50617468 
 5100      5374724F 
 5101 2df1 1402     		.word	0x214
 5102 2df3 19       		.byte	0x19
 5103 2df4 14030000 		.long	0x314
 5104 2df8 8A000000 		.secrel32	.LLST69
 5105 2dfc 84000000 		.secrel32	.LVUS69
 5106 2e00 36       		.uleb128 0x36
 5107 2e01 556900   		.ascii "Ui\0"
 5108 2e04 01       		.byte	0x1
 5109 2e05 1702     		.word	0x217
 5110 2e07 16       		.byte	0x16
 5111 2e08 CF2E0000 		.long	0x2ecf
 5112 2e0c 02       		.uleb128 0x2
 5113 2e0d 91       		.byte	0x91
 5114 2e0e 48       		.sleb128 -56
 5115 2e0f 0F       		.uleb128 0xf
 5116 2e10 496E6465 		.ascii "Index\0"
 5116      7800
 5117 2e16 1802     		.word	0x218
 5118 2e18 15       		.byte	0x15
 5119 2e19 29290000 		.long	0x2929
 5120 2e1d A7000000 		.secrel32	.LLST70
 5121 2e21 A3000000 		.secrel32	.LVUS70
 5122 2e25 0F       		.uleb128 0xf
 5123 2e26 41727261 		.ascii "Array\0"
 5123      7900
 5124 2e2c 1902     		.word	0x219
 5125 2e2e 16       		.byte	0x16
 5126 2e2f C9290000 		.long	0x29c9
 5127 2e33 BD000000 		.secrel32	.LLST71
 5128 2e37 B7000000 		.secrel32	.LVUS71
 5129 2e3b 17       		.uleb128 0x17
 5130 2e3c 45000000 		.secrel32	.LASF11
 5131 2e40 1A02     		.word	0x21a
 5132 2e42 15       		.byte	0x15
 5133 2e43 2D030000 		.long	0x32d
 5134 2e47 D7000000 		.secrel32	.LLST72
 5135 2e4b D3000000 		.secrel32	.LVUS72
 5136 2e4f 1C       		.uleb128 0x1c
 5137 2e50 72070000 		.quad	.LVL140
 5137      00000000 
 5138 2e58 6C2E0000 		.long	0x2e6c
 5139 2e5c 05       		.uleb128 0x5
 5140 2e5d 01       		.uleb128 0x1
 5141 2e5e 52       		.byte	0x52
 5142 2e5f 02       		.uleb128 0x2
 5143 2e60 76       		.byte	0x76
 5144 2e61 00       		.sleb128 0
 5145 2e62 2B       		.uleb128 0x2b
 5146 2e63 01       		.uleb128 0x1
 5147 2e64 51       		.byte	0x51
 5148 2e65 05       		.uleb128 0x5
 5149 2e66 01       		.uleb128 0x1
 5150 2e67 58       		.byte	0x58
 5151 2e68 02       		.uleb128 0x2
 5152 2e69 91       		.byte	0x91
 5153 2e6a 48       		.sleb128 -56
 5154 2e6b 00       		.byte	0
 5155 2e6c 10       		.uleb128 0x10
 5156 2e6d 9B070000 		.quad	.LVL145
 5156      00000000 
 5157 2e75 592C0000 		.long	0x2c59
 5158 2e79 842E0000 		.long	0x2e84
 5159 2e7d 05       		.uleb128 0x5
 5160 2e7e 01       		.uleb128 0x1
 5161 2e7f 52       		.byte	0x52
 5162 2e80 02       		.uleb128 0x2
 5163 2e81 76       		.byte	0x76
 5164 2e82 00       		.sleb128 0
 5165 2e83 00       		.byte	0
 5166 2e84 1D       		.uleb128 0x1d
 5167 2e85 A3070000 		.quad	.LVL146
 5167      00000000 
 5168 2e8d 382C0000 		.long	0x2c38
 5169 2e91 10       		.uleb128 0x10
 5170 2e92 D5070000 		.quad	.LVL152
 5170      00000000 
 5171 2e9a 1A2C0000 		.long	0x2c1a
 5172 2e9e A92E0000 		.long	0x2ea9
 5173 2ea2 05       		.uleb128 0x5
 5174 2ea3 01       		.uleb128 0x1
 5175 2ea4 51       		.byte	0x51
 5176 2ea5 02       		.uleb128 0x2
 5177 2ea6 75       		.byte	0x75
 5178 2ea7 00       		.sleb128 0
 5179 2ea8 00       		.byte	0
 5180 2ea9 10       		.uleb128 0x10
 5181 2eaa F9070000 		.quad	.LVL159
 5181      00000000 
 5182 2eb2 592C0000 		.long	0x2c59
 5183 2eb6 C12E0000 		.long	0x2ec1
 5184 2eba 05       		.uleb128 0x5
 5185 2ebb 01       		.uleb128 0x1
 5186 2ebc 52       		.byte	0x52
 5187 2ebd 02       		.uleb128 0x2
 5188 2ebe 76       		.byte	0x76
 5189 2ebf 00       		.sleb128 0
 5190 2ec0 00       		.byte	0
 5191 2ec1 1D       		.uleb128 0x1d
 5192 2ec2 01080000 		.quad	.LVL160
 5192      00000000 
 5193 2eca 382C0000 		.long	0x2c38
 5194 2ece 00       		.byte	0
 5195 2ecf 02       		.uleb128 0x2
 5196 2ed0 F0290000 		.long	0x29f0
 5197 2ed4 11       		.uleb128 0x11
 5198 2ed5 4C696247 		.ascii "LibGetSystemConfigurationTable\0"
 5198      65745379 
 5198      7374656D 
 5198      436F6E66 
 5198      69677572 
 5199 2ef4 FD01     		.word	0x1fd
 5200 2ef6 2D030000 		.long	0x32d
 5201 2efa CD060000 		.quad	.LFB21
 5201      00000000 
 5202 2f02 74000000 		.quad	.LFE21-.LFB21
 5202      00000000 
 5203 2f0a 01       		.uleb128 0x1
 5204 2f0b 9C       		.byte	0x9c
 5205 2f0c 6B2F0000 		.long	0x2f6b
 5206 2f10 0C       		.uleb128 0xc
 5207 2f11 5461626C 		.ascii "TableGuid\0"
 5207      65477569 
 5207      6400
 5208 2f1b FE01     		.word	0x1fe
 5209 2f1d 12       		.byte	0x12
 5210 2f1e 210B0000 		.long	0xb21
 5211 2f22 EC000000 		.secrel32	.LLST63
 5212 2f26 E6000000 		.secrel32	.LVUS63
 5213 2f2a 0C       		.uleb128 0xc
 5214 2f2b 5461626C 		.ascii "Table\0"
 5214      6500
 5215 2f31 FF01     		.word	0x1ff
 5216 2f33 13       		.byte	0x13
 5217 2f34 56080000 		.long	0x856
 5218 2f38 0B010000 		.secrel32	.LLST64
 5219 2f3c 05010000 		.secrel32	.LVUS64
 5220 2f40 0F       		.uleb128 0xf
 5221 2f41 496E6465 		.ascii "Index\0"
 5221      7800
 5222 2f47 0302     		.word	0x203
 5223 2f49 0B       		.byte	0xb
 5224 2f4a 06030000 		.long	0x306
 5225 2f4e 28010000 		.secrel32	.LLST65
 5226 2f52 24010000 		.secrel32	.LVUS65
 5227 2f56 0D       		.uleb128 0xd
 5228 2f57 0D070000 		.quad	.LVL133
 5228      00000000 
 5229 2f5f 7F2C0000 		.long	0x2c7f
 5230 2f63 05       		.uleb128 0x5
 5231 2f64 01       		.uleb128 0x1
 5232 2f65 52       		.byte	0x52
 5233 2f66 02       		.uleb128 0x2
 5234 2f67 76       		.byte	0x76
 5235 2f68 00       		.sleb128 0
 5236 2f69 00       		.byte	0
 5237 2f6a 00       		.byte	0
 5238 2f6b 11       		.uleb128 0x11
 5239 2f6c 42434474 		.ascii "BCDtoDecimal\0"
 5239      6F446563 
 5239      696D616C 
 5239      00
 5240 2f79 F501     		.word	0x1f5
 5241 2f7b CA020000 		.long	0x2ca
 5242 2f7f BC060000 		.quad	.LFB20
 5242      00000000 
 5243 2f87 11000000 		.quad	.LFE20-.LFB20
 5243      00000000 
 5244 2f8f 01       		.uleb128 0x1
 5245 2f90 9C       		.byte	0x9c
 5246 2f91 C72F0000 		.long	0x2fc7
 5247 2f95 0C       		.uleb128 0xc
 5248 2f96 42636456 		.ascii "BcdValue\0"
 5248      616C7565 
 5248      00
 5249 2f9f F601     		.word	0x1f6
 5250 2fa1 0F       		.byte	0xf
 5251 2fa2 CA020000 		.long	0x2ca
 5252 2fa6 3C010000 		.secrel32	.LLST62
 5253 2faa 38010000 		.secrel32	.LVUS62
 5254 2fae 0D       		.uleb128 0xd
 5255 2faf C8060000 		.quad	.LVL128
 5255      00000000 
 5256 2fb7 A12C0000 		.long	0x2ca1
 5257 2fbb 05       		.uleb128 0x5
 5258 2fbc 01       		.uleb128 0x1
 5259 2fbd 52       		.byte	0x52
 5260 2fbe 06       		.uleb128 0x6
 5261 2fbf A3       		.byte	0xa3
 5262 2fc0 01       		.uleb128 0x1
 5263 2fc1 52       		.byte	0x52
 5264 2fc2 08       		.byte	0x8
 5265 2fc3 FF       		.byte	0xff
 5266 2fc4 1A       		.byte	0x1a
 5267 2fc5 00       		.byte	0
 5268 2fc6 00       		.byte	0
 5269 2fc7 11       		.uleb128 0x11
 5270 2fc8 44656369 		.ascii "DecimaltoBCD\0"
 5270      6D616C74 
 5270      6F424344 
 5270      00
 5271 2fd5 EC01     		.word	0x1ec
 5272 2fd7 CA020000 		.long	0x2ca
 5273 2fdb AB060000 		.quad	.LFB19
 5273      00000000 
 5274 2fe3 11000000 		.quad	.LFE19-.LFB19
 5274      00000000 
 5275 2feb 01       		.uleb128 0x1
 5276 2fec 9C       		.byte	0x9c
 5277 2fed 23300000 		.long	0x3023
 5278 2ff1 0C       		.uleb128 0xc
 5279 2ff2 44656356 		.ascii "DecValue\0"
 5279      616C7565 
 5279      00
 5280 2ffb ED01     		.word	0x1ed
 5281 2ffd 0F       		.byte	0xf
 5282 2ffe CA020000 		.long	0x2ca
 5283 3002 52010000 		.secrel32	.LLST61
 5284 3006 4E010000 		.secrel32	.LVUS61
 5285 300a 0D       		.uleb128 0xd
 5286 300b B7060000 		.quad	.LVL126
 5286      00000000 
 5287 3013 C02C0000 		.long	0x2cc0
 5288 3017 05       		.uleb128 0x5
 5289 3018 01       		.uleb128 0x1
 5290 3019 52       		.byte	0x52
 5291 301a 06       		.uleb128 0x6
 5292 301b A3       		.byte	0xa3
 5293 301c 01       		.uleb128 0x1
 5294 301d 52       		.byte	0x52
 5295 301e 08       		.byte	0x8
 5296 301f FF       		.byte	0xff
 5297 3020 1A       		.byte	0x1a
 5298 3021 00       		.byte	0
 5299 3022 00       		.byte	0
 5300 3023 11       		.uleb128 0x11
 5301 3024 56616C69 		.ascii "ValidMBR\0"
 5301      644D4252 
 5301      00
 5302 302d A101     		.word	0x1a1
 5303 302f 14030000 		.long	0x314
 5304 3033 BE040000 		.quad	.LFB18
 5304      00000000 
 5305 303b ED010000 		.quad	.LFE18-.LFB18
 5305      00000000 
 5306 3043 01       		.uleb128 0x1
 5307 3044 9C       		.byte	0x9c
 5308 3045 FC300000 		.long	0x30fc
 5309 3049 0C       		.uleb128 0xc
 5310 304a 4D627200 		.ascii "Mbr\0"
 5311 304e A201     		.word	0x1a2
 5312 3050 1E       		.byte	0x1e
 5313 3051 FC300000 		.long	0x30fc
 5314 3055 6C010000 		.secrel32	.LLST53
 5315 3059 64010000 		.secrel32	.LVUS53
 5316 305d 0C       		.uleb128 0xc
 5317 305e 426C6B49 		.ascii "BlkIo\0"
 5317      6F00
 5318 3064 A301     		.word	0x1a3
 5319 3066 1E       		.byte	0x1e
 5320 3067 01310000 		.long	0x3101
 5321 306b 95010000 		.secrel32	.LLST54
 5322 306f 89010000 		.secrel32	.LVUS54
 5323 3073 17       		.uleb128 0x17
 5324 3074 0F000000 		.secrel32	.LASF10
 5325 3078 A601     		.word	0x1a6
 5326 307a 11       		.byte	0x11
 5327 307b 90020000 		.long	0x290
 5328 307f D7010000 		.secrel32	.LLST55
 5329 3083 C3010000 		.secrel32	.LVUS55
 5330 3087 0F       		.uleb128 0xf
 5331 3088 456E6469 		.ascii "EndingLBA\0"
 5331      6E674C42 
 5331      4100
 5332 3092 A601     		.word	0x1a6
 5333 3094 1E       		.byte	0x1e
 5334 3095 90020000 		.long	0x290
 5335 3099 16030000 		.secrel32	.LLST56
 5336 309d 10030000 		.secrel32	.LVUS56
 5337 30a1 0F       		.uleb128 0xf
 5338 30a2 4E657745 		.ascii "NewEndingLBA\0"
 5338      6E64696E 
 5338      674C4241 
 5338      00
 5339 30af A701     		.word	0x1a7
 5340 30b1 11       		.byte	0x11
 5341 30b2 90020000 		.long	0x290
 5342 30b6 32030000 		.secrel32	.LLST57
 5343 30ba 2C030000 		.secrel32	.LVUS57
 5344 30be 0F       		.uleb128 0xf
 5345 30bf 6900     		.ascii "i\0"
 5346 30c1 A801     		.word	0x1a8
 5347 30c3 11       		.byte	0x11
 5348 30c4 F9020000 		.long	0x2f9
 5349 30c8 26040000 		.secrel32	.LLST58
 5350 30cc 22040000 		.secrel32	.LVUS58
 5351 30d0 0F       		.uleb128 0xf
 5352 30d1 6A00     		.ascii "j\0"
 5353 30d3 A801     		.word	0x1a8
 5354 30d5 14       		.byte	0x14
 5355 30d6 F9020000 		.long	0x2f9
 5356 30da 3B040000 		.secrel32	.LLST59
 5357 30de 35040000 		.secrel32	.LVUS59
 5358 30e2 0F       		.uleb128 0xf
 5359 30e3 56616C69 		.ascii "ValidMbr\0"
 5359      644D6272 
 5359      00
 5360 30ec A901     		.word	0x1a9
 5361 30ee 11       		.byte	0x11
 5362 30ef 14030000 		.long	0x314
 5363 30f3 59040000 		.secrel32	.LLST60
 5364 30f7 51040000 		.secrel32	.LVUS60
 5365 30fb 00       		.byte	0
 5366 30fc 02       		.uleb128 0x2
 5367 30fd 862B0000 		.long	0x2b86
 5368 3101 02       		.uleb128 0x2
 5369 3102 0C0B0000 		.long	0xb0c
 5370 3106 11       		.uleb128 0x11
 5371 3107 4C696249 		.ascii "LibInsertToTailOfBootOrder\0"
 5371      6E736572 
 5371      74546F54 
 5371      61696C4F 
 5371      66426F6F 
 5372 3122 7001     		.word	0x170
 5373 3124 2D030000 		.long	0x32d
 5374 3128 B6030000 		.quad	.LFB17
 5374      00000000 
 5375 3130 08010000 		.quad	.LFE17-.LFB17
 5375      00000000 
 5376 3138 01       		.uleb128 0x1
 5377 3139 9C       		.byte	0x9c
 5378 313a 9B320000 		.long	0x329b
 5379 313e 0C       		.uleb128 0xc
 5380 313f 426F6F74 		.ascii "BootOption\0"
 5380      4F707469 
 5380      6F6E00
 5381 314a 7101     		.word	0x171
 5382 314c 11       		.byte	0x11
 5383 314d AD020000 		.long	0x2ad
 5384 3151 7F040000 		.secrel32	.LLST47
 5385 3155 79040000 		.secrel32	.LVUS47
 5386 3159 0C       		.uleb128 0xc
 5387 315a 4F6E6C79 		.ascii "OnlyInsertIfEmpty\0"
 5387      496E7365 
 5387      72744966 
 5387      456D7074 
 5387      7900
 5388 316c 7201     		.word	0x172
 5389 316e 11       		.byte	0x11
 5390 316f 14030000 		.long	0x314
 5391 3173 9E040000 		.secrel32	.LLST48
 5392 3177 98040000 		.secrel32	.LVUS48
 5393 317b 0F       		.uleb128 0xf
 5394 317c 426F6F74 		.ascii "BootOptionArray\0"
 5394      4F707469 
 5394      6F6E4172 
 5394      72617900 
 5395 318c 7501     		.word	0x175
 5396 318e 12       		.byte	0x12
 5397 318f 54110000 		.long	0x1154
 5398 3193 C1040000 		.secrel32	.LLST49
 5399 3197 B7040000 		.secrel32	.LVUS49
 5400 319b 0F       		.uleb128 0xf
 5401 319c 4E657742 		.ascii "NewBootOptionArray\0"
 5401      6F6F744F 
 5401      7074696F 
 5401      6E417272 
 5401      617900
 5402 31af 7601     		.word	0x176
 5403 31b1 12       		.byte	0x12
 5404 31b2 54110000 		.long	0x1154
 5405 31b6 EB040000 		.secrel32	.LLST50
 5406 31ba E5040000 		.secrel32	.LVUS50
 5407 31be 2F       		.uleb128 0x2f
 5408 31bf 73000000 		.secrel32	.LASF12
 5409 31c3 7701     		.word	0x177
 5410 31c5 11       		.byte	0x11
 5411 31c6 06030000 		.long	0x306
 5412 31ca 02       		.uleb128 0x2
 5413 31cb 91       		.byte	0x91
 5414 31cc 58       		.sleb128 -40
 5415 31cd 0F       		.uleb128 0xf
 5416 31ce 496E6465 		.ascii "Index\0"
 5416      7800
 5417 31d4 7801     		.word	0x178
 5418 31d6 11       		.byte	0x11
 5419 31d7 06030000 		.long	0x306
 5420 31db 03050000 		.secrel32	.LLST51
 5421 31df 01050000 		.secrel32	.LVUS51
 5422 31e3 17       		.uleb128 0x17
 5423 31e4 45000000 		.secrel32	.LASF11
 5424 31e8 7901     		.word	0x179
 5425 31ea 11       		.byte	0x11
 5426 31eb 2D030000 		.long	0x32d
 5427 31ef 0F050000 		.secrel32	.LLST52
 5428 31f3 0B050000 		.secrel32	.LVUS52
 5429 31f7 10       		.uleb128 0x10
 5430 31f8 D9030000 		.quad	.LVL86
 5430      00000000 
 5431 3200 7F350000 		.long	0x357f
 5432 3204 1F320000 		.long	0x321f
 5433 3208 05       		.uleb128 0x5
 5434 3209 01       		.uleb128 0x1
 5435 320a 52       		.byte	0x52
 5436 320b 09       		.uleb128 0x9
 5437 320c 03       		.byte	0x3
 5438 320d 00000000 		.quad	.LC0
 5438      00000000 
 5439 3215 2B       		.uleb128 0x2b
 5440 3216 01       		.uleb128 0x1
 5441 3217 51       		.byte	0x51
 5442 3218 05       		.uleb128 0x5
 5443 3219 01       		.uleb128 0x1
 5444 321a 58       		.byte	0x58
 5445 321b 02       		.uleb128 0x2
 5446 321c 91       		.byte	0x91
 5447 321d 58       		.sleb128 -40
 5448 321e 00       		.byte	0
 5449 321f 1D       		.uleb128 0x1d
 5450 3220 F8030000 		.quad	.LVL88
 5450      00000000 
 5451 3228 B03B0000 		.long	0x3bb0
 5452 322c 10       		.uleb128 0x10
 5453 322d 18040000 		.quad	.LVL91
 5453      00000000 
 5454 3235 EE390000 		.long	0x39ee
 5455 3239 44320000 		.long	0x3244
 5456 323d 05       		.uleb128 0x5
 5457 323e 01       		.uleb128 0x1
 5458 323f 52       		.byte	0x52
 5459 3240 02       		.uleb128 0x2
 5460 3241 74       		.byte	0x74
 5461 3242 00       		.sleb128 0
 5462 3243 00       		.byte	0
 5463 3244 1C       		.uleb128 0x1c
 5464 3245 8F040000 		.quad	.LVL96
 5464      00000000 
 5465 324d 6E320000 		.long	0x326e
 5466 3251 05       		.uleb128 0x5
 5467 3252 01       		.uleb128 0x1
 5468 3253 52       		.byte	0x52
 5469 3254 09       		.uleb128 0x9
 5470 3255 03       		.byte	0x3
 5471 3256 00000000 		.quad	.LC0
 5471      00000000 
 5472 325e 2B       		.uleb128 0x2b
 5473 325f 01       		.uleb128 0x1
 5474 3260 51       		.byte	0x51
 5475 3261 05       		.uleb128 0x5
 5476 3262 01       		.uleb128 0x1
 5477 3263 58       		.byte	0x58
 5478 3264 01       		.uleb128 0x1
 5479 3265 37       		.byte	0x37
 5480 3266 05       		.uleb128 0x5
 5481 3267 02       		.uleb128 0x2
 5482 3268 77       		.byte	0x77
 5483 3269 20       		.sleb128 32
 5484 326a 02       		.uleb128 0x2
 5485 326b 73       		.byte	0x73
 5486 326c 00       		.sleb128 0
 5487 326d 00       		.byte	0
 5488 326e 10       		.uleb128 0x10
 5489 326f 9A040000 		.quad	.LVL98
 5489      00000000 
 5490 3277 EE390000 		.long	0x39ee
 5491 327b 86320000 		.long	0x3286
 5492 327f 05       		.uleb128 0x5
 5493 3280 01       		.uleb128 0x1
 5494 3281 52       		.byte	0x52
 5495 3282 02       		.uleb128 0x2
 5496 3283 73       		.byte	0x73
 5497 3284 00       		.sleb128 0
 5498 3285 00       		.byte	0
 5499 3286 0D       		.uleb128 0xd
 5500 3287 A7040000 		.quad	.LVL99
 5500      00000000 
 5501 328f EE390000 		.long	0x39ee
 5502 3293 05       		.uleb128 0x5
 5503 3294 01       		.uleb128 0x1
 5504 3295 52       		.byte	0x52
 5505 3296 02       		.uleb128 0x2
 5506 3297 74       		.byte	0x74
 5507 3298 00       		.sleb128 0
 5508 3299 00       		.byte	0
 5509 329a 00       		.byte	0
 5510 329b 11       		.uleb128 0x11
 5511 329c 4C696253 		.ascii "LibSetVariable\0"
 5511      65745661 
 5511      72696162 
 5511      6C6500
 5512 32ab 5B01     		.word	0x15b
 5513 32ad 2D030000 		.long	0x32d
 5514 32b1 8F030000 		.quad	.LFB16
 5514      00000000 
 5515 32b9 27000000 		.quad	.LFE16-.LFB16
 5515      00000000 
 5516 32c1 01       		.uleb128 0x1
 5517 32c2 9C       		.byte	0x9c
 5518 32c3 59330000 		.long	0x3359
 5519 32c7 12       		.uleb128 0x12
 5520 32c8 00000000 		.secrel32	.LASF13
 5521 32cc 5C01     		.word	0x15c
 5522 32ce 12       		.byte	0x12
 5523 32cf 47080000 		.long	0x847
 5524 32d3 22050000 		.secrel32	.LLST42
 5525 32d7 1E050000 		.secrel32	.LVUS42
 5526 32db 12       		.uleb128 0x12
 5527 32dc 6B000000 		.secrel32	.LASF14
 5528 32e0 5D01     		.word	0x15d
 5529 32e2 12       		.byte	0x12
 5530 32e3 210B0000 		.long	0xb21
 5531 32e7 38050000 		.secrel32	.LLST43
 5532 32eb 34050000 		.secrel32	.LVUS43
 5533 32ef 12       		.uleb128 0x12
 5534 32f0 59000000 		.secrel32	.LASF15
 5535 32f4 5E01     		.word	0x15e
 5536 32f6 0F       		.byte	0xf
 5537 32f7 06030000 		.long	0x306
 5538 32fb 50050000 		.secrel32	.LLST44
 5539 32ff 4A050000 		.secrel32	.LVUS44
 5540 3303 0C       		.uleb128 0xc
 5541 3304 44617461 		.ascii "Data\0"
 5541      00
 5542 3309 5F01     		.word	0x15f
 5543 330b 12       		.byte	0x12
 5544 330c 73030000 		.long	0x373
 5545 3310 6F050000 		.secrel32	.LLST45
 5546 3314 69050000 		.secrel32	.LVUS45
 5547 3318 17       		.uleb128 0x17
 5548 3319 45000000 		.secrel32	.LASF11
 5549 331d 6201     		.word	0x162
 5550 331f 11       		.byte	0x11
 5551 3320 2D030000 		.long	0x32d
 5552 3324 8B050000 		.secrel32	.LLST46
 5553 3328 89050000 		.secrel32	.LVUS46
 5554 332c 25       		.uleb128 0x25
 5555 332d B1030000 		.quad	.LVL82
 5555      00000000 
 5556 3335 05       		.uleb128 0x5
 5557 3336 01       		.uleb128 0x1
 5558 3337 52       		.byte	0x52
 5559 3338 03       		.uleb128 0x3
 5560 3339 A3       		.byte	0xa3
 5561 333a 01       		.uleb128 0x1
 5562 333b 52       		.byte	0x52
 5563 333c 05       		.uleb128 0x5
 5564 333d 01       		.uleb128 0x1
 5565 333e 51       		.byte	0x51
 5566 333f 03       		.uleb128 0x3
 5567 3340 A3       		.byte	0xa3
 5568 3341 01       		.uleb128 0x1
 5569 3342 51       		.byte	0x51
 5570 3343 05       		.uleb128 0x5
 5571 3344 01       		.uleb128 0x1
 5572 3345 58       		.byte	0x58
 5573 3346 01       		.uleb128 0x1
 5574 3347 36       		.byte	0x36
 5575 3348 05       		.uleb128 0x5
 5576 3349 01       		.uleb128 0x1
 5577 334a 59       		.byte	0x59
 5578 334b 03       		.uleb128 0x3
 5579 334c A3       		.byte	0xa3
 5580 334d 01       		.uleb128 0x1
 5581 334e 58       		.byte	0x58
 5582 334f 05       		.uleb128 0x5
 5583 3350 02       		.uleb128 0x2
 5584 3351 77       		.byte	0x77
 5585 3352 20       		.sleb128 32
 5586 3353 03       		.uleb128 0x3
 5587 3354 A3       		.byte	0xa3
 5588 3355 01       		.uleb128 0x1
 5589 3356 59       		.byte	0x59
 5590 3357 00       		.byte	0
 5591 3358 00       		.byte	0
 5592 3359 11       		.uleb128 0x11
 5593 335a 4C696253 		.ascii "LibSetNVVariable\0"
 5593      65744E56 
 5593      56617269 
 5593      61626C65 
 5593      00
 5594 336b 4601     		.word	0x146
 5595 336d 2D030000 		.long	0x32d
 5596 3371 68030000 		.quad	.LFB15
 5596      00000000 
 5597 3379 27000000 		.quad	.LFE15-.LFB15
 5597      00000000 
 5598 3381 01       		.uleb128 0x1
 5599 3382 9C       		.byte	0x9c
 5600 3383 19340000 		.long	0x3419
 5601 3387 12       		.uleb128 0x12
 5602 3388 00000000 		.secrel32	.LASF13
 5603 338c 4701     		.word	0x147
 5604 338e 12       		.byte	0x12
 5605 338f 47080000 		.long	0x847
 5606 3393 97050000 		.secrel32	.LLST37
 5607 3397 93050000 		.secrel32	.LVUS37
 5608 339b 12       		.uleb128 0x12
 5609 339c 6B000000 		.secrel32	.LASF14
 5610 33a0 4801     		.word	0x148
 5611 33a2 12       		.byte	0x12
 5612 33a3 210B0000 		.long	0xb21
 5613 33a7 AD050000 		.secrel32	.LLST38
 5614 33ab A9050000 		.secrel32	.LVUS38
 5615 33af 12       		.uleb128 0x12
 5616 33b0 59000000 		.secrel32	.LASF15
 5617 33b4 4901     		.word	0x149
 5618 33b6 0F       		.byte	0xf
 5619 33b7 06030000 		.long	0x306
 5620 33bb C5050000 		.secrel32	.LLST39
 5621 33bf BF050000 		.secrel32	.LVUS39
 5622 33c3 0C       		.uleb128 0xc
 5623 33c4 44617461 		.ascii "Data\0"
 5623      00
 5624 33c9 4A01     		.word	0x14a
 5625 33cb 12       		.byte	0x12
 5626 33cc 73030000 		.long	0x373
 5627 33d0 E4050000 		.secrel32	.LLST40
 5628 33d4 DE050000 		.secrel32	.LVUS40
 5629 33d8 17       		.uleb128 0x17
 5630 33d9 45000000 		.secrel32	.LASF11
 5631 33dd 4D01     		.word	0x14d
 5632 33df 11       		.byte	0x11
 5633 33e0 2D030000 		.long	0x32d
 5634 33e4 00060000 		.secrel32	.LLST41
 5635 33e8 FE050000 		.secrel32	.LVUS41
 5636 33ec 25       		.uleb128 0x25
 5637 33ed 8A030000 		.quad	.LVL78
 5637      00000000 
 5638 33f5 05       		.uleb128 0x5
 5639 33f6 01       		.uleb128 0x1
 5640 33f7 52       		.byte	0x52
 5641 33f8 03       		.uleb128 0x3
 5642 33f9 A3       		.byte	0xa3
 5643 33fa 01       		.uleb128 0x1
 5644 33fb 52       		.byte	0x52
 5645 33fc 05       		.uleb128 0x5
 5646 33fd 01       		.uleb128 0x1
 5647 33fe 51       		.byte	0x51
 5648 33ff 03       		.uleb128 0x3
 5649 3400 A3       		.byte	0xa3
 5650 3401 01       		.uleb128 0x1
 5651 3402 51       		.byte	0x51
 5652 3403 05       		.uleb128 0x5
 5653 3404 01       		.uleb128 0x1
 5654 3405 58       		.byte	0x58
 5655 3406 01       		.uleb128 0x1
 5656 3407 37       		.byte	0x37
 5657 3408 05       		.uleb128 0x5
 5658 3409 01       		.uleb128 0x1
 5659 340a 59       		.byte	0x59
 5660 340b 03       		.uleb128 0x3
 5661 340c A3       		.byte	0xa3
 5662 340d 01       		.uleb128 0x1
 5663 340e 58       		.byte	0x58
 5664 340f 05       		.uleb128 0x5
 5665 3410 02       		.uleb128 0x2
 5666 3411 77       		.byte	0x77
 5667 3412 20       		.sleb128 32
 5668 3413 03       		.uleb128 0x3
 5669 3414 A3       		.byte	0xa3
 5670 3415 01       		.uleb128 0x1
 5671 3416 59       		.byte	0x59
 5672 3417 00       		.byte	0
 5673 3418 00       		.byte	0
 5674 3419 11       		.uleb128 0x11
 5675 341a 4C696244 		.ascii "LibDeleteVariable\0"
 5675      656C6574 
 5675      65566172 
 5675      6961626C 
 5675      6500
 5676 342c 2701     		.word	0x127
 5677 342e 2D030000 		.long	0x32d
 5678 3432 01030000 		.quad	.LFB14
 5678      00000000 
 5679 343a 67000000 		.quad	.LFE14-.LFB14
 5679      00000000 
 5680 3442 01       		.uleb128 0x1
 5681 3443 9C       		.byte	0x9c
 5682 3444 F8340000 		.long	0x34f8
 5683 3448 12       		.uleb128 0x12
 5684 3449 00000000 		.secrel32	.LASF13
 5685 344d 2801     		.word	0x128
 5686 344f 12       		.byte	0x12
 5687 3450 47080000 		.long	0x847
 5688 3454 12060000 		.secrel32	.LLST33
 5689 3458 08060000 		.secrel32	.LVUS33
 5690 345c 12       		.uleb128 0x12
 5691 345d 6B000000 		.secrel32	.LASF14
 5692 3461 2901     		.word	0x129
 5693 3463 12       		.byte	0x12
 5694 3464 210B0000 		.long	0xb21
 5695 3468 44060000 		.secrel32	.LLST34
 5696 346c 3C060000 		.secrel32	.LVUS34
 5697 3470 0F       		.uleb128 0xf
 5698 3471 56617242 		.ascii "VarBuf\0"
 5698      756600
 5699 3478 2C01     		.word	0x12c
 5700 347a 12       		.byte	0x12
 5701 347b 73030000 		.long	0x373
 5702 347f 6A060000 		.secrel32	.LLST35
 5703 3483 64060000 		.secrel32	.LVUS35
 5704 3487 17       		.uleb128 0x17
 5705 3488 45000000 		.secrel32	.LASF11
 5706 348c 2D01     		.word	0x12d
 5707 348e 11       		.byte	0x11
 5708 348f 2D030000 		.long	0x32d
 5709 3493 88060000 		.secrel32	.LLST36
 5710 3497 80060000 		.secrel32	.LVUS36
 5711 349b 10       		.uleb128 0x10
 5712 349c 13030000 		.quad	.LVL65
 5712      00000000 
 5713 34a4 F8340000 		.long	0x34f8
 5714 34a8 B9340000 		.long	0x34b9
 5715 34ac 05       		.uleb128 0x5
 5716 34ad 01       		.uleb128 0x1
 5717 34ae 52       		.byte	0x52
 5718 34af 02       		.uleb128 0x2
 5719 34b0 74       		.byte	0x74
 5720 34b1 00       		.sleb128 0
 5721 34b2 05       		.uleb128 0x5
 5722 34b3 01       		.uleb128 0x1
 5723 34b4 51       		.byte	0x51
 5724 34b5 02       		.uleb128 0x2
 5725 34b6 75       		.byte	0x75
 5726 34b7 00       		.sleb128 0
 5727 34b8 00       		.byte	0
 5728 34b9 1C       		.uleb128 0x1c
 5729 34ba 46030000 		.quad	.LVL68
 5729      00000000 
 5730 34c2 E3340000 		.long	0x34e3
 5731 34c6 05       		.uleb128 0x5
 5732 34c7 01       		.uleb128 0x1
 5733 34c8 52       		.byte	0x52
 5734 34c9 02       		.uleb128 0x2
 5735 34ca 74       		.byte	0x74
 5736 34cb 00       		.sleb128 0
 5737 34cc 05       		.uleb128 0x5
 5738 34cd 01       		.uleb128 0x1
 5739 34ce 51       		.byte	0x51
 5740 34cf 02       		.uleb128 0x2
 5741 34d0 75       		.byte	0x75
 5742 34d1 00       		.sleb128 0
 5743 34d2 05       		.uleb128 0x5
 5744 34d3 01       		.uleb128 0x1
 5745 34d4 58       		.byte	0x58
 5746 34d5 01       		.uleb128 0x1
 5747 34d6 37       		.byte	0x37
 5748 34d7 05       		.uleb128 0x5
 5749 34d8 01       		.uleb128 0x1
 5750 34d9 59       		.byte	0x59
 5751 34da 01       		.uleb128 0x1
 5752 34db 30       		.byte	0x30
 5753 34dc 05       		.uleb128 0x5
 5754 34dd 02       		.uleb128 0x2
 5755 34de 77       		.byte	0x77
 5756 34df 20       		.sleb128 32
 5757 34e0 01       		.uleb128 0x1
 5758 34e1 30       		.byte	0x30
 5759 34e2 00       		.byte	0
 5760 34e3 0D       		.uleb128 0xd
 5761 34e4 51030000 		.quad	.LVL70
 5761      00000000 
 5762 34ec EE390000 		.long	0x39ee
 5763 34f0 05       		.uleb128 0x5
 5764 34f1 01       		.uleb128 0x1
 5765 34f2 52       		.byte	0x52
 5766 34f3 02       		.uleb128 0x2
 5767 34f4 73       		.byte	0x73
 5768 34f5 00       		.sleb128 0
 5769 34f6 00       		.byte	0
 5770 34f7 00       		.byte	0
 5771 34f8 11       		.uleb128 0x11
 5772 34f9 4C696247 		.ascii "LibGetVariable\0"
 5772      65745661 
 5772      72696162 
 5772      6C6500
 5773 3508 1C01     		.word	0x11c
 5774 350a 73030000 		.long	0x373
 5775 350e EE020000 		.quad	.LFB13
 5775      00000000 
 5776 3516 13000000 		.quad	.LFE13-.LFB13
 5776      00000000 
 5777 351e 01       		.uleb128 0x1
 5778 351f 9C       		.byte	0x9c
 5779 3520 7F350000 		.long	0x357f
 5780 3524 0C       		.uleb128 0xc
 5781 3525 4E616D65 		.ascii "Name\0"
 5781      00
 5782 352a 1D01     		.word	0x11d
 5783 352c 1E       		.byte	0x1e
 5784 352d 47080000 		.long	0x847
 5785 3531 BB060000 		.secrel32	.LLST31
 5786 3535 B7060000 		.secrel32	.LVUS31
 5787 3539 12       		.uleb128 0x12
 5788 353a 2F000000 		.secrel32	.LASF8
 5789 353e 1E01     		.word	0x11e
 5790 3540 1E       		.byte	0x1e
 5791 3541 210B0000 		.long	0xb21
 5792 3545 D1060000 		.secrel32	.LLST32
 5793 3549 CD060000 		.secrel32	.LVUS32
 5794 354d 2F       		.uleb128 0x2f
 5795 354e 73000000 		.secrel32	.LASF12
 5796 3552 2101     		.word	0x121
 5797 3554 0D       		.byte	0xd
 5798 3555 06030000 		.long	0x306
 5799 3559 02       		.uleb128 0x2
 5800 355a 91       		.byte	0x91
 5801 355b 68       		.sleb128 -24
 5802 355c 0D       		.uleb128 0xd
 5803 355d FC020000 		.quad	.LVL63
 5803      00000000 
 5804 3565 7F350000 		.long	0x357f
 5805 3569 05       		.uleb128 0x5
 5806 356a 01       		.uleb128 0x1
 5807 356b 52       		.byte	0x52
 5808 356c 03       		.uleb128 0x3
 5809 356d A3       		.byte	0xa3
 5810 356e 01       		.uleb128 0x1
 5811 356f 52       		.byte	0x52
 5812 3570 05       		.uleb128 0x5
 5813 3571 01       		.uleb128 0x1
 5814 3572 51       		.byte	0x51
 5815 3573 03       		.uleb128 0x3
 5816 3574 A3       		.byte	0xa3
 5817 3575 01       		.uleb128 0x1
 5818 3576 51       		.byte	0x51
 5819 3577 05       		.uleb128 0x5
 5820 3578 01       		.uleb128 0x1
 5821 3579 58       		.byte	0x58
 5822 357a 02       		.uleb128 0x2
 5823 357b 91       		.byte	0x91
 5824 357c 68       		.sleb128 -24
 5825 357d 00       		.byte	0
 5826 357e 00       		.byte	0
 5827 357f 18       		.uleb128 0x18
 5828 3580 4C696247 		.ascii "LibGetVariableAndSize\0"
 5828      65745661 
 5828      72696162 
 5828      6C65416E 
 5828      6453697A 
 5829 3596 F3       		.byte	0xf3
 5830 3597 73030000 		.long	0x373
 5831 359b 53020000 		.quad	.LFB12
 5831      00000000 
 5832 35a3 9B000000 		.quad	.LFE12-.LFB12
 5832      00000000 
 5833 35ab 01       		.uleb128 0x1
 5834 35ac 9C       		.byte	0x9c
 5835 35ad 55360000 		.long	0x3655
 5836 35b1 0A       		.uleb128 0xa
 5837 35b2 4E616D65 		.ascii "Name\0"
 5837      00
 5838 35b7 F4       		.byte	0xf4
 5839 35b8 1E       		.byte	0x1e
 5840 35b9 47080000 		.long	0x847
 5841 35bd EB060000 		.secrel32	.LLST28
 5842 35c1 E3060000 		.secrel32	.LVUS28
 5843 35c5 14       		.uleb128 0x14
 5844 35c6 2F000000 		.secrel32	.LASF8
 5845 35ca F5       		.byte	0xf5
 5846 35cb 1E       		.byte	0x1e
 5847 35cc 210B0000 		.long	0xb21
 5848 35d0 13070000 		.secrel32	.LLST29
 5849 35d4 0B070000 		.secrel32	.LVUS29
 5850 35d8 14       		.uleb128 0x14
 5851 35d9 73000000 		.secrel32	.LASF12
 5852 35dd F6       		.byte	0xf6
 5853 35de 1E       		.byte	0x1e
 5854 35df 4C080000 		.long	0x84c
 5855 35e3 3B070000 		.secrel32	.LLST30
 5856 35e7 33070000 		.secrel32	.LVUS30
 5857 35eb 19       		.uleb128 0x19
 5858 35ec 45000000 		.secrel32	.LASF11
 5859 35f0 F9       		.byte	0xf9
 5860 35f1 1D       		.byte	0x1d
 5861 35f2 2D030000 		.long	0x32d
 5862 35f6 02       		.uleb128 0x2
 5863 35f7 91       		.byte	0x91
 5864 35f8 58       		.sleb128 -40
 5865 35f9 19       		.uleb128 0x19
 5866 35fa 08000000 		.secrel32	.LASF16
 5867 35fe FA       		.byte	0xfa
 5868 35ff 1E       		.byte	0x1e
 5869 3600 73030000 		.long	0x373
 5870 3604 02       		.uleb128 0x2
 5871 3605 91       		.byte	0x91
 5872 3606 50       		.sleb128 -48
 5873 3607 19       		.uleb128 0x19
 5874 3608 3A000000 		.secrel32	.LASF17
 5875 360c FB       		.byte	0xfb
 5876 360d 1D       		.byte	0x1d
 5877 360e 06030000 		.long	0x306
 5878 3612 02       		.uleb128 0x2
 5879 3613 91       		.byte	0x91
 5880 3614 48       		.sleb128 -56
 5881 3615 1C       		.uleb128 0x1c
 5882 3616 AB020000 		.quad	.LVL56
 5882      00000000 
 5883 361e 3A360000 		.long	0x363a
 5884 3622 05       		.uleb128 0x5
 5885 3623 01       		.uleb128 0x1
 5886 3624 52       		.byte	0x52
 5887 3625 02       		.uleb128 0x2
 5888 3626 74       		.byte	0x74
 5889 3627 00       		.sleb128 0
 5890 3628 05       		.uleb128 0x5
 5891 3629 01       		.uleb128 0x1
 5892 362a 51       		.byte	0x51
 5893 362b 02       		.uleb128 0x2
 5894 362c 73       		.byte	0x73
 5895 362d 00       		.sleb128 0
 5896 362e 05       		.uleb128 0x5
 5897 362f 01       		.uleb128 0x1
 5898 3630 58       		.byte	0x58
 5899 3631 01       		.uleb128 0x1
 5900 3632 30       		.byte	0x30
 5901 3633 05       		.uleb128 0x5
 5902 3634 01       		.uleb128 0x1
 5903 3635 59       		.byte	0x59
 5904 3636 02       		.uleb128 0x2
 5905 3637 91       		.byte	0x91
 5906 3638 48       		.sleb128 -56
 5907 3639 00       		.byte	0
 5908 363a 0D       		.uleb128 0xd
 5909 363b C4020000 		.quad	.LVL57
 5909      00000000 
 5910 3643 5A370000 		.long	0x375a
 5911 3647 05       		.uleb128 0x5
 5912 3648 01       		.uleb128 0x1
 5913 3649 52       		.byte	0x52
 5914 364a 02       		.uleb128 0x2
 5915 364b 91       		.byte	0x91
 5916 364c 58       		.sleb128 -40
 5917 364d 05       		.uleb128 0x5
 5918 364e 01       		.uleb128 0x1
 5919 364f 51       		.byte	0x51
 5920 3650 02       		.uleb128 0x2
 5921 3651 91       		.byte	0x91
 5922 3652 50       		.sleb128 -48
 5923 3653 00       		.byte	0
 5924 3654 00       		.byte	0
 5925 3655 18       		.uleb128 0x18
 5926 3656 4C69624D 		.ascii "LibMemoryMap\0"
 5926      656D6F72 
 5926      794D6170 
 5926      00
 5927 3663 CC       		.byte	0xcc
 5928 3664 0F120000 		.long	0x120f
 5929 3668 B9010000 		.quad	.LFB11
 5929      00000000 
 5930 3670 9A000000 		.quad	.LFE11-.LFB11
 5930      00000000 
 5931 3678 01       		.uleb128 0x1
 5932 3679 9C       		.byte	0x9c
 5933 367a 5A370000 		.long	0x375a
 5934 367e 0A       		.uleb128 0xa
 5935 367f 4E6F456E 		.ascii "NoEntries\0"
 5935      74726965 
 5935      7300
 5936 3689 CD       		.byte	0xcd
 5937 368a 1E       		.byte	0x1e
 5938 368b 4C080000 		.long	0x84c
 5939 368f 61070000 		.secrel32	.LLST24
 5940 3693 5B070000 		.secrel32	.LVUS24
 5941 3697 0A       		.uleb128 0xa
 5942 3698 4D61704B 		.ascii "MapKey\0"
 5942      657900
 5943 369f CE       		.byte	0xce
 5944 36a0 1E       		.byte	0x1e
 5945 36a1 4C080000 		.long	0x84c
 5946 36a5 80070000 		.secrel32	.LLST25
 5947 36a9 7A070000 		.secrel32	.LVUS25
 5948 36ad 0A       		.uleb128 0xa
 5949 36ae 44657363 		.ascii "DescriptorSize\0"
 5949      72697074 
 5949      6F725369 
 5949      7A6500
 5950 36bd CF       		.byte	0xcf
 5951 36be 1E       		.byte	0x1e
 5952 36bf 4C080000 		.long	0x84c
 5953 36c3 9F070000 		.secrel32	.LLST26
 5954 36c7 99070000 		.secrel32	.LVUS26
 5955 36cb 0A       		.uleb128 0xa
 5956 36cc 44657363 		.ascii "DescriptorVersion\0"
 5956      72697074 
 5956      6F725665 
 5956      7273696F 
 5956      6E00
 5957 36de D0       		.byte	0xd0
 5958 36df 1E       		.byte	0x1e
 5959 36e0 3A0B0000 		.long	0xb3a
 5960 36e4 BE070000 		.secrel32	.LLST27
 5961 36e8 B8070000 		.secrel32	.LVUS27
 5962 36ec 19       		.uleb128 0x19
 5963 36ed 45000000 		.secrel32	.LASF11
 5964 36f1 D3       		.byte	0xd3
 5965 36f2 1D       		.byte	0x1d
 5966 36f3 2D030000 		.long	0x32d
 5967 36f7 02       		.uleb128 0x2
 5968 36f8 91       		.byte	0x91
 5969 36f9 48       		.sleb128 -56
 5970 36fa 19       		.uleb128 0x19
 5971 36fb 08000000 		.secrel32	.LASF16
 5972 36ff D4       		.byte	0xd4
 5973 3700 1E       		.byte	0x1e
 5974 3701 0F120000 		.long	0x120f
 5975 3705 02       		.uleb128 0x2
 5976 3706 91       		.byte	0x91
 5977 3707 40       		.sleb128 -64
 5978 3708 19       		.uleb128 0x19
 5979 3709 3A000000 		.secrel32	.LASF17
 5980 370d D5       		.byte	0xd5
 5981 370e 1D       		.byte	0x1d
 5982 370f 06030000 		.long	0x306
 5983 3713 03       		.uleb128 0x3
 5984 3714 91       		.byte	0x91
 5985 3715 B87F     		.sleb128 -72
 5986 3717 1C       		.uleb128 0x1c
 5987 3718 0F020000 		.quad	.LVL48
 5987      00000000 
 5988 3720 3F370000 		.long	0x373f
 5989 3724 05       		.uleb128 0x5
 5990 3725 01       		.uleb128 0x1
 5991 3726 52       		.byte	0x52
 5992 3727 03       		.uleb128 0x3
 5993 3728 91       		.byte	0x91
 5994 3729 B87F     		.sleb128 -72
 5995 372b 05       		.uleb128 0x5
 5996 372c 01       		.uleb128 0x1
 5997 372d 58       		.byte	0x58
 5998 372e 02       		.uleb128 0x2
 5999 372f 75       		.byte	0x75
 6000 3730 00       		.sleb128 0
 6001 3731 05       		.uleb128 0x5
 6002 3732 01       		.uleb128 0x1
 6003 3733 59       		.byte	0x59
 6004 3734 02       		.uleb128 0x2
 6005 3735 73       		.byte	0x73
 6006 3736 00       		.sleb128 0
 6007 3737 05       		.uleb128 0x5
 6008 3738 02       		.uleb128 0x2
 6009 3739 77       		.byte	0x77
 6010 373a 20       		.sleb128 32
 6011 373b 02       		.uleb128 0x2
 6012 373c 74       		.byte	0x74
 6013 373d 00       		.sleb128 0
 6014 373e 00       		.byte	0
 6015 373f 0D       		.uleb128 0xd
 6016 3740 28020000 		.quad	.LVL49
 6016      00000000 
 6017 3748 5A370000 		.long	0x375a
 6018 374c 05       		.uleb128 0x5
 6019 374d 01       		.uleb128 0x1
 6020 374e 52       		.byte	0x52
 6021 374f 02       		.uleb128 0x2
 6022 3750 91       		.byte	0x91
 6023 3751 48       		.sleb128 -56
 6024 3752 05       		.uleb128 0x5
 6025 3753 01       		.uleb128 0x1
 6026 3754 51       		.byte	0x51
 6027 3755 02       		.uleb128 0x2
 6028 3756 91       		.byte	0x91
 6029 3757 40       		.sleb128 -64
 6030 3758 00       		.byte	0
 6031 3759 00       		.byte	0
 6032 375a 18       		.uleb128 0x18
 6033 375b 47726F77 		.ascii "GrowBuffer\0"
 6033      42756666 
 6033      657200
 6034 3766 84       		.byte	0x84
 6035 3767 14030000 		.long	0x314
 6036 376b 18010000 		.quad	.LFB10
 6036      00000000 
 6037 3773 A1000000 		.quad	.LFE10-.LFB10
 6037      00000000 
 6038 377b 01       		.uleb128 0x1
 6039 377c 9C       		.byte	0x9c
 6040 377d 05380000 		.long	0x3805
 6041 3781 14       		.uleb128 0x14
 6042 3782 45000000 		.secrel32	.LASF11
 6043 3786 85       		.byte	0x85
 6044 3787 1A       		.byte	0x1a
 6045 3788 052A0000 		.long	0x2a05
 6046 378c E1070000 		.secrel32	.LLST20
 6047 3790 D7070000 		.secrel32	.LVUS20
 6048 3794 14       		.uleb128 0x14
 6049 3795 08000000 		.secrel32	.LASF16
 6050 3799 86       		.byte	0x86
 6051 379a 1B       		.byte	0x1b
 6052 379b 56080000 		.long	0x856
 6053 379f 12080000 		.secrel32	.LLST21
 6054 37a3 08080000 		.secrel32	.LVUS21
 6055 37a7 14       		.uleb128 0x14
 6056 37a8 3A000000 		.secrel32	.LASF17
 6057 37ac 87       		.byte	0x87
 6058 37ad 19       		.byte	0x19
 6059 37ae 06030000 		.long	0x306
 6060 37b2 41080000 		.secrel32	.LLST22
 6061 37b6 39080000 		.secrel32	.LVUS22
 6062 37ba 2C       		.uleb128 0x2c
 6063 37bb 54727941 		.ascii "TryAgain\0"
 6063      6761696E 
 6063      00
 6064 37c4 A0       		.byte	0xa0
 6065 37c5 15       		.byte	0x15
 6066 37c6 14030000 		.long	0x314
 6067 37ca 65080000 		.secrel32	.LLST23
 6068 37ce 61080000 		.secrel32	.LVUS23
 6069 37d2 1D       		.uleb128 0x1d
 6070 37d3 71010000 		.quad	.LVL42
 6070      00000000 
 6071 37db EE390000 		.long	0x39ee
 6072 37df 10       		.uleb128 0x10
 6073 37e0 79010000 		.quad	.LVL43
 6073      00000000 
 6074 37e8 B03B0000 		.long	0x3bb0
 6075 37ec F7370000 		.long	0x37f7
 6076 37f0 05       		.uleb128 0x5
 6077 37f1 01       		.uleb128 0x1
 6078 37f2 52       		.byte	0x52
 6079 37f3 02       		.uleb128 0x2
 6080 37f4 74       		.byte	0x74
 6081 37f5 00       		.sleb128 0
 6082 37f6 00       		.byte	0
 6083 37f7 1D       		.uleb128 0x1d
 6084 37f8 A4010000 		.quad	.LVL45
 6084      00000000 
 6085 3800 EE390000 		.long	0x39ee
 6086 3804 00       		.byte	0
 6087 3805 18       		.uleb128 0x18
 6088 3806 436F6D70 		.ascii "CompareMem\0"
 6088      6172654D 
 6088      656D00
 6089 3811 7A       		.byte	0x7a
 6090 3812 F9020000 		.long	0x2f9
 6091 3816 0A010000 		.quad	.LFB9
 6091      00000000 
 6092 381e 0E000000 		.quad	.LFE9-.LFB9
 6092      00000000 
 6093 3826 01       		.uleb128 0x1
 6094 3827 9C       		.byte	0x9c
 6095 3828 8A380000 		.long	0x388a
 6096 382c 0A       		.uleb128 0xa
 6097 382d 44657374 		.ascii "Dest\0"
 6097      00
 6098 3832 7B       		.byte	0x7b
 6099 3833 18       		.byte	0x18
 6100 3834 C41C0000 		.long	0x1cc4
 6101 3838 7A080000 		.secrel32	.LLST17
 6102 383c 76080000 		.secrel32	.LVUS17
 6103 3840 0A       		.uleb128 0xa
 6104 3841 53726300 		.ascii "Src\0"
 6105 3845 7C       		.byte	0x7c
 6106 3846 18       		.byte	0x18
 6107 3847 C41C0000 		.long	0x1cc4
 6108 384b 90080000 		.secrel32	.LLST18
 6109 384f 8C080000 		.secrel32	.LVUS18
 6110 3853 0A       		.uleb128 0xa
 6111 3854 6C656E00 		.ascii "len\0"
 6112 3858 7D       		.byte	0x7d
 6113 3859 11       		.byte	0x11
 6114 385a 06030000 		.long	0x306
 6115 385e A6080000 		.secrel32	.LLST19
 6116 3862 A2080000 		.secrel32	.LVUS19
 6117 3866 0D       		.uleb128 0xd
 6118 3867 13010000 		.quad	.LVL32
 6118      00000000 
 6119 386f DF2C0000 		.long	0x2cdf
 6120 3873 05       		.uleb128 0x5
 6121 3874 01       		.uleb128 0x1
 6122 3875 52       		.byte	0x52
 6123 3876 03       		.uleb128 0x3
 6124 3877 A3       		.byte	0xa3
 6125 3878 01       		.uleb128 0x1
 6126 3879 52       		.byte	0x52
 6127 387a 05       		.uleb128 0x5
 6128 387b 01       		.uleb128 0x1
 6129 387c 51       		.byte	0x51
 6130 387d 03       		.uleb128 0x3
 6131 387e A3       		.byte	0xa3
 6132 387f 01       		.uleb128 0x1
 6133 3880 51       		.byte	0x51
 6134 3881 05       		.uleb128 0x5
 6135 3882 01       		.uleb128 0x1
 6136 3883 58       		.byte	0x58
 6137 3884 03       		.uleb128 0x3
 6138 3885 A3       		.byte	0xa3
 6139 3886 01       		.uleb128 0x1
 6140 3887 58       		.byte	0x58
 6141 3888 00       		.byte	0
 6142 3889 00       		.byte	0
 6143 388a 2D       		.uleb128 0x2d
 6144 388b 436F7079 		.ascii "CopyMem\0"
 6144      4D656D00 
 6145 3893 70       		.byte	0x70
 6146 3894 A0000000 		.quad	.LFB8
 6146      00000000 
 6147 389c 0F000000 		.quad	.LFE8-.LFB8
 6147      00000000 
 6148 38a4 01       		.uleb128 0x1
 6149 38a5 9C       		.byte	0x9c
 6150 38a6 08390000 		.long	0x3908
 6151 38aa 0A       		.uleb128 0xa
 6152 38ab 44657374 		.ascii "Dest\0"
 6152      00
 6153 38b0 71       		.byte	0x71
 6154 38b1 12       		.byte	0x12
 6155 38b2 73030000 		.long	0x373
 6156 38b6 BC080000 		.secrel32	.LLST10
 6157 38ba B8080000 		.secrel32	.LVUS10
 6158 38be 0A       		.uleb128 0xa
 6159 38bf 53726300 		.ascii "Src\0"
 6160 38c3 72       		.byte	0x72
 6161 38c4 12       		.byte	0x12
 6162 38c5 73030000 		.long	0x373
 6163 38c9 D2080000 		.secrel32	.LLST11
 6164 38cd CE080000 		.secrel32	.LVUS11
 6165 38d1 0A       		.uleb128 0xa
 6166 38d2 6C656E00 		.ascii "len\0"
 6167 38d6 73       		.byte	0x73
 6168 38d7 11       		.byte	0x11
 6169 38d8 06030000 		.long	0x306
 6170 38dc E8080000 		.secrel32	.LLST12
 6171 38e0 E4080000 		.secrel32	.LVUS12
 6172 38e4 0D       		.uleb128 0xd
 6173 38e5 AA000000 		.quad	.LVL18
 6173      00000000 
 6174 38ed 062D0000 		.long	0x2d06
 6175 38f1 05       		.uleb128 0x5
 6176 38f2 01       		.uleb128 0x1
 6177 38f3 52       		.byte	0x52
 6178 38f4 03       		.uleb128 0x3
 6179 38f5 A3       		.byte	0xa3
 6180 38f6 01       		.uleb128 0x1
 6181 38f7 52       		.byte	0x52
 6182 38f8 05       		.uleb128 0x5
 6183 38f9 01       		.uleb128 0x1
 6184 38fa 51       		.byte	0x51
 6185 38fb 03       		.uleb128 0x3
 6186 38fc A3       		.byte	0xa3
 6187 38fd 01       		.uleb128 0x1
 6188 38fe 51       		.byte	0x51
 6189 38ff 05       		.uleb128 0x5
 6190 3900 01       		.uleb128 0x1
 6191 3901 58       		.byte	0x58
 6192 3902 03       		.uleb128 0x3
 6193 3903 A3       		.byte	0xa3
 6194 3904 01       		.uleb128 0x1
 6195 3905 58       		.byte	0x58
 6196 3906 00       		.byte	0
 6197 3907 00       		.byte	0
 6198 3908 2D       		.uleb128 0x2d
 6199 3909 5365744D 		.ascii "SetMem\0"
 6199      656D00
 6200 3910 66       		.byte	0x66
 6201 3911 8D000000 		.quad	.LFB7
 6201      00000000 
 6202 3919 13000000 		.quad	.LFE7-.LFB7
 6202      00000000 
 6203 3921 01       		.uleb128 0x1
 6204 3922 9C       		.byte	0x9c
 6205 3923 8A390000 		.long	0x398a
 6206 3927 14       		.uleb128 0x14
 6207 3928 08000000 		.secrel32	.LASF16
 6208 392c 67       		.byte	0x67
 6209 392d 12       		.byte	0x12
 6210 392e 73030000 		.long	0x373
 6211 3932 FE080000 		.secrel32	.LLST7
 6212 3936 FA080000 		.secrel32	.LVUS7
 6213 393a 0A       		.uleb128 0xa
 6214 393b 53697A65 		.ascii "Size\0"
 6214      00
 6215 3940 68       		.byte	0x68
 6216 3941 11       		.byte	0x11
 6217 3942 06030000 		.long	0x306
 6218 3946 14090000 		.secrel32	.LLST8
 6219 394a 10090000 		.secrel32	.LVUS8
 6220 394e 0A       		.uleb128 0xa
 6221 394f 56616C75 		.ascii "Value\0"
 6221      6500
 6222 3955 69       		.byte	0x69
 6223 3956 11       		.byte	0x11
 6224 3957 CA020000 		.long	0x2ca
 6225 395b 2A090000 		.secrel32	.LLST9
 6226 395f 26090000 		.secrel32	.LVUS9
 6227 3963 0D       		.uleb128 0xd
 6228 3964 9B000000 		.quad	.LVL16
 6228      00000000 
 6229 396c 262D0000 		.long	0x2d26
 6230 3970 05       		.uleb128 0x5
 6231 3971 01       		.uleb128 0x1
 6232 3972 52       		.byte	0x52
 6233 3973 03       		.uleb128 0x3
 6234 3974 A3       		.byte	0xa3
 6235 3975 01       		.uleb128 0x1
 6236 3976 52       		.byte	0x52
 6237 3977 05       		.uleb128 0x5
 6238 3978 01       		.uleb128 0x1
 6239 3979 51       		.byte	0x51
 6240 397a 03       		.uleb128 0x3
 6241 397b A3       		.byte	0xa3
 6242 397c 01       		.uleb128 0x1
 6243 397d 51       		.byte	0x51
 6244 397e 05       		.uleb128 0x5
 6245 397f 01       		.uleb128 0x1
 6246 3980 58       		.byte	0x58
 6247 3981 06       		.uleb128 0x6
 6248 3982 A3       		.byte	0xa3
 6249 3983 01       		.uleb128 0x1
 6250 3984 58       		.byte	0x58
 6251 3985 08       		.byte	0x8
 6252 3986 FF       		.byte	0xff
 6253 3987 1A       		.byte	0x1a
 6254 3988 00       		.byte	0
 6255 3989 00       		.byte	0
 6256 398a 2D       		.uleb128 0x2d
 6257 398b 5A65726F 		.ascii "ZeroMem\0"
 6257      4D656D00 
 6258 3993 5D       		.byte	0x5d
 6259 3994 53000000 		.quad	.LFB6
 6259      00000000 
 6260 399c 0F000000 		.quad	.LFE6-.LFB6
 6260      00000000 
 6261 39a4 01       		.uleb128 0x1
 6262 39a5 9C       		.byte	0x9c
 6263 39a6 EE390000 		.long	0x39ee
 6264 39aa 14       		.uleb128 0x14
 6265 39ab 08000000 		.secrel32	.LASF16
 6266 39af 5E       		.byte	0x5e
 6267 39b0 12       		.byte	0x12
 6268 39b1 73030000 		.long	0x373
 6269 39b5 40090000 		.secrel32	.LLST3
 6270 39b9 3C090000 		.secrel32	.LVUS3
 6271 39bd 0A       		.uleb128 0xa
 6272 39be 53697A65 		.ascii "Size\0"
 6272      00
 6273 39c3 5F       		.byte	0x5f
 6274 39c4 11       		.byte	0x11
 6275 39c5 06030000 		.long	0x306
 6276 39c9 52090000 		.secrel32	.LLST4
 6277 39cd 4E090000 		.secrel32	.LVUS4
 6278 39d1 0D       		.uleb128 0xd
 6279 39d2 5D000000 		.quad	.LVL8
 6279      00000000 
 6280 39da 452D0000 		.long	0x2d45
 6281 39de 05       		.uleb128 0x5
 6282 39df 01       		.uleb128 0x1
 6283 39e0 52       		.byte	0x52
 6284 39e1 03       		.uleb128 0x3
 6285 39e2 A3       		.byte	0xa3
 6286 39e3 01       		.uleb128 0x1
 6287 39e4 52       		.byte	0x52
 6288 39e5 05       		.uleb128 0x5
 6289 39e6 01       		.uleb128 0x1
 6290 39e7 51       		.byte	0x51
 6291 39e8 03       		.uleb128 0x3
 6292 39e9 A3       		.byte	0xa3
 6293 39ea 01       		.uleb128 0x1
 6294 39eb 51       		.byte	0x51
 6295 39ec 00       		.byte	0
 6296 39ed 00       		.byte	0
 6297 39ee 37       		.uleb128 0x37
 6298 39ef 62000000 		.secrel32	.LASF7
 6299 39f3 01       		.byte	0x1
 6300 39f4 53       		.byte	0x53
 6301 39f5 01       		.byte	0x1
 6302 39f6 3C000000 		.quad	.LFB5
 6302      00000000 
 6303 39fe 17000000 		.quad	.LFE5-.LFB5
 6303      00000000 
 6304 3a06 01       		.uleb128 0x1
 6305 3a07 9C       		.byte	0x9c
 6306 3a08 313A0000 		.long	0x3a31
 6307 3a0c 14       		.uleb128 0x14
 6308 3a0d 08000000 		.secrel32	.LASF16
 6309 3a11 54       		.byte	0x54
 6310 3a12 1E       		.byte	0x1e
 6311 3a13 73030000 		.long	0x373
 6312 3a17 64090000 		.secrel32	.LLST2
 6313 3a1b 60090000 		.secrel32	.LVUS2
 6314 3a1f 25       		.uleb128 0x25
 6315 3a20 4E000000 		.quad	.LVL6
 6315      00000000 
 6316 3a28 05       		.uleb128 0x5
 6317 3a29 01       		.uleb128 0x1
 6318 3a2a 52       		.byte	0x52
 6319 3a2b 03       		.uleb128 0x3
 6320 3a2c A3       		.byte	0xa3
 6321 3a2d 01       		.uleb128 0x1
 6322 3a2e 52       		.byte	0x52
 6323 3a2f 00       		.byte	0
 6324 3a30 00       		.byte	0
 6325 3a31 18       		.uleb128 0x18
 6326 3a32 5265616C 		.ascii "ReallocatePool\0"
 6326      6C6F6361 
 6326      7465506F 
 6326      6F6C00
 6327 3a41 39       		.byte	0x39
 6328 3a42 73030000 		.long	0x373
 6329 3a46 AF000000 		.quad	.LFB4
 6329      00000000 
 6330 3a4e 5B000000 		.quad	.LFE4-.LFB4
 6330      00000000 
 6331 3a56 01       		.uleb128 0x1
 6332 3a57 9C       		.byte	0x9c
 6333 3a58 2B3B0000 		.long	0x3b2b
 6334 3a5c 0A       		.uleb128 0xa
 6335 3a5d 4F6C6450 		.ascii "OldPool\0"
 6335      6F6F6C00 
 6336 3a65 3A       		.byte	0x3a
 6337 3a66 1E       		.byte	0x1e
 6338 3a67 73030000 		.long	0x373
 6339 3a6b 7A090000 		.secrel32	.LLST13
 6340 3a6f 72090000 		.secrel32	.LVUS13
 6341 3a73 0A       		.uleb128 0xa
 6342 3a74 4F6C6453 		.ascii "OldSize\0"
 6342      697A6500 
 6343 3a7c 3B       		.byte	0x3b
 6344 3a7d 1D       		.byte	0x1d
 6345 3a7e 06030000 		.long	0x306
 6346 3a82 A2090000 		.secrel32	.LLST14
 6347 3a86 9A090000 		.secrel32	.LVUS14
 6348 3a8a 0A       		.uleb128 0xa
 6349 3a8b 4E657753 		.ascii "NewSize\0"
 6349      697A6500 
 6350 3a93 3C       		.byte	0x3c
 6351 3a94 1D       		.byte	0x1d
 6352 3a95 06030000 		.long	0x306
 6353 3a99 CA090000 		.secrel32	.LLST15
 6354 3a9d C2090000 		.secrel32	.LVUS15
 6355 3aa1 2C       		.uleb128 0x2c
 6356 3aa2 4E657750 		.ascii "NewPool\0"
 6356      6F6F6C00 
 6357 3aaa 3F       		.byte	0x3f
 6358 3aab 1E       		.byte	0x1e
 6359 3aac 73030000 		.long	0x373
 6360 3ab0 F2090000 		.secrel32	.LLST16
 6361 3ab4 EA090000 		.secrel32	.LVUS16
 6362 3ab8 10       		.uleb128 0x10
 6363 3ab9 CD000000 		.quad	.LVL22
 6363      00000000 
 6364 3ac1 B03B0000 		.long	0x3bb0
 6365 3ac5 D03A0000 		.long	0x3ad0
 6366 3ac9 05       		.uleb128 0x5
 6367 3aca 01       		.uleb128 0x1
 6368 3acb 52       		.byte	0x52
 6369 3acc 02       		.uleb128 0x2
 6370 3acd 73       		.byte	0x73
 6371 3ace 00       		.sleb128 0
 6372 3acf 00       		.byte	0
 6373 3ad0 10       		.uleb128 0x10
 6374 3ad1 EF000000 		.quad	.LVL24
 6374      00000000 
 6375 3ad9 8A380000 		.long	0x388a
 6376 3add 163B0000 		.long	0x3b16
 6377 3ae1 05       		.uleb128 0x5
 6378 3ae2 01       		.uleb128 0x1
 6379 3ae3 52       		.byte	0x52
 6380 3ae4 02       		.uleb128 0x2
 6381 3ae5 75       		.byte	0x75
 6382 3ae6 00       		.sleb128 0
 6383 3ae7 05       		.uleb128 0x5
 6384 3ae8 01       		.uleb128 0x1
 6385 3ae9 51       		.byte	0x51
 6386 3aea 02       		.uleb128 0x2
 6387 3aeb 74       		.byte	0x74
 6388 3aec 00       		.sleb128 0
 6389 3aed 05       		.uleb128 0x5
 6390 3aee 01       		.uleb128 0x1
 6391 3aef 58       		.byte	0x58
 6392 3af0 24       		.uleb128 0x24
 6393 3af1 73       		.byte	0x73
 6394 3af2 00       		.sleb128 0
 6395 3af3 76       		.byte	0x76
 6396 3af4 00       		.sleb128 0
 6397 3af5 73       		.byte	0x73
 6398 3af6 00       		.sleb128 0
 6399 3af7 23       		.byte	0x23
 6400 3af8 80808080 		.uleb128 0x8000000000000000
 6400      80808080 
 6400      8001
 6401 3b02 76       		.byte	0x76
 6402 3b03 00       		.sleb128 0
 6403 3b04 23       		.byte	0x23
 6404 3b05 80808080 		.uleb128 0x8000000000000000
 6404      80808080 
 6404      8001
 6405 3b0f 2C       		.byte	0x2c
 6406 3b10 28       		.byte	0x28
 6407 3b11 0100     		.word	0x1
 6408 3b13 16       		.byte	0x16
 6409 3b14 13       		.byte	0x13
 6410 3b15 00       		.byte	0
 6411 3b16 0D       		.uleb128 0xd
 6412 3b17 F7000000 		.quad	.LVL25
 6412      00000000 
 6413 3b1f EE390000 		.long	0x39ee
 6414 3b23 05       		.uleb128 0x5
 6415 3b24 01       		.uleb128 0x1
 6416 3b25 52       		.byte	0x52
 6417 3b26 02       		.uleb128 0x2
 6418 3b27 74       		.byte	0x74
 6419 3b28 00       		.sleb128 0
 6420 3b29 00       		.byte	0
 6421 3b2a 00       		.byte	0
 6422 3b2b 18       		.uleb128 0x18
 6423 3b2c 416C6C6F 		.ascii "AllocateZeroPool\0"
 6423      63617465 
 6423      5A65726F 
 6423      506F6F6C 
 6423      00
 6424 3b3d 2A       		.byte	0x2a
 6425 3b3e 73030000 		.long	0x373
 6426 3b42 62000000 		.quad	.LFB3
 6426      00000000 
 6427 3b4a 2B000000 		.quad	.LFE3-.LFB3
 6427      00000000 
 6428 3b52 01       		.uleb128 0x1
 6429 3b53 9C       		.byte	0x9c
 6430 3b54 B03B0000 		.long	0x3bb0
 6431 3b58 0A       		.uleb128 0xa
 6432 3b59 53697A65 		.ascii "Size\0"
 6432      00
 6433 3b5e 2B       		.byte	0x2b
 6434 3b5f 1D       		.byte	0x1d
 6435 3b60 06030000 		.long	0x306
 6436 3b64 170A0000 		.secrel32	.LLST5
 6437 3b68 110A0000 		.secrel32	.LVUS5
 6438 3b6c 2C       		.uleb128 0x2c
 6439 3b6d 7000     		.ascii "p\0"
 6440 3b6f 2E       		.byte	0x2e
 6441 3b70 1E       		.byte	0x1e
 6442 3b71 73030000 		.long	0x373
 6443 3b75 330A0000 		.secrel32	.LLST6
 6444 3b79 2D0A0000 		.secrel32	.LVUS6
 6445 3b7d 10       		.uleb128 0x10
 6446 3b7e 70000000 		.quad	.LVL10
 6446      00000000 
 6447 3b86 B03B0000 		.long	0x3bb0
 6448 3b8a 953B0000 		.long	0x3b95
 6449 3b8e 05       		.uleb128 0x5
 6450 3b8f 01       		.uleb128 0x1
 6451 3b90 52       		.byte	0x52
 6452 3b91 02       		.uleb128 0x2
 6453 3b92 74       		.byte	0x74
 6454 3b93 00       		.sleb128 0
 6455 3b94 00       		.byte	0
 6456 3b95 0D       		.uleb128 0xd
 6457 3b96 83000000 		.quad	.LVL12
 6457      00000000 
 6458 3b9e 8A390000 		.long	0x398a
 6459 3ba2 05       		.uleb128 0x5
 6460 3ba3 01       		.uleb128 0x1
 6461 3ba4 52       		.byte	0x52
 6462 3ba5 02       		.uleb128 0x2
 6463 3ba6 73       		.byte	0x73
 6464 3ba7 00       		.sleb128 0
 6465 3ba8 05       		.uleb128 0x5
 6466 3ba9 01       		.uleb128 0x1
 6467 3baa 51       		.byte	0x51
 6468 3bab 02       		.uleb128 0x2
 6469 3bac 74       		.byte	0x74
 6470 3bad 00       		.sleb128 0
 6471 3bae 00       		.byte	0
 6472 3baf 00       		.byte	0
 6473 3bb0 38       		.uleb128 0x38
 6474 3bb1 4C000000 		.secrel32	.LASF6
 6475 3bb5 01       		.byte	0x1
 6476 3bb6 1A       		.byte	0x1a
 6477 3bb7 01       		.byte	0x1
 6478 3bb8 73030000 		.long	0x373
 6479 3bbc 00000000 		.quad	.LFB2
 6479      00000000 
 6480 3bc4 3C000000 		.quad	.LFE2-.LFB2
 6480      00000000 
 6481 3bcc 01       		.uleb128 0x1
 6482 3bcd 9C       		.byte	0x9c
 6483 3bce 0A       		.uleb128 0xa
 6484 3bcf 53697A65 		.ascii "Size\0"
 6484      00
 6485 3bd4 1B       		.byte	0x1b
 6486 3bd5 1D       		.byte	0x1d
 6487 3bd6 06030000 		.long	0x306
 6488 3bda 4E0A0000 		.secrel32	.LLST0
 6489 3bde 480A0000 		.secrel32	.LVUS0
 6490 3be2 39       		.uleb128 0x39
 6491 3be3 45000000 		.secrel32	.LASF11
 6492 3be7 01       		.byte	0x1
 6493 3be8 1E       		.byte	0x1e
 6494 3be9 1D       		.byte	0x1d
 6495 3bea 2D030000 		.long	0x32d
 6496 3bee 650A0000 		.secrel32	.LLST1
 6497 3bf2 610A0000 		.secrel32	.LVUS1
 6498 3bf6 3A       		.uleb128 0x3a
 6499 3bf7 7000     		.ascii "p\0"
 6500 3bf9 01       		.byte	0x1
 6501 3bfa 1F       		.byte	0x1f
 6502 3bfb 1E       		.byte	0x1e
 6503 3bfc 73030000 		.long	0x373
 6504 3c00 02       		.uleb128 0x2
 6505 3c01 91       		.byte	0x91
 6506 3c02 68       		.sleb128 -24
 6507 3c03 25       		.uleb128 0x25
 6508 3c04 22000000 		.quad	.LVL2
 6508      00000000 
 6509 3c0c 05       		.uleb128 0x5
 6510 3c0d 01       		.uleb128 0x1
 6511 3c0e 51       		.byte	0x51
 6512 3c0f 03       		.uleb128 0x3
 6513 3c10 A3       		.byte	0xa3
 6514 3c11 01       		.uleb128 0x1
 6515 3c12 52       		.byte	0x52
 6516 3c13 05       		.uleb128 0x5
 6517 3c14 01       		.uleb128 0x1
 6518 3c15 58       		.byte	0x58
 6519 3c16 02       		.uleb128 0x2
 6520 3c17 91       		.byte	0x91
 6521 3c18 68       		.sleb128 -24
 6522 3c19 00       		.byte	0
 6523 3c1a 00       		.byte	0
 6524 3c1b 00       		.byte	0
 6525              		.section	.debug_abbrev,"dr"
 6526              	.Ldebug_abbrev0:
 6527 0000 01       		.uleb128 0x1
 6528 0001 05       		.uleb128 0x5
 6529 0002 00       		.byte	0
 6530 0003 49       		.uleb128 0x49
 6531 0004 13       		.uleb128 0x13
 6532 0005 00       		.byte	0
 6533 0006 00       		.byte	0
 6534 0007 02       		.uleb128 0x2
 6535 0008 0F       		.uleb128 0xf
 6536 0009 00       		.byte	0
 6537 000a 0B       		.uleb128 0xb
 6538 000b 21       		.uleb128 0x21
 6539 000c 08       		.sleb128 8
 6540 000d 49       		.uleb128 0x49
 6541 000e 13       		.uleb128 0x13
 6542 000f 00       		.byte	0
 6543 0010 00       		.byte	0
 6544 0011 03       		.uleb128 0x3
 6545 0012 16       		.uleb128 0x16
 6546 0013 00       		.byte	0
 6547 0014 03       		.uleb128 0x3
 6548 0015 08       		.uleb128 0x8
 6549 0016 3A       		.uleb128 0x3a
 6550 0017 0B       		.uleb128 0xb
 6551 0018 3B       		.uleb128 0x3b
 6552 0019 0B       		.uleb128 0xb
 6553 001a 39       		.uleb128 0x39
 6554 001b 0B       		.uleb128 0xb
 6555 001c 49       		.uleb128 0x49
 6556 001d 13       		.uleb128 0x13
 6557 001e 00       		.byte	0
 6558 001f 00       		.byte	0
 6559 0020 04       		.uleb128 0x4
 6560 0021 0D       		.uleb128 0xd
 6561 0022 00       		.byte	0
 6562 0023 03       		.uleb128 0x3
 6563 0024 08       		.uleb128 0x8
 6564 0025 3A       		.uleb128 0x3a
 6565 0026 0B       		.uleb128 0xb
 6566 0027 3B       		.uleb128 0x3b
 6567 0028 05       		.uleb128 0x5
 6568 0029 39       		.uleb128 0x39
 6569 002a 0B       		.uleb128 0xb
 6570 002b 49       		.uleb128 0x49
 6571 002c 13       		.uleb128 0x13
 6572 002d 38       		.uleb128 0x38
 6573 002e 0B       		.uleb128 0xb
 6574 002f 00       		.byte	0
 6575 0030 00       		.byte	0
 6576 0031 05       		.uleb128 0x5
 6577 0032 49       		.uleb128 0x49
 6578 0033 00       		.byte	0
 6579 0034 02       		.uleb128 0x2
 6580 0035 18       		.uleb128 0x18
 6581 0036 7E       		.uleb128 0x7e
 6582 0037 18       		.uleb128 0x18
 6583 0038 00       		.byte	0
 6584 0039 00       		.byte	0
 6585 003a 06       		.uleb128 0x6
 6586 003b 0D       		.uleb128 0xd
 6587 003c 00       		.byte	0
 6588 003d 03       		.uleb128 0x3
 6589 003e 08       		.uleb128 0x8
 6590 003f 3A       		.uleb128 0x3a
 6591 0040 0B       		.uleb128 0xb
 6592 0041 3B       		.uleb128 0x3b
 6593 0042 0B       		.uleb128 0xb
 6594 0043 39       		.uleb128 0x39
 6595 0044 0B       		.uleb128 0xb
 6596 0045 49       		.uleb128 0x49
 6597 0046 13       		.uleb128 0x13
 6598 0047 38       		.uleb128 0x38
 6599 0048 0B       		.uleb128 0xb
 6600 0049 00       		.byte	0
 6601 004a 00       		.byte	0
 6602 004b 07       		.uleb128 0x7
 6603 004c 15       		.uleb128 0x15
 6604 004d 01       		.byte	0x1
 6605 004e 27       		.uleb128 0x27
 6606 004f 19       		.uleb128 0x19
 6607 0050 49       		.uleb128 0x49
 6608 0051 13       		.uleb128 0x13
 6609 0052 01       		.uleb128 0x1
 6610 0053 13       		.uleb128 0x13
 6611 0054 00       		.byte	0
 6612 0055 00       		.byte	0
 6613 0056 08       		.uleb128 0x8
 6614 0057 16       		.uleb128 0x16
 6615 0058 00       		.byte	0
 6616 0059 03       		.uleb128 0x3
 6617 005a 08       		.uleb128 0x8
 6618 005b 3A       		.uleb128 0x3a
 6619 005c 0B       		.uleb128 0xb
 6620 005d 3B       		.uleb128 0x3b
 6621 005e 05       		.uleb128 0x5
 6622 005f 39       		.uleb128 0x39
 6623 0060 0B       		.uleb128 0xb
 6624 0061 49       		.uleb128 0x49
 6625 0062 13       		.uleb128 0x13
 6626 0063 00       		.byte	0
 6627 0064 00       		.byte	0
 6628 0065 09       		.uleb128 0x9
 6629 0066 28       		.uleb128 0x28
 6630 0067 00       		.byte	0
 6631 0068 03       		.uleb128 0x3
 6632 0069 08       		.uleb128 0x8
 6633 006a 1C       		.uleb128 0x1c
 6634 006b 0B       		.uleb128 0xb
 6635 006c 00       		.byte	0
 6636 006d 00       		.byte	0
 6637 006e 0A       		.uleb128 0xa
 6638 006f 05       		.uleb128 0x5
 6639 0070 00       		.byte	0
 6640 0071 03       		.uleb128 0x3
 6641 0072 08       		.uleb128 0x8
 6642 0073 3A       		.uleb128 0x3a
 6643 0074 21       		.uleb128 0x21
 6644 0075 01       		.sleb128 1
 6645 0076 3B       		.uleb128 0x3b
 6646 0077 0B       		.uleb128 0xb
 6647 0078 39       		.uleb128 0x39
 6648 0079 0B       		.uleb128 0xb
 6649 007a 49       		.uleb128 0x49
 6650 007b 13       		.uleb128 0x13
 6651 007c 02       		.uleb128 0x2
 6652 007d 17       		.uleb128 0x17
 6653 007e B742     		.uleb128 0x2137
 6654 0080 17       		.uleb128 0x17
 6655 0081 00       		.byte	0
 6656 0082 00       		.byte	0
 6657 0083 0B       		.uleb128 0xb
 6658 0084 0D       		.uleb128 0xd
 6659 0085 00       		.byte	0
 6660 0086 03       		.uleb128 0x3
 6661 0087 08       		.uleb128 0x8
 6662 0088 3A       		.uleb128 0x3a
 6663 0089 21       		.uleb128 0x21
 6664 008a 08       		.sleb128 8
 6665 008b 3B       		.uleb128 0x3b
 6666 008c 05       		.uleb128 0x5
 6667 008d 39       		.uleb128 0x39
 6668 008e 0B       		.uleb128 0xb
 6669 008f 49       		.uleb128 0x49
 6670 0090 13       		.uleb128 0x13
 6671 0091 38       		.uleb128 0x38
 6672 0092 05       		.uleb128 0x5
 6673 0093 00       		.byte	0
 6674 0094 00       		.byte	0
 6675 0095 0C       		.uleb128 0xc
 6676 0096 05       		.uleb128 0x5
 6677 0097 00       		.byte	0
 6678 0098 03       		.uleb128 0x3
 6679 0099 08       		.uleb128 0x8
 6680 009a 3A       		.uleb128 0x3a
 6681 009b 21       		.uleb128 0x21
 6682 009c 01       		.sleb128 1
 6683 009d 3B       		.uleb128 0x3b
 6684 009e 05       		.uleb128 0x5
 6685 009f 39       		.uleb128 0x39
 6686 00a0 0B       		.uleb128 0xb
 6687 00a1 49       		.uleb128 0x49
 6688 00a2 13       		.uleb128 0x13
 6689 00a3 02       		.uleb128 0x2
 6690 00a4 17       		.uleb128 0x17
 6691 00a5 B742     		.uleb128 0x2137
 6692 00a7 17       		.uleb128 0x17
 6693 00a8 00       		.byte	0
 6694 00a9 00       		.byte	0
 6695 00aa 0D       		.uleb128 0xd
 6696 00ab 48       		.uleb128 0x48
 6697 00ac 01       		.byte	0x1
 6698 00ad 7D       		.uleb128 0x7d
 6699 00ae 01       		.uleb128 0x1
 6700 00af 7F       		.uleb128 0x7f
 6701 00b0 13       		.uleb128 0x13
 6702 00b1 00       		.byte	0
 6703 00b2 00       		.byte	0
 6704 00b3 0E       		.uleb128 0xe
 6705 00b4 24       		.uleb128 0x24
 6706 00b5 00       		.byte	0
 6707 00b6 0B       		.uleb128 0xb
 6708 00b7 0B       		.uleb128 0xb
 6709 00b8 3E       		.uleb128 0x3e
 6710 00b9 0B       		.uleb128 0xb
 6711 00ba 03       		.uleb128 0x3
 6712 00bb 08       		.uleb128 0x8
 6713 00bc 00       		.byte	0
 6714 00bd 00       		.byte	0
 6715 00be 0F       		.uleb128 0xf
 6716 00bf 34       		.uleb128 0x34
 6717 00c0 00       		.byte	0
 6718 00c1 03       		.uleb128 0x3
 6719 00c2 08       		.uleb128 0x8
 6720 00c3 3A       		.uleb128 0x3a
 6721 00c4 21       		.uleb128 0x21
 6722 00c5 01       		.sleb128 1
 6723 00c6 3B       		.uleb128 0x3b
 6724 00c7 05       		.uleb128 0x5
 6725 00c8 39       		.uleb128 0x39
 6726 00c9 0B       		.uleb128 0xb
 6727 00ca 49       		.uleb128 0x49
 6728 00cb 13       		.uleb128 0x13
 6729 00cc 02       		.uleb128 0x2
 6730 00cd 17       		.uleb128 0x17
 6731 00ce B742     		.uleb128 0x2137
 6732 00d0 17       		.uleb128 0x17
 6733 00d1 00       		.byte	0
 6734 00d2 00       		.byte	0
 6735 00d3 10       		.uleb128 0x10
 6736 00d4 48       		.uleb128 0x48
 6737 00d5 01       		.byte	0x1
 6738 00d6 7D       		.uleb128 0x7d
 6739 00d7 01       		.uleb128 0x1
 6740 00d8 7F       		.uleb128 0x7f
 6741 00d9 13       		.uleb128 0x13
 6742 00da 01       		.uleb128 0x1
 6743 00db 13       		.uleb128 0x13
 6744 00dc 00       		.byte	0
 6745 00dd 00       		.byte	0
 6746 00de 11       		.uleb128 0x11
 6747 00df 2E       		.uleb128 0x2e
 6748 00e0 01       		.byte	0x1
 6749 00e1 3F       		.uleb128 0x3f
 6750 00e2 19       		.uleb128 0x19
 6751 00e3 03       		.uleb128 0x3
 6752 00e4 08       		.uleb128 0x8
 6753 00e5 3A       		.uleb128 0x3a
 6754 00e6 21       		.uleb128 0x21
 6755 00e7 01       		.sleb128 1
 6756 00e8 3B       		.uleb128 0x3b
 6757 00e9 05       		.uleb128 0x5
 6758 00ea 39       		.uleb128 0x39
 6759 00eb 21       		.uleb128 0x21
 6760 00ec 01       		.sleb128 1
 6761 00ed 27       		.uleb128 0x27
 6762 00ee 19       		.uleb128 0x19
 6763 00ef 49       		.uleb128 0x49
 6764 00f0 13       		.uleb128 0x13
 6765 00f1 11       		.uleb128 0x11
 6766 00f2 01       		.uleb128 0x1
 6767 00f3 12       		.uleb128 0x12
 6768 00f4 07       		.uleb128 0x7
 6769 00f5 40       		.uleb128 0x40
 6770 00f6 18       		.uleb128 0x18
 6771 00f7 7A       		.uleb128 0x7a
 6772 00f8 19       		.uleb128 0x19
 6773 00f9 01       		.uleb128 0x1
 6774 00fa 13       		.uleb128 0x13
 6775 00fb 00       		.byte	0
 6776 00fc 00       		.byte	0
 6777 00fd 12       		.uleb128 0x12
 6778 00fe 05       		.uleb128 0x5
 6779 00ff 00       		.byte	0
 6780 0100 03       		.uleb128 0x3
 6781 0101 0E       		.uleb128 0xe
 6782 0102 3A       		.uleb128 0x3a
 6783 0103 21       		.uleb128 0x21
 6784 0104 01       		.sleb128 1
 6785 0105 3B       		.uleb128 0x3b
 6786 0106 05       		.uleb128 0x5
 6787 0107 39       		.uleb128 0x39
 6788 0108 0B       		.uleb128 0xb
 6789 0109 49       		.uleb128 0x49
 6790 010a 13       		.uleb128 0x13
 6791 010b 02       		.uleb128 0x2
 6792 010c 17       		.uleb128 0x17
 6793 010d B742     		.uleb128 0x2137
 6794 010f 17       		.uleb128 0x17
 6795 0110 00       		.byte	0
 6796 0111 00       		.byte	0
 6797 0112 13       		.uleb128 0x13
 6798 0113 13       		.uleb128 0x13
 6799 0114 01       		.byte	0x1
 6800 0115 0B       		.uleb128 0xb
 6801 0116 0B       		.uleb128 0xb
 6802 0117 3A       		.uleb128 0x3a
 6803 0118 0B       		.uleb128 0xb
 6804 0119 3B       		.uleb128 0x3b
 6805 011a 0B       		.uleb128 0xb
 6806 011b 39       		.uleb128 0x39
 6807 011c 21       		.uleb128 0x21
 6808 011d 09       		.sleb128 9
 6809 011e 01       		.uleb128 0x1
 6810 011f 13       		.uleb128 0x13
 6811 0120 00       		.byte	0
 6812 0121 00       		.byte	0
 6813 0122 14       		.uleb128 0x14
 6814 0123 05       		.uleb128 0x5
 6815 0124 00       		.byte	0
 6816 0125 03       		.uleb128 0x3
 6817 0126 0E       		.uleb128 0xe
 6818 0127 3A       		.uleb128 0x3a
 6819 0128 21       		.uleb128 0x21
 6820 0129 01       		.sleb128 1
 6821 012a 3B       		.uleb128 0x3b
 6822 012b 0B       		.uleb128 0xb
 6823 012c 39       		.uleb128 0x39
 6824 012d 0B       		.uleb128 0xb
 6825 012e 49       		.uleb128 0x49
 6826 012f 13       		.uleb128 0x13
 6827 0130 02       		.uleb128 0x2
 6828 0131 17       		.uleb128 0x17
 6829 0132 B742     		.uleb128 0x2137
 6830 0134 17       		.uleb128 0x17
 6831 0135 00       		.byte	0
 6832 0136 00       		.byte	0
 6833 0137 15       		.uleb128 0x15
 6834 0138 0D       		.uleb128 0xd
 6835 0139 00       		.byte	0
 6836 013a 03       		.uleb128 0x3
 6837 013b 0E       		.uleb128 0xe
 6838 013c 3A       		.uleb128 0x3a
 6839 013d 21       		.uleb128 0x21
 6840 013e 08       		.sleb128 8
 6841 013f 3B       		.uleb128 0x3b
 6842 0140 05       		.uleb128 0x5
 6843 0141 39       		.uleb128 0x39
 6844 0142 0B       		.uleb128 0xb
 6845 0143 49       		.uleb128 0x49
 6846 0144 13       		.uleb128 0x13
 6847 0145 38       		.uleb128 0x38
 6848 0146 0B       		.uleb128 0xb
 6849 0147 00       		.byte	0
 6850 0148 00       		.byte	0
 6851 0149 16       		.uleb128 0x16
 6852 014a 34       		.uleb128 0x34
 6853 014b 00       		.byte	0
 6854 014c 03       		.uleb128 0x3
 6855 014d 08       		.uleb128 0x8
 6856 014e 3A       		.uleb128 0x3a
 6857 014f 21       		.uleb128 0x21
 6858 0150 0C       		.sleb128 12
 6859 0151 3B       		.uleb128 0x3b
 6860 0152 0B       		.uleb128 0xb
 6861 0153 39       		.uleb128 0x39
 6862 0154 0B       		.uleb128 0xb
 6863 0155 49       		.uleb128 0x49
 6864 0156 13       		.uleb128 0x13
 6865 0157 3F       		.uleb128 0x3f
 6866 0158 19       		.uleb128 0x19
 6867 0159 3C       		.uleb128 0x3c
 6868 015a 19       		.uleb128 0x19
 6869 015b 00       		.byte	0
 6870 015c 00       		.byte	0
 6871 015d 17       		.uleb128 0x17
 6872 015e 34       		.uleb128 0x34
 6873 015f 00       		.byte	0
 6874 0160 03       		.uleb128 0x3
 6875 0161 0E       		.uleb128 0xe
 6876 0162 3A       		.uleb128 0x3a
 6877 0163 21       		.uleb128 0x21
 6878 0164 01       		.sleb128 1
 6879 0165 3B       		.uleb128 0x3b
 6880 0166 05       		.uleb128 0x5
 6881 0167 39       		.uleb128 0x39
 6882 0168 0B       		.uleb128 0xb
 6883 0169 49       		.uleb128 0x49
 6884 016a 13       		.uleb128 0x13
 6885 016b 02       		.uleb128 0x2
 6886 016c 17       		.uleb128 0x17
 6887 016d B742     		.uleb128 0x2137
 6888 016f 17       		.uleb128 0x17
 6889 0170 00       		.byte	0
 6890 0171 00       		.byte	0
 6891 0172 18       		.uleb128 0x18
 6892 0173 2E       		.uleb128 0x2e
 6893 0174 01       		.byte	0x1
 6894 0175 3F       		.uleb128 0x3f
 6895 0176 19       		.uleb128 0x19
 6896 0177 03       		.uleb128 0x3
 6897 0178 08       		.uleb128 0x8
 6898 0179 3A       		.uleb128 0x3a
 6899 017a 21       		.uleb128 0x21
 6900 017b 01       		.sleb128 1
 6901 017c 3B       		.uleb128 0x3b
 6902 017d 0B       		.uleb128 0xb
 6903 017e 39       		.uleb128 0x39
 6904 017f 21       		.uleb128 0x21
 6905 0180 01       		.sleb128 1
 6906 0181 27       		.uleb128 0x27
 6907 0182 19       		.uleb128 0x19
 6908 0183 49       		.uleb128 0x49
 6909 0184 13       		.uleb128 0x13
 6910 0185 11       		.uleb128 0x11
 6911 0186 01       		.uleb128 0x1
 6912 0187 12       		.uleb128 0x12
 6913 0188 07       		.uleb128 0x7
 6914 0189 40       		.uleb128 0x40
 6915 018a 18       		.uleb128 0x18
 6916 018b 7A       		.uleb128 0x7a
 6917 018c 19       		.uleb128 0x19
 6918 018d 01       		.uleb128 0x1
 6919 018e 13       		.uleb128 0x13
 6920 018f 00       		.byte	0
 6921 0190 00       		.byte	0
 6922 0191 19       		.uleb128 0x19
 6923 0192 34       		.uleb128 0x34
 6924 0193 00       		.byte	0
 6925 0194 03       		.uleb128 0x3
 6926 0195 0E       		.uleb128 0xe
 6927 0196 3A       		.uleb128 0x3a
 6928 0197 21       		.uleb128 0x21
 6929 0198 01       		.sleb128 1
 6930 0199 3B       		.uleb128 0x3b
 6931 019a 0B       		.uleb128 0xb
 6932 019b 39       		.uleb128 0x39
 6933 019c 0B       		.uleb128 0xb
 6934 019d 49       		.uleb128 0x49
 6935 019e 13       		.uleb128 0x13
 6936 019f 02       		.uleb128 0x2
 6937 01a0 18       		.uleb128 0x18
 6938 01a1 00       		.byte	0
 6939 01a2 00       		.byte	0
 6940 01a3 1A       		.uleb128 0x1a
 6941 01a4 01       		.uleb128 0x1
 6942 01a5 01       		.byte	0x1
 6943 01a6 49       		.uleb128 0x49
 6944 01a7 13       		.uleb128 0x13
 6945 01a8 01       		.uleb128 0x1
 6946 01a9 13       		.uleb128 0x13
 6947 01aa 00       		.byte	0
 6948 01ab 00       		.byte	0
 6949 01ac 1B       		.uleb128 0x1b
 6950 01ad 0D       		.uleb128 0xd
 6951 01ae 00       		.byte	0
 6952 01af 03       		.uleb128 0x3
 6953 01b0 0E       		.uleb128 0xe
 6954 01b1 3A       		.uleb128 0x3a
 6955 01b2 0B       		.uleb128 0xb
 6956 01b3 3B       		.uleb128 0x3b
 6957 01b4 0B       		.uleb128 0xb
 6958 01b5 39       		.uleb128 0x39
 6959 01b6 0B       		.uleb128 0xb
 6960 01b7 49       		.uleb128 0x49
 6961 01b8 13       		.uleb128 0x13
 6962 01b9 38       		.uleb128 0x38
 6963 01ba 0B       		.uleb128 0xb
 6964 01bb 00       		.byte	0
 6965 01bc 00       		.byte	0
 6966 01bd 1C       		.uleb128 0x1c
 6967 01be 48       		.uleb128 0x48
 6968 01bf 01       		.byte	0x1
 6969 01c0 7D       		.uleb128 0x7d
 6970 01c1 01       		.uleb128 0x1
 6971 01c2 01       		.uleb128 0x1
 6972 01c3 13       		.uleb128 0x13
 6973 01c4 00       		.byte	0
 6974 01c5 00       		.byte	0
 6975 01c6 1D       		.uleb128 0x1d
 6976 01c7 48       		.uleb128 0x48
 6977 01c8 00       		.byte	0
 6978 01c9 7D       		.uleb128 0x7d
 6979 01ca 01       		.uleb128 0x1
 6980 01cb 7F       		.uleb128 0x7f
 6981 01cc 13       		.uleb128 0x13
 6982 01cd 00       		.byte	0
 6983 01ce 00       		.byte	0
 6984 01cf 1E       		.uleb128 0x1e
 6985 01d0 21       		.uleb128 0x21
 6986 01d1 00       		.byte	0
 6987 01d2 49       		.uleb128 0x49
 6988 01d3 13       		.uleb128 0x13
 6989 01d4 2F       		.uleb128 0x2f
 6990 01d5 0B       		.uleb128 0xb
 6991 01d6 00       		.byte	0
 6992 01d7 00       		.byte	0
 6993 01d8 1F       		.uleb128 0x1f
 6994 01d9 04       		.uleb128 0x4
 6995 01da 01       		.byte	0x1
 6996 01db 3E       		.uleb128 0x3e
 6997 01dc 21       		.uleb128 0x21
 6998 01dd 07       		.sleb128 7
 6999 01de 0B       		.uleb128 0xb
 7000 01df 21       		.uleb128 0x21
 7001 01e0 04       		.sleb128 4
 7002 01e1 49       		.uleb128 0x49
 7003 01e2 13       		.uleb128 0x13
 7004 01e3 3A       		.uleb128 0x3a
 7005 01e4 0B       		.uleb128 0xb
 7006 01e5 3B       		.uleb128 0x3b
 7007 01e6 0B       		.uleb128 0xb
 7008 01e7 39       		.uleb128 0x39
 7009 01e8 21       		.uleb128 0x21
 7010 01e9 0E       		.sleb128 14
 7011 01ea 01       		.uleb128 0x1
 7012 01eb 13       		.uleb128 0x13
 7013 01ec 00       		.byte	0
 7014 01ed 00       		.byte	0
 7015 01ee 20       		.uleb128 0x20
 7016 01ef 13       		.uleb128 0x13
 7017 01f0 01       		.byte	0x1
 7018 01f1 03       		.uleb128 0x3
 7019 01f2 08       		.uleb128 0x8
 7020 01f3 0B       		.uleb128 0xb
 7021 01f4 0B       		.uleb128 0xb
 7022 01f5 3A       		.uleb128 0x3a
 7023 01f6 0B       		.uleb128 0xb
 7024 01f7 3B       		.uleb128 0x3b
 7025 01f8 0B       		.uleb128 0xb
 7026 01f9 39       		.uleb128 0x39
 7027 01fa 21       		.uleb128 0x21
 7028 01fb 10       		.sleb128 16
 7029 01fc 01       		.uleb128 0x1
 7030 01fd 13       		.uleb128 0x13
 7031 01fe 00       		.byte	0
 7032 01ff 00       		.byte	0
 7033 0200 21       		.uleb128 0x21
 7034 0201 13       		.uleb128 0x13
 7035 0202 01       		.byte	0x1
 7036 0203 03       		.uleb128 0x3
 7037 0204 08       		.uleb128 0x8
 7038 0205 0B       		.uleb128 0xb
 7039 0206 0B       		.uleb128 0xb
 7040 0207 3A       		.uleb128 0x3a
 7041 0208 0B       		.uleb128 0xb
 7042 0209 3B       		.uleb128 0x3b
 7043 020a 05       		.uleb128 0x5
 7044 020b 39       		.uleb128 0x39
 7045 020c 21       		.uleb128 0x21
 7046 020d 10       		.sleb128 16
 7047 020e 01       		.uleb128 0x1
 7048 020f 13       		.uleb128 0x13
 7049 0210 00       		.byte	0
 7050 0211 00       		.byte	0
 7051 0212 22       		.uleb128 0x22
 7052 0213 15       		.uleb128 0x15
 7053 0214 01       		.byte	0x1
 7054 0215 27       		.uleb128 0x27
 7055 0216 19       		.uleb128 0x19
 7056 0217 01       		.uleb128 0x1
 7057 0218 13       		.uleb128 0x13
 7058 0219 00       		.byte	0
 7059 021a 00       		.byte	0
 7060 021b 23       		.uleb128 0x23
 7061 021c 13       		.uleb128 0x13
 7062 021d 01       		.byte	0x1
 7063 021e 0B       		.uleb128 0xb
 7064 021f 0B       		.uleb128 0xb
 7065 0220 3A       		.uleb128 0x3a
 7066 0221 21       		.uleb128 0x21
 7067 0222 08       		.sleb128 8
 7068 0223 3B       		.uleb128 0x3b
 7069 0224 05       		.uleb128 0x5
 7070 0225 39       		.uleb128 0x39
 7071 0226 21       		.uleb128 0x21
 7072 0227 09       		.sleb128 9
 7073 0228 01       		.uleb128 0x1
 7074 0229 13       		.uleb128 0x13
 7075 022a 00       		.byte	0
 7076 022b 00       		.byte	0
 7077 022c 24       		.uleb128 0x24
 7078 022d 2E       		.uleb128 0x2e
 7079 022e 01       		.byte	0x1
 7080 022f 3F       		.uleb128 0x3f
 7081 0230 19       		.uleb128 0x19
 7082 0231 03       		.uleb128 0x3
 7083 0232 08       		.uleb128 0x8
 7084 0233 3A       		.uleb128 0x3a
 7085 0234 21       		.uleb128 0x21
 7086 0235 0C       		.sleb128 12
 7087 0236 3B       		.uleb128 0x3b
 7088 0237 05       		.uleb128 0x5
 7089 0238 39       		.uleb128 0x39
 7090 0239 21       		.uleb128 0x21
 7091 023a 01       		.sleb128 1
 7092 023b 27       		.uleb128 0x27
 7093 023c 19       		.uleb128 0x19
 7094 023d 49       		.uleb128 0x49
 7095 023e 13       		.uleb128 0x13
 7096 023f 3C       		.uleb128 0x3c
 7097 0240 19       		.uleb128 0x19
 7098 0241 01       		.uleb128 0x1
 7099 0242 13       		.uleb128 0x13
 7100 0243 00       		.byte	0
 7101 0244 00       		.byte	0
 7102 0245 25       		.uleb128 0x25
 7103 0246 48       		.uleb128 0x48
 7104 0247 01       		.byte	0x1
 7105 0248 7D       		.uleb128 0x7d
 7106 0249 01       		.uleb128 0x1
 7107 024a 00       		.byte	0
 7108 024b 00       		.byte	0
 7109 024c 26       		.uleb128 0x26
 7110 024d 26       		.uleb128 0x26
 7111 024e 00       		.byte	0
 7112 024f 49       		.uleb128 0x49
 7113 0250 13       		.uleb128 0x13
 7114 0251 00       		.byte	0
 7115 0252 00       		.byte	0
 7116 0253 27       		.uleb128 0x27
 7117 0254 04       		.uleb128 0x4
 7118 0255 01       		.byte	0x1
 7119 0256 3E       		.uleb128 0x3e
 7120 0257 21       		.uleb128 0x21
 7121 0258 07       		.sleb128 7
 7122 0259 0B       		.uleb128 0xb
 7123 025a 21       		.uleb128 0x21
 7124 025b 04       		.sleb128 4
 7125 025c 49       		.uleb128 0x49
 7126 025d 13       		.uleb128 0x13
 7127 025e 3A       		.uleb128 0x3a
 7128 025f 21       		.uleb128 0x21
 7129 0260 08       		.sleb128 8
 7130 0261 3B       		.uleb128 0x3b
 7131 0262 05       		.uleb128 0x5
 7132 0263 39       		.uleb128 0x39
 7133 0264 21       		.uleb128 0x21
 7134 0265 0E       		.sleb128 14
 7135 0266 01       		.uleb128 0x1
 7136 0267 13       		.uleb128 0x13
 7137 0268 00       		.byte	0
 7138 0269 00       		.byte	0
 7139 026a 28       		.uleb128 0x28
 7140 026b 0D       		.uleb128 0xd
 7141 026c 00       		.byte	0
 7142 026d 03       		.uleb128 0x3
 7143 026e 08       		.uleb128 0x8
 7144 026f 3A       		.uleb128 0x3a
 7145 0270 21       		.uleb128 0x21
 7146 0271 0B       		.sleb128 11
 7147 0272 3B       		.uleb128 0x3b
 7148 0273 0B       		.uleb128 0xb
 7149 0274 39       		.uleb128 0x39
 7150 0275 21       		.uleb128 0x21
 7151 0276 1D       		.sleb128 29
 7152 0277 49       		.uleb128 0x49
 7153 0278 13       		.uleb128 0x13
 7154 0279 38       		.uleb128 0x38
 7155 027a 05       		.uleb128 0x5
 7156 027b 00       		.byte	0
 7157 027c 00       		.byte	0
 7158 027d 29       		.uleb128 0x29
 7159 027e 2E       		.uleb128 0x2e
 7160 027f 01       		.byte	0x1
 7161 0280 3F       		.uleb128 0x3f
 7162 0281 19       		.uleb128 0x19
 7163 0282 03       		.uleb128 0x3
 7164 0283 08       		.uleb128 0x8
 7165 0284 3A       		.uleb128 0x3a
 7166 0285 21       		.uleb128 0x21
 7167 0286 0D       		.sleb128 13
 7168 0287 3B       		.uleb128 0x3b
 7169 0288 0B       		.uleb128 0xb
 7170 0289 39       		.uleb128 0x39
 7171 028a 21       		.uleb128 0x21
 7172 028b 01       		.sleb128 1
 7173 028c 27       		.uleb128 0x27
 7174 028d 19       		.uleb128 0x19
 7175 028e 49       		.uleb128 0x49
 7176 028f 13       		.uleb128 0x13
 7177 0290 3C       		.uleb128 0x3c
 7178 0291 19       		.uleb128 0x19
 7179 0292 01       		.uleb128 0x1
 7180 0293 13       		.uleb128 0x13
 7181 0294 00       		.byte	0
 7182 0295 00       		.byte	0
 7183 0296 2A       		.uleb128 0x2a
 7184 0297 2E       		.uleb128 0x2e
 7185 0298 01       		.byte	0x1
 7186 0299 3F       		.uleb128 0x3f
 7187 029a 19       		.uleb128 0x19
 7188 029b 03       		.uleb128 0x3
 7189 029c 08       		.uleb128 0x8
 7190 029d 3A       		.uleb128 0x3a
 7191 029e 21       		.uleb128 0x21
 7192 029f 0D       		.sleb128 13
 7193 02a0 3B       		.uleb128 0x3b
 7194 02a1 0B       		.uleb128 0xb
 7195 02a2 39       		.uleb128 0x39
 7196 02a3 21       		.uleb128 0x21
 7197 02a4 01       		.sleb128 1
 7198 02a5 27       		.uleb128 0x27
 7199 02a6 19       		.uleb128 0x19
 7200 02a7 3C       		.uleb128 0x3c
 7201 02a8 19       		.uleb128 0x19
 7202 02a9 01       		.uleb128 0x1
 7203 02aa 13       		.uleb128 0x13
 7204 02ab 00       		.byte	0
 7205 02ac 00       		.byte	0
 7206 02ad 2B       		.uleb128 0x2b
 7207 02ae 49       		.uleb128 0x49
 7208 02af 00       		.byte	0
 7209 02b0 02       		.uleb128 0x2
 7210 02b1 18       		.uleb128 0x18
 7211 02b2 00       		.byte	0
 7212 02b3 00       		.byte	0
 7213 02b4 2C       		.uleb128 0x2c
 7214 02b5 34       		.uleb128 0x34
 7215 02b6 00       		.byte	0
 7216 02b7 03       		.uleb128 0x3
 7217 02b8 08       		.uleb128 0x8
 7218 02b9 3A       		.uleb128 0x3a
 7219 02ba 21       		.uleb128 0x21
 7220 02bb 01       		.sleb128 1
 7221 02bc 3B       		.uleb128 0x3b
 7222 02bd 0B       		.uleb128 0xb
 7223 02be 39       		.uleb128 0x39
 7224 02bf 0B       		.uleb128 0xb
 7225 02c0 49       		.uleb128 0x49
 7226 02c1 13       		.uleb128 0x13
 7227 02c2 02       		.uleb128 0x2
 7228 02c3 17       		.uleb128 0x17
 7229 02c4 B742     		.uleb128 0x2137
 7230 02c6 17       		.uleb128 0x17
 7231 02c7 00       		.byte	0
 7232 02c8 00       		.byte	0
 7233 02c9 2D       		.uleb128 0x2d
 7234 02ca 2E       		.uleb128 0x2e
 7235 02cb 01       		.byte	0x1
 7236 02cc 3F       		.uleb128 0x3f
 7237 02cd 19       		.uleb128 0x19
 7238 02ce 03       		.uleb128 0x3
 7239 02cf 08       		.uleb128 0x8
 7240 02d0 3A       		.uleb128 0x3a
 7241 02d1 21       		.uleb128 0x21
 7242 02d2 01       		.sleb128 1
 7243 02d3 3B       		.uleb128 0x3b
 7244 02d4 0B       		.uleb128 0xb
 7245 02d5 39       		.uleb128 0x39
 7246 02d6 21       		.uleb128 0x21
 7247 02d7 01       		.sleb128 1
 7248 02d8 27       		.uleb128 0x27
 7249 02d9 19       		.uleb128 0x19
 7250 02da 11       		.uleb128 0x11
 7251 02db 01       		.uleb128 0x1
 7252 02dc 12       		.uleb128 0x12
 7253 02dd 07       		.uleb128 0x7
 7254 02de 40       		.uleb128 0x40
 7255 02df 18       		.uleb128 0x18
 7256 02e0 7A       		.uleb128 0x7a
 7257 02e1 19       		.uleb128 0x19
 7258 02e2 01       		.uleb128 0x1
 7259 02e3 13       		.uleb128 0x13
 7260 02e4 00       		.byte	0
 7261 02e5 00       		.byte	0
 7262 02e6 2E       		.uleb128 0x2e
 7263 02e7 18       		.uleb128 0x18
 7264 02e8 00       		.byte	0
 7265 02e9 00       		.byte	0
 7266 02ea 00       		.byte	0
 7267 02eb 2F       		.uleb128 0x2f
 7268 02ec 34       		.uleb128 0x34
 7269 02ed 00       		.byte	0
 7270 02ee 03       		.uleb128 0x3
 7271 02ef 0E       		.uleb128 0xe
 7272 02f0 3A       		.uleb128 0x3a
 7273 02f1 21       		.uleb128 0x21
 7274 02f2 01       		.sleb128 1
 7275 02f3 3B       		.uleb128 0x3b
 7276 02f4 05       		.uleb128 0x5
 7277 02f5 39       		.uleb128 0x39
 7278 02f6 0B       		.uleb128 0xb
 7279 02f7 49       		.uleb128 0x49
 7280 02f8 13       		.uleb128 0x13
 7281 02f9 02       		.uleb128 0x2
 7282 02fa 18       		.uleb128 0x18
 7283 02fb 00       		.byte	0
 7284 02fc 00       		.byte	0
 7285 02fd 30       		.uleb128 0x30
 7286 02fe 11       		.uleb128 0x11
 7287 02ff 01       		.byte	0x1
 7288 0300 25       		.uleb128 0x25
 7289 0301 08       		.uleb128 0x8
 7290 0302 13       		.uleb128 0x13
 7291 0303 0B       		.uleb128 0xb
 7292 0304 03       		.uleb128 0x3
 7293 0305 1F       		.uleb128 0x1f
 7294 0306 1B       		.uleb128 0x1b
 7295 0307 1F       		.uleb128 0x1f
 7296 0308 11       		.uleb128 0x11
 7297 0309 01       		.uleb128 0x1
 7298 030a 12       		.uleb128 0x12
 7299 030b 07       		.uleb128 0x7
 7300 030c 10       		.uleb128 0x10
 7301 030d 17       		.uleb128 0x17
 7302 030e 79       		.uleb128 0x79
 7303 030f 17       		.uleb128 0x17
 7304 0310 00       		.byte	0
 7305 0311 00       		.byte	0
 7306 0312 31       		.uleb128 0x31
 7307 0313 16       		.uleb128 0x16
 7308 0314 00       		.byte	0
 7309 0315 03       		.uleb128 0x3
 7310 0316 08       		.uleb128 0x8
 7311 0317 3A       		.uleb128 0x3a
 7312 0318 0B       		.uleb128 0xb
 7313 0319 3B       		.uleb128 0x3b
 7314 031a 0B       		.uleb128 0xb
 7315 031b 39       		.uleb128 0x39
 7316 031c 0B       		.uleb128 0xb
 7317 031d 00       		.byte	0
 7318 031e 00       		.byte	0
 7319 031f 32       		.uleb128 0x32
 7320 0320 13       		.uleb128 0x13
 7321 0321 01       		.byte	0x1
 7322 0322 03       		.uleb128 0x3
 7323 0323 08       		.uleb128 0x8
 7324 0324 0B       		.uleb128 0xb
 7325 0325 05       		.uleb128 0x5
 7326 0326 3A       		.uleb128 0x3a
 7327 0327 0B       		.uleb128 0xb
 7328 0328 3B       		.uleb128 0x3b
 7329 0329 05       		.uleb128 0x5
 7330 032a 39       		.uleb128 0x39
 7331 032b 0B       		.uleb128 0xb
 7332 032c 01       		.uleb128 0x1
 7333 032d 13       		.uleb128 0x13
 7334 032e 00       		.byte	0
 7335 032f 00       		.byte	0
 7336 0330 33       		.uleb128 0x33
 7337 0331 13       		.uleb128 0x13
 7338 0332 01       		.byte	0x1
 7339 0333 0B       		.uleb128 0xb
 7340 0334 05       		.uleb128 0x5
 7341 0335 3A       		.uleb128 0x3a
 7342 0336 0B       		.uleb128 0xb
 7343 0337 3B       		.uleb128 0x3b
 7344 0338 0B       		.uleb128 0xb
 7345 0339 39       		.uleb128 0x39
 7346 033a 0B       		.uleb128 0xb
 7347 033b 01       		.uleb128 0x1
 7348 033c 13       		.uleb128 0x13
 7349 033d 00       		.byte	0
 7350 033e 00       		.byte	0
 7351 033f 34       		.uleb128 0x34
 7352 0340 0D       		.uleb128 0xd
 7353 0341 00       		.byte	0
 7354 0342 03       		.uleb128 0x3
 7355 0343 0E       		.uleb128 0xe
 7356 0344 3A       		.uleb128 0x3a
 7357 0345 0B       		.uleb128 0xb
 7358 0346 3B       		.uleb128 0x3b
 7359 0347 0B       		.uleb128 0xb
 7360 0348 39       		.uleb128 0x39
 7361 0349 0B       		.uleb128 0xb
 7362 034a 49       		.uleb128 0x49
 7363 034b 13       		.uleb128 0x13
 7364 034c 38       		.uleb128 0x38
 7365 034d 05       		.uleb128 0x5
 7366 034e 00       		.byte	0
 7367 034f 00       		.byte	0
 7368 0350 35       		.uleb128 0x35
 7369 0351 21       		.uleb128 0x21
 7370 0352 00       		.byte	0
 7371 0353 49       		.uleb128 0x49
 7372 0354 13       		.uleb128 0x13
 7373 0355 2F       		.uleb128 0x2f
 7374 0356 05       		.uleb128 0x5
 7375 0357 00       		.byte	0
 7376 0358 00       		.byte	0
 7377 0359 36       		.uleb128 0x36
 7378 035a 34       		.uleb128 0x34
 7379 035b 00       		.byte	0
 7380 035c 03       		.uleb128 0x3
 7381 035d 08       		.uleb128 0x8
 7382 035e 3A       		.uleb128 0x3a
 7383 035f 0B       		.uleb128 0xb
 7384 0360 3B       		.uleb128 0x3b
 7385 0361 05       		.uleb128 0x5
 7386 0362 39       		.uleb128 0x39
 7387 0363 0B       		.uleb128 0xb
 7388 0364 49       		.uleb128 0x49
 7389 0365 13       		.uleb128 0x13
 7390 0366 02       		.uleb128 0x2
 7391 0367 18       		.uleb128 0x18
 7392 0368 00       		.byte	0
 7393 0369 00       		.byte	0
 7394 036a 37       		.uleb128 0x37
 7395 036b 2E       		.uleb128 0x2e
 7396 036c 01       		.byte	0x1
 7397 036d 3F       		.uleb128 0x3f
 7398 036e 19       		.uleb128 0x19
 7399 036f 03       		.uleb128 0x3
 7400 0370 0E       		.uleb128 0xe
 7401 0371 3A       		.uleb128 0x3a
 7402 0372 0B       		.uleb128 0xb
 7403 0373 3B       		.uleb128 0x3b
 7404 0374 0B       		.uleb128 0xb
 7405 0375 39       		.uleb128 0x39
 7406 0376 0B       		.uleb128 0xb
 7407 0377 27       		.uleb128 0x27
 7408 0378 19       		.uleb128 0x19
 7409 0379 11       		.uleb128 0x11
 7410 037a 01       		.uleb128 0x1
 7411 037b 12       		.uleb128 0x12
 7412 037c 07       		.uleb128 0x7
 7413 037d 40       		.uleb128 0x40
 7414 037e 18       		.uleb128 0x18
 7415 037f 7A       		.uleb128 0x7a
 7416 0380 19       		.uleb128 0x19
 7417 0381 01       		.uleb128 0x1
 7418 0382 13       		.uleb128 0x13
 7419 0383 00       		.byte	0
 7420 0384 00       		.byte	0
 7421 0385 38       		.uleb128 0x38
 7422 0386 2E       		.uleb128 0x2e
 7423 0387 01       		.byte	0x1
 7424 0388 3F       		.uleb128 0x3f
 7425 0389 19       		.uleb128 0x19
 7426 038a 03       		.uleb128 0x3
 7427 038b 0E       		.uleb128 0xe
 7428 038c 3A       		.uleb128 0x3a
 7429 038d 0B       		.uleb128 0xb
 7430 038e 3B       		.uleb128 0x3b
 7431 038f 0B       		.uleb128 0xb
 7432 0390 39       		.uleb128 0x39
 7433 0391 0B       		.uleb128 0xb
 7434 0392 27       		.uleb128 0x27
 7435 0393 19       		.uleb128 0x19
 7436 0394 49       		.uleb128 0x49
 7437 0395 13       		.uleb128 0x13
 7438 0396 11       		.uleb128 0x11
 7439 0397 01       		.uleb128 0x1
 7440 0398 12       		.uleb128 0x12
 7441 0399 07       		.uleb128 0x7
 7442 039a 40       		.uleb128 0x40
 7443 039b 18       		.uleb128 0x18
 7444 039c 7A       		.uleb128 0x7a
 7445 039d 19       		.uleb128 0x19
 7446 039e 00       		.byte	0
 7447 039f 00       		.byte	0
 7448 03a0 39       		.uleb128 0x39
 7449 03a1 34       		.uleb128 0x34
 7450 03a2 00       		.byte	0
 7451 03a3 03       		.uleb128 0x3
 7452 03a4 0E       		.uleb128 0xe
 7453 03a5 3A       		.uleb128 0x3a
 7454 03a6 0B       		.uleb128 0xb
 7455 03a7 3B       		.uleb128 0x3b
 7456 03a8 0B       		.uleb128 0xb
 7457 03a9 39       		.uleb128 0x39
 7458 03aa 0B       		.uleb128 0xb
 7459 03ab 49       		.uleb128 0x49
 7460 03ac 13       		.uleb128 0x13
 7461 03ad 02       		.uleb128 0x2
 7462 03ae 17       		.uleb128 0x17
 7463 03af B742     		.uleb128 0x2137
 7464 03b1 17       		.uleb128 0x17
 7465 03b2 00       		.byte	0
 7466 03b3 00       		.byte	0
 7467 03b4 3A       		.uleb128 0x3a
 7468 03b5 34       		.uleb128 0x34
 7469 03b6 00       		.byte	0
 7470 03b7 03       		.uleb128 0x3
 7471 03b8 08       		.uleb128 0x8
 7472 03b9 3A       		.uleb128 0x3a
 7473 03ba 0B       		.uleb128 0xb
 7474 03bb 3B       		.uleb128 0x3b
 7475 03bc 0B       		.uleb128 0xb
 7476 03bd 39       		.uleb128 0x39
 7477 03be 0B       		.uleb128 0xb
 7478 03bf 49       		.uleb128 0x49
 7479 03c0 13       		.uleb128 0x13
 7480 03c1 02       		.uleb128 0x2
 7481 03c2 18       		.uleb128 0x18
 7482 03c3 00       		.byte	0
 7483 03c4 00       		.byte	0
 7484 03c5 00       		.byte	0
 7485              		.section	.debug_loclists,"dr"
 7486 0000 6C0A0000 		.long	.Ldebug_loc3-.Ldebug_loc2
 7487              	.Ldebug_loc2:
 7488 0004 0500     		.word	0x5
 7489 0006 08       		.byte	0x8
 7490 0007 00       		.byte	0
 7491 0008 00000000 		.long	0
 7492              	.Ldebug_loc0:
 7493              	.LVUS66:
 7494 000c 00       		.uleb128 0
 7495 000d 00       		.uleb128 .LVU375
 7496 000e 00       		.uleb128 .LVU375
 7497 000f 00       		.uleb128 .LVU407
 7498 0010 00       		.uleb128 .LVU407
 7499 0011 00       		.uleb128 .LVU409
 7500 0012 00       		.uleb128 .LVU409
 7501 0013 00       		.uleb128 0
 7502              	.LLST66:
 7503 0014 04       		.byte	0x4
 7504 0015 C10E     		.uleb128 .LVL137-.Ltext0
 7505 0017 F10E     		.uleb128 .LVL140-1-.Ltext0
 7506 0019 01       		.uleb128 0x1
 7507 001a 52       		.byte	0x52
 7508 001b 04       		.byte	0x4
 7509 001c F10E     		.uleb128 .LVL140-1-.Ltext0
 7510 001e E90F     		.uleb128 .LVL156-.Ltext0
 7511 0020 01       		.uleb128 0x1
 7512 0021 56       		.byte	0x56
 7513 0022 04       		.byte	0x4
 7514 0023 E90F     		.uleb128 .LVL156-.Ltext0
 7515 0025 EC0F     		.uleb128 .LVL158-.Ltext0
 7516 0027 04       		.uleb128 0x4
 7517 0028 A3       		.byte	0xa3
 7518 0029 01       		.uleb128 0x1
 7519 002a 52       		.byte	0x52
 7520 002b 9F       		.byte	0x9f
 7521 002c 04       		.byte	0x4
 7522 002d EC0F     		.uleb128 .LVL158-.Ltext0
 7523 002f 8610     		.uleb128 .LFE22-.Ltext0
 7524 0031 01       		.uleb128 0x1
 7525 0032 56       		.byte	0x56
 7526 0033 00       		.byte	0
 7527              	.LVUS67:
 7528 0034 00       		.uleb128 0
 7529 0035 00       		.uleb128 .LVU374
 7530 0036 00       		.uleb128 .LVU374
 7531 0037 00       		.uleb128 .LVU405
 7532 0038 00       		.uleb128 .LVU405
 7533 0039 00       		.uleb128 .LVU409
 7534 003a 00       		.uleb128 .LVU409
 7535 003b 00       		.uleb128 0
 7536              	.LLST67:
 7537 003c 04       		.byte	0x4
 7538 003d C10E     		.uleb128 .LVL137-.Ltext0
 7539 003f EC0E     		.uleb128 .LVL139-.Ltext0
 7540 0041 01       		.uleb128 0x1
 7541 0042 51       		.byte	0x51
 7542 0043 04       		.byte	0x4
 7543 0044 EC0E     		.uleb128 .LVL139-.Ltext0
 7544 0046 E70F     		.uleb128 .LVL154-.Ltext0
 7545 0048 01       		.uleb128 0x1
 7546 0049 54       		.byte	0x54
 7547 004a 04       		.byte	0x4
 7548 004b E70F     		.uleb128 .LVL154-.Ltext0
 7549 004d EC0F     		.uleb128 .LVL158-.Ltext0
 7550 004f 04       		.uleb128 0x4
 7551 0050 A3       		.byte	0xa3
 7552 0051 01       		.uleb128 0x1
 7553 0052 51       		.byte	0x51
 7554 0053 9F       		.byte	0x9f
 7555 0054 04       		.byte	0x4
 7556 0055 EC0F     		.uleb128 .LVL158-.Ltext0
 7557 0057 8610     		.uleb128 .LFE22-.Ltext0
 7558 0059 01       		.uleb128 0x1
 7559 005a 54       		.byte	0x54
 7560 005b 00       		.byte	0
 7561              	.LVUS68:
 7562 005c 00       		.uleb128 0
 7563 005d 00       		.uleb128 .LVU373
 7564 005e 00       		.uleb128 .LVU373
 7565 005f 00       		.uleb128 .LVU406
 7566 0060 00       		.uleb128 .LVU406
 7567 0061 00       		.uleb128 .LVU409
 7568 0062 00       		.uleb128 .LVU409
 7569 0063 00       		.uleb128 0
 7570              	.LLST68:
 7571 0064 04       		.byte	0x4
 7572 0065 C10E     		.uleb128 .LVL137-.Ltext0
 7573 0067 E50E     		.uleb128 .LVL138-.Ltext0
 7574 0069 01       		.uleb128 0x1
 7575 006a 58       		.byte	0x58
 7576 006b 04       		.byte	0x4
 7577 006c E50E     		.uleb128 .LVL138-.Ltext0
 7578 006e E80F     		.uleb128 .LVL155-.Ltext0
 7579 0070 01       		.uleb128 0x1
 7580 0071 55       		.byte	0x55
 7581 0072 04       		.byte	0x4
 7582 0073 E80F     		.uleb128 .LVL155-.Ltext0
 7583 0075 EC0F     		.uleb128 .LVL158-.Ltext0
 7584 0077 04       		.uleb128 0x4
 7585 0078 A3       		.byte	0xa3
 7586 0079 01       		.uleb128 0x1
 7587 007a 58       		.byte	0x58
 7588 007b 9F       		.byte	0x9f
 7589 007c 04       		.byte	0x4
 7590 007d EC0F     		.uleb128 .LVL158-.Ltext0
 7591 007f 8610     		.uleb128 .LFE22-.Ltext0
 7592 0081 01       		.uleb128 0x1
 7593 0082 55       		.byte	0x55
 7594 0083 00       		.byte	0
 7595              	.LVUS69:
 7596 0084 00       		.uleb128 0
 7597 0085 00       		.uleb128 .LVU375
 7598 0086 00       		.uleb128 .LVU375
 7599 0087 00       		.uleb128 .LVU408
 7600 0088 00       		.uleb128 .LVU408
 7601 0089 00       		.uleb128 0
 7602              	.LLST69:
 7603 008a 04       		.byte	0x4
 7604 008b C10E     		.uleb128 .LVL137-.Ltext0
 7605 008d F10E     		.uleb128 .LVL140-1-.Ltext0
 7606 008f 01       		.uleb128 0x1
 7607 0090 59       		.byte	0x59
 7608 0091 04       		.byte	0x4
 7609 0092 F10E     		.uleb128 .LVL140-1-.Ltext0
 7610 0094 EB0F     		.uleb128 .LVL157-.Ltext0
 7611 0096 01       		.uleb128 0x1
 7612 0097 5C       		.byte	0x5c
 7613 0098 04       		.byte	0x4
 7614 0099 EB0F     		.uleb128 .LVL157-.Ltext0
 7615 009b 8610     		.uleb128 .LFE22-.Ltext0
 7616 009d 04       		.uleb128 0x4
 7617 009e A3       		.byte	0xa3
 7618 009f 01       		.uleb128 0x1
 7619 00a0 59       		.byte	0x59
 7620 00a1 9F       		.byte	0x9f
 7621 00a2 00       		.byte	0
 7622              	.LVUS70:
 7623 00a3 01       		.uleb128 .LVU378
 7624 00a4 00       		.uleb128 .LVU382
 7625 00a5 00       		.uleb128 .LVU388
 7626 00a6 00       		.uleb128 .LVU396
 7627              	.LLST70:
 7628 00a7 04       		.byte	0x4
 7629 00a8 F70E     		.uleb128 .LVL141-.Ltext0
 7630 00aa 870F     		.uleb128 .LVL144-.Ltext0
 7631 00ac 02       		.uleb128 0x2
 7632 00ad 30       		.byte	0x30
 7633 00ae 9F       		.byte	0x9f
 7634 00af 04       		.byte	0x4
 7635 00b0 A80F     		.uleb128 .LVL147-.Ltext0
 7636 00b2 C50F     		.uleb128 .LVL151-.Ltext0
 7637 00b4 01       		.uleb128 0x1
 7638 00b5 50       		.byte	0x50
 7639 00b6 00       		.byte	0
 7640              	.LVUS71:
 7641 00b7 00       		.uleb128 .LVU380
 7642 00b8 00       		.uleb128 .LVU382
 7643 00b9 00       		.uleb128 .LVU388
 7644 00ba 00       		.uleb128 .LVU404
 7645 00bb 00       		.uleb128 .LVU409
 7646 00bc 00       		.uleb128 0
 7647              	.LLST71:
 7648 00bd 04       		.byte	0x4
 7649 00be 800F     		.uleb128 .LVL143-.Ltext0
 7650 00c0 870F     		.uleb128 .LVL144-.Ltext0
 7651 00c2 01       		.uleb128 0x1
 7652 00c3 53       		.byte	0x53
 7653 00c4 04       		.byte	0x4
 7654 00c5 A80F     		.uleb128 .LVL147-.Ltext0
 7655 00c7 DE0F     		.uleb128 .LVL153-.Ltext0
 7656 00c9 01       		.uleb128 0x1
 7657 00ca 53       		.byte	0x53
 7658 00cb 04       		.byte	0x4
 7659 00cc EC0F     		.uleb128 .LVL158-.Ltext0
 7660 00ce 8610     		.uleb128 .LFE22-.Ltext0
 7661 00d0 01       		.uleb128 0x1
 7662 00d1 53       		.byte	0x53
 7663 00d2 00       		.byte	0
 7664              	.LVUS72:
 7665 00d3 00       		.uleb128 .LVU375
 7666 00d4 00       		.uleb128 .LVU379
 7667 00d5 00       		.uleb128 .LVU382
 7668 00d6 00       		.uleb128 .LVU387
 7669              	.LLST72:
 7670 00d7 04       		.byte	0x4
 7671 00d8 F20E     		.uleb128 .LVL140-.Ltext0
 7672 00da FC0E     		.uleb128 .LVL142-.Ltext0
 7673 00dc 01       		.uleb128 0x1
 7674 00dd 50       		.byte	0x50
 7675 00de 04       		.byte	0x4
 7676 00df 870F     		.uleb128 .LVL144-.Ltext0
 7677 00e1 9A0F     		.uleb128 .LVL145-1-.Ltext0
 7678 00e3 01       		.uleb128 0x1
 7679 00e4 50       		.byte	0x50
 7680 00e5 00       		.byte	0
 7681              	.LVUS63:
 7682 00e6 00       		.uleb128 0
 7683 00e7 00       		.uleb128 .LVU345
 7684 00e8 00       		.uleb128 .LVU345
 7685 00e9 00       		.uleb128 .LVU364
 7686 00ea 00       		.uleb128 .LVU364
 7687 00eb 00       		.uleb128 0
 7688              	.LLST63:
 7689 00ec 04       		.byte	0x4
 7690 00ed CD0D     		.uleb128 .LVL129-.Ltext0
 7691 00ef E20D     		.uleb128 .LVL131-.Ltext0
 7692 00f1 01       		.uleb128 0x1
 7693 00f2 52       		.byte	0x52
 7694 00f3 04       		.byte	0x4
 7695 00f4 E20D     		.uleb128 .LVL131-.Ltext0
 7696 00f6 C00E     		.uleb128 .LVL136-.Ltext0
 7697 00f8 01       		.uleb128 0x1
 7698 00f9 56       		.byte	0x56
 7699 00fa 04       		.byte	0x4
 7700 00fb C00E     		.uleb128 .LVL136-.Ltext0
 7701 00fd C10E     		.uleb128 .LFE21-.Ltext0
 7702 00ff 04       		.uleb128 0x4
 7703 0100 A3       		.byte	0xa3
 7704 0101 01       		.uleb128 0x1
 7705 0102 52       		.byte	0x52
 7706 0103 9F       		.byte	0x9f
 7707 0104 00       		.byte	0
 7708              	.LVUS64:
 7709 0105 00       		.uleb128 0
 7710 0106 00       		.uleb128 .LVU345
 7711 0107 00       		.uleb128 .LVU345
 7712 0108 00       		.uleb128 .LVU363
 7713 0109 00       		.uleb128 .LVU363
 7714 010a 00       		.uleb128 0
 7715              	.LLST64:
 7716 010b 04       		.byte	0x4
 7717 010c CD0D     		.uleb128 .LVL129-.Ltext0
 7718 010e E20D     		.uleb128 .LVL131-.Ltext0
 7719 0110 01       		.uleb128 0x1
 7720 0111 51       		.byte	0x51
 7721 0112 04       		.byte	0x4
 7722 0113 E20D     		.uleb128 .LVL131-.Ltext0
 7723 0115 BF0E     		.uleb128 .LVL135-.Ltext0
 7724 0117 01       		.uleb128 0x1
 7725 0118 55       		.byte	0x55
 7726 0119 04       		.byte	0x4
 7727 011a BF0E     		.uleb128 .LVL135-.Ltext0
 7728 011c C10E     		.uleb128 .LFE21-.Ltext0
 7729 011e 04       		.uleb128 0x4
 7730 011f A3       		.byte	0xa3
 7731 0120 01       		.uleb128 0x1
 7732 0121 51       		.byte	0x51
 7733 0122 9F       		.byte	0x9f
 7734 0123 00       		.byte	0
 7735              	.LVUS65:
 7736 0124 02       		.uleb128 .LVU343
 7737 0125 00       		.uleb128 .LVU345
 7738 0126 00       		.uleb128 .LVU345
 7739 0127 00       		.uleb128 .LVU362
 7740              	.LLST65:
 7741 0128 04       		.byte	0x4
 7742 0129 DB0D     		.uleb128 .LVL130-.Ltext0
 7743 012b E20D     		.uleb128 .LVL131-.Ltext0
 7744 012d 02       		.uleb128 0x2
 7745 012e 30       		.byte	0x30
 7746 012f 9F       		.byte	0x9f
 7747 0130 04       		.byte	0x4
 7748 0131 E20D     		.uleb128 .LVL131-.Ltext0
 7749 0133 BD0E     		.uleb128 .LVL134-.Ltext0
 7750 0135 01       		.uleb128 0x1
 7751 0136 53       		.byte	0x53
 7752 0137 00       		.byte	0
 7753              	.LVUS62:
 7754 0138 00       		.uleb128 0
 7755 0139 00       		.uleb128 .LVU338
 7756 013a 00       		.uleb128 .LVU338
 7757 013b 00       		.uleb128 0
 7758              	.LLST62:
 7759 013c 04       		.byte	0x4
 7760 013d BC0D     		.uleb128 .LVL127-.Ltext0
 7761 013f C70D     		.uleb128 .LVL128-1-.Ltext0
 7762 0141 01       		.uleb128 0x1
 7763 0142 52       		.byte	0x52
 7764 0143 04       		.byte	0x4
 7765 0144 C70D     		.uleb128 .LVL128-1-.Ltext0
 7766 0146 CD0D     		.uleb128 .LFE20-.Ltext0
 7767 0148 04       		.uleb128 0x4
 7768 0149 A3       		.byte	0xa3
 7769 014a 01       		.uleb128 0x1
 7770 014b 52       		.byte	0x52
 7771 014c 9F       		.byte	0x9f
 7772 014d 00       		.byte	0
 7773              	.LVUS61:
 7774 014e 00       		.uleb128 0
 7775 014f 00       		.uleb128 .LVU332
 7776 0150 00       		.uleb128 .LVU332
 7777 0151 00       		.uleb128 0
 7778              	.LLST61:
 7779 0152 04       		.byte	0x4
 7780 0153 AB0D     		.uleb128 .LVL125-.Ltext0
 7781 0155 B60D     		.uleb128 .LVL126-1-.Ltext0
 7782 0157 01       		.uleb128 0x1
 7783 0158 52       		.byte	0x52
 7784 0159 04       		.byte	0x4
 7785 015a B60D     		.uleb128 .LVL126-1-.Ltext0
 7786 015c BC0D     		.uleb128 .LFE19-.Ltext0
 7787 015e 04       		.uleb128 0x4
 7788 015f A3       		.byte	0xa3
 7789 0160 01       		.uleb128 0x1
 7790 0161 52       		.byte	0x52
 7791 0162 9F       		.byte	0x9f
 7792 0163 00       		.byte	0
 7793              	.LVUS53:
 7794 0164 00       		.uleb128 0
 7795 0165 00       		.uleb128 .LVU273
 7796 0166 00       		.uleb128 .LVU273
 7797 0167 00       		.uleb128 .LVU318
 7798 0168 00       		.uleb128 .LVU318
 7799 0169 00       		.uleb128 .LVU319
 7800 016a 00       		.uleb128 .LVU319
 7801 016b 00       		.uleb128 0
 7802              	.LLST53:
 7803 016c 04       		.byte	0x4
 7804 016d BE09     		.uleb128 .LVL102-.Ltext0
 7805 016f E709     		.uleb128 .LVL103-.Ltext0
 7806 0171 01       		.uleb128 0x1
 7807 0172 52       		.byte	0x52
 7808 0173 04       		.byte	0x4
 7809 0174 E709     		.uleb128 .LVL103-.Ltext0
 7810 0176 860D     		.uleb128 .LVL116-.Ltext0
 7811 0178 01       		.uleb128 0x1
 7812 0179 58       		.byte	0x58
 7813 017a 04       		.byte	0x4
 7814 017b 860D     		.uleb128 .LVL116-.Ltext0
 7815 017d 8C0D     		.uleb128 .LVL117-.Ltext0
 7816 017f 01       		.uleb128 0x1
 7817 0180 52       		.byte	0x52
 7818 0181 04       		.byte	0x4
 7819 0182 8C0D     		.uleb128 .LVL117-.Ltext0
 7820 0184 AB0D     		.uleb128 .LFE18-.Ltext0
 7821 0186 01       		.uleb128 0x1
 7822 0187 58       		.byte	0x58
 7823 0188 00       		.byte	0
 7824              	.LVUS54:
 7825 0189 00       		.uleb128 0
 7826 018a 00       		.uleb128 .LVU273
 7827 018b 00       		.uleb128 .LVU273
 7828 018c 00       		.uleb128 .LVU318
 7829 018d 00       		.uleb128 .LVU318
 7830 018e 00       		.uleb128 .LVU319
 7831 018f 00       		.uleb128 .LVU319
 7832 0190 00       		.uleb128 .LVU320
 7833 0191 00       		.uleb128 .LVU320
 7834 0192 00       		.uleb128 .LVU321
 7835 0193 00       		.uleb128 .LVU321
 7836 0194 00       		.uleb128 0
 7837              	.LLST54:
 7838 0195 04       		.byte	0x4
 7839 0196 BE09     		.uleb128 .LVL102-.Ltext0
 7840 0198 E709     		.uleb128 .LVL103-.Ltext0
 7841 019a 01       		.uleb128 0x1
 7842 019b 51       		.byte	0x51
 7843 019c 04       		.byte	0x4
 7844 019d E709     		.uleb128 .LVL103-.Ltext0
 7845 019f 860D     		.uleb128 .LVL116-.Ltext0
 7846 01a1 01       		.uleb128 0x1
 7847 01a2 53       		.byte	0x53
 7848 01a3 04       		.byte	0x4
 7849 01a4 860D     		.uleb128 .LVL116-.Ltext0
 7850 01a6 8C0D     		.uleb128 .LVL117-.Ltext0
 7851 01a8 01       		.uleb128 0x1
 7852 01a9 51       		.byte	0x51
 7853 01aa 04       		.byte	0x4
 7854 01ab 8C0D     		.uleb128 .LVL117-.Ltext0
 7855 01ad 900D     		.uleb128 .LVL118-.Ltext0
 7856 01af 01       		.uleb128 0x1
 7857 01b0 53       		.byte	0x53
 7858 01b1 04       		.byte	0x4
 7859 01b2 900D     		.uleb128 .LVL118-.Ltext0
 7860 01b4 930D     		.uleb128 .LVL119-.Ltext0
 7861 01b6 04       		.uleb128 0x4
 7862 01b7 A3       		.byte	0xa3
 7863 01b8 01       		.uleb128 0x1
 7864 01b9 51       		.byte	0x51
 7865 01ba 9F       		.byte	0x9f
 7866 01bb 04       		.byte	0x4
 7867 01bc 930D     		.uleb128 .LVL119-.Ltext0
 7868 01be AB0D     		.uleb128 .LFE18-.Ltext0
 7869 01c0 01       		.uleb128 0x1
 7870 01c1 53       		.byte	0x53
 7871 01c2 00       		.byte	0
 7872              	.LVUS55:
 7873 01c3 00       		.uleb128 .LVU273
 7874 01c4 00       		.uleb128 .LVU291
 7875 01c5 00       		.uleb128 .LVU291
 7876 01c6 00       		.uleb128 .LVU292
 7877 01c7 00       		.uleb128 .LVU292
 7878 01c8 00       		.uleb128 .LVU293
 7879 01c9 00       		.uleb128 .LVU303
 7880 01ca 00       		.uleb128 .LVU318
 7881 01cb 00       		.uleb128 .LVU321
 7882 01cc 00       		.uleb128 .LVU322
 7883 01cd 00       		.uleb128 .LVU322
 7884 01ce 00       		.uleb128 .LVU323
 7885 01cf 00       		.uleb128 .LVU323
 7886 01d0 00       		.uleb128 .LVU324
 7887 01d1 00       		.uleb128 .LVU324
 7888 01d2 00       		.uleb128 .LVU325
 7889 01d3 00       		.uleb128 .LVU325
 7890 01d4 00       		.uleb128 .LVU326
 7891 01d5 00       		.uleb128 .LVU326
 7892 01d6 00       		.uleb128 0
 7893              	.LLST55:
 7894 01d7 04       		.byte	0x4
 7895 01d8 E709     		.uleb128 .LVL103-.Ltext0
 7896 01da AF0B     		.uleb128 .LVL108-.Ltext0
 7897 01dc 01       		.uleb128 0x1
 7898 01dd 59       		.byte	0x59
 7899 01de 04       		.byte	0x4
 7900 01df AF0B     		.uleb128 .LVL108-.Ltext0
 7901 01e1 B40B     		.uleb128 .LVL109-.Ltext0
 7902 01e3 45       		.uleb128 0x45
 7903 01e4 7A       		.byte	0x7a
 7904 01e5 00       		.sleb128 0
 7905 01e6 34       		.byte	0x34
 7906 01e7 24       		.byte	0x24
 7907 01e8 78       		.byte	0x78
 7908 01e9 00       		.sleb128 0
 7909 01ea 22       		.byte	0x22
 7910 01eb 23       		.byte	0x23
 7911 01ec C703     		.uleb128 0x1c7
 7912 01ee 94       		.byte	0x94
 7913 01ef 01       		.byte	0x1
 7914 01f0 08       		.byte	0x8
 7915 01f1 FF       		.byte	0xff
 7916 01f2 1A       		.byte	0x1a
 7917 01f3 38       		.byte	0x38
 7918 01f4 24       		.byte	0x24
 7919 01f5 7A       		.byte	0x7a
 7920 01f6 00       		.sleb128 0
 7921 01f7 34       		.byte	0x34
 7922 01f8 24       		.byte	0x24
 7923 01f9 78       		.byte	0x78
 7924 01fa 00       		.sleb128 0
 7925 01fb 22       		.byte	0x22
 7926 01fc 23       		.byte	0x23
 7927 01fd C803     		.uleb128 0x1c8
 7928 01ff 94       		.byte	0x94
 7929 0200 01       		.byte	0x1
 7930 0201 08       		.byte	0x8
 7931 0202 FF       		.byte	0xff
 7932 0203 1A       		.byte	0x1a
 7933 0204 40       		.byte	0x40
 7934 0205 24       		.byte	0x24
 7935 0206 21       		.byte	0x21
 7936 0207 7A       		.byte	0x7a
 7937 0208 00       		.sleb128 0
 7938 0209 34       		.byte	0x34
 7939 020a 24       		.byte	0x24
 7940 020b 78       		.byte	0x78
 7941 020c 00       		.sleb128 0
 7942 020d 22       		.byte	0x22
 7943 020e 23       		.byte	0x23
 7944 020f C903     		.uleb128 0x1c9
 7945 0211 94       		.byte	0x94
 7946 0212 01       		.byte	0x1
 7947 0213 08       		.byte	0x8
 7948 0214 FF       		.byte	0xff
 7949 0215 1A       		.byte	0x1a
 7950 0216 48       		.byte	0x48
 7951 0217 24       		.byte	0x24
 7952 0218 21       		.byte	0x21
 7953 0219 7A       		.byte	0x7a
 7954 021a 1B       		.sleb128 27
 7955 021b 34       		.byte	0x34
 7956 021c 24       		.byte	0x24
 7957 021d 78       		.byte	0x78
 7958 021e 00       		.sleb128 0
 7959 021f 22       		.byte	0x22
 7960 0220 23       		.byte	0x23
 7961 0221 16       		.uleb128 0x16
 7962 0222 94       		.byte	0x94
 7963 0223 01       		.byte	0x1
 7964 0224 08       		.byte	0x8
 7965 0225 FF       		.byte	0xff
 7966 0226 1A       		.byte	0x1a
 7967 0227 21       		.byte	0x21
 7968 0228 9F       		.byte	0x9f
 7969 0229 04       		.byte	0x4
 7970 022a B40B     		.uleb128 .LVL109-.Ltext0
 7971 022c BA0B     		.uleb128 .LVL110-.Ltext0
 7972 022e 01       		.uleb128 0x1
 7973 022f 59       		.byte	0x59
 7974 0230 04       		.byte	0x4
 7975 0231 D50C     		.uleb128 .LVL113-.Ltext0
 7976 0233 860D     		.uleb128 .LVL116-.Ltext0
 7977 0235 01       		.uleb128 0x1
 7978 0236 59       		.byte	0x59
 7979 0237 04       		.byte	0x4
 7980 0238 930D     		.uleb128 .LVL119-.Ltext0
 7981 023a 990D     		.uleb128 .LVL120-.Ltext0
 7982 023c 01       		.uleb128 0x1
 7983 023d 59       		.byte	0x59
 7984 023e 04       		.byte	0x4
 7985 023f 990D     		.uleb128 .LVL120-.Ltext0
 7986 0241 9B0D     		.uleb128 .LVL121-.Ltext0
 7987 0243 36       		.uleb128 0x36
 7988 0244 7A       		.byte	0x7a
 7989 0245 00       		.sleb128 0
 7990 0246 34       		.byte	0x34
 7991 0247 24       		.byte	0x24
 7992 0248 78       		.byte	0x78
 7993 0249 00       		.sleb128 0
 7994 024a 22       		.byte	0x22
 7995 024b 23       		.byte	0x23
 7996 024c C703     		.uleb128 0x1c7
 7997 024e 94       		.byte	0x94
 7998 024f 01       		.byte	0x1
 7999 0250 08       		.byte	0x8
 8000 0251 FF       		.byte	0xff
 8001 0252 1A       		.byte	0x1a
 8002 0253 38       		.byte	0x38
 8003 0254 24       		.byte	0x24
 8004 0255 7A       		.byte	0x7a
 8005 0256 00       		.sleb128 0
 8006 0257 34       		.byte	0x34
 8007 0258 24       		.byte	0x24
 8008 0259 78       		.byte	0x78
 8009 025a 00       		.sleb128 0
 8010 025b 22       		.byte	0x22
 8011 025c 23       		.byte	0x23
 8012 025d C903     		.uleb128 0x1c9
 8013 025f 94       		.byte	0x94
 8014 0260 01       		.byte	0x1
 8015 0261 08       		.byte	0x8
 8016 0262 FF       		.byte	0xff
 8017 0263 1A       		.byte	0x1a
 8018 0264 48       		.byte	0x48
 8019 0265 24       		.byte	0x24
 8020 0266 21       		.byte	0x21
 8021 0267 7A       		.byte	0x7a
 8022 0268 1B       		.sleb128 27
 8023 0269 34       		.byte	0x34
 8024 026a 24       		.byte	0x24
 8025 026b 78       		.byte	0x78
 8026 026c 00       		.sleb128 0
 8027 026d 22       		.byte	0x22
 8028 026e 23       		.byte	0x23
 8029 026f 16       		.uleb128 0x16
 8030 0270 94       		.byte	0x94
 8031 0271 01       		.byte	0x1
 8032 0272 08       		.byte	0x8
 8033 0273 FF       		.byte	0xff
 8034 0274 1A       		.byte	0x1a
 8035 0275 21       		.byte	0x21
 8036 0276 72       		.byte	0x72
 8037 0277 00       		.sleb128 0
 8038 0278 21       		.byte	0x21
 8039 0279 9F       		.byte	0x9f
 8040 027a 04       		.byte	0x4
 8041 027b 9B0D     		.uleb128 .LVL121-.Ltext0
 8042 027d A10D     		.uleb128 .LVL122-.Ltext0
 8043 027f 01       		.uleb128 0x1
 8044 0280 59       		.byte	0x59
 8045 0281 04       		.byte	0x4
 8046 0282 A10D     		.uleb128 .LVL122-.Ltext0
 8047 0284 A30D     		.uleb128 .LVL123-.Ltext0
 8048 0286 36       		.uleb128 0x36
 8049 0287 7A       		.byte	0x7a
 8050 0288 00       		.sleb128 0
 8051 0289 34       		.byte	0x34
 8052 028a 24       		.byte	0x24
 8053 028b 78       		.byte	0x78
 8054 028c 00       		.sleb128 0
 8055 028d 22       		.byte	0x22
 8056 028e 23       		.byte	0x23
 8057 028f C703     		.uleb128 0x1c7
 8058 0291 94       		.byte	0x94
 8059 0292 01       		.byte	0x1
 8060 0293 08       		.byte	0x8
 8061 0294 FF       		.byte	0xff
 8062 0295 1A       		.byte	0x1a
 8063 0296 38       		.byte	0x38
 8064 0297 24       		.byte	0x24
 8065 0298 7A       		.byte	0x7a
 8066 0299 00       		.sleb128 0
 8067 029a 34       		.byte	0x34
 8068 029b 24       		.byte	0x24
 8069 029c 78       		.byte	0x78
 8070 029d 00       		.sleb128 0
 8071 029e 22       		.byte	0x22
 8072 029f 23       		.byte	0x23
 8073 02a0 C903     		.uleb128 0x1c9
 8074 02a2 94       		.byte	0x94
 8075 02a3 01       		.byte	0x1
 8076 02a4 08       		.byte	0x8
 8077 02a5 FF       		.byte	0xff
 8078 02a6 1A       		.byte	0x1a
 8079 02a7 48       		.byte	0x48
 8080 02a8 24       		.byte	0x24
 8081 02a9 21       		.byte	0x21
 8082 02aa 7A       		.byte	0x7a
 8083 02ab 1B       		.sleb128 27
 8084 02ac 34       		.byte	0x34
 8085 02ad 24       		.byte	0x24
 8086 02ae 78       		.byte	0x78
 8087 02af 00       		.sleb128 0
 8088 02b0 22       		.byte	0x22
 8089 02b1 23       		.byte	0x23
 8090 02b2 16       		.uleb128 0x16
 8091 02b3 94       		.byte	0x94
 8092 02b4 01       		.byte	0x1
 8093 02b5 08       		.byte	0x8
 8094 02b6 FF       		.byte	0xff
 8095 02b7 1A       		.byte	0x1a
 8096 02b8 21       		.byte	0x21
 8097 02b9 72       		.byte	0x72
 8098 02ba 00       		.sleb128 0
 8099 02bb 21       		.byte	0x21
 8100 02bc 9F       		.byte	0x9f
 8101 02bd 04       		.byte	0x4
 8102 02be A30D     		.uleb128 .LVL123-.Ltext0
 8103 02c0 A90D     		.uleb128 .LVL124-.Ltext0
 8104 02c2 01       		.uleb128 0x1
 8105 02c3 59       		.byte	0x59
 8106 02c4 04       		.byte	0x4
 8107 02c5 A90D     		.uleb128 .LVL124-.Ltext0
 8108 02c7 AB0D     		.uleb128 .LFE18-.Ltext0
 8109 02c9 45       		.uleb128 0x45
 8110 02ca 7A       		.byte	0x7a
 8111 02cb 00       		.sleb128 0
 8112 02cc 34       		.byte	0x34
 8113 02cd 24       		.byte	0x24
 8114 02ce 78       		.byte	0x78
 8115 02cf 00       		.sleb128 0
 8116 02d0 22       		.byte	0x22
 8117 02d1 23       		.byte	0x23
 8118 02d2 C703     		.uleb128 0x1c7
 8119 02d4 94       		.byte	0x94
 8120 02d5 01       		.byte	0x1
 8121 02d6 08       		.byte	0x8
 8122 02d7 FF       		.byte	0xff
 8123 02d8 1A       		.byte	0x1a
 8124 02d9 38       		.byte	0x38
 8125 02da 24       		.byte	0x24
 8126 02db 7A       		.byte	0x7a
 8127 02dc 00       		.sleb128 0
 8128 02dd 34       		.byte	0x34
 8129 02de 24       		.byte	0x24
 8130 02df 78       		.byte	0x78
 8131 02e0 00       		.sleb128 0
 8132 02e1 22       		.byte	0x22
 8133 02e2 23       		.byte	0x23
 8134 02e3 C803     		.uleb128 0x1c8
 8135 02e5 94       		.byte	0x94
 8136 02e6 01       		.byte	0x1
 8137 02e7 08       		.byte	0x8
 8138 02e8 FF       		.byte	0xff
 8139 02e9 1A       		.byte	0x1a
 8140 02ea 40       		.byte	0x40
 8141 02eb 24       		.byte	0x24
 8142 02ec 21       		.byte	0x21
 8143 02ed 7A       		.byte	0x7a
 8144 02ee 00       		.sleb128 0
 8145 02ef 34       		.byte	0x34
 8146 02f0 24       		.byte	0x24
 8147 02f1 78       		.byte	0x78
 8148 02f2 00       		.sleb128 0
 8149 02f3 22       		.byte	0x22
 8150 02f4 23       		.byte	0x23
 8151 02f5 C903     		.uleb128 0x1c9
 8152 02f7 94       		.byte	0x94
 8153 02f8 01       		.byte	0x1
 8154 02f9 08       		.byte	0x8
 8155 02fa FF       		.byte	0xff
 8156 02fb 1A       		.byte	0x1a
 8157 02fc 48       		.byte	0x48
 8158 02fd 24       		.byte	0x24
 8159 02fe 21       		.byte	0x21
 8160 02ff 7A       		.byte	0x7a
 8161 0300 1B       		.sleb128 27
 8162 0301 34       		.byte	0x34
 8163 0302 24       		.byte	0x24
 8164 0303 78       		.byte	0x78
 8165 0304 00       		.sleb128 0
 8166 0305 22       		.byte	0x22
 8167 0306 23       		.byte	0x23
 8168 0307 16       		.uleb128 0x16
 8169 0308 94       		.byte	0x94
 8170 0309 01       		.byte	0x1
 8171 030a 08       		.byte	0x8
 8172 030b FF       		.byte	0xff
 8173 030c 1A       		.byte	0x1a
 8174 030d 21       		.byte	0x21
 8175 030e 9F       		.byte	0x9f
 8176 030f 00       		.byte	0
 8177              	.LVUS56:
 8178 0310 00       		.uleb128 .LVU273
 8179 0311 00       		.uleb128 .LVU293
 8180 0312 00       		.uleb128 .LVU305
 8181 0313 00       		.uleb128 .LVU318
 8182 0314 00       		.uleb128 .LVU321
 8183 0315 00       		.uleb128 0
 8184              	.LLST56:
 8185 0316 04       		.byte	0x4
 8186 0317 E709     		.uleb128 .LVL103-.Ltext0
 8187 0319 BA0B     		.uleb128 .LVL110-.Ltext0
 8188 031b 01       		.uleb128 0x1
 8189 031c 5B       		.byte	0x5b
 8190 031d 04       		.byte	0x4
 8191 031e DA0C     		.uleb128 .LVL114-.Ltext0
 8192 0320 860D     		.uleb128 .LVL116-.Ltext0
 8193 0322 01       		.uleb128 0x1
 8194 0323 5B       		.byte	0x5b
 8195 0324 04       		.byte	0x4
 8196 0325 930D     		.uleb128 .LVL119-.Ltext0
 8197 0327 AB0D     		.uleb128 .LFE18-.Ltext0
 8198 0329 01       		.uleb128 0x1
 8199 032a 5B       		.byte	0x5b
 8200 032b 00       		.byte	0
 8201              	.LVUS57:
 8202 032c 00       		.uleb128 .LVU275
 8203 032d 00       		.uleb128 .LVU278
 8204 032e 00       		.uleb128 .LVU278
 8205 032f 00       		.uleb128 .LVU279
 8206 0330 00       		.uleb128 .LVU325
 8207 0331 00       		.uleb128 0
 8208              	.LLST57:
 8209 0332 04       		.byte	0x4
 8210 0333 EB09     		.uleb128 .LVL104-.Ltext0
 8211 0335 F709     		.uleb128 .LVL105-.Ltext0
 8212 0337 01       		.uleb128 0x1
 8213 0338 51       		.byte	0x51
 8214 0339 04       		.byte	0x4
 8215 033a F709     		.uleb128 .LVL105-.Ltext0
 8216 033c FF09     		.uleb128 .LVL106-.Ltext0
 8217 033e 6E       		.uleb128 0x6e
 8218 033f 70       		.byte	0x70
 8219 0340 00       		.sleb128 0
 8220 0341 34       		.byte	0x34
 8221 0342 24       		.byte	0x24
 8222 0343 78       		.byte	0x78
 8223 0344 00       		.sleb128 0
 8224 0345 22       		.byte	0x22
 8225 0346 23       		.byte	0x23
 8226 0347 CB03     		.uleb128 0x1cb
 8227 0349 94       		.byte	0x94
 8228 034a 01       		.byte	0x1
 8229 034b 08       		.byte	0x8
 8230 034c FF       		.byte	0xff
 8231 034d 1A       		.byte	0x1a
 8232 034e 38       		.byte	0x38
 8233 034f 24       		.byte	0x24
 8234 0350 70       		.byte	0x70
 8235 0351 00       		.sleb128 0
 8236 0352 34       		.byte	0x34
 8237 0353 24       		.byte	0x24
 8238 0354 78       		.byte	0x78
 8239 0355 00       		.sleb128 0
 8240 0356 22       		.byte	0x22
 8241 0357 23       		.byte	0x23
 8242 0358 CC03     		.uleb128 0x1cc
 8243 035a 94       		.byte	0x94
 8244 035b 01       		.byte	0x1
 8245 035c 08       		.byte	0x8
 8246 035d FF       		.byte	0xff
 8247 035e 1A       		.byte	0x1a
 8248 035f 40       		.byte	0x40
 8249 0360 24       		.byte	0x24
 8250 0361 21       		.byte	0x21
 8251 0362 70       		.byte	0x70
 8252 0363 00       		.sleb128 0
 8253 0364 34       		.byte	0x34
 8254 0365 24       		.byte	0x24
 8255 0366 78       		.byte	0x78
 8256 0367 00       		.sleb128 0
 8257 0368 22       		.byte	0x22
 8258 0369 23       		.byte	0x23
 8259 036a CD03     		.uleb128 0x1cd
 8260 036c 94       		.byte	0x94
 8261 036d 01       		.byte	0x1
 8262 036e 08       		.byte	0x8
 8263 036f FF       		.byte	0xff
 8264 0370 1A       		.byte	0x1a
 8265 0371 48       		.byte	0x48
 8266 0372 24       		.byte	0x24
 8267 0373 21       		.byte	0x21
 8268 0374 70       		.byte	0x70
 8269 0375 1B       		.sleb128 27
 8270 0376 34       		.byte	0x34
 8271 0377 24       		.byte	0x24
 8272 0378 78       		.byte	0x78
 8273 0379 00       		.sleb128 0
 8274 037a 22       		.byte	0x22
 8275 037b 23       		.byte	0x23
 8276 037c 1A       		.uleb128 0x1a
 8277 037d 94       		.byte	0x94
 8278 037e 01       		.byte	0x1
 8279 037f 08       		.byte	0x8
 8280 0380 FF       		.byte	0xff
 8281 0381 1A       		.byte	0x1a
 8282 0382 21       		.byte	0x21
 8283 0383 70       		.byte	0x70
 8284 0384 00       		.sleb128 0
 8285 0385 34       		.byte	0x34
 8286 0386 24       		.byte	0x24
 8287 0387 78       		.byte	0x78
 8288 0388 00       		.sleb128 0
 8289 0389 22       		.byte	0x22
 8290 038a 23       		.byte	0x23
 8291 038b C703     		.uleb128 0x1c7
 8292 038d 94       		.byte	0x94
 8293 038e 01       		.byte	0x1
 8294 038f 08       		.byte	0x8
 8295 0390 FF       		.byte	0xff
 8296 0391 1A       		.byte	0x1a
 8297 0392 38       		.byte	0x38
 8298 0393 24       		.byte	0x24
 8299 0394 70       		.byte	0x70
 8300 0395 1B       		.sleb128 27
 8301 0396 34       		.byte	0x34
 8302 0397 24       		.byte	0x24
 8303 0398 78       		.byte	0x78
 8304 0399 00       		.sleb128 0
 8305 039a 22       		.byte	0x22
 8306 039b 23       		.byte	0x23
 8307 039c 16       		.uleb128 0x16
 8308 039d 94       		.byte	0x94
 8309 039e 01       		.byte	0x1
 8310 039f 08       		.byte	0x8
 8311 03a0 FF       		.byte	0xff
 8312 03a1 1A       		.byte	0x1a
 8313 03a2 21       		.byte	0x21
 8314 03a3 75       		.byte	0x75
 8315 03a4 00       		.sleb128 0
 8316 03a5 21       		.byte	0x21
 8317 03a6 74       		.byte	0x74
 8318 03a7 00       		.sleb128 0
 8319 03a8 21       		.byte	0x21
 8320 03a9 22       		.byte	0x22
 8321 03aa 31       		.byte	0x31
 8322 03ab 1C       		.byte	0x1c
 8323 03ac 9F       		.byte	0x9f
 8324 03ad 04       		.byte	0x4
 8325 03ae A30D     		.uleb128 .LVL123-.Ltext0
 8326 03b0 AB0D     		.uleb128 .LFE18-.Ltext0
 8327 03b2 6E       		.uleb128 0x6e
 8328 03b3 70       		.byte	0x70
 8329 03b4 00       		.sleb128 0
 8330 03b5 34       		.byte	0x34
 8331 03b6 24       		.byte	0x24
 8332 03b7 78       		.byte	0x78
 8333 03b8 00       		.sleb128 0
 8334 03b9 22       		.byte	0x22
 8335 03ba 23       		.byte	0x23
 8336 03bb CB03     		.uleb128 0x1cb
 8337 03bd 94       		.byte	0x94
 8338 03be 01       		.byte	0x1
 8339 03bf 08       		.byte	0x8
 8340 03c0 FF       		.byte	0xff
 8341 03c1 1A       		.byte	0x1a
 8342 03c2 38       		.byte	0x38
 8343 03c3 24       		.byte	0x24
 8344 03c4 70       		.byte	0x70
 8345 03c5 00       		.sleb128 0
 8346 03c6 34       		.byte	0x34
 8347 03c7 24       		.byte	0x24
 8348 03c8 78       		.byte	0x78
 8349 03c9 00       		.sleb128 0
 8350 03ca 22       		.byte	0x22
 8351 03cb 23       		.byte	0x23
 8352 03cc CC03     		.uleb128 0x1cc
 8353 03ce 94       		.byte	0x94
 8354 03cf 01       		.byte	0x1
 8355 03d0 08       		.byte	0x8
 8356 03d1 FF       		.byte	0xff
 8357 03d2 1A       		.byte	0x1a
 8358 03d3 40       		.byte	0x40
 8359 03d4 24       		.byte	0x24
 8360 03d5 21       		.byte	0x21
 8361 03d6 70       		.byte	0x70
 8362 03d7 00       		.sleb128 0
 8363 03d8 34       		.byte	0x34
 8364 03d9 24       		.byte	0x24
 8365 03da 78       		.byte	0x78
 8366 03db 00       		.sleb128 0
 8367 03dc 22       		.byte	0x22
 8368 03dd 23       		.byte	0x23
 8369 03de CD03     		.uleb128 0x1cd
 8370 03e0 94       		.byte	0x94
 8371 03e1 01       		.byte	0x1
 8372 03e2 08       		.byte	0x8
 8373 03e3 FF       		.byte	0xff
 8374 03e4 1A       		.byte	0x1a
 8375 03e5 48       		.byte	0x48
 8376 03e6 24       		.byte	0x24
 8377 03e7 21       		.byte	0x21
 8378 03e8 70       		.byte	0x70
 8379 03e9 1B       		.sleb128 27
 8380 03ea 34       		.byte	0x34
 8381 03eb 24       		.byte	0x24
 8382 03ec 78       		.byte	0x78
 8383 03ed 00       		.sleb128 0
 8384 03ee 22       		.byte	0x22
 8385 03ef 23       		.byte	0x23
 8386 03f0 1A       		.uleb128 0x1a
 8387 03f1 94       		.byte	0x94
 8388 03f2 01       		.byte	0x1
 8389 03f3 08       		.byte	0x8
 8390 03f4 FF       		.byte	0xff
 8391 03f5 1A       		.byte	0x1a
 8392 03f6 21       		.byte	0x21
 8393 03f7 70       		.byte	0x70
 8394 03f8 00       		.sleb128 0
 8395 03f9 34       		.byte	0x34
 8396 03fa 24       		.byte	0x24
 8397 03fb 78       		.byte	0x78
 8398 03fc 00       		.sleb128 0
 8399 03fd 22       		.byte	0x22
 8400 03fe 23       		.byte	0x23
 8401 03ff C703     		.uleb128 0x1c7
 8402 0401 94       		.byte	0x94
 8403 0402 01       		.byte	0x1
 8404 0403 08       		.byte	0x8
 8405 0404 FF       		.byte	0xff
 8406 0405 1A       		.byte	0x1a
 8407 0406 38       		.byte	0x38
 8408 0407 24       		.byte	0x24
 8409 0408 70       		.byte	0x70
 8410 0409 1B       		.sleb128 27
 8411 040a 34       		.byte	0x34
 8412 040b 24       		.byte	0x24
 8413 040c 78       		.byte	0x78
 8414 040d 00       		.sleb128 0
 8415 040e 22       		.byte	0x22
 8416 040f 23       		.byte	0x23
 8417 0410 16       		.uleb128 0x16
 8418 0411 94       		.byte	0x94
 8419 0412 01       		.byte	0x1
 8420 0413 08       		.byte	0x8
 8421 0414 FF       		.byte	0xff
 8422 0415 1A       		.byte	0x1a
 8423 0416 21       		.byte	0x21
 8424 0417 75       		.byte	0x75
 8425 0418 00       		.sleb128 0
 8426 0419 21       		.byte	0x21
 8427 041a 74       		.byte	0x74
 8428 041b 00       		.sleb128 0
 8429 041c 21       		.byte	0x21
 8430 041d 22       		.byte	0x22
 8431 041e 31       		.byte	0x31
 8432 041f 1C       		.byte	0x1c
 8433 0420 9F       		.byte	0x9f
 8434 0421 00       		.byte	0
 8435              	.LVUS58:
 8436 0422 00       		.uleb128 .LVU273
 8437 0423 00       		.uleb128 .LVU318
 8438 0424 00       		.uleb128 .LVU321
 8439 0425 00       		.uleb128 0
 8440              	.LLST58:
 8441 0426 04       		.byte	0x4
 8442 0427 E709     		.uleb128 .LVL103-.Ltext0
 8443 0429 860D     		.uleb128 .LVL116-.Ltext0
 8444 042b 01       		.uleb128 0x1
 8445 042c 5A       		.byte	0x5a
 8446 042d 04       		.byte	0x4
 8447 042e 930D     		.uleb128 .LVL119-.Ltext0
 8448 0430 AB0D     		.uleb128 .LFE18-.Ltext0
 8449 0432 01       		.uleb128 0x1
 8450 0433 5A       		.byte	0x5a
 8451 0434 00       		.byte	0
 8452              	.LVUS59:
 8453 0435 00       		.uleb128 .LVU273
 8454 0436 00       		.uleb128 .LVU293
 8455 0437 00       		.uleb128 .LVU317
 8456 0438 00       		.uleb128 .LVU318
 8457 0439 00       		.uleb128 .LVU325
 8458 043a 00       		.uleb128 0
 8459              	.LLST59:
 8460 043b 04       		.byte	0x4
 8461 043c E709     		.uleb128 .LVL103-.Ltext0
 8462 043e BA0B     		.uleb128 .LVL110-.Ltext0
 8463 0440 01       		.uleb128 0x1
 8464 0441 50       		.byte	0x50
 8465 0442 04       		.byte	0x4
 8466 0443 810D     		.uleb128 .LVL115-.Ltext0
 8467 0445 860D     		.uleb128 .LVL116-.Ltext0
 8468 0447 01       		.uleb128 0x1
 8469 0448 50       		.byte	0x50
 8470 0449 04       		.byte	0x4
 8471 044a A30D     		.uleb128 .LVL123-.Ltext0
 8472 044c AB0D     		.uleb128 .LFE18-.Ltext0
 8473 044e 01       		.uleb128 0x1
 8474 044f 50       		.byte	0x50
 8475 0450 00       		.byte	0
 8476              	.LVUS60:
 8477 0451 00       		.uleb128 .LVU273
 8478 0452 00       		.uleb128 .LVU293
 8479 0453 00       		.uleb128 .LVU293
 8480 0454 01       		.uleb128 .LVU301
 8481 0455 01       		.uleb128 .LVU301
 8482 0456 00       		.uleb128 .LVU318
 8483 0457 00       		.uleb128 .LVU321
 8484 0458 00       		.uleb128 0
 8485              	.LLST60:
 8486 0459 04       		.byte	0x4
 8487 045a E709     		.uleb128 .LVL103-.Ltext0
 8488 045c BA0B     		.uleb128 .LVL110-.Ltext0
 8489 045e 02       		.uleb128 0x2
 8490 045f 31       		.byte	0x31
 8491 0460 9F       		.byte	0x9f
 8492 0461 04       		.byte	0x4
 8493 0462 BA0B     		.uleb128 .LVL110-.Ltext0
 8494 0464 960C     		.uleb128 .LVL112-.Ltext0
 8495 0466 01       		.uleb128 0x1
 8496 0467 59       		.byte	0x59
 8497 0468 04       		.byte	0x4
 8498 0469 960C     		.uleb128 .LVL112-.Ltext0
 8499 046b 860D     		.uleb128 .LVL116-.Ltext0
 8500 046d 02       		.uleb128 0x2
 8501 046e 31       		.byte	0x31
 8502 046f 9F       		.byte	0x9f
 8503 0470 04       		.byte	0x4
 8504 0471 930D     		.uleb128 .LVL119-.Ltext0
 8505 0473 AB0D     		.uleb128 .LFE18-.Ltext0
 8506 0475 02       		.uleb128 0x2
 8507 0476 31       		.byte	0x31
 8508 0477 9F       		.byte	0x9f
 8509 0478 00       		.byte	0
 8510              	.LVUS47:
 8511 0479 00       		.uleb128 0
 8512 047a 00       		.uleb128 .LVU223
 8513 047b 00       		.uleb128 .LVU223
 8514 047c 00       		.uleb128 .LVU241
 8515 047d 00       		.uleb128 .LVU241
 8516 047e 00       		.uleb128 0
 8517              	.LLST47:
 8518 047f 04       		.byte	0x4
 8519 0480 B607     		.uleb128 .LVL83-.Ltext0
 8520 0482 D407     		.uleb128 .LVL85-.Ltext0
 8521 0484 01       		.uleb128 0x1
 8522 0485 52       		.byte	0x52
 8523 0486 04       		.byte	0x4
 8524 0487 D407     		.uleb128 .LVL85-.Ltext0
 8525 0489 A208     		.uleb128 .LVL92-.Ltext0
 8526 048b 01       		.uleb128 0x1
 8527 048c 55       		.byte	0x55
 8528 048d 04       		.byte	0x4
 8529 048e A208     		.uleb128 .LVL92-.Ltext0
 8530 0490 BE09     		.uleb128 .LFE17-.Ltext0
 8531 0492 04       		.uleb128 0x4
 8532 0493 A3       		.byte	0xa3
 8533 0494 01       		.uleb128 0x1
 8534 0495 52       		.byte	0x52
 8535 0496 9F       		.byte	0x9f
 8536 0497 00       		.byte	0
 8537              	.LVUS48:
 8538 0498 00       		.uleb128 0
 8539 0499 00       		.uleb128 .LVU222
 8540 049a 00       		.uleb128 .LVU222
 8541 049b 00       		.uleb128 .LVU233
 8542 049c 00       		.uleb128 .LVU233
 8543 049d 00       		.uleb128 0
 8544              	.LLST48:
 8545 049e 04       		.byte	0x4
 8546 049f B607     		.uleb128 .LVL83-.Ltext0
 8547 04a1 CD07     		.uleb128 .LVL84-.Ltext0
 8548 04a3 01       		.uleb128 0x1
 8549 04a4 51       		.byte	0x51
 8550 04a5 04       		.byte	0x4
 8551 04a6 CD07     		.uleb128 .LVL84-.Ltext0
 8552 04a8 FB07     		.uleb128 .LVL89-.Ltext0
 8553 04aa 01       		.uleb128 0x1
 8554 04ab 53       		.byte	0x53
 8555 04ac 04       		.byte	0x4
 8556 04ad FB07     		.uleb128 .LVL89-.Ltext0
 8557 04af BE09     		.uleb128 .LFE17-.Ltext0
 8558 04b1 04       		.uleb128 0x4
 8559 04b2 A3       		.byte	0xa3
 8560 04b3 01       		.uleb128 0x1
 8561 04b4 51       		.byte	0x51
 8562 04b5 9F       		.byte	0x9f
 8563 04b6 00       		.byte	0
 8564              	.LVUS49:
 8565 04b7 00       		.uleb128 .LVU224
 8566 04b8 00       		.uleb128 .LVU232
 8567 04b9 00       		.uleb128 .LVU232
 8568 04ba 00       		.uleb128 .LVU236
 8569 04bb 00       		.uleb128 .LVU236
 8570 04bc 00       		.uleb128 .LVU239
 8571 04bd 00       		.uleb128 .LVU239
 8572 04be 00       		.uleb128 .LVU261
 8573 04bf 00       		.uleb128 .LVU262
 8574 04c0 00       		.uleb128 0
 8575              	.LLST49:
 8576 04c1 04       		.byte	0x4
 8577 04c2 DC07     		.uleb128 .LVL87-.Ltext0
 8578 04c4 F707     		.uleb128 .LVL88-1-.Ltext0
 8579 04c6 01       		.uleb128 0x1
 8580 04c7 50       		.byte	0x50
 8581 04c8 04       		.byte	0x4
 8582 04c9 F707     		.uleb128 .LVL88-1-.Ltext0
 8583 04cb 8B08     		.uleb128 .LVL90-.Ltext0
 8584 04cd 01       		.uleb128 0x1
 8585 04ce 54       		.byte	0x54
 8586 04cf 04       		.byte	0x4
 8587 04d0 8B08     		.uleb128 .LVL90-.Ltext0
 8588 04d2 9708     		.uleb128 .LVL91-1-.Ltext0
 8589 04d4 01       		.uleb128 0x1
 8590 04d5 50       		.byte	0x50
 8591 04d6 04       		.byte	0x4
 8592 04d7 9708     		.uleb128 .LVL91-1-.Ltext0
 8593 04d9 B009     		.uleb128 .LVL100-.Ltext0
 8594 04db 01       		.uleb128 0x1
 8595 04dc 54       		.byte	0x54
 8596 04dd 04       		.byte	0x4
 8597 04de B209     		.uleb128 .LVL101-.Ltext0
 8598 04e0 BE09     		.uleb128 .LFE17-.Ltext0
 8599 04e2 01       		.uleb128 0x1
 8600 04e3 54       		.byte	0x54
 8601 04e4 00       		.byte	0
 8602              	.LVUS50:
 8603 04e5 00       		.uleb128 .LVU233
 8604 04e6 00       		.uleb128 .LVU236
 8605 04e7 00       		.uleb128 .LVU242
 8606 04e8 00       		.uleb128 .LVU260
 8607 04e9 00       		.uleb128 .LVU262
 8608 04ea 00       		.uleb128 0
 8609              	.LLST50:
 8610 04eb 04       		.byte	0x4
 8611 04ec FB07     		.uleb128 .LVL89-.Ltext0
 8612 04ee 8B08     		.uleb128 .LVL90-.Ltext0
 8613 04f0 01       		.uleb128 0x1
 8614 04f1 50       		.byte	0x50
 8615 04f2 04       		.byte	0x4
 8616 04f3 A708     		.uleb128 .LVL93-.Ltext0
 8617 04f5 A709     		.uleb128 .LVL99-.Ltext0
 8618 04f7 01       		.uleb128 0x1
 8619 04f8 53       		.byte	0x53
 8620 04f9 04       		.byte	0x4
 8621 04fa B209     		.uleb128 .LVL101-.Ltext0
 8622 04fc BE09     		.uleb128 .LFE17-.Ltext0
 8623 04fe 01       		.uleb128 0x1
 8624 04ff 50       		.byte	0x50
 8625 0500 00       		.byte	0
 8626              	.LVUS51:
 8627 0501 00       		.uleb128 .LVU242
 8628 0502 00       		.uleb128 .LVU255
 8629              	.LLST51:
 8630 0503 04       		.byte	0x4
 8631 0504 A708     		.uleb128 .LVL93-.Ltext0
 8632 0506 8609     		.uleb128 .LVL95-.Ltext0
 8633 0508 01       		.uleb128 0x1
 8634 0509 51       		.byte	0x51
 8635 050a 00       		.byte	0
 8636              	.LVUS52:
 8637 050b 00       		.uleb128 .LVU256
 8638 050c 00       		.uleb128 .LVU257
 8639 050d 00       		.uleb128 .LVU257
 8640 050e 00       		.uleb128 .LVU260
 8641              	.LLST52:
 8642 050f 04       		.byte	0x4
 8643 0510 9209     		.uleb128 .LVL97-.Ltext0
 8644 0512 9909     		.uleb128 .LVL98-1-.Ltext0
 8645 0514 01       		.uleb128 0x1
 8646 0515 50       		.byte	0x50
 8647 0516 04       		.byte	0x4
 8648 0517 9909     		.uleb128 .LVL98-1-.Ltext0
 8649 0519 A709     		.uleb128 .LVL99-.Ltext0
 8650 051b 01       		.uleb128 0x1
 8651 051c 55       		.byte	0x55
 8652 051d 00       		.byte	0
 8653              	.LVUS42:
 8654 051e 00       		.uleb128 0
 8655 051f 00       		.uleb128 .LVU210
 8656 0520 00       		.uleb128 .LVU210
 8657 0521 00       		.uleb128 0
 8658              	.LLST42:
 8659 0522 04       		.byte	0x4
 8660 0523 8F07     		.uleb128 .LVL79-.Ltext0
 8661 0525 B007     		.uleb128 .LVL82-1-.Ltext0
 8662 0527 01       		.uleb128 0x1
 8663 0528 52       		.byte	0x52
 8664 0529 04       		.byte	0x4
 8665 052a B007     		.uleb128 .LVL82-1-.Ltext0
 8666 052c B607     		.uleb128 .LFE16-.Ltext0
 8667 052e 04       		.uleb128 0x4
 8668 052f A3       		.byte	0xa3
 8669 0530 01       		.uleb128 0x1
 8670 0531 52       		.byte	0x52
 8671 0532 9F       		.byte	0x9f
 8672 0533 00       		.byte	0
 8673              	.LVUS43:
 8674 0534 00       		.uleb128 0
 8675 0535 00       		.uleb128 .LVU210
 8676 0536 00       		.uleb128 .LVU210
 8677 0537 00       		.uleb128 0
 8678              	.LLST43:
 8679 0538 04       		.byte	0x4
 8680 0539 8F07     		.uleb128 .LVL79-.Ltext0
 8681 053b B007     		.uleb128 .LVL82-1-.Ltext0
 8682 053d 01       		.uleb128 0x1
 8683 053e 51       		.byte	0x51
 8684 053f 04       		.byte	0x4
 8685 0540 B007     		.uleb128 .LVL82-1-.Ltext0
 8686 0542 B607     		.uleb128 .LFE16-.Ltext0
 8687 0544 04       		.uleb128 0x4
 8688 0545 A3       		.byte	0xa3
 8689 0546 01       		.uleb128 0x1
 8690 0547 51       		.byte	0x51
 8691 0548 9F       		.byte	0x9f
 8692 0549 00       		.byte	0
 8693              	.LVUS44:
 8694 054a 00       		.uleb128 0
 8695 054b 00       		.uleb128 .LVU209
 8696 054c 00       		.uleb128 .LVU209
 8697 054d 00       		.uleb128 .LVU210
 8698 054e 00       		.uleb128 .LVU210
 8699 054f 00       		.uleb128 0
 8700              	.LLST44:
 8701 0550 04       		.byte	0x4
 8702 0551 8F07     		.uleb128 .LVL79-.Ltext0
 8703 0553 AF07     		.uleb128 .LVL81-.Ltext0
 8704 0555 01       		.uleb128 0x1
 8705 0556 58       		.byte	0x58
 8706 0557 04       		.byte	0x4
 8707 0558 AF07     		.uleb128 .LVL81-.Ltext0
 8708 055a B007     		.uleb128 .LVL82-1-.Ltext0
 8709 055c 01       		.uleb128 0x1
 8710 055d 59       		.byte	0x59
 8711 055e 04       		.byte	0x4
 8712 055f B007     		.uleb128 .LVL82-1-.Ltext0
 8713 0561 B607     		.uleb128 .LFE16-.Ltext0
 8714 0563 04       		.uleb128 0x4
 8715 0564 A3       		.byte	0xa3
 8716 0565 01       		.uleb128 0x1
 8717 0566 58       		.byte	0x58
 8718 0567 9F       		.byte	0x9f
 8719 0568 00       		.byte	0
 8720              	.LVUS45:
 8721 0569 00       		.uleb128 0
 8722 056a 00       		.uleb128 .LVU208
 8723 056b 00       		.uleb128 .LVU208
 8724 056c 00       		.uleb128 .LVU210
 8725 056d 00       		.uleb128 .LVU210
 8726 056e 00       		.uleb128 0
 8727              	.LLST45:
 8728 056f 04       		.byte	0x4
 8729 0570 8F07     		.uleb128 .LVL79-.Ltext0
 8730 0572 A907     		.uleb128 .LVL80-.Ltext0
 8731 0574 01       		.uleb128 0x1
 8732 0575 59       		.byte	0x59
 8733 0576 04       		.byte	0x4
 8734 0577 A907     		.uleb128 .LVL80-.Ltext0
 8735 0579 B007     		.uleb128 .LVL82-1-.Ltext0
 8736 057b 02       		.uleb128 0x2
 8737 057c 91       		.byte	0x91
 8738 057d 60       		.sleb128 -32
 8739 057e 04       		.byte	0x4
 8740 057f B007     		.uleb128 .LVL82-1-.Ltext0
 8741 0581 B607     		.uleb128 .LFE16-.Ltext0
 8742 0583 04       		.uleb128 0x4
 8743 0584 A3       		.byte	0xa3
 8744 0585 01       		.uleb128 0x1
 8745 0586 59       		.byte	0x59
 8746 0587 9F       		.byte	0x9f
 8747 0588 00       		.byte	0
 8748              	.LVUS46:
 8749 0589 00       		.uleb128 .LVU210
 8750 058a 00       		.uleb128 0
 8751              	.LLST46:
 8752 058b 04       		.byte	0x4
 8753 058c B107     		.uleb128 .LVL82-.Ltext0
 8754 058e B607     		.uleb128 .LFE16-.Ltext0
 8755 0590 01       		.uleb128 0x1
 8756 0591 50       		.byte	0x50
 8757 0592 00       		.byte	0
 8758              	.LVUS37:
 8759 0593 00       		.uleb128 0
 8760 0594 00       		.uleb128 .LVU200
 8761 0595 00       		.uleb128 .LVU200
 8762 0596 00       		.uleb128 0
 8763              	.LLST37:
 8764 0597 04       		.byte	0x4
 8765 0598 E806     		.uleb128 .LVL75-.Ltext0
 8766 059a 8907     		.uleb128 .LVL78-1-.Ltext0
 8767 059c 01       		.uleb128 0x1
 8768 059d 52       		.byte	0x52
 8769 059e 04       		.byte	0x4
 8770 059f 8907     		.uleb128 .LVL78-1-.Ltext0
 8771 05a1 8F07     		.uleb128 .LFE15-.Ltext0
 8772 05a3 04       		.uleb128 0x4
 8773 05a4 A3       		.byte	0xa3
 8774 05a5 01       		.uleb128 0x1
 8775 05a6 52       		.byte	0x52
 8776 05a7 9F       		.byte	0x9f
 8777 05a8 00       		.byte	0
 8778              	.LVUS38:
 8779 05a9 00       		.uleb128 0
 8780 05aa 00       		.uleb128 .LVU200
 8781 05ab 00       		.uleb128 .LVU200
 8782 05ac 00       		.uleb128 0
 8783              	.LLST38:
 8784 05ad 04       		.byte	0x4
 8785 05ae E806     		.uleb128 .LVL75-.Ltext0
 8786 05b0 8907     		.uleb128 .LVL78-1-.Ltext0
 8787 05b2 01       		.uleb128 0x1
 8788 05b3 51       		.byte	0x51
 8789 05b4 04       		.byte	0x4
 8790 05b5 8907     		.uleb128 .LVL78-1-.Ltext0
 8791 05b7 8F07     		.uleb128 .LFE15-.Ltext0
 8792 05b9 04       		.uleb128 0x4
 8793 05ba A3       		.byte	0xa3
 8794 05bb 01       		.uleb128 0x1
 8795 05bc 51       		.byte	0x51
 8796 05bd 9F       		.byte	0x9f
 8797 05be 00       		.byte	0
 8798              	.LVUS39:
 8799 05bf 00       		.uleb128 0
 8800 05c0 00       		.uleb128 .LVU199
 8801 05c1 00       		.uleb128 .LVU199
 8802 05c2 00       		.uleb128 .LVU200
 8803 05c3 00       		.uleb128 .LVU200
 8804 05c4 00       		.uleb128 0
 8805              	.LLST39:
 8806 05c5 04       		.byte	0x4
 8807 05c6 E806     		.uleb128 .LVL75-.Ltext0
 8808 05c8 8807     		.uleb128 .LVL77-.Ltext0
 8809 05ca 01       		.uleb128 0x1
 8810 05cb 58       		.byte	0x58
 8811 05cc 04       		.byte	0x4
 8812 05cd 8807     		.uleb128 .LVL77-.Ltext0
 8813 05cf 8907     		.uleb128 .LVL78-1-.Ltext0
 8814 05d1 01       		.uleb128 0x1
 8815 05d2 59       		.byte	0x59
 8816 05d3 04       		.byte	0x4
 8817 05d4 8907     		.uleb128 .LVL78-1-.Ltext0
 8818 05d6 8F07     		.uleb128 .LFE15-.Ltext0
 8819 05d8 04       		.uleb128 0x4
 8820 05d9 A3       		.byte	0xa3
 8821 05da 01       		.uleb128 0x1
 8822 05db 58       		.byte	0x58
 8823 05dc 9F       		.byte	0x9f
 8824 05dd 00       		.byte	0
 8825              	.LVUS40:
 8826 05de 00       		.uleb128 0
 8827 05df 00       		.uleb128 .LVU198
 8828 05e0 00       		.uleb128 .LVU198
 8829 05e1 00       		.uleb128 .LVU200
 8830 05e2 00       		.uleb128 .LVU200
 8831 05e3 00       		.uleb128 0
 8832              	.LLST40:
 8833 05e4 04       		.byte	0x4
 8834 05e5 E806     		.uleb128 .LVL75-.Ltext0
 8835 05e7 8207     		.uleb128 .LVL76-.Ltext0
 8836 05e9 01       		.uleb128 0x1
 8837 05ea 59       		.byte	0x59
 8838 05eb 04       		.byte	0x4
 8839 05ec 8207     		.uleb128 .LVL76-.Ltext0
 8840 05ee 8907     		.uleb128 .LVL78-1-.Ltext0
 8841 05f0 02       		.uleb128 0x2
 8842 05f1 91       		.byte	0x91
 8843 05f2 60       		.sleb128 -32
 8844 05f3 04       		.byte	0x4
 8845 05f4 8907     		.uleb128 .LVL78-1-.Ltext0
 8846 05f6 8F07     		.uleb128 .LFE15-.Ltext0
 8847 05f8 04       		.uleb128 0x4
 8848 05f9 A3       		.byte	0xa3
 8849 05fa 01       		.uleb128 0x1
 8850 05fb 59       		.byte	0x59
 8851 05fc 9F       		.byte	0x9f
 8852 05fd 00       		.byte	0
 8853              	.LVUS41:
 8854 05fe 00       		.uleb128 .LVU200
 8855 05ff 00       		.uleb128 0
 8856              	.LLST41:
 8857 0600 04       		.byte	0x4
 8858 0601 8A07     		.uleb128 .LVL78-.Ltext0
 8859 0603 8F07     		.uleb128 .LFE15-.Ltext0
 8860 0605 01       		.uleb128 0x1
 8861 0606 50       		.byte	0x50
 8862 0607 00       		.byte	0
 8863              	.LVUS33:
 8864 0608 00       		.uleb128 0
 8865 0609 00       		.uleb128 .LVU178
 8866 060a 00       		.uleb128 .LVU178
 8867 060b 00       		.uleb128 .LVU185
 8868 060c 00       		.uleb128 .LVU185
 8869 060d 00       		.uleb128 .LVU190
 8870 060e 00       		.uleb128 .LVU190
 8871 060f 00       		.uleb128 .LVU191
 8872 0610 00       		.uleb128 .LVU191
 8873 0611 00       		.uleb128 0
 8874              	.LLST33:
 8875 0612 04       		.byte	0x4
 8876 0613 8106     		.uleb128 .LVL64-.Ltext0
 8877 0615 9206     		.uleb128 .LVL65-1-.Ltext0
 8878 0617 01       		.uleb128 0x1
 8879 0618 52       		.byte	0x52
 8880 0619 04       		.byte	0x4
 8881 061a 9206     		.uleb128 .LVL65-1-.Ltext0
 8882 061c C906     		.uleb128 .LVL69-.Ltext0
 8883 061e 01       		.uleb128 0x1
 8884 061f 54       		.byte	0x54
 8885 0620 04       		.byte	0x4
 8886 0621 C906     		.uleb128 .LVL69-.Ltext0
 8887 0623 DC06     		.uleb128 .LVL73-.Ltext0
 8888 0625 04       		.uleb128 0x4
 8889 0626 A3       		.byte	0xa3
 8890 0627 01       		.uleb128 0x1
 8891 0628 52       		.byte	0x52
 8892 0629 9F       		.byte	0x9f
 8893 062a 04       		.byte	0x4
 8894 062b DC06     		.uleb128 .LVL73-.Ltext0
 8895 062d E606     		.uleb128 .LVL74-.Ltext0
 8896 062f 01       		.uleb128 0x1
 8897 0630 54       		.byte	0x54
 8898 0631 04       		.byte	0x4
 8899 0632 E606     		.uleb128 .LVL74-.Ltext0
 8900 0634 E806     		.uleb128 .LFE14-.Ltext0
 8901 0636 04       		.uleb128 0x4
 8902 0637 A3       		.byte	0xa3
 8903 0638 01       		.uleb128 0x1
 8904 0639 52       		.byte	0x52
 8905 063a 9F       		.byte	0x9f
 8906 063b 00       		.byte	0
 8907              	.LVUS34:
 8908 063c 00       		.uleb128 0
 8909 063d 00       		.uleb128 .LVU178
 8910 063e 00       		.uleb128 .LVU178
 8911 063f 00       		.uleb128 .LVU189
 8912 0640 00       		.uleb128 .LVU189
 8913 0641 00       		.uleb128 .LVU190
 8914 0642 00       		.uleb128 .LVU190
 8915 0643 00       		.uleb128 0
 8916              	.LLST34:
 8917 0644 04       		.byte	0x4
 8918 0645 8106     		.uleb128 .LVL64-.Ltext0
 8919 0647 9206     		.uleb128 .LVL65-1-.Ltext0
 8920 0649 01       		.uleb128 0x1
 8921 064a 51       		.byte	0x51
 8922 064b 04       		.byte	0x4
 8923 064c 9206     		.uleb128 .LVL65-1-.Ltext0
 8924 064e DB06     		.uleb128 .LVL72-.Ltext0
 8925 0650 01       		.uleb128 0x1
 8926 0651 55       		.byte	0x55
 8927 0652 04       		.byte	0x4
 8928 0653 DB06     		.uleb128 .LVL72-.Ltext0
 8929 0655 DC06     		.uleb128 .LVL73-.Ltext0
 8930 0657 04       		.uleb128 0x4
 8931 0658 A3       		.byte	0xa3
 8932 0659 01       		.uleb128 0x1
 8933 065a 51       		.byte	0x51
 8934 065b 9F       		.byte	0x9f
 8935 065c 04       		.byte	0x4
 8936 065d DC06     		.uleb128 .LVL73-.Ltext0
 8937 065f E806     		.uleb128 .LFE14-.Ltext0
 8938 0661 01       		.uleb128 0x1
 8939 0662 55       		.byte	0x55
 8940 0663 00       		.byte	0
 8941              	.LVUS35:
 8942 0664 00       		.uleb128 .LVU179
 8943 0665 00       		.uleb128 .LVU184
 8944 0666 00       		.uleb128 .LVU184
 8945 0667 00       		.uleb128 .LVU188
 8946 0668 00       		.uleb128 .LVU190
 8947 0669 00       		.uleb128 0
 8948              	.LLST35:
 8949 066a 04       		.byte	0x4
 8950 066b 9606     		.uleb128 .LVL66-.Ltext0
 8951 066d A206     		.uleb128 .LVL67-.Ltext0
 8952 066f 01       		.uleb128 0x1
 8953 0670 50       		.byte	0x50
 8954 0671 04       		.byte	0x4
 8955 0672 A206     		.uleb128 .LVL67-.Ltext0
 8956 0674 D906     		.uleb128 .LVL71-.Ltext0
 8957 0676 01       		.uleb128 0x1
 8958 0677 53       		.byte	0x53
 8959 0678 04       		.byte	0x4
 8960 0679 DC06     		.uleb128 .LVL73-.Ltext0
 8961 067b E806     		.uleb128 .LFE14-.Ltext0
 8962 067d 01       		.uleb128 0x1
 8963 067e 50       		.byte	0x50
 8964 067f 00       		.byte	0
 8965              	.LVUS36:
 8966 0680 01       		.uleb128 .LVU180
 8967 0681 00       		.uleb128 .LVU185
 8968 0682 00       		.uleb128 .LVU185
 8969 0683 00       		.uleb128 .LVU187
 8970 0684 00       		.uleb128 .LVU187
 8971 0685 00       		.uleb128 .LVU187
 8972 0686 00       		.uleb128 .LVU190
 8973 0687 00       		.uleb128 0
 8974              	.LLST36:
 8975 0688 04       		.byte	0x4
 8976 0689 9606     		.uleb128 .LVL66-.Ltext0
 8977 068b C906     		.uleb128 .LVL69-.Ltext0
 8978 068d 0A       		.uleb128 0xa
 8979 068e 9E       		.byte	0x9e
 8980 068f 08       		.uleb128 0x8
 8981 0690 0E000000 		.quad	0x800000000000000e
 8981      00000080 
 8982 0698 04       		.byte	0x4
 8983 0699 C906     		.uleb128 .LVL69-.Ltext0
 8984 069b D006     		.uleb128 .LVL70-1-.Ltext0
 8985 069d 01       		.uleb128 0x1
 8986 069e 50       		.byte	0x50
 8987 069f 04       		.byte	0x4
 8988 06a0 D006     		.uleb128 .LVL70-1-.Ltext0
 8989 06a2 D106     		.uleb128 .LVL70-.Ltext0
 8990 06a4 01       		.uleb128 0x1
 8991 06a5 54       		.byte	0x54
 8992 06a6 04       		.byte	0x4
 8993 06a7 DC06     		.uleb128 .LVL73-.Ltext0
 8994 06a9 E806     		.uleb128 .LFE14-.Ltext0
 8995 06ab 0A       		.uleb128 0xa
 8996 06ac 9E       		.byte	0x9e
 8997 06ad 08       		.uleb128 0x8
 8998 06ae 0E000000 		.quad	0x800000000000000e
 8998      00000080 
 8999 06b6 00       		.byte	0
 9000              	.LVUS31:
 9001 06b7 00       		.uleb128 0
 9002 06b8 00       		.uleb128 .LVU171
 9003 06b9 00       		.uleb128 .LVU171
 9004 06ba 00       		.uleb128 0
 9005              	.LLST31:
 9006 06bb 04       		.byte	0x4
 9007 06bc EE05     		.uleb128 .LVL62-.Ltext0
 9008 06be FB05     		.uleb128 .LVL63-1-.Ltext0
 9009 06c0 01       		.uleb128 0x1
 9010 06c1 52       		.byte	0x52
 9011 06c2 04       		.byte	0x4
 9012 06c3 FB05     		.uleb128 .LVL63-1-.Ltext0
 9013 06c5 8106     		.uleb128 .LFE13-.Ltext0
 9014 06c7 04       		.uleb128 0x4
 9015 06c8 A3       		.byte	0xa3
 9016 06c9 01       		.uleb128 0x1
 9017 06ca 52       		.byte	0x52
 9018 06cb 9F       		.byte	0x9f
 9019 06cc 00       		.byte	0
 9020              	.LVUS32:
 9021 06cd 00       		.uleb128 0
 9022 06ce 00       		.uleb128 .LVU171
 9023 06cf 00       		.uleb128 .LVU171
 9024 06d0 00       		.uleb128 0
 9025              	.LLST32:
 9026 06d1 04       		.byte	0x4
 9027 06d2 EE05     		.uleb128 .LVL62-.Ltext0
 9028 06d4 FB05     		.uleb128 .LVL63-1-.Ltext0
 9029 06d6 01       		.uleb128 0x1
 9030 06d7 51       		.byte	0x51
 9031 06d8 04       		.byte	0x4
 9032 06d9 FB05     		.uleb128 .LVL63-1-.Ltext0
 9033 06db 8106     		.uleb128 .LFE13-.Ltext0
 9034 06dd 04       		.uleb128 0x4
 9035 06de A3       		.byte	0xa3
 9036 06df 01       		.uleb128 0x1
 9037 06e0 51       		.byte	0x51
 9038 06e1 9F       		.byte	0x9f
 9039 06e2 00       		.byte	0
 9040              	.LVUS28:
 9041 06e3 00       		.uleb128 0
 9042 06e4 00       		.uleb128 .LVU150
 9043 06e5 00       		.uleb128 .LVU150
 9044 06e6 00       		.uleb128 .LVU162
 9045 06e7 00       		.uleb128 .LVU162
 9046 06e8 00       		.uleb128 .LVU164
 9047 06e9 00       		.uleb128 .LVU164
 9048 06ea 00       		.uleb128 0
 9049              	.LLST28:
 9050 06eb 04       		.byte	0x4
 9051 06ec D304     		.uleb128 .LVL54-.Ltext0
 9052 06ee 8005     		.uleb128 .LVL55-.Ltext0
 9053 06f0 01       		.uleb128 0x1
 9054 06f1 52       		.byte	0x52
 9055 06f2 04       		.byte	0x4
 9056 06f3 8005     		.uleb128 .LVL55-.Ltext0
 9057 06f5 E305     		.uleb128 .LVL59-.Ltext0
 9058 06f7 01       		.uleb128 0x1
 9059 06f8 54       		.byte	0x54
 9060 06f9 04       		.byte	0x4
 9061 06fa E305     		.uleb128 .LVL59-.Ltext0
 9062 06fc E505     		.uleb128 .LVL61-.Ltext0
 9063 06fe 04       		.uleb128 0x4
 9064 06ff A3       		.byte	0xa3
 9065 0700 01       		.uleb128 0x1
 9066 0701 52       		.byte	0x52
 9067 0702 9F       		.byte	0x9f
 9068 0703 04       		.byte	0x4
 9069 0704 E505     		.uleb128 .LVL61-.Ltext0
 9070 0706 EE05     		.uleb128 .LFE12-.Ltext0
 9071 0708 01       		.uleb128 0x1
 9072 0709 54       		.byte	0x54
 9073 070a 00       		.byte	0
 9074              	.LVUS29:
 9075 070b 00       		.uleb128 0
 9076 070c 00       		.uleb128 .LVU150
 9077 070d 00       		.uleb128 .LVU150
 9078 070e 00       		.uleb128 .LVU161
 9079 070f 00       		.uleb128 .LVU161
 9080 0710 00       		.uleb128 .LVU164
 9081 0711 00       		.uleb128 .LVU164
 9082 0712 00       		.uleb128 0
 9083              	.LLST29:
 9084 0713 04       		.byte	0x4
 9085 0714 D304     		.uleb128 .LVL54-.Ltext0
 9086 0716 8005     		.uleb128 .LVL55-.Ltext0
 9087 0718 01       		.uleb128 0x1
 9088 0719 51       		.byte	0x51
 9089 071a 04       		.byte	0x4
 9090 071b 8005     		.uleb128 .LVL55-.Ltext0
 9091 071d E205     		.uleb128 .LVL58-.Ltext0
 9092 071f 01       		.uleb128 0x1
 9093 0720 53       		.byte	0x53
 9094 0721 04       		.byte	0x4
 9095 0722 E205     		.uleb128 .LVL58-.Ltext0
 9096 0724 E505     		.uleb128 .LVL61-.Ltext0
 9097 0726 04       		.uleb128 0x4
 9098 0727 A3       		.byte	0xa3
 9099 0728 01       		.uleb128 0x1
 9100 0729 51       		.byte	0x51
 9101 072a 9F       		.byte	0x9f
 9102 072b 04       		.byte	0x4
 9103 072c E505     		.uleb128 .LVL61-.Ltext0
 9104 072e EE05     		.uleb128 .LFE12-.Ltext0
 9105 0730 01       		.uleb128 0x1
 9106 0731 53       		.byte	0x53
 9107 0732 00       		.byte	0
 9108              	.LVUS30:
 9109 0733 00       		.uleb128 0
 9110 0734 00       		.uleb128 .LVU150
 9111 0735 00       		.uleb128 .LVU150
 9112 0736 00       		.uleb128 .LVU163
 9113 0737 00       		.uleb128 .LVU163
 9114 0738 00       		.uleb128 .LVU164
 9115 0739 00       		.uleb128 .LVU164
 9116 073a 00       		.uleb128 0
 9117              	.LLST30:
 9118 073b 04       		.byte	0x4
 9119 073c D304     		.uleb128 .LVL54-.Ltext0
 9120 073e 8005     		.uleb128 .LVL55-.Ltext0
 9121 0740 01       		.uleb128 0x1
 9122 0741 58       		.byte	0x58
 9123 0742 04       		.byte	0x4
 9124 0743 8005     		.uleb128 .LVL55-.Ltext0
 9125 0745 E405     		.uleb128 .LVL60-.Ltext0
 9126 0747 01       		.uleb128 0x1
 9127 0748 55       		.byte	0x55
 9128 0749 04       		.byte	0x4
 9129 074a E405     		.uleb128 .LVL60-.Ltext0
 9130 074c E505     		.uleb128 .LVL61-.Ltext0
 9131 074e 04       		.uleb128 0x4
 9132 074f A3       		.byte	0xa3
 9133 0750 01       		.uleb128 0x1
 9134 0751 58       		.byte	0x58
 9135 0752 9F       		.byte	0x9f
 9136 0753 04       		.byte	0x4
 9137 0754 E505     		.uleb128 .LVL61-.Ltext0
 9138 0756 EE05     		.uleb128 .LFE12-.Ltext0
 9139 0758 01       		.uleb128 0x1
 9140 0759 55       		.byte	0x55
 9141 075a 00       		.byte	0
 9142              	.LVUS24:
 9143 075b 00       		.uleb128 0
 9144 075c 00       		.uleb128 .LVU122
 9145 075d 00       		.uleb128 .LVU122
 9146 075e 00       		.uleb128 .LVU137
 9147 075f 00       		.uleb128 .LVU137
 9148 0760 00       		.uleb128 0
 9149              	.LLST24:
 9150 0761 04       		.byte	0x4
 9151 0762 B903     		.uleb128 .LVL46-.Ltext0
 9152 0764 EA03     		.uleb128 .LVL47-.Ltext0
 9153 0766 01       		.uleb128 0x1
 9154 0767 52       		.byte	0x52
 9155 0768 04       		.byte	0x4
 9156 0769 EA03     		.uleb128 .LVL47-.Ltext0
 9157 076b D204     		.uleb128 .LVL53-.Ltext0
 9158 076d 01       		.uleb128 0x1
 9159 076e 56       		.byte	0x56
 9160 076f 04       		.byte	0x4
 9161 0770 D204     		.uleb128 .LVL53-.Ltext0
 9162 0772 D304     		.uleb128 .LFE11-.Ltext0
 9163 0774 04       		.uleb128 0x4
 9164 0775 A3       		.byte	0xa3
 9165 0776 01       		.uleb128 0x1
 9166 0777 52       		.byte	0x52
 9167 0778 9F       		.byte	0x9f
 9168 0779 00       		.byte	0
 9169              	.LVUS25:
 9170 077a 00       		.uleb128 0
 9171 077b 00       		.uleb128 .LVU122
 9172 077c 00       		.uleb128 .LVU122
 9173 077d 00       		.uleb128 .LVU136
 9174 077e 00       		.uleb128 .LVU136
 9175 077f 00       		.uleb128 0
 9176              	.LLST25:
 9177 0780 04       		.byte	0x4
 9178 0781 B903     		.uleb128 .LVL46-.Ltext0
 9179 0783 EA03     		.uleb128 .LVL47-.Ltext0
 9180 0785 01       		.uleb128 0x1
 9181 0786 51       		.byte	0x51
 9182 0787 04       		.byte	0x4
 9183 0788 EA03     		.uleb128 .LVL47-.Ltext0
 9184 078a D104     		.uleb128 .LVL52-.Ltext0
 9185 078c 01       		.uleb128 0x1
 9186 078d 55       		.byte	0x55
 9187 078e 04       		.byte	0x4
 9188 078f D104     		.uleb128 .LVL52-.Ltext0
 9189 0791 D304     		.uleb128 .LFE11-.Ltext0
 9190 0793 04       		.uleb128 0x4
 9191 0794 A3       		.byte	0xa3
 9192 0795 01       		.uleb128 0x1
 9193 0796 51       		.byte	0x51
 9194 0797 9F       		.byte	0x9f
 9195 0798 00       		.byte	0
 9196              	.LVUS26:
 9197 0799 00       		.uleb128 0
 9198 079a 00       		.uleb128 .LVU122
 9199 079b 00       		.uleb128 .LVU122
 9200 079c 00       		.uleb128 .LVU134
 9201 079d 00       		.uleb128 .LVU134
 9202 079e 00       		.uleb128 0
 9203              	.LLST26:
 9204 079f 04       		.byte	0x4
 9205 07a0 B903     		.uleb128 .LVL46-.Ltext0
 9206 07a2 EA03     		.uleb128 .LVL47-.Ltext0
 9207 07a4 01       		.uleb128 0x1
 9208 07a5 58       		.byte	0x58
 9209 07a6 04       		.byte	0x4
 9210 07a7 EA03     		.uleb128 .LVL47-.Ltext0
 9211 07a9 CF04     		.uleb128 .LVL50-.Ltext0
 9212 07ab 01       		.uleb128 0x1
 9213 07ac 53       		.byte	0x53
 9214 07ad 04       		.byte	0x4
 9215 07ae CF04     		.uleb128 .LVL50-.Ltext0
 9216 07b0 D304     		.uleb128 .LFE11-.Ltext0
 9217 07b2 04       		.uleb128 0x4
 9218 07b3 A3       		.byte	0xa3
 9219 07b4 01       		.uleb128 0x1
 9220 07b5 58       		.byte	0x58
 9221 07b6 9F       		.byte	0x9f
 9222 07b7 00       		.byte	0
 9223              	.LVUS27:
 9224 07b8 00       		.uleb128 0
 9225 07b9 00       		.uleb128 .LVU122
 9226 07ba 00       		.uleb128 .LVU122
 9227 07bb 00       		.uleb128 .LVU135
 9228 07bc 00       		.uleb128 .LVU135
 9229 07bd 00       		.uleb128 0
 9230              	.LLST27:
 9231 07be 04       		.byte	0x4
 9232 07bf B903     		.uleb128 .LVL46-.Ltext0
 9233 07c1 EA03     		.uleb128 .LVL47-.Ltext0
 9234 07c3 01       		.uleb128 0x1
 9235 07c4 59       		.byte	0x59
 9236 07c5 04       		.byte	0x4
 9237 07c6 EA03     		.uleb128 .LVL47-.Ltext0
 9238 07c8 D004     		.uleb128 .LVL51-.Ltext0
 9239 07ca 01       		.uleb128 0x1
 9240 07cb 54       		.byte	0x54
 9241 07cc 04       		.byte	0x4
 9242 07cd D004     		.uleb128 .LVL51-.Ltext0
 9243 07cf D304     		.uleb128 .LFE11-.Ltext0
 9244 07d1 04       		.uleb128 0x4
 9245 07d2 A3       		.byte	0xa3
 9246 07d3 01       		.uleb128 0x1
 9247 07d4 59       		.byte	0x59
 9248 07d5 9F       		.byte	0x9f
 9249 07d6 00       		.byte	0
 9250              	.LVUS20:
 9251 07d7 00       		.uleb128 0
 9252 07d8 00       		.uleb128 .LVU81
 9253 07d9 00       		.uleb128 .LVU81
 9254 07da 00       		.uleb128 .LVU85
 9255 07db 00       		.uleb128 .LVU85
 9256 07dc 00       		.uleb128 .LVU86
 9257 07dd 00       		.uleb128 .LVU86
 9258 07de 00       		.uleb128 .LVU91
 9259 07df 00       		.uleb128 .LVU91
 9260 07e0 00       		.uleb128 0
 9261              	.LLST20:
 9262 07e1 04       		.byte	0x4
 9263 07e2 9802     		.uleb128 .LVL33-.Ltext0
 9264 07e4 BD02     		.uleb128 .LVL35-.Ltext0
 9265 07e6 01       		.uleb128 0x1
 9266 07e7 52       		.byte	0x52
 9267 07e8 04       		.byte	0x4
 9268 07e9 BD02     		.uleb128 .LVL35-.Ltext0
 9269 07eb CF02     		.uleb128 .LVL38-.Ltext0
 9270 07ed 01       		.uleb128 0x1
 9271 07ee 55       		.byte	0x55
 9272 07ef 04       		.byte	0x4
 9273 07f0 CF02     		.uleb128 .LVL38-.Ltext0
 9274 07f2 D002     		.uleb128 .LVL39-.Ltext0
 9275 07f4 04       		.uleb128 0x4
 9276 07f5 A3       		.byte	0xa3
 9277 07f6 01       		.uleb128 0x1
 9278 07f7 52       		.byte	0x52
 9279 07f8 9F       		.byte	0x9f
 9280 07f9 04       		.byte	0x4
 9281 07fa D002     		.uleb128 .LVL39-.Ltext0
 9282 07fc E702     		.uleb128 .LVL41-.Ltext0
 9283 07fe 01       		.uleb128 0x1
 9284 07ff 52       		.byte	0x52
 9285 0800 04       		.byte	0x4
 9286 0801 E702     		.uleb128 .LVL41-.Ltext0
 9287 0803 B903     		.uleb128 .LFE10-.Ltext0
 9288 0805 01       		.uleb128 0x1
 9289 0806 55       		.byte	0x55
 9290 0807 00       		.byte	0
 9291              	.LVUS21:
 9292 0808 00       		.uleb128 0
 9293 0809 00       		.uleb128 .LVU81
 9294 080a 00       		.uleb128 .LVU81
 9295 080b 00       		.uleb128 .LVU83
 9296 080c 00       		.uleb128 .LVU83
 9297 080d 00       		.uleb128 .LVU86
 9298 080e 00       		.uleb128 .LVU86
 9299 080f 00       		.uleb128 .LVU93
 9300 0810 00       		.uleb128 .LVU93
 9301 0811 00       		.uleb128 0
 9302              	.LLST21:
 9303 0812 04       		.byte	0x4
 9304 0813 9802     		.uleb128 .LVL33-.Ltext0
 9305 0815 BD02     		.uleb128 .LVL35-.Ltext0
 9306 0817 01       		.uleb128 0x1
 9307 0818 51       		.byte	0x51
 9308 0819 04       		.byte	0x4
 9309 081a BD02     		.uleb128 .LVL35-.Ltext0
 9310 081c CD02     		.uleb128 .LVL36-.Ltext0
 9311 081e 01       		.uleb128 0x1
 9312 081f 53       		.byte	0x53
 9313 0820 04       		.byte	0x4
 9314 0821 CD02     		.uleb128 .LVL36-.Ltext0
 9315 0823 D002     		.uleb128 .LVL39-.Ltext0
 9316 0825 04       		.uleb128 0x4
 9317 0826 A3       		.byte	0xa3
 9318 0827 01       		.uleb128 0x1
 9319 0828 51       		.byte	0x51
 9320 0829 9F       		.byte	0x9f
 9321 082a 04       		.byte	0x4
 9322 082b D002     		.uleb128 .LVL39-.Ltext0
 9323 082d F002     		.uleb128 .LVL42-1-.Ltext0
 9324 082f 01       		.uleb128 0x1
 9325 0830 51       		.byte	0x51
 9326 0831 04       		.byte	0x4
 9327 0832 F002     		.uleb128 .LVL42-1-.Ltext0
 9328 0834 B903     		.uleb128 .LFE10-.Ltext0
 9329 0836 01       		.uleb128 0x1
 9330 0837 53       		.byte	0x53
 9331 0838 00       		.byte	0
 9332              	.LVUS22:
 9333 0839 00       		.uleb128 0
 9334 083a 00       		.uleb128 .LVU81
 9335 083b 00       		.uleb128 .LVU81
 9336 083c 00       		.uleb128 .LVU84
 9337 083d 00       		.uleb128 .LVU84
 9338 083e 00       		.uleb128 .LVU86
 9339 083f 00       		.uleb128 .LVU86
 9340 0840 00       		.uleb128 0
 9341              	.LLST22:
 9342 0841 04       		.byte	0x4
 9343 0842 9802     		.uleb128 .LVL33-.Ltext0
 9344 0844 BD02     		.uleb128 .LVL35-.Ltext0
 9345 0846 01       		.uleb128 0x1
 9346 0847 58       		.byte	0x58
 9347 0848 04       		.byte	0x4
 9348 0849 BD02     		.uleb128 .LVL35-.Ltext0
 9349 084b CE02     		.uleb128 .LVL37-.Ltext0
 9350 084d 01       		.uleb128 0x1
 9351 084e 54       		.byte	0x54
 9352 084f 04       		.byte	0x4
 9353 0850 CE02     		.uleb128 .LVL37-.Ltext0
 9354 0852 D002     		.uleb128 .LVL39-.Ltext0
 9355 0854 04       		.uleb128 0x4
 9356 0855 A3       		.byte	0xa3
 9357 0856 01       		.uleb128 0x1
 9358 0857 58       		.byte	0x58
 9359 0858 9F       		.byte	0x9f
 9360 0859 04       		.byte	0x4
 9361 085a D002     		.uleb128 .LVL39-.Ltext0
 9362 085c B903     		.uleb128 .LFE10-.Ltext0
 9363 085e 01       		.uleb128 0x1
 9364 085f 54       		.byte	0x54
 9365 0860 00       		.byte	0
 9366              	.LVUS23:
 9367 0861 01       		.uleb128 .LVU79
 9368 0862 00       		.uleb128 .LVU81
 9369 0863 00       		.uleb128 .LVU89
 9370 0864 00       		.uleb128 .LVU102
 9371              	.LLST23:
 9372 0865 04       		.byte	0x4
 9373 0866 AE02     		.uleb128 .LVL34-.Ltext0
 9374 0868 BD02     		.uleb128 .LVL35-.Ltext0
 9375 086a 02       		.uleb128 0x2
 9376 086b 30       		.byte	0x30
 9377 086c 9F       		.byte	0x9f
 9378 086d 04       		.byte	0x4
 9379 086e E402     		.uleb128 .LVL40-.Ltext0
 9380 0870 9703     		.uleb128 .LVL44-.Ltext0
 9381 0872 02       		.uleb128 0x2
 9382 0873 30       		.byte	0x30
 9383 0874 9F       		.byte	0x9f
 9384 0875 00       		.byte	0
 9385              	.LVUS17:
 9386 0876 00       		.uleb128 0
 9387 0877 00       		.uleb128 .LVU72
 9388 0878 00       		.uleb128 .LVU72
 9389 0879 00       		.uleb128 0
 9390              	.LLST17:
 9391 087a 04       		.byte	0x4
 9392 087b 8A02     		.uleb128 .LVL31-.Ltext0
 9393 087d 9202     		.uleb128 .LVL32-1-.Ltext0
 9394 087f 01       		.uleb128 0x1
 9395 0880 52       		.byte	0x52
 9396 0881 04       		.byte	0x4
 9397 0882 9202     		.uleb128 .LVL32-1-.Ltext0
 9398 0884 9802     		.uleb128 .LFE9-.Ltext0
 9399 0886 04       		.uleb128 0x4
 9400 0887 A3       		.byte	0xa3
 9401 0888 01       		.uleb128 0x1
 9402 0889 52       		.byte	0x52
 9403 088a 9F       		.byte	0x9f
 9404 088b 00       		.byte	0
 9405              	.LVUS18:
 9406 088c 00       		.uleb128 0
 9407 088d 00       		.uleb128 .LVU72
 9408 088e 00       		.uleb128 .LVU72
 9409 088f 00       		.uleb128 0
 9410              	.LLST18:
 9411 0890 04       		.byte	0x4
 9412 0891 8A02     		.uleb128 .LVL31-.Ltext0
 9413 0893 9202     		.uleb128 .LVL32-1-.Ltext0
 9414 0895 01       		.uleb128 0x1
 9415 0896 51       		.byte	0x51
 9416 0897 04       		.byte	0x4
 9417 0898 9202     		.uleb128 .LVL32-1-.Ltext0
 9418 089a 9802     		.uleb128 .LFE9-.Ltext0
 9419 089c 04       		.uleb128 0x4
 9420 089d A3       		.byte	0xa3
 9421 089e 01       		.uleb128 0x1
 9422 089f 51       		.byte	0x51
 9423 08a0 9F       		.byte	0x9f
 9424 08a1 00       		.byte	0
 9425              	.LVUS19:
 9426 08a2 00       		.uleb128 0
 9427 08a3 00       		.uleb128 .LVU72
 9428 08a4 00       		.uleb128 .LVU72
 9429 08a5 00       		.uleb128 0
 9430              	.LLST19:
 9431 08a6 04       		.byte	0x4
 9432 08a7 8A02     		.uleb128 .LVL31-.Ltext0
 9433 08a9 9202     		.uleb128 .LVL32-1-.Ltext0
 9434 08ab 01       		.uleb128 0x1
 9435 08ac 58       		.byte	0x58
 9436 08ad 04       		.byte	0x4
 9437 08ae 9202     		.uleb128 .LVL32-1-.Ltext0
 9438 08b0 9802     		.uleb128 .LFE9-.Ltext0
 9439 08b2 04       		.uleb128 0x4
 9440 08b3 A3       		.byte	0xa3
 9441 08b4 01       		.uleb128 0x1
 9442 08b5 58       		.byte	0x58
 9443 08b6 9F       		.byte	0x9f
 9444 08b7 00       		.byte	0
 9445              	.LVUS10:
 9446 08b8 00       		.uleb128 0
 9447 08b9 00       		.uleb128 .LVU44
 9448 08ba 00       		.uleb128 .LVU44
 9449 08bb 00       		.uleb128 0
 9450              	.LLST10:
 9451 08bc 04       		.byte	0x4
 9452 08bd A001     		.uleb128 .LVL17-.Ltext0
 9453 08bf A901     		.uleb128 .LVL18-1-.Ltext0
 9454 08c1 01       		.uleb128 0x1
 9455 08c2 52       		.byte	0x52
 9456 08c3 04       		.byte	0x4
 9457 08c4 A901     		.uleb128 .LVL18-1-.Ltext0
 9458 08c6 AF01     		.uleb128 .LFE8-.Ltext0
 9459 08c8 04       		.uleb128 0x4
 9460 08c9 A3       		.byte	0xa3
 9461 08ca 01       		.uleb128 0x1
 9462 08cb 52       		.byte	0x52
 9463 08cc 9F       		.byte	0x9f
 9464 08cd 00       		.byte	0
 9465              	.LVUS11:
 9466 08ce 00       		.uleb128 0
 9467 08cf 00       		.uleb128 .LVU44
 9468 08d0 00       		.uleb128 .LVU44
 9469 08d1 00       		.uleb128 0
 9470              	.LLST11:
 9471 08d2 04       		.byte	0x4
 9472 08d3 A001     		.uleb128 .LVL17-.Ltext0
 9473 08d5 A901     		.uleb128 .LVL18-1-.Ltext0
 9474 08d7 01       		.uleb128 0x1
 9475 08d8 51       		.byte	0x51
 9476 08d9 04       		.byte	0x4
 9477 08da A901     		.uleb128 .LVL18-1-.Ltext0
 9478 08dc AF01     		.uleb128 .LFE8-.Ltext0
 9479 08de 04       		.uleb128 0x4
 9480 08df A3       		.byte	0xa3
 9481 08e0 01       		.uleb128 0x1
 9482 08e1 51       		.byte	0x51
 9483 08e2 9F       		.byte	0x9f
 9484 08e3 00       		.byte	0
 9485              	.LVUS12:
 9486 08e4 00       		.uleb128 0
 9487 08e5 00       		.uleb128 .LVU44
 9488 08e6 00       		.uleb128 .LVU44
 9489 08e7 00       		.uleb128 0
 9490              	.LLST12:
 9491 08e8 04       		.byte	0x4
 9492 08e9 A001     		.uleb128 .LVL17-.Ltext0
 9493 08eb A901     		.uleb128 .LVL18-1-.Ltext0
 9494 08ed 01       		.uleb128 0x1
 9495 08ee 58       		.byte	0x58
 9496 08ef 04       		.byte	0x4
 9497 08f0 A901     		.uleb128 .LVL18-1-.Ltext0
 9498 08f2 AF01     		.uleb128 .LFE8-.Ltext0
 9499 08f4 04       		.uleb128 0x4
 9500 08f5 A3       		.byte	0xa3
 9501 08f6 01       		.uleb128 0x1
 9502 08f7 58       		.byte	0x58
 9503 08f8 9F       		.byte	0x9f
 9504 08f9 00       		.byte	0
 9505              	.LVUS7:
 9506 08fa 00       		.uleb128 0
 9507 08fb 00       		.uleb128 .LVU40
 9508 08fc 00       		.uleb128 .LVU40
 9509 08fd 00       		.uleb128 0
 9510              	.LLST7:
 9511 08fe 04       		.byte	0x4
 9512 08ff 8D01     		.uleb128 .LVL15-.Ltext0
 9513 0901 9A01     		.uleb128 .LVL16-1-.Ltext0
 9514 0903 01       		.uleb128 0x1
 9515 0904 52       		.byte	0x52
 9516 0905 04       		.byte	0x4
 9517 0906 9A01     		.uleb128 .LVL16-1-.Ltext0
 9518 0908 A001     		.uleb128 .LFE7-.Ltext0
 9519 090a 04       		.uleb128 0x4
 9520 090b A3       		.byte	0xa3
 9521 090c 01       		.uleb128 0x1
 9522 090d 52       		.byte	0x52
 9523 090e 9F       		.byte	0x9f
 9524 090f 00       		.byte	0
 9525              	.LVUS8:
 9526 0910 00       		.uleb128 0
 9527 0911 00       		.uleb128 .LVU40
 9528 0912 00       		.uleb128 .LVU40
 9529 0913 00       		.uleb128 0
 9530              	.LLST8:
 9531 0914 04       		.byte	0x4
 9532 0915 8D01     		.uleb128 .LVL15-.Ltext0
 9533 0917 9A01     		.uleb128 .LVL16-1-.Ltext0
 9534 0919 01       		.uleb128 0x1
 9535 091a 51       		.byte	0x51
 9536 091b 04       		.byte	0x4
 9537 091c 9A01     		.uleb128 .LVL16-1-.Ltext0
 9538 091e A001     		.uleb128 .LFE7-.Ltext0
 9539 0920 04       		.uleb128 0x4
 9540 0921 A3       		.byte	0xa3
 9541 0922 01       		.uleb128 0x1
 9542 0923 51       		.byte	0x51
 9543 0924 9F       		.byte	0x9f
 9544 0925 00       		.byte	0
 9545              	.LVUS9:
 9546 0926 00       		.uleb128 0
 9547 0927 00       		.uleb128 .LVU40
 9548 0928 00       		.uleb128 .LVU40
 9549 0929 00       		.uleb128 0
 9550              	.LLST9:
 9551 092a 04       		.byte	0x4
 9552 092b 8D01     		.uleb128 .LVL15-.Ltext0
 9553 092d 9A01     		.uleb128 .LVL16-1-.Ltext0
 9554 092f 01       		.uleb128 0x1
 9555 0930 58       		.byte	0x58
 9556 0931 04       		.byte	0x4
 9557 0932 9A01     		.uleb128 .LVL16-1-.Ltext0
 9558 0934 A001     		.uleb128 .LFE7-.Ltext0
 9559 0936 04       		.uleb128 0x4
 9560 0937 A3       		.byte	0xa3
 9561 0938 01       		.uleb128 0x1
 9562 0939 58       		.byte	0x58
 9563 093a 9F       		.byte	0x9f
 9564 093b 00       		.byte	0
 9565              	.LVUS3:
 9566 093c 00       		.uleb128 0
 9567 093d 00       		.uleb128 .LVU22
 9568 093e 00       		.uleb128 .LVU22
 9569 093f 00       		.uleb128 0
 9570              	.LLST3:
 9571 0940 04       		.byte	0x4
 9572 0941 53       		.uleb128 .LVL7-.Ltext0
 9573 0942 5C       		.uleb128 .LVL8-1-.Ltext0
 9574 0943 01       		.uleb128 0x1
 9575 0944 52       		.byte	0x52
 9576 0945 04       		.byte	0x4
 9577 0946 5C       		.uleb128 .LVL8-1-.Ltext0
 9578 0947 62       		.uleb128 .LFE6-.Ltext0
 9579 0948 04       		.uleb128 0x4
 9580 0949 A3       		.byte	0xa3
 9581 094a 01       		.uleb128 0x1
 9582 094b 52       		.byte	0x52
 9583 094c 9F       		.byte	0x9f
 9584 094d 00       		.byte	0
 9585              	.LVUS4:
 9586 094e 00       		.uleb128 0
 9587 094f 00       		.uleb128 .LVU22
 9588 0950 00       		.uleb128 .LVU22
 9589 0951 00       		.uleb128 0
 9590              	.LLST4:
 9591 0952 04       		.byte	0x4
 9592 0953 53       		.uleb128 .LVL7-.Ltext0
 9593 0954 5C       		.uleb128 .LVL8-1-.Ltext0
 9594 0955 01       		.uleb128 0x1
 9595 0956 51       		.byte	0x51
 9596 0957 04       		.byte	0x4
 9597 0958 5C       		.uleb128 .LVL8-1-.Ltext0
 9598 0959 62       		.uleb128 .LFE6-.Ltext0
 9599 095a 04       		.uleb128 0x4
 9600 095b A3       		.byte	0xa3
 9601 095c 01       		.uleb128 0x1
 9602 095d 51       		.byte	0x51
 9603 095e 9F       		.byte	0x9f
 9604 095f 00       		.byte	0
 9605              	.LVUS2:
 9606 0960 00       		.uleb128 0
 9607 0961 00       		.uleb128 .LVU18
 9608 0962 00       		.uleb128 .LVU18
 9609 0963 00       		.uleb128 0
 9610              	.LLST2:
 9611 0964 04       		.byte	0x4
 9612 0965 3C       		.uleb128 .LVL5-.Ltext0
 9613 0966 4D       		.uleb128 .LVL6-1-.Ltext0
 9614 0967 01       		.uleb128 0x1
 9615 0968 52       		.byte	0x52
 9616 0969 04       		.byte	0x4
 9617 096a 4D       		.uleb128 .LVL6-1-.Ltext0
 9618 096b 53       		.uleb128 .LFE5-.Ltext0
 9619 096c 04       		.uleb128 0x4
 9620 096d A3       		.byte	0xa3
 9621 096e 01       		.uleb128 0x1
 9622 096f 52       		.byte	0x52
 9623 0970 9F       		.byte	0x9f
 9624 0971 00       		.byte	0
 9625              	.LVUS13:
 9626 0972 00       		.uleb128 0
 9627 0973 00       		.uleb128 .LVU53
 9628 0974 00       		.uleb128 .LVU53
 9629 0975 00       		.uleb128 .LVU64
 9630 0976 00       		.uleb128 .LVU64
 9631 0977 00       		.uleb128 .LVU67
 9632 0978 00       		.uleb128 .LVU67
 9633 0979 00       		.uleb128 0
 9634              	.LLST13:
 9635 097a 04       		.byte	0x4
 9636 097b AF01     		.uleb128 .LVL19-.Ltext0
 9637 097d C801     		.uleb128 .LVL21-.Ltext0
 9638 097f 01       		.uleb128 0x1
 9639 0980 52       		.byte	0x52
 9640 0981 04       		.byte	0x4
 9641 0982 C801     		.uleb128 .LVL21-.Ltext0
 9642 0984 8002     		.uleb128 .LVL27-.Ltext0
 9643 0986 01       		.uleb128 0x1
 9644 0987 54       		.byte	0x54
 9645 0988 04       		.byte	0x4
 9646 0989 8002     		.uleb128 .LVL27-.Ltext0
 9647 098b 8302     		.uleb128 .LVL30-.Ltext0
 9648 098d 04       		.uleb128 0x4
 9649 098e A3       		.byte	0xa3
 9650 098f 01       		.uleb128 0x1
 9651 0990 52       		.byte	0x52
 9652 0991 9F       		.byte	0x9f
 9653 0992 04       		.byte	0x4
 9654 0993 8302     		.uleb128 .LVL30-.Ltext0
 9655 0995 8A02     		.uleb128 .LFE4-.Ltext0
 9656 0997 01       		.uleb128 0x1
 9657 0998 52       		.byte	0x52
 9658 0999 00       		.byte	0
 9659              	.LVUS14:
 9660 099a 00       		.uleb128 0
 9661 099b 00       		.uleb128 .LVU54
 9662 099c 00       		.uleb128 .LVU54
 9663 099d 00       		.uleb128 .LVU66
 9664 099e 00       		.uleb128 .LVU66
 9665 099f 00       		.uleb128 .LVU67
 9666 09a0 00       		.uleb128 .LVU67
 9667 09a1 00       		.uleb128 0
 9668              	.LLST14:
 9669 09a2 04       		.byte	0x4
 9670 09a3 AF01     		.uleb128 .LVL19-.Ltext0
 9671 09a5 CC01     		.uleb128 .LVL22-1-.Ltext0
 9672 09a7 01       		.uleb128 0x1
 9673 09a8 51       		.byte	0x51
 9674 09a9 04       		.byte	0x4
 9675 09aa CC01     		.uleb128 .LVL22-1-.Ltext0
 9676 09ac 8202     		.uleb128 .LVL29-.Ltext0
 9677 09ae 01       		.uleb128 0x1
 9678 09af 56       		.byte	0x56
 9679 09b0 04       		.byte	0x4
 9680 09b1 8202     		.uleb128 .LVL29-.Ltext0
 9681 09b3 8302     		.uleb128 .LVL30-.Ltext0
 9682 09b5 04       		.uleb128 0x4
 9683 09b6 A3       		.byte	0xa3
 9684 09b7 01       		.uleb128 0x1
 9685 09b8 51       		.byte	0x51
 9686 09b9 9F       		.byte	0x9f
 9687 09ba 04       		.byte	0x4
 9688 09bb 8302     		.uleb128 .LVL30-.Ltext0
 9689 09bd 8A02     		.uleb128 .LFE4-.Ltext0
 9690 09bf 01       		.uleb128 0x1
 9691 09c0 51       		.byte	0x51
 9692 09c1 00       		.byte	0
 9693              	.LVUS15:
 9694 09c2 00       		.uleb128 0
 9695 09c3 00       		.uleb128 .LVU54
 9696 09c4 00       		.uleb128 .LVU54
 9697 09c5 00       		.uleb128 .LVU63
 9698 09c6 00       		.uleb128 .LVU63
 9699 09c7 00       		.uleb128 .LVU67
 9700 09c8 00       		.uleb128 .LVU67
 9701 09c9 00       		.uleb128 0
 9702              	.LLST15:
 9703 09ca 04       		.byte	0x4
 9704 09cb AF01     		.uleb128 .LVL19-.Ltext0
 9705 09cd CC01     		.uleb128 .LVL22-1-.Ltext0
 9706 09cf 01       		.uleb128 0x1
 9707 09d0 58       		.byte	0x58
 9708 09d1 04       		.byte	0x4
 9709 09d2 CC01     		.uleb128 .LVL22-1-.Ltext0
 9710 09d4 FF01     		.uleb128 .LVL26-.Ltext0
 9711 09d6 01       		.uleb128 0x1
 9712 09d7 53       		.byte	0x53
 9713 09d8 04       		.byte	0x4
 9714 09d9 FF01     		.uleb128 .LVL26-.Ltext0
 9715 09db 8302     		.uleb128 .LVL30-.Ltext0
 9716 09dd 04       		.uleb128 0x4
 9717 09de A3       		.byte	0xa3
 9718 09df 01       		.uleb128 0x1
 9719 09e0 58       		.byte	0x58
 9720 09e1 9F       		.byte	0x9f
 9721 09e2 04       		.byte	0x4
 9722 09e3 8302     		.uleb128 .LVL30-.Ltext0
 9723 09e5 8A02     		.uleb128 .LFE4-.Ltext0
 9724 09e7 01       		.uleb128 0x1
 9725 09e8 53       		.byte	0x53
 9726 09e9 00       		.byte	0
 9727              	.LVUS16:
 9728 09ea 02       		.uleb128 .LVU49
 9729 09eb 00       		.uleb128 .LVU55
 9730 09ec 00       		.uleb128 .LVU55
 9731 09ed 00       		.uleb128 .LVU65
 9732 09ee 00       		.uleb128 .LVU65
 9733 09ef 00       		.uleb128 .LVU67
 9734 09f0 00       		.uleb128 .LVU67
 9735 09f1 00       		.uleb128 0
 9736              	.LLST16:
 9737 09f2 04       		.byte	0x4
 9738 09f3 C001     		.uleb128 .LVL20-.Ltext0
 9739 09f5 D001     		.uleb128 .LVL23-.Ltext0
 9740 09f7 02       		.uleb128 0x2
 9741 09f8 30       		.byte	0x30
 9742 09f9 9F       		.byte	0x9f
 9743 09fa 04       		.byte	0x4
 9744 09fb D001     		.uleb128 .LVL23-.Ltext0
 9745 09fd 8102     		.uleb128 .LVL28-.Ltext0
 9746 09ff 01       		.uleb128 0x1
 9747 0a00 55       		.byte	0x55
 9748 0a01 04       		.byte	0x4
 9749 0a02 8102     		.uleb128 .LVL28-.Ltext0
 9750 0a04 8302     		.uleb128 .LVL30-.Ltext0
 9751 0a06 01       		.uleb128 0x1
 9752 0a07 50       		.byte	0x50
 9753 0a08 04       		.byte	0x4
 9754 0a09 8302     		.uleb128 .LVL30-.Ltext0
 9755 0a0b 8A02     		.uleb128 .LFE4-.Ltext0
 9756 0a0d 02       		.uleb128 0x2
 9757 0a0e 30       		.byte	0x30
 9758 0a0f 9F       		.byte	0x9f
 9759 0a10 00       		.byte	0
 9760              	.LVUS5:
 9761 0a11 00       		.uleb128 0
 9762 0a12 00       		.uleb128 .LVU28
 9763 0a13 00       		.uleb128 .LVU28
 9764 0a14 00       		.uleb128 .LVU35
 9765 0a15 00       		.uleb128 .LVU35
 9766 0a16 00       		.uleb128 0
 9767              	.LLST5:
 9768 0a17 04       		.byte	0x4
 9769 0a18 62       		.uleb128 .LVL9-.Ltext0
 9770 0a19 6F       		.uleb128 .LVL10-1-.Ltext0
 9771 0a1a 01       		.uleb128 0x1
 9772 0a1b 52       		.byte	0x52
 9773 0a1c 04       		.byte	0x4
 9774 0a1d 6F       		.uleb128 .LVL10-1-.Ltext0
 9775 0a1e 8C01     		.uleb128 .LVL14-.Ltext0
 9776 0a20 01       		.uleb128 0x1
 9777 0a21 54       		.byte	0x54
 9778 0a22 04       		.byte	0x4
 9779 0a23 8C01     		.uleb128 .LVL14-.Ltext0
 9780 0a25 8D01     		.uleb128 .LFE3-.Ltext0
 9781 0a27 04       		.uleb128 0x4
 9782 0a28 A3       		.byte	0xa3
 9783 0a29 01       		.uleb128 0x1
 9784 0a2a 52       		.byte	0x52
 9785 0a2b 9F       		.byte	0x9f
 9786 0a2c 00       		.byte	0
 9787              	.LVUS6:
 9788 0a2d 00       		.uleb128 .LVU29
 9789 0a2e 00       		.uleb128 .LVU32
 9790 0a2f 00       		.uleb128 .LVU32
 9791 0a30 00       		.uleb128 .LVU34
 9792 0a31 00       		.uleb128 .LVU34
 9793 0a32 00       		.uleb128 0
 9794              	.LLST6:
 9795 0a33 04       		.byte	0x4
 9796 0a34 73       		.uleb128 .LVL11-.Ltext0
 9797 0a35 8201     		.uleb128 .LVL12-1-.Ltext0
 9798 0a37 01       		.uleb128 0x1
 9799 0a38 50       		.byte	0x50
 9800 0a39 04       		.byte	0x4
 9801 0a3a 8201     		.uleb128 .LVL12-1-.Ltext0
 9802 0a3c 8B01     		.uleb128 .LVL13-.Ltext0
 9803 0a3e 01       		.uleb128 0x1
 9804 0a3f 53       		.byte	0x53
 9805 0a40 04       		.byte	0x4
 9806 0a41 8B01     		.uleb128 .LVL13-.Ltext0
 9807 0a43 8D01     		.uleb128 .LFE3-.Ltext0
 9808 0a45 01       		.uleb128 0x1
 9809 0a46 50       		.byte	0x50
 9810 0a47 00       		.byte	0
 9811              	.LVUS0:
 9812 0a48 00       		.uleb128 0
 9813 0a49 00       		.uleb128 .LVU6
 9814 0a4a 00       		.uleb128 .LVU6
 9815 0a4b 00       		.uleb128 .LVU7
 9816 0a4c 00       		.uleb128 .LVU7
 9817 0a4d 00       		.uleb128 0
 9818              	.LLST0:
 9819 0a4e 04       		.byte	0x4
 9820 0a4f 00       		.uleb128 .LVL0-.Ltext0
 9821 0a50 18       		.uleb128 .LVL1-.Ltext0
 9822 0a51 01       		.uleb128 0x1
 9823 0a52 52       		.byte	0x52
 9824 0a53 04       		.byte	0x4
 9825 0a54 18       		.uleb128 .LVL1-.Ltext0
 9826 0a55 21       		.uleb128 .LVL2-1-.Ltext0
 9827 0a56 01       		.uleb128 0x1
 9828 0a57 51       		.byte	0x51
 9829 0a58 04       		.byte	0x4
 9830 0a59 21       		.uleb128 .LVL2-1-.Ltext0
 9831 0a5a 3C       		.uleb128 .LFE2-.Ltext0
 9832 0a5b 04       		.uleb128 0x4
 9833 0a5c A3       		.byte	0xa3
 9834 0a5d 01       		.uleb128 0x1
 9835 0a5e 52       		.byte	0x52
 9836 0a5f 9F       		.byte	0x9f
 9837 0a60 00       		.byte	0
 9838              	.LVUS1:
 9839 0a61 00       		.uleb128 .LVU7
 9840 0a62 00       		.uleb128 .LVU11
 9841 0a63 00       		.uleb128 .LVU12
 9842 0a64 00       		.uleb128 0
 9843              	.LLST1:
 9844 0a65 04       		.byte	0x4
 9845 0a66 22       		.uleb128 .LVL2-.Ltext0
 9846 0a67 2C       		.uleb128 .LVL3-.Ltext0
 9847 0a68 01       		.uleb128 0x1
 9848 0a69 50       		.byte	0x50
 9849 0a6a 04       		.byte	0x4
 9850 0a6b 31       		.uleb128 .LVL4-.Ltext0
 9851 0a6c 3C       		.uleb128 .LFE2-.Ltext0
 9852 0a6d 01       		.uleb128 0x1
 9853 0a6e 50       		.byte	0x50
 9854 0a6f 00       		.byte	0
 9855              	.Ldebug_loc3:
 9856              		.section	.debug_aranges,"dr"
 9857 0000 2C000000 		.long	0x2c
 9858 0004 0200     		.word	0x2
 9859 0006 00000000 		.secrel32	.Ldebug_info0
 9860 000a 08       		.byte	0x8
 9861 000b 00       		.byte	0
 9862 000c 0000     		.word	0
 9863 000e 0000     		.word	0
 9864 0010 00000000 		.quad	.Ltext0
 9864      00000000 
 9865 0018 06080000 		.quad	.Letext0-.Ltext0
 9865      00000000 
 9866 0020 00000000 		.quad	0
 9866      00000000 
 9867 0028 00000000 		.quad	0
 9867      00000000 
 9868              		.section	.debug_macro,"dr"
 9869              	.Ldebug_macro0:
 9870 0000 0500     		.word	0x5
 9871 0002 02       		.byte	0x2
 9872 0003 00000000 		.secrel32	.Ldebug_line0
 9873 0007 01       		.byte	0x1
 9874 0008 00       		.uleb128 0
 9875 0009 5F5F5354 		.ascii "__STDC__ 1\0"
 9875      44435F5F 
 9875      203100
 9876 0014 01       		.byte	0x1
 9877 0015 00       		.uleb128 0
 9878 0016 5F5F5354 		.ascii "__STDC_VERSION__ 201112L\0"
 9878      44435F56 
 9878      45525349 
 9878      4F4E5F5F 
 9878      20323031 
 9879 002f 01       		.byte	0x1
 9880 0030 00       		.uleb128 0
 9881 0031 5F5F5354 		.ascii "__STDC_UTF_16__ 1\0"
 9881      44435F55 
 9881      54465F31 
 9881      365F5F20 
 9881      3100
 9882 0043 01       		.byte	0x1
 9883 0044 00       		.uleb128 0
 9884 0045 5F5F5354 		.ascii "__STDC_UTF_32__ 1\0"
 9884      44435F55 
 9884      54465F33 
 9884      325F5F20 
 9884      3100
 9885 0057 01       		.byte	0x1
 9886 0058 00       		.uleb128 0
 9887 0059 5F5F5354 		.ascii "__STDC_HOSTED__ 0\0"
 9887      44435F48 
 9887      4F535445 
 9887      445F5F20 
 9887      3000
 9888 006b 01       		.byte	0x1
 9889 006c 00       		.uleb128 0
 9890 006d 5F5F474E 		.ascii "__GNUC__ 14\0"
 9890      55435F5F 
 9890      20313400 
 9891 0079 01       		.byte	0x1
 9892 007a 00       		.uleb128 0
 9893 007b 5F5F474E 		.ascii "__GNUC_MINOR__ 2\0"
 9893      55435F4D 
 9893      494E4F52 
 9893      5F5F2032 
 9893      00
 9894 008c 01       		.byte	0x1
 9895 008d 00       		.uleb128 0
 9896 008e 5F5F474E 		.ascii "__GNUC_PATCHLEVEL__ 0\0"
 9896      55435F50 
 9896      41544348 
 9896      4C455645 
 9896      4C5F5F20 
 9897 00a4 01       		.byte	0x1
 9898 00a5 00       		.uleb128 0
 9899 00a6 5F5F5645 		.ascii "__VERSION__ \"14.2.0\"\0"
 9899      5253494F 
 9899      4E5F5F20 
 9899      2231342E 
 9899      322E3022 
 9900 00bb 01       		.byte	0x1
 9901 00bc 00       		.uleb128 0
 9902 00bd 5F5F4154 		.ascii "__ATOMIC_RELAXED 0\0"
 9902      4F4D4943 
 9902      5F52454C 
 9902      41584544 
 9902      203000
 9903 00d0 01       		.byte	0x1
 9904 00d1 00       		.uleb128 0
 9905 00d2 5F5F4154 		.ascii "__ATOMIC_SEQ_CST 5\0"
 9905      4F4D4943 
 9905      5F534551 
 9905      5F435354 
 9905      203500
 9906 00e5 01       		.byte	0x1
 9907 00e6 00       		.uleb128 0
 9908 00e7 5F5F4154 		.ascii "__ATOMIC_ACQUIRE 2\0"
 9908      4F4D4943 
 9908      5F414351 
 9908      55495245 
 9908      203200
 9909 00fa 01       		.byte	0x1
 9910 00fb 00       		.uleb128 0
 9911 00fc 5F5F4154 		.ascii "__ATOMIC_RELEASE 3\0"
 9911      4F4D4943 
 9911      5F52454C 
 9911      45415345 
 9911      203300
 9912 010f 01       		.byte	0x1
 9913 0110 00       		.uleb128 0
 9914 0111 5F5F4154 		.ascii "__ATOMIC_ACQ_REL 4\0"
 9914      4F4D4943 
 9914      5F414351 
 9914      5F52454C 
 9914      203400
 9915 0124 01       		.byte	0x1
 9916 0125 00       		.uleb128 0
 9917 0126 5F5F4154 		.ascii "__ATOMIC_CONSUME 1\0"
 9917      4F4D4943 
 9917      5F434F4E 
 9917      53554D45 
 9917      203100
 9918 0139 01       		.byte	0x1
 9919 013a 00       		.uleb128 0
 9920 013b 5F5F7069 		.ascii "__pic__ 1\0"
 9920      635F5F20 
 9920      3100
 9921 0145 01       		.byte	0x1
 9922 0146 00       		.uleb128 0
 9923 0147 5F5F5049 		.ascii "__PIC__ 1\0"
 9923      435F5F20 
 9923      3100
 9924 0151 01       		.byte	0x1
 9925 0152 00       		.uleb128 0
 9926 0153 5F5F4F50 		.ascii "__OPTIMIZE__ 1\0"
 9926      54494D49 
 9926      5A455F5F 
 9926      203100
 9927 0162 01       		.byte	0x1
 9928 0163 00       		.uleb128 0
 9929 0164 5F5F4649 		.ascii "__FINITE_MATH_ONLY__ 0\0"
 9929      4E495445 
 9929      5F4D4154 
 9929      485F4F4E 
 9929      4C595F5F 
 9930 017b 01       		.byte	0x1
 9931 017c 00       		.uleb128 0
 9932 017d 5F5F5349 		.ascii "__SIZEOF_INT__ 4\0"
 9932      5A454F46 
 9932      5F494E54 
 9932      5F5F2034 
 9932      00
 9933 018e 01       		.byte	0x1
 9934 018f 00       		.uleb128 0
 9935 0190 5F5F5349 		.ascii "__SIZEOF_LONG__ 4\0"
 9935      5A454F46 
 9935      5F4C4F4E 
 9935      475F5F20 
 9935      3400
 9936 01a2 01       		.byte	0x1
 9937 01a3 00       		.uleb128 0
 9938 01a4 5F5F5349 		.ascii "__SIZEOF_LONG_LONG__ 8\0"
 9938      5A454F46 
 9938      5F4C4F4E 
 9938      475F4C4F 
 9938      4E475F5F 
 9939 01bb 01       		.byte	0x1
 9940 01bc 00       		.uleb128 0
 9941 01bd 5F5F5349 		.ascii "__SIZEOF_SHORT__ 2\0"
 9941      5A454F46 
 9941      5F53484F 
 9941      52545F5F 
 9941      203200
 9942 01d0 01       		.byte	0x1
 9943 01d1 00       		.uleb128 0
 9944 01d2 5F5F5349 		.ascii "__SIZEOF_FLOAT__ 4\0"
 9944      5A454F46 
 9944      5F464C4F 
 9944      41545F5F 
 9944      203400
 9945 01e5 01       		.byte	0x1
 9946 01e6 00       		.uleb128 0
 9947 01e7 5F5F5349 		.ascii "__SIZEOF_DOUBLE__ 8\0"
 9947      5A454F46 
 9947      5F444F55 
 9947      424C455F 
 9947      5F203800 
 9948 01fb 01       		.byte	0x1
 9949 01fc 00       		.uleb128 0
 9950 01fd 5F5F5349 		.ascii "__SIZEOF_LONG_DOUBLE__ 16\0"
 9950      5A454F46 
 9950      5F4C4F4E 
 9950      475F444F 
 9950      55424C45 
 9951 0217 01       		.byte	0x1
 9952 0218 00       		.uleb128 0
 9953 0219 5F5F5349 		.ascii "__SIZEOF_SIZE_T__ 8\0"
 9953      5A454F46 
 9953      5F53495A 
 9953      455F545F 
 9953      5F203800 
 9954 022d 01       		.byte	0x1
 9955 022e 00       		.uleb128 0
 9956 022f 5F5F4348 		.ascii "__CHAR_BIT__ 8\0"
 9956      41525F42 
 9956      49545F5F 
 9956      203800
 9957 023e 01       		.byte	0x1
 9958 023f 00       		.uleb128 0
 9959 0240 5F5F4249 		.ascii "__BIGGEST_ALIGNMENT__ 16\0"
 9959      47474553 
 9959      545F414C 
 9959      49474E4D 
 9959      454E545F 
 9960 0259 01       		.byte	0x1
 9961 025a 00       		.uleb128 0
 9962 025b 5F5F4F52 		.ascii "__ORDER_LITTLE_ENDIAN__ 1234\0"
 9962      4445525F 
 9962      4C495454 
 9962      4C455F45 
 9962      4E444941 
 9963 0278 01       		.byte	0x1
 9964 0279 00       		.uleb128 0
 9965 027a 5F5F4F52 		.ascii "__ORDER_BIG_ENDIAN__ 4321\0"
 9965      4445525F 
 9965      4249475F 
 9965      454E4449 
 9965      414E5F5F 
 9966 0294 01       		.byte	0x1
 9967 0295 00       		.uleb128 0
 9968 0296 5F5F4F52 		.ascii "__ORDER_PDP_ENDIAN__ 3412\0"
 9968      4445525F 
 9968      5044505F 
 9968      454E4449 
 9968      414E5F5F 
 9969 02b0 01       		.byte	0x1
 9970 02b1 00       		.uleb128 0
 9971 02b2 5F5F4259 		.ascii "__BYTE_ORDER__ __ORDER_LITTLE_ENDIAN__\0"
 9971      54455F4F 
 9971      52444552 
 9971      5F5F205F 
 9971      5F4F5244 
 9972 02d9 01       		.byte	0x1
 9973 02da 00       		.uleb128 0
 9974 02db 5F5F464C 		.ascii "__FLOAT_WORD_ORDER__ __ORDER_LITTLE_ENDIAN__\0"
 9974      4F41545F 
 9974      574F5244 
 9974      5F4F5244 
 9974      45525F5F 
 9975 0308 01       		.byte	0x1
 9976 0309 00       		.uleb128 0
 9977 030a 5F5F5349 		.ascii "__SIZEOF_POINTER__ 8\0"
 9977      5A454F46 
 9977      5F504F49 
 9977      4E544552 
 9977      5F5F2038 
 9978 031f 01       		.byte	0x1
 9979 0320 00       		.uleb128 0
 9980 0321 5F5F474E 		.ascii "__GNUC_EXECUTION_CHARSET_NAME \"UTF-8\"\0"
 9980      55435F45 
 9980      58454355 
 9980      54494F4E 
 9980      5F434841 
 9981 0347 01       		.byte	0x1
 9982 0348 00       		.uleb128 0
 9983 0349 5F5F474E 		.ascii "__GNUC_WIDE_EXECUTION_CHARSET_NAME \"UTF-16LE\"\0"
 9983      55435F57 
 9983      4944455F 
 9983      45584543 
 9983      5554494F 
 9984 0377 01       		.byte	0x1
 9985 0378 00       		.uleb128 0
 9986 0379 5F5F5349 		.ascii "__SIZE_TYPE__ long long unsigned int\0"
 9986      5A455F54 
 9986      5950455F 
 9986      5F206C6F 
 9986      6E67206C 
 9987 039e 01       		.byte	0x1
 9988 039f 00       		.uleb128 0
 9989 03a0 5F5F5054 		.ascii "__PTRDIFF_TYPE__ long long int\0"
 9989      52444946 
 9989      465F5459 
 9989      50455F5F 
 9989      206C6F6E 
 9990 03bf 01       		.byte	0x1
 9991 03c0 00       		.uleb128 0
 9992 03c1 5F5F5743 		.ascii "__WCHAR_TYPE__ short unsigned int\0"
 9992      4841525F 
 9992      54595045 
 9992      5F5F2073 
 9992      686F7274 
 9993 03e3 01       		.byte	0x1
 9994 03e4 00       		.uleb128 0
 9995 03e5 5F5F5749 		.ascii "__WINT_TYPE__ short unsigned int\0"
 9995      4E545F54 
 9995      5950455F 
 9995      5F207368 
 9995      6F727420 
 9996 0406 01       		.byte	0x1
 9997 0407 00       		.uleb128 0
 9998 0408 5F5F494E 		.ascii "__INTMAX_TYPE__ long long int\0"
 9998      544D4158 
 9998      5F545950 
 9998      455F5F20 
 9998      6C6F6E67 
 9999 0426 01       		.byte	0x1
 10000 0427 00       		.uleb128 0
 10001 0428 5F5F5549 		.ascii "__UINTMAX_TYPE__ long long unsigned int\0"
 10001      4E544D41 
 10001      585F5459 
 10001      50455F5F 
 10001      206C6F6E 
 10002 0450 01       		.byte	0x1
 10003 0451 00       		.uleb128 0
 10004 0452 5F5F4348 		.ascii "__CHAR16_TYPE__ short unsigned int\0"
 10004      41523136 
 10004      5F545950 
 10004      455F5F20 
 10004      73686F72 
 10005 0475 01       		.byte	0x1
 10006 0476 00       		.uleb128 0
 10007 0477 5F5F4348 		.ascii "__CHAR32_TYPE__ unsigned int\0"
 10007      41523332 
 10007      5F545950 
 10007      455F5F20 
 10007      756E7369 
 10008 0494 01       		.byte	0x1
 10009 0495 00       		.uleb128 0
 10010 0496 5F5F5349 		.ascii "__SIG_ATOMIC_TYPE__ int\0"
 10010      475F4154 
 10010      4F4D4943 
 10010      5F545950 
 10010      455F5F20 
 10011 04ae 01       		.byte	0x1
 10012 04af 00       		.uleb128 0
 10013 04b0 5F5F494E 		.ascii "__INT8_TYPE__ signed char\0"
 10013      54385F54 
 10013      5950455F 
 10013      5F207369 
 10013      676E6564 
 10014 04ca 01       		.byte	0x1
 10015 04cb 00       		.uleb128 0
 10016 04cc 5F5F494E 		.ascii "__INT16_TYPE__ short int\0"
 10016      5431365F 
 10016      54595045 
 10016      5F5F2073 
 10016      686F7274 
 10017 04e5 01       		.byte	0x1
 10018 04e6 00       		.uleb128 0
 10019 04e7 5F5F494E 		.ascii "__INT32_TYPE__ int\0"
 10019      5433325F 
 10019      54595045 
 10019      5F5F2069 
 10019      6E7400
 10020 04fa 01       		.byte	0x1
 10021 04fb 00       		.uleb128 0
 10022 04fc 5F5F494E 		.ascii "__INT64_TYPE__ long long int\0"
 10022      5436345F 
 10022      54595045 
 10022      5F5F206C 
 10022      6F6E6720 
 10023 0519 01       		.byte	0x1
 10024 051a 00       		.uleb128 0
 10025 051b 5F5F5549 		.ascii "__UINT8_TYPE__ unsigned char\0"
 10025      4E54385F 
 10025      54595045 
 10025      5F5F2075 
 10025      6E736967 
 10026 0538 01       		.byte	0x1
 10027 0539 00       		.uleb128 0
 10028 053a 5F5F5549 		.ascii "__UINT16_TYPE__ short unsigned int\0"
 10028      4E543136 
 10028      5F545950 
 10028      455F5F20 
 10028      73686F72 
 10029 055d 01       		.byte	0x1
 10030 055e 00       		.uleb128 0
 10031 055f 5F5F5549 		.ascii "__UINT32_TYPE__ unsigned int\0"
 10031      4E543332 
 10031      5F545950 
 10031      455F5F20 
 10031      756E7369 
 10032 057c 01       		.byte	0x1
 10033 057d 00       		.uleb128 0
 10034 057e 5F5F5549 		.ascii "__UINT64_TYPE__ long long unsigned int\0"
 10034      4E543634 
 10034      5F545950 
 10034      455F5F20 
 10034      6C6F6E67 
 10035 05a5 01       		.byte	0x1
 10036 05a6 00       		.uleb128 0
 10037 05a7 5F5F494E 		.ascii "__INT_LEAST8_TYPE__ signed char\0"
 10037      545F4C45 
 10037      41535438 
 10037      5F545950 
 10037      455F5F20 
 10038 05c7 01       		.byte	0x1
 10039 05c8 00       		.uleb128 0
 10040 05c9 5F5F494E 		.ascii "__INT_LEAST16_TYPE__ short int\0"
 10040      545F4C45 
 10040      41535431 
 10040      365F5459 
 10040      50455F5F 
 10041 05e8 01       		.byte	0x1
 10042 05e9 00       		.uleb128 0
 10043 05ea 5F5F494E 		.ascii "__INT_LEAST32_TYPE__ int\0"
 10043      545F4C45 
 10043      41535433 
 10043      325F5459 
 10043      50455F5F 
 10044 0603 01       		.byte	0x1
 10045 0604 00       		.uleb128 0
 10046 0605 5F5F494E 		.ascii "__INT_LEAST64_TYPE__ long long int\0"
 10046      545F4C45 
 10046      41535436 
 10046      345F5459 
 10046      50455F5F 
 10047 0628 01       		.byte	0x1
 10048 0629 00       		.uleb128 0
 10049 062a 5F5F5549 		.ascii "__UINT_LEAST8_TYPE__ unsigned char\0"
 10049      4E545F4C 
 10049      45415354 
 10049      385F5459 
 10049      50455F5F 
 10050 064d 01       		.byte	0x1
 10051 064e 00       		.uleb128 0
 10052 064f 5F5F5549 		.ascii "__UINT_LEAST16_TYPE__ short unsigned int\0"
 10052      4E545F4C 
 10052      45415354 
 10052      31365F54 
 10052      5950455F 
 10053 0678 01       		.byte	0x1
 10054 0679 00       		.uleb128 0
 10055 067a 5F5F5549 		.ascii "__UINT_LEAST32_TYPE__ unsigned int\0"
 10055      4E545F4C 
 10055      45415354 
 10055      33325F54 
 10055      5950455F 
 10056 069d 01       		.byte	0x1
 10057 069e 00       		.uleb128 0
 10058 069f 5F5F5549 		.ascii "__UINT_LEAST64_TYPE__ long long unsigned int\0"
 10058      4E545F4C 
 10058      45415354 
 10058      36345F54 
 10058      5950455F 
 10059 06cc 01       		.byte	0x1
 10060 06cd 00       		.uleb128 0
 10061 06ce 5F5F494E 		.ascii "__INT_FAST8_TYPE__ signed char\0"
 10061      545F4641 
 10061      5354385F 
 10061      54595045 
 10061      5F5F2073 
 10062 06ed 01       		.byte	0x1
 10063 06ee 00       		.uleb128 0
 10064 06ef 5F5F494E 		.ascii "__INT_FAST16_TYPE__ short int\0"
 10064      545F4641 
 10064      53543136 
 10064      5F545950 
 10064      455F5F20 
 10065 070d 01       		.byte	0x1
 10066 070e 00       		.uleb128 0
 10067 070f 5F5F494E 		.ascii "__INT_FAST32_TYPE__ int\0"
 10067      545F4641 
 10067      53543332 
 10067      5F545950 
 10067      455F5F20 
 10068 0727 01       		.byte	0x1
 10069 0728 00       		.uleb128 0
 10070 0729 5F5F494E 		.ascii "__INT_FAST64_TYPE__ long long int\0"
 10070      545F4641 
 10070      53543634 
 10070      5F545950 
 10070      455F5F20 
 10071 074b 01       		.byte	0x1
 10072 074c 00       		.uleb128 0
 10073 074d 5F5F5549 		.ascii "__UINT_FAST8_TYPE__ unsigned char\0"
 10073      4E545F46 
 10073      41535438 
 10073      5F545950 
 10073      455F5F20 
 10074 076f 01       		.byte	0x1
 10075 0770 00       		.uleb128 0
 10076 0771 5F5F5549 		.ascii "__UINT_FAST16_TYPE__ short unsigned int\0"
 10076      4E545F46 
 10076      41535431 
 10076      365F5459 
 10076      50455F5F 
 10077 0799 01       		.byte	0x1
 10078 079a 00       		.uleb128 0
 10079 079b 5F5F5549 		.ascii "__UINT_FAST32_TYPE__ unsigned int\0"
 10079      4E545F46 
 10079      41535433 
 10079      325F5459 
 10079      50455F5F 
 10080 07bd 01       		.byte	0x1
 10081 07be 00       		.uleb128 0
 10082 07bf 5F5F5549 		.ascii "__UINT_FAST64_TYPE__ long long unsigned int\0"
 10082      4E545F46 
 10082      41535436 
 10082      345F5459 
 10082      50455F5F 
 10083 07eb 01       		.byte	0x1
 10084 07ec 00       		.uleb128 0
 10085 07ed 5F5F494E 		.ascii "__INTPTR_TYPE__ long long int\0"
 10085      54505452 
 10085      5F545950 
 10085      455F5F20 
 10085      6C6F6E67 
 10086 080b 01       		.byte	0x1
 10087 080c 00       		.uleb128 0
 10088 080d 5F5F5549 		.ascii "__UINTPTR_TYPE__ long long unsigned int\0"
 10088      4E545054 
 10088      525F5459 
 10088      50455F5F 
 10088      206C6F6E 
 10089 0835 01       		.byte	0x1
 10090 0836 00       		.uleb128 0
 10091 0837 5F5F4758 		.ascii "__GXX_ABI_VERSION 1019\0"
 10091      585F4142 
 10091      495F5645 
 10091      5253494F 
 10091      4E203130 
 10092 084e 01       		.byte	0x1
 10093 084f 00       		.uleb128 0
 10094 0850 5F5F5343 		.ascii "__SCHAR_MAX__ 0x7f\0"
 10094      4841525F 
 10094      4D41585F 
 10094      5F203078 
 10094      376600
 10095 0863 01       		.byte	0x1
 10096 0864 00       		.uleb128 0
 10097 0865 5F5F5348 		.ascii "__SHRT_MAX__ 0x7fff\0"
 10097      52545F4D 
 10097      41585F5F 
 10097      20307837 
 10097      66666600 
 10098 0879 01       		.byte	0x1
 10099 087a 00       		.uleb128 0
 10100 087b 5F5F494E 		.ascii "__INT_MAX__ 0x7fffffff\0"
 10100      545F4D41 
 10100      585F5F20 
 10100      30783766 
 10100      66666666 
 10101 0892 01       		.byte	0x1
 10102 0893 00       		.uleb128 0
 10103 0894 5F5F4C4F 		.ascii "__LONG_MAX__ 0x7fffffffL\0"
 10103      4E475F4D 
 10103      41585F5F 
 10103      20307837 
 10103      66666666 
 10104 08ad 01       		.byte	0x1
 10105 08ae 00       		.uleb128 0
 10106 08af 5F5F4C4F 		.ascii "__LONG_LONG_MAX__ 0x7fffffffffffffffLL\0"
 10106      4E475F4C 
 10106      4F4E475F 
 10106      4D41585F 
 10106      5F203078 
 10107 08d6 01       		.byte	0x1
 10108 08d7 00       		.uleb128 0
 10109 08d8 5F5F5743 		.ascii "__WCHAR_MAX__ 0xffff\0"
 10109      4841525F 
 10109      4D41585F 
 10109      5F203078 
 10109      66666666 
 10110 08ed 01       		.byte	0x1
 10111 08ee 00       		.uleb128 0
 10112 08ef 5F5F5743 		.ascii "__WCHAR_MIN__ 0\0"
 10112      4841525F 
 10112      4D494E5F 
 10112      5F203000 
 10113 08ff 01       		.byte	0x1
 10114 0900 00       		.uleb128 0
 10115 0901 5F5F5749 		.ascii "__WINT_MAX__ 0xffff\0"
 10115      4E545F4D 
 10115      41585F5F 
 10115      20307866 
 10115      66666600 
 10116 0915 01       		.byte	0x1
 10117 0916 00       		.uleb128 0
 10118 0917 5F5F5749 		.ascii "__WINT_MIN__ 0\0"
 10118      4E545F4D 
 10118      494E5F5F 
 10118      203000
 10119 0926 01       		.byte	0x1
 10120 0927 00       		.uleb128 0
 10121 0928 5F5F5054 		.ascii "__PTRDIFF_MAX__ 0x7fffffffffffffffLL\0"
 10121      52444946 
 10121      465F4D41 
 10121      585F5F20 
 10121      30783766 
 10122 094d 01       		.byte	0x1
 10123 094e 00       		.uleb128 0
 10124 094f 5F5F5349 		.ascii "__SIZE_MAX__ 0xffffffffffffffffULL\0"
 10124      5A455F4D 
 10124      41585F5F 
 10124      20307866 
 10124      66666666 
 10125 0972 01       		.byte	0x1
 10126 0973 00       		.uleb128 0
 10127 0974 5F5F5343 		.ascii "__SCHAR_WIDTH__ 8\0"
 10127      4841525F 
 10127      57494454 
 10127      485F5F20 
 10127      3800
 10128 0986 01       		.byte	0x1
 10129 0987 00       		.uleb128 0
 10130 0988 5F5F5348 		.ascii "__SHRT_WIDTH__ 16\0"
 10130      52545F57 
 10130      49445448 
 10130      5F5F2031 
 10130      3600
 10131 099a 01       		.byte	0x1
 10132 099b 00       		.uleb128 0
 10133 099c 5F5F494E 		.ascii "__INT_WIDTH__ 32\0"
 10133      545F5749 
 10133      4454485F 
 10133      5F203332 
 10133      00
 10134 09ad 01       		.byte	0x1
 10135 09ae 00       		.uleb128 0
 10136 09af 5F5F4C4F 		.ascii "__LONG_WIDTH__ 32\0"
 10136      4E475F57 
 10136      49445448 
 10136      5F5F2033 
 10136      3200
 10137 09c1 01       		.byte	0x1
 10138 09c2 00       		.uleb128 0
 10139 09c3 5F5F4C4F 		.ascii "__LONG_LONG_WIDTH__ 64\0"
 10139      4E475F4C 
 10139      4F4E475F 
 10139      57494454 
 10139      485F5F20 
 10140 09da 01       		.byte	0x1
 10141 09db 00       		.uleb128 0
 10142 09dc 5F5F5743 		.ascii "__WCHAR_WIDTH__ 16\0"
 10142      4841525F 
 10142      57494454 
 10142      485F5F20 
 10142      313600
 10143 09ef 01       		.byte	0x1
 10144 09f0 00       		.uleb128 0
 10145 09f1 5F5F5749 		.ascii "__WINT_WIDTH__ 16\0"
 10145      4E545F57 
 10145      49445448 
 10145      5F5F2031 
 10145      3600
 10146 0a03 01       		.byte	0x1
 10147 0a04 00       		.uleb128 0
 10148 0a05 5F5F5054 		.ascii "__PTRDIFF_WIDTH__ 64\0"
 10148      52444946 
 10148      465F5749 
 10148      4454485F 
 10148      5F203634 
 10149 0a1a 01       		.byte	0x1
 10150 0a1b 00       		.uleb128 0
 10151 0a1c 5F5F5349 		.ascii "__SIZE_WIDTH__ 64\0"
 10151      5A455F57 
 10151      49445448 
 10151      5F5F2036 
 10151      3400
 10152 0a2e 01       		.byte	0x1
 10153 0a2f 00       		.uleb128 0
 10154 0a30 5F5F4249 		.ascii "__BITINT_MAXWIDTH__ 65535\0"
 10154      54494E54 
 10154      5F4D4158 
 10154      57494454 
 10154      485F5F20 
 10155 0a4a 01       		.byte	0x1
 10156 0a4b 00       		.uleb128 0
 10157 0a4c 5F5F494E 		.ascii "__INTMAX_MAX__ 0x7fffffffffffffffLL\0"
 10157      544D4158 
 10157      5F4D4158 
 10157      5F5F2030 
 10157      78376666 
 10158 0a70 01       		.byte	0x1
 10159 0a71 00       		.uleb128 0
 10160 0a72 5F5F494E 		.ascii "__INTMAX_C(c) c ## LL\0"
 10160      544D4158 
 10160      5F432863 
 10160      29206320 
 10160      2323204C 
 10161 0a88 01       		.byte	0x1
 10162 0a89 00       		.uleb128 0
 10163 0a8a 5F5F5549 		.ascii "__UINTMAX_MAX__ 0xffffffffffffffffULL\0"
 10163      4E544D41 
 10163      585F4D41 
 10163      585F5F20 
 10163      30786666 
 10164 0ab0 01       		.byte	0x1
 10165 0ab1 00       		.uleb128 0
 10166 0ab2 5F5F5549 		.ascii "__UINTMAX_C(c) c ## ULL\0"
 10166      4E544D41 
 10166      585F4328 
 10166      63292063 
 10166      20232320 
 10167 0aca 01       		.byte	0x1
 10168 0acb 00       		.uleb128 0
 10169 0acc 5F5F494E 		.ascii "__INTMAX_WIDTH__ 64\0"
 10169      544D4158 
 10169      5F574944 
 10169      54485F5F 
 10169      20363400 
 10170 0ae0 01       		.byte	0x1
 10171 0ae1 00       		.uleb128 0
 10172 0ae2 5F5F5349 		.ascii "__SIG_ATOMIC_MAX__ 0x7fffffff\0"
 10172      475F4154 
 10172      4F4D4943 
 10172      5F4D4158 
 10172      5F5F2030 
 10173 0b00 01       		.byte	0x1
 10174 0b01 00       		.uleb128 0
 10175 0b02 5F5F5349 		.ascii "__SIG_ATOMIC_MIN__ (-__SIG_ATOMIC_MAX__ - 1)\0"
 10175      475F4154 
 10175      4F4D4943 
 10175      5F4D494E 
 10175      5F5F2028 
 10176 0b2f 01       		.byte	0x1
 10177 0b30 00       		.uleb128 0
 10178 0b31 5F5F5349 		.ascii "__SIG_ATOMIC_WIDTH__ 32\0"
 10178      475F4154 
 10178      4F4D4943 
 10178      5F574944 
 10178      54485F5F 
 10179 0b49 01       		.byte	0x1
 10180 0b4a 00       		.uleb128 0
 10181 0b4b 5F5F494E 		.ascii "__INT8_MAX__ 0x7f\0"
 10181      54385F4D 
 10181      41585F5F 
 10181      20307837 
 10181      6600
 10182 0b5d 01       		.byte	0x1
 10183 0b5e 00       		.uleb128 0
 10184 0b5f 5F5F494E 		.ascii "__INT16_MAX__ 0x7fff\0"
 10184      5431365F 
 10184      4D41585F 
 10184      5F203078 
 10184      37666666 
 10185 0b74 01       		.byte	0x1
 10186 0b75 00       		.uleb128 0
 10187 0b76 5F5F494E 		.ascii "__INT32_MAX__ 0x7fffffff\0"
 10187      5433325F 
 10187      4D41585F 
 10187      5F203078 
 10187      37666666 
 10188 0b8f 01       		.byte	0x1
 10189 0b90 00       		.uleb128 0
 10190 0b91 5F5F494E 		.ascii "__INT64_MAX__ 0x7fffffffffffffffLL\0"
 10190      5436345F 
 10190      4D41585F 
 10190      5F203078 
 10190      37666666 
 10191 0bb4 01       		.byte	0x1
 10192 0bb5 00       		.uleb128 0
 10193 0bb6 5F5F5549 		.ascii "__UINT8_MAX__ 0xff\0"
 10193      4E54385F 
 10193      4D41585F 
 10193      5F203078 
 10193      666600
 10194 0bc9 01       		.byte	0x1
 10195 0bca 00       		.uleb128 0
 10196 0bcb 5F5F5549 		.ascii "__UINT16_MAX__ 0xffff\0"
 10196      4E543136 
 10196      5F4D4158 
 10196      5F5F2030 
 10196      78666666 
 10197 0be1 01       		.byte	0x1
 10198 0be2 00       		.uleb128 0
 10199 0be3 5F5F5549 		.ascii "__UINT32_MAX__ 0xffffffffU\0"
 10199      4E543332 
 10199      5F4D4158 
 10199      5F5F2030 
 10199      78666666 
 10200 0bfe 01       		.byte	0x1
 10201 0bff 00       		.uleb128 0
 10202 0c00 5F5F5549 		.ascii "__UINT64_MAX__ 0xffffffffffffffffULL\0"
 10202      4E543634 
 10202      5F4D4158 
 10202      5F5F2030 
 10202      78666666 
 10203 0c25 01       		.byte	0x1
 10204 0c26 00       		.uleb128 0
 10205 0c27 5F5F494E 		.ascii "__INT_LEAST8_MAX__ 0x7f\0"
 10205      545F4C45 
 10205      41535438 
 10205      5F4D4158 
 10205      5F5F2030 
 10206 0c3f 01       		.byte	0x1
 10207 0c40 00       		.uleb128 0
 10208 0c41 5F5F494E 		.ascii "__INT8_C(c) c\0"
 10208      54385F43 
 10208      28632920 
 10208      6300
 10209 0c4f 01       		.byte	0x1
 10210 0c50 00       		.uleb128 0
 10211 0c51 5F5F494E 		.ascii "__INT_LEAST8_WIDTH__ 8\0"
 10211      545F4C45 
 10211      41535438 
 10211      5F574944 
 10211      54485F5F 
 10212 0c68 01       		.byte	0x1
 10213 0c69 00       		.uleb128 0
 10214 0c6a 5F5F494E 		.ascii "__INT_LEAST16_MAX__ 0x7fff\0"
 10214      545F4C45 
 10214      41535431 
 10214      365F4D41 
 10214      585F5F20 
 10215 0c85 01       		.byte	0x1
 10216 0c86 00       		.uleb128 0
 10217 0c87 5F5F494E 		.ascii "__INT16_C(c) c\0"
 10217      5431365F 
 10217      43286329 
 10217      206300
 10218 0c96 01       		.byte	0x1
 10219 0c97 00       		.uleb128 0
 10220 0c98 5F5F494E 		.ascii "__INT_LEAST16_WIDTH__ 16\0"
 10220      545F4C45 
 10220      41535431 
 10220      365F5749 
 10220      4454485F 
 10221 0cb1 01       		.byte	0x1
 10222 0cb2 00       		.uleb128 0
 10223 0cb3 5F5F494E 		.ascii "__INT_LEAST32_MAX__ 0x7fffffff\0"
 10223      545F4C45 
 10223      41535433 
 10223      325F4D41 
 10223      585F5F20 
 10224 0cd2 01       		.byte	0x1
 10225 0cd3 00       		.uleb128 0
 10226 0cd4 5F5F494E 		.ascii "__INT32_C(c) c\0"
 10226      5433325F 
 10226      43286329 
 10226      206300
 10227 0ce3 01       		.byte	0x1
 10228 0ce4 00       		.uleb128 0
 10229 0ce5 5F5F494E 		.ascii "__INT_LEAST32_WIDTH__ 32\0"
 10229      545F4C45 
 10229      41535433 
 10229      325F5749 
 10229      4454485F 
 10230 0cfe 01       		.byte	0x1
 10231 0cff 00       		.uleb128 0
 10232 0d00 5F5F494E 		.ascii "__INT_LEAST64_MAX__ 0x7fffffffffffffffLL\0"
 10232      545F4C45 
 10232      41535436 
 10232      345F4D41 
 10232      585F5F20 
 10233 0d29 01       		.byte	0x1
 10234 0d2a 00       		.uleb128 0
 10235 0d2b 5F5F494E 		.ascii "__INT64_C(c) c ## LL\0"
 10235      5436345F 
 10235      43286329 
 10235      20632023 
 10235      23204C4C 
 10236 0d40 01       		.byte	0x1
 10237 0d41 00       		.uleb128 0
 10238 0d42 5F5F494E 		.ascii "__INT_LEAST64_WIDTH__ 64\0"
 10238      545F4C45 
 10238      41535436 
 10238      345F5749 
 10238      4454485F 
 10239 0d5b 01       		.byte	0x1
 10240 0d5c 00       		.uleb128 0
 10241 0d5d 5F5F5549 		.ascii "__UINT_LEAST8_MAX__ 0xff\0"
 10241      4E545F4C 
 10241      45415354 
 10241      385F4D41 
 10241      585F5F20 
 10242 0d76 01       		.byte	0x1
 10243 0d77 00       		.uleb128 0
 10244 0d78 5F5F5549 		.ascii "__UINT8_C(c) c\0"
 10244      4E54385F 
 10244      43286329 
 10244      206300
 10245 0d87 01       		.byte	0x1
 10246 0d88 00       		.uleb128 0
 10247 0d89 5F5F5549 		.ascii "__UINT_LEAST16_MAX__ 0xffff\0"
 10247      4E545F4C 
 10247      45415354 
 10247      31365F4D 
 10247      41585F5F 
 10248 0da5 01       		.byte	0x1
 10249 0da6 00       		.uleb128 0
 10250 0da7 5F5F5549 		.ascii "__UINT16_C(c) c\0"
 10250      4E543136 
 10250      5F432863 
 10250      29206300 
 10251 0db7 01       		.byte	0x1
 10252 0db8 00       		.uleb128 0
 10253 0db9 5F5F5549 		.ascii "__UINT_LEAST32_MAX__ 0xffffffffU\0"
 10253      4E545F4C 
 10253      45415354 
 10253      33325F4D 
 10253      41585F5F 
 10254 0dda 01       		.byte	0x1
 10255 0ddb 00       		.uleb128 0
 10256 0ddc 5F5F5549 		.ascii "__UINT32_C(c) c ## U\0"
 10256      4E543332 
 10256      5F432863 
 10256      29206320 
 10256      23232055 
 10257 0df1 01       		.byte	0x1
 10258 0df2 00       		.uleb128 0
 10259 0df3 5F5F5549 		.ascii "__UINT_LEAST64_MAX__ 0xffffffffffffffffULL\0"
 10259      4E545F4C 
 10259      45415354 
 10259      36345F4D 
 10259      41585F5F 
 10260 0e1e 01       		.byte	0x1
 10261 0e1f 00       		.uleb128 0
 10262 0e20 5F5F5549 		.ascii "__UINT64_C(c) c ## ULL\0"
 10262      4E543634 
 10262      5F432863 
 10262      29206320 
 10262      23232055 
 10263 0e37 01       		.byte	0x1
 10264 0e38 00       		.uleb128 0
 10265 0e39 5F5F494E 		.ascii "__INT_FAST8_MAX__ 0x7f\0"
 10265      545F4641 
 10265      5354385F 
 10265      4D41585F 
 10265      5F203078 
 10266 0e50 01       		.byte	0x1
 10267 0e51 00       		.uleb128 0
 10268 0e52 5F5F494E 		.ascii "__INT_FAST8_WIDTH__ 8\0"
 10268      545F4641 
 10268      5354385F 
 10268      57494454 
 10268      485F5F20 
 10269 0e68 01       		.byte	0x1
 10270 0e69 00       		.uleb128 0
 10271 0e6a 5F5F494E 		.ascii "__INT_FAST16_MAX__ 0x7fff\0"
 10271      545F4641 
 10271      53543136 
 10271      5F4D4158 
 10271      5F5F2030 
 10272 0e84 01       		.byte	0x1
 10273 0e85 00       		.uleb128 0
 10274 0e86 5F5F494E 		.ascii "__INT_FAST16_WIDTH__ 16\0"
 10274      545F4641 
 10274      53543136 
 10274      5F574944 
 10274      54485F5F 
 10275 0e9e 01       		.byte	0x1
 10276 0e9f 00       		.uleb128 0
 10277 0ea0 5F5F494E 		.ascii "__INT_FAST32_MAX__ 0x7fffffff\0"
 10277      545F4641 
 10277      53543332 
 10277      5F4D4158 
 10277      5F5F2030 
 10278 0ebe 01       		.byte	0x1
 10279 0ebf 00       		.uleb128 0
 10280 0ec0 5F5F494E 		.ascii "__INT_FAST32_WIDTH__ 32\0"
 10280      545F4641 
 10280      53543332 
 10280      5F574944 
 10280      54485F5F 
 10281 0ed8 01       		.byte	0x1
 10282 0ed9 00       		.uleb128 0
 10283 0eda 5F5F494E 		.ascii "__INT_FAST64_MAX__ 0x7fffffffffffffffLL\0"
 10283      545F4641 
 10283      53543634 
 10283      5F4D4158 
 10283      5F5F2030 
 10284 0f02 01       		.byte	0x1
 10285 0f03 00       		.uleb128 0
 10286 0f04 5F5F494E 		.ascii "__INT_FAST64_WIDTH__ 64\0"
 10286      545F4641 
 10286      53543634 
 10286      5F574944 
 10286      54485F5F 
 10287 0f1c 01       		.byte	0x1
 10288 0f1d 00       		.uleb128 0
 10289 0f1e 5F5F5549 		.ascii "__UINT_FAST8_MAX__ 0xff\0"
 10289      4E545F46 
 10289      41535438 
 10289      5F4D4158 
 10289      5F5F2030 
 10290 0f36 01       		.byte	0x1
 10291 0f37 00       		.uleb128 0
 10292 0f38 5F5F5549 		.ascii "__UINT_FAST16_MAX__ 0xffff\0"
 10292      4E545F46 
 10292      41535431 
 10292      365F4D41 
 10292      585F5F20 
 10293 0f53 01       		.byte	0x1
 10294 0f54 00       		.uleb128 0
 10295 0f55 5F5F5549 		.ascii "__UINT_FAST32_MAX__ 0xffffffffU\0"
 10295      4E545F46 
 10295      41535433 
 10295      325F4D41 
 10295      585F5F20 
 10296 0f75 01       		.byte	0x1
 10297 0f76 00       		.uleb128 0
 10298 0f77 5F5F5549 		.ascii "__UINT_FAST64_MAX__ 0xffffffffffffffffULL\0"
 10298      4E545F46 
 10298      41535436 
 10298      345F4D41 
 10298      585F5F20 
 10299 0fa1 01       		.byte	0x1
 10300 0fa2 00       		.uleb128 0
 10301 0fa3 5F5F494E 		.ascii "__INTPTR_MAX__ 0x7fffffffffffffffLL\0"
 10301      54505452 
 10301      5F4D4158 
 10301      5F5F2030 
 10301      78376666 
 10302 0fc7 01       		.byte	0x1
 10303 0fc8 00       		.uleb128 0
 10304 0fc9 5F5F494E 		.ascii "__INTPTR_WIDTH__ 64\0"
 10304      54505452 
 10304      5F574944 
 10304      54485F5F 
 10304      20363400 
 10305 0fdd 01       		.byte	0x1
 10306 0fde 00       		.uleb128 0
 10307 0fdf 5F5F5549 		.ascii "__UINTPTR_MAX__ 0xffffffffffffffffULL\0"
 10307      4E545054 
 10307      525F4D41 
 10307      585F5F20 
 10307      30786666 
 10308 1005 01       		.byte	0x1
 10309 1006 00       		.uleb128 0
 10310 1007 5F5F4743 		.ascii "__GCC_IEC_559 2\0"
 10310      435F4945 
 10310      435F3535 
 10310      39203200 
 10311 1017 01       		.byte	0x1
 10312 1018 00       		.uleb128 0
 10313 1019 5F5F4743 		.ascii "__GCC_IEC_559_COMPLEX 2\0"
 10313      435F4945 
 10313      435F3535 
 10313      395F434F 
 10313      4D504C45 
 10314 1031 01       		.byte	0x1
 10315 1032 00       		.uleb128 0
 10316 1033 5F5F464C 		.ascii "__FLT_EVAL_METHOD__ 0\0"
 10316      545F4556 
 10316      414C5F4D 
 10316      4554484F 
 10316      445F5F20 
 10317 1049 01       		.byte	0x1
 10318 104a 00       		.uleb128 0
 10319 104b 5F5F464C 		.ascii "__FLT_EVAL_METHOD_TS_18661_3__ 0\0"
 10319      545F4556 
 10319      414C5F4D 
 10319      4554484F 
 10319      445F5453 
 10320 106c 01       		.byte	0x1
 10321 106d 00       		.uleb128 0
 10322 106e 5F5F4445 		.ascii "__DEC_EVAL_METHOD__ 2\0"
 10322      435F4556 
 10322      414C5F4D 
 10322      4554484F 
 10322      445F5F20 
 10323 1084 01       		.byte	0x1
 10324 1085 00       		.uleb128 0
 10325 1086 5F5F464C 		.ascii "__FLT_RADIX__ 2\0"
 10325      545F5241 
 10325      4449585F 
 10325      5F203200 
 10326 1096 01       		.byte	0x1
 10327 1097 00       		.uleb128 0
 10328 1098 5F5F464C 		.ascii "__FLT_MANT_DIG__ 24\0"
 10328      545F4D41 
 10328      4E545F44 
 10328      49475F5F 
 10328      20323400 
 10329 10ac 01       		.byte	0x1
 10330 10ad 00       		.uleb128 0
 10331 10ae 5F5F464C 		.ascii "__FLT_DIG__ 6\0"
 10331      545F4449 
 10331      475F5F20 
 10331      3600
 10332 10bc 01       		.byte	0x1
 10333 10bd 00       		.uleb128 0
 10334 10be 5F5F464C 		.ascii "__FLT_MIN_EXP__ (-125)\0"
 10334      545F4D49 
 10334      4E5F4558 
 10334      505F5F20 
 10334      282D3132 
 10335 10d5 01       		.byte	0x1
 10336 10d6 00       		.uleb128 0
 10337 10d7 5F5F464C 		.ascii "__FLT_MIN_10_EXP__ (-37)\0"
 10337      545F4D49 
 10337      4E5F3130 
 10337      5F455850 
 10337      5F5F2028 
 10338 10f0 01       		.byte	0x1
 10339 10f1 00       		.uleb128 0
 10340 10f2 5F5F464C 		.ascii "__FLT_MAX_EXP__ 128\0"
 10340      545F4D41 
 10340      585F4558 
 10340      505F5F20 
 10340      31323800 
 10341 1106 01       		.byte	0x1
 10342 1107 00       		.uleb128 0
 10343 1108 5F5F464C 		.ascii "__FLT_MAX_10_EXP__ 38\0"
 10343      545F4D41 
 10343      585F3130 
 10343      5F455850 
 10343      5F5F2033 
 10344 111e 01       		.byte	0x1
 10345 111f 00       		.uleb128 0
 10346 1120 5F5F464C 		.ascii "__FLT_DECIMAL_DIG__ 9\0"
 10346      545F4445 
 10346      43494D41 
 10346      4C5F4449 
 10346      475F5F20 
 10347 1136 01       		.byte	0x1
 10348 1137 00       		.uleb128 0
 10349 1138 5F5F464C 		.ascii "__FLT_MAX__ 3.40282346638528859811704183484516925e+38F\0"
 10349      545F4D41 
 10349      585F5F20 
 10349      332E3430 
 10349      32383233 
 10350 116f 01       		.byte	0x1
 10351 1170 00       		.uleb128 0
 10352 1171 5F5F464C 		.ascii "__FLT_NORM_MAX__ 3.40282346638528859811704183484516925e+38F\0"
 10352      545F4E4F 
 10352      524D5F4D 
 10352      41585F5F 
 10352      20332E34 
 10353 11ad 01       		.byte	0x1
 10354 11ae 00       		.uleb128 0
 10355 11af 5F5F464C 		.ascii "__FLT_MIN__ 1.17549435082228750796873653722224568e-38F\0"
 10355      545F4D49 
 10355      4E5F5F20 
 10355      312E3137 
 10355      35343934 
 10356 11e6 01       		.byte	0x1
 10357 11e7 00       		.uleb128 0
 10358 11e8 5F5F464C 		.ascii "__FLT_EPSILON__ 1.19209289550781250000000000000000000e-7F\0"
 10358      545F4550 
 10358      53494C4F 
 10358      4E5F5F20 
 10358      312E3139 
 10359 1222 01       		.byte	0x1
 10360 1223 00       		.uleb128 0
 10361 1224 5F5F464C 		.ascii "__FLT_DENORM_MIN__ 1.40129846432481707092372958328991613e-45F\0"
 10361      545F4445 
 10361      4E4F524D 
 10361      5F4D494E 
 10361      5F5F2031 
 10362 1262 01       		.byte	0x1
 10363 1263 00       		.uleb128 0
 10364 1264 5F5F464C 		.ascii "__FLT_HAS_DENORM__ 1\0"
 10364      545F4841 
 10364      535F4445 
 10364      4E4F524D 
 10364      5F5F2031 
 10365 1279 01       		.byte	0x1
 10366 127a 00       		.uleb128 0
 10367 127b 5F5F464C 		.ascii "__FLT_HAS_INFINITY__ 1\0"
 10367      545F4841 
 10367      535F494E 
 10367      46494E49 
 10367      54595F5F 
 10368 1292 01       		.byte	0x1
 10369 1293 00       		.uleb128 0
 10370 1294 5F5F464C 		.ascii "__FLT_HAS_QUIET_NAN__ 1\0"
 10370      545F4841 
 10370      535F5155 
 10370      4945545F 
 10370      4E414E5F 
 10371 12ac 01       		.byte	0x1
 10372 12ad 00       		.uleb128 0
 10373 12ae 5F5F464C 		.ascii "__FLT_IS_IEC_60559__ 1\0"
 10373      545F4953 
 10373      5F494543 
 10373      5F363035 
 10373      35395F5F 
 10374 12c5 01       		.byte	0x1
 10375 12c6 00       		.uleb128 0
 10376 12c7 5F5F4442 		.ascii "__DBL_MANT_DIG__ 53\0"
 10376      4C5F4D41 
 10376      4E545F44 
 10376      49475F5F 
 10376      20353300 
 10377 12db 01       		.byte	0x1
 10378 12dc 00       		.uleb128 0
 10379 12dd 5F5F4442 		.ascii "__DBL_DIG__ 15\0"
 10379      4C5F4449 
 10379      475F5F20 
 10379      313500
 10380 12ec 01       		.byte	0x1
 10381 12ed 00       		.uleb128 0
 10382 12ee 5F5F4442 		.ascii "__DBL_MIN_EXP__ (-1021)\0"
 10382      4C5F4D49 
 10382      4E5F4558 
 10382      505F5F20 
 10382      282D3130 
 10383 1306 01       		.byte	0x1
 10384 1307 00       		.uleb128 0
 10385 1308 5F5F4442 		.ascii "__DBL_MIN_10_EXP__ (-307)\0"
 10385      4C5F4D49 
 10385      4E5F3130 
 10385      5F455850 
 10385      5F5F2028 
 10386 1322 01       		.byte	0x1
 10387 1323 00       		.uleb128 0
 10388 1324 5F5F4442 		.ascii "__DBL_MAX_EXP__ 1024\0"
 10388      4C5F4D41 
 10388      585F4558 
 10388      505F5F20 
 10388      31303234 
 10389 1339 01       		.byte	0x1
 10390 133a 00       		.uleb128 0
 10391 133b 5F5F4442 		.ascii "__DBL_MAX_10_EXP__ 308\0"
 10391      4C5F4D41 
 10391      585F3130 
 10391      5F455850 
 10391      5F5F2033 
 10392 1352 01       		.byte	0x1
 10393 1353 00       		.uleb128 0
 10394 1354 5F5F4442 		.ascii "__DBL_DECIMAL_DIG__ 17\0"
 10394      4C5F4445 
 10394      43494D41 
 10394      4C5F4449 
 10394      475F5F20 
 10395 136b 01       		.byte	0x1
 10396 136c 00       		.uleb128 0
 10397 136d 5F5F4442 		.ascii "__DBL_MAX__ ((double)1.79769313486231570814527423731704357e+308L)\0"
 10397      4C5F4D41 
 10397      585F5F20 
 10397      2828646F 
 10397      75626C65 
 10398 13af 01       		.byte	0x1
 10399 13b0 00       		.uleb128 0
 10400 13b1 5F5F4442 		.ascii "__DBL_NORM_MAX__ ((double)1.79769313486231570814527423731704357e+308L)\0"
 10400      4C5F4E4F 
 10400      524D5F4D 
 10400      41585F5F 
 10400      20282864 
 10401 13f8 01       		.byte	0x1
 10402 13f9 00       		.uleb128 0
 10403 13fa 5F5F4442 		.ascii "__DBL_MIN__ ((double)2.22507385850720138309023271733240406e-308L)\0"
 10403      4C5F4D49 
 10403      4E5F5F20 
 10403      2828646F 
 10403      75626C65 
 10404 143c 01       		.byte	0x1
 10405 143d 00       		.uleb128 0
 10406 143e 5F5F4442 		.ascii "__DBL_EPSILON__ ((double)2.22044604925031308084726333618164062e-16L)\0"
 10406      4C5F4550 
 10406      53494C4F 
 10406      4E5F5F20 
 10406      2828646F 
 10407 1483 01       		.byte	0x1
 10408 1484 00       		.uleb128 0
 10409 1485 5F5F4442 		.ascii "__DBL_DENORM_MIN__ ((double)4.94065645841246544176568792868221372e-324L)\0"
 10409      4C5F4445 
 10409      4E4F524D 
 10409      5F4D494E 
 10409      5F5F2028 
 10410 14ce 01       		.byte	0x1
 10411 14cf 00       		.uleb128 0
 10412 14d0 5F5F4442 		.ascii "__DBL_HAS_DENORM__ 1\0"
 10412      4C5F4841 
 10412      535F4445 
 10412      4E4F524D 
 10412      5F5F2031 
 10413 14e5 01       		.byte	0x1
 10414 14e6 00       		.uleb128 0
 10415 14e7 5F5F4442 		.ascii "__DBL_HAS_INFINITY__ 1\0"
 10415      4C5F4841 
 10415      535F494E 
 10415      46494E49 
 10415      54595F5F 
 10416 14fe 01       		.byte	0x1
 10417 14ff 00       		.uleb128 0
 10418 1500 5F5F4442 		.ascii "__DBL_HAS_QUIET_NAN__ 1\0"
 10418      4C5F4841 
 10418      535F5155 
 10418      4945545F 
 10418      4E414E5F 
 10419 1518 01       		.byte	0x1
 10420 1519 00       		.uleb128 0
 10421 151a 5F5F4442 		.ascii "__DBL_IS_IEC_60559__ 1\0"
 10421      4C5F4953 
 10421      5F494543 
 10421      5F363035 
 10421      35395F5F 
 10422 1531 01       		.byte	0x1
 10423 1532 00       		.uleb128 0
 10424 1533 5F5F4C44 		.ascii "__LDBL_MANT_DIG__ 64\0"
 10424      424C5F4D 
 10424      414E545F 
 10424      4449475F 
 10424      5F203634 
 10425 1548 01       		.byte	0x1
 10426 1549 00       		.uleb128 0
 10427 154a 5F5F4C44 		.ascii "__LDBL_DIG__ 18\0"
 10427      424C5F44 
 10427      49475F5F 
 10427      20313800 
 10428 155a 01       		.byte	0x1
 10429 155b 00       		.uleb128 0
 10430 155c 5F5F4C44 		.ascii "__LDBL_MIN_EXP__ (-16381)\0"
 10430      424C5F4D 
 10430      494E5F45 
 10430      58505F5F 
 10430      20282D31 
 10431 1576 01       		.byte	0x1
 10432 1577 00       		.uleb128 0
 10433 1578 5F5F4C44 		.ascii "__LDBL_MIN_10_EXP__ (-4931)\0"
 10433      424C5F4D 
 10433      494E5F31 
 10433      305F4558 
 10433      505F5F20 
 10434 1594 01       		.byte	0x1
 10435 1595 00       		.uleb128 0
 10436 1596 5F5F4C44 		.ascii "__LDBL_MAX_EXP__ 16384\0"
 10436      424C5F4D 
 10436      41585F45 
 10436      58505F5F 
 10436      20313633 
 10437 15ad 01       		.byte	0x1
 10438 15ae 00       		.uleb128 0
 10439 15af 5F5F4C44 		.ascii "__LDBL_MAX_10_EXP__ 4932\0"
 10439      424C5F4D 
 10439      41585F31 
 10439      305F4558 
 10439      505F5F20 
 10440 15c8 01       		.byte	0x1
 10441 15c9 00       		.uleb128 0
 10442 15ca 5F5F4445 		.ascii "__DECIMAL_DIG__ 21\0"
 10442      43494D41 
 10442      4C5F4449 
 10442      475F5F20 
 10442      323100
 10443 15dd 01       		.byte	0x1
 10444 15de 00       		.uleb128 0
 10445 15df 5F5F4C44 		.ascii "__LDBL_DECIMAL_DIG__ 21\0"
 10445      424C5F44 
 10445      4543494D 
 10445      414C5F44 
 10445      49475F5F 
 10446 15f7 01       		.byte	0x1
 10447 15f8 00       		.uleb128 0
 10448 15f9 5F5F4C44 		.ascii "__LDBL_MAX__ 1.18973149535723176502126385303097021e+4932L\0"
 10448      424C5F4D 
 10448      41585F5F 
 10448      20312E31 
 10448      38393733 
 10449 1633 01       		.byte	0x1
 10450 1634 00       		.uleb128 0
 10451 1635 5F5F4C44 		.ascii "__LDBL_NORM_MAX__ 1.18973149535723176502126385303097021e+4932L\0"
 10451      424C5F4E 
 10451      4F524D5F 
 10451      4D41585F 
 10451      5F20312E 
 10452 1674 01       		.byte	0x1
 10453 1675 00       		.uleb128 0
 10454 1676 5F5F4C44 		.ascii "__LDBL_MIN__ 3.36210314311209350626267781732175260e-4932L\0"
 10454      424C5F4D 
 10454      494E5F5F 
 10454      20332E33 
 10454      36323130 
 10455 16b0 01       		.byte	0x1
 10456 16b1 00       		.uleb128 0
 10457 16b2 5F5F4C44 		.ascii "__LDBL_EPSILON__ 1.08420217248550443400745280086994171e-19L\0"
 10457      424C5F45 
 10457      5053494C 
 10457      4F4E5F5F 
 10457      20312E30 
 10458 16ee 01       		.byte	0x1
 10459 16ef 00       		.uleb128 0
 10460 16f0 5F5F4C44 		.ascii "__LDBL_DENORM_MIN__ 3.64519953188247460252840593361941982e-4951L\0"
 10460      424C5F44 
 10460      454E4F52 
 10460      4D5F4D49 
 10460      4E5F5F20 
 10461 1731 01       		.byte	0x1
 10462 1732 00       		.uleb128 0
 10463 1733 5F5F4C44 		.ascii "__LDBL_HAS_DENORM__ 1\0"
 10463      424C5F48 
 10463      41535F44 
 10463      454E4F52 
 10463      4D5F5F20 
 10464 1749 01       		.byte	0x1
 10465 174a 00       		.uleb128 0
 10466 174b 5F5F4C44 		.ascii "__LDBL_HAS_INFINITY__ 1\0"
 10466      424C5F48 
 10466      41535F49 
 10466      4E46494E 
 10466      4954595F 
 10467 1763 01       		.byte	0x1
 10468 1764 00       		.uleb128 0
 10469 1765 5F5F4C44 		.ascii "__LDBL_HAS_QUIET_NAN__ 1\0"
 10469      424C5F48 
 10469      41535F51 
 10469      55494554 
 10469      5F4E414E 
 10470 177e 01       		.byte	0x1
 10471 177f 00       		.uleb128 0
 10472 1780 5F5F4C44 		.ascii "__LDBL_IS_IEC_60559__ 1\0"
 10472      424C5F49 
 10472      535F4945 
 10472      435F3630 
 10472      3535395F 
 10473 1798 01       		.byte	0x1
 10474 1799 00       		.uleb128 0
 10475 179a 5F5F464C 		.ascii "__FLT16_MANT_DIG__ 11\0"
 10475      5431365F 
 10475      4D414E54 
 10475      5F444947 
 10475      5F5F2031 
 10476 17b0 01       		.byte	0x1
 10477 17b1 00       		.uleb128 0
 10478 17b2 5F5F464C 		.ascii "__FLT16_DIG__ 3\0"
 10478      5431365F 
 10478      4449475F 
 10478      5F203300 
 10479 17c2 01       		.byte	0x1
 10480 17c3 00       		.uleb128 0
 10481 17c4 5F5F464C 		.ascii "__FLT16_MIN_EXP__ (-13)\0"
 10481      5431365F 
 10481      4D494E5F 
 10481      4558505F 
 10481      5F20282D 
 10482 17dc 01       		.byte	0x1
 10483 17dd 00       		.uleb128 0
 10484 17de 5F5F464C 		.ascii "__FLT16_MIN_10_EXP__ (-4)\0"
 10484      5431365F 
 10484      4D494E5F 
 10484      31305F45 
 10484      58505F5F 
 10485 17f8 01       		.byte	0x1
 10486 17f9 00       		.uleb128 0
 10487 17fa 5F5F464C 		.ascii "__FLT16_MAX_EXP__ 16\0"
 10487      5431365F 
 10487      4D41585F 
 10487      4558505F 
 10487      5F203136 
 10488 180f 01       		.byte	0x1
 10489 1810 00       		.uleb128 0
 10490 1811 5F5F464C 		.ascii "__FLT16_MAX_10_EXP__ 4\0"
 10490      5431365F 
 10490      4D41585F 
 10490      31305F45 
 10490      58505F5F 
 10491 1828 01       		.byte	0x1
 10492 1829 00       		.uleb128 0
 10493 182a 5F5F464C 		.ascii "__FLT16_DECIMAL_DIG__ 5\0"
 10493      5431365F 
 10493      44454349 
 10493      4D414C5F 
 10493      4449475F 
 10494 1842 01       		.byte	0x1
 10495 1843 00       		.uleb128 0
 10496 1844 5F5F464C 		.ascii "__FLT16_MAX__ 6.55040000000000000000000000000000000e+4F16\0"
 10496      5431365F 
 10496      4D41585F 
 10496      5F20362E 
 10496      35353034 
 10497 187e 01       		.byte	0x1
 10498 187f 00       		.uleb128 0
 10499 1880 5F5F464C 		.ascii "__FLT16_NORM_MAX__ 6.55040000000000000000000000000000000e+4F16\0"
 10499      5431365F 
 10499      4E4F524D 
 10499      5F4D4158 
 10499      5F5F2036 
 10500 18bf 01       		.byte	0x1
 10501 18c0 00       		.uleb128 0
 10502 18c1 5F5F464C 		.ascii "__FLT16_MIN__ 6.10351562500000000000000000000000000e-5F16\0"
 10502      5431365F 
 10502      4D494E5F 
 10502      5F20362E 
 10502      31303335 
 10503 18fb 01       		.byte	0x1
 10504 18fc 00       		.uleb128 0
 10505 18fd 5F5F464C 		.ascii "__FLT16_EPSILON__ 9.76562500000000000000000000000000000e-4F16\0"
 10505      5431365F 
 10505      45505349 
 10505      4C4F4E5F 
 10505      5F20392E 
 10506 193b 01       		.byte	0x1
 10507 193c 00       		.uleb128 0
 10508 193d 5F5F464C 		.ascii "__FLT16_DENORM_MIN__ 5.96046447753906250000000000000000000e-8F16\0"
 10508      5431365F 
 10508      44454E4F 
 10508      524D5F4D 
 10508      494E5F5F 
 10509 197e 01       		.byte	0x1
 10510 197f 00       		.uleb128 0
 10511 1980 5F5F464C 		.ascii "__FLT16_HAS_DENORM__ 1\0"
 10511      5431365F 
 10511      4841535F 
 10511      44454E4F 
 10511      524D5F5F 
 10512 1997 01       		.byte	0x1
 10513 1998 00       		.uleb128 0
 10514 1999 5F5F464C 		.ascii "__FLT16_HAS_INFINITY__ 1\0"
 10514      5431365F 
 10514      4841535F 
 10514      494E4649 
 10514      4E495459 
 10515 19b2 01       		.byte	0x1
 10516 19b3 00       		.uleb128 0
 10517 19b4 5F5F464C 		.ascii "__FLT16_HAS_QUIET_NAN__ 1\0"
 10517      5431365F 
 10517      4841535F 
 10517      51554945 
 10517      545F4E41 
 10518 19ce 01       		.byte	0x1
 10519 19cf 00       		.uleb128 0
 10520 19d0 5F5F464C 		.ascii "__FLT16_IS_IEC_60559__ 1\0"
 10520      5431365F 
 10520      49535F49 
 10520      45435F36 
 10520      30353539 
 10521 19e9 01       		.byte	0x1
 10522 19ea 00       		.uleb128 0
 10523 19eb 5F5F464C 		.ascii "__FLT32_MANT_DIG__ 24\0"
 10523      5433325F 
 10523      4D414E54 
 10523      5F444947 
 10523      5F5F2032 
 10524 1a01 01       		.byte	0x1
 10525 1a02 00       		.uleb128 0
 10526 1a03 5F5F464C 		.ascii "__FLT32_DIG__ 6\0"
 10526      5433325F 
 10526      4449475F 
 10526      5F203600 
 10527 1a13 01       		.byte	0x1
 10528 1a14 00       		.uleb128 0
 10529 1a15 5F5F464C 		.ascii "__FLT32_MIN_EXP__ (-125)\0"
 10529      5433325F 
 10529      4D494E5F 
 10529      4558505F 
 10529      5F20282D 
 10530 1a2e 01       		.byte	0x1
 10531 1a2f 00       		.uleb128 0
 10532 1a30 5F5F464C 		.ascii "__FLT32_MIN_10_EXP__ (-37)\0"
 10532      5433325F 
 10532      4D494E5F 
 10532      31305F45 
 10532      58505F5F 
 10533 1a4b 01       		.byte	0x1
 10534 1a4c 00       		.uleb128 0
 10535 1a4d 5F5F464C 		.ascii "__FLT32_MAX_EXP__ 128\0"
 10535      5433325F 
 10535      4D41585F 
 10535      4558505F 
 10535      5F203132 
 10536 1a63 01       		.byte	0x1
 10537 1a64 00       		.uleb128 0
 10538 1a65 5F5F464C 		.ascii "__FLT32_MAX_10_EXP__ 38\0"
 10538      5433325F 
 10538      4D41585F 
 10538      31305F45 
 10538      58505F5F 
 10539 1a7d 01       		.byte	0x1
 10540 1a7e 00       		.uleb128 0
 10541 1a7f 5F5F464C 		.ascii "__FLT32_DECIMAL_DIG__ 9\0"
 10541      5433325F 
 10541      44454349 
 10541      4D414C5F 
 10541      4449475F 
 10542 1a97 01       		.byte	0x1
 10543 1a98 00       		.uleb128 0
 10544 1a99 5F5F464C 		.ascii "__FLT32_MAX__ 3.40282346638528859811704183484516925e+38F32\0"
 10544      5433325F 
 10544      4D41585F 
 10544      5F20332E 
 10544      34303238 
 10545 1ad4 01       		.byte	0x1
 10546 1ad5 00       		.uleb128 0
 10547 1ad6 5F5F464C 		.ascii "__FLT32_NORM_MAX__ 3.40282346638528859811704183484516925e+38F32\0"
 10547      5433325F 
 10547      4E4F524D 
 10547      5F4D4158 
 10547      5F5F2033 
 10548 1b16 01       		.byte	0x1
 10549 1b17 00       		.uleb128 0
 10550 1b18 5F5F464C 		.ascii "__FLT32_MIN__ 1.17549435082228750796873653722224568e-38F32\0"
 10550      5433325F 
 10550      4D494E5F 
 10550      5F20312E 
 10550      31373534 
 10551 1b53 01       		.byte	0x1
 10552 1b54 00       		.uleb128 0
 10553 1b55 5F5F464C 		.ascii "__FLT32_EPSILON__ 1.19209289550781250000000000000000000e-7F32\0"
 10553      5433325F 
 10553      45505349 
 10553      4C4F4E5F 
 10553      5F20312E 
 10554 1b93 01       		.byte	0x1
 10555 1b94 00       		.uleb128 0
 10556 1b95 5F5F464C 		.ascii "__FLT32_DENORM_MIN__ 1.40129846432481707092372958328991613e-45F32\0"
 10556      5433325F 
 10556      44454E4F 
 10556      524D5F4D 
 10556      494E5F5F 
 10557 1bd7 01       		.byte	0x1
 10558 1bd8 00       		.uleb128 0
 10559 1bd9 5F5F464C 		.ascii "__FLT32_HAS_DENORM__ 1\0"
 10559      5433325F 
 10559      4841535F 
 10559      44454E4F 
 10559      524D5F5F 
 10560 1bf0 01       		.byte	0x1
 10561 1bf1 00       		.uleb128 0
 10562 1bf2 5F5F464C 		.ascii "__FLT32_HAS_INFINITY__ 1\0"
 10562      5433325F 
 10562      4841535F 
 10562      494E4649 
 10562      4E495459 
 10563 1c0b 01       		.byte	0x1
 10564 1c0c 00       		.uleb128 0
 10565 1c0d 5F5F464C 		.ascii "__FLT32_HAS_QUIET_NAN__ 1\0"
 10565      5433325F 
 10565      4841535F 
 10565      51554945 
 10565      545F4E41 
 10566 1c27 01       		.byte	0x1
 10567 1c28 00       		.uleb128 0
 10568 1c29 5F5F464C 		.ascii "__FLT32_IS_IEC_60559__ 1\0"
 10568      5433325F 
 10568      49535F49 
 10568      45435F36 
 10568      30353539 
 10569 1c42 01       		.byte	0x1
 10570 1c43 00       		.uleb128 0
 10571 1c44 5F5F464C 		.ascii "__FLT64_MANT_DIG__ 53\0"
 10571      5436345F 
 10571      4D414E54 
 10571      5F444947 
 10571      5F5F2035 
 10572 1c5a 01       		.byte	0x1
 10573 1c5b 00       		.uleb128 0
 10574 1c5c 5F5F464C 		.ascii "__FLT64_DIG__ 15\0"
 10574      5436345F 
 10574      4449475F 
 10574      5F203135 
 10574      00
 10575 1c6d 01       		.byte	0x1
 10576 1c6e 00       		.uleb128 0
 10577 1c6f 5F5F464C 		.ascii "__FLT64_MIN_EXP__ (-1021)\0"
 10577      5436345F 
 10577      4D494E5F 
 10577      4558505F 
 10577      5F20282D 
 10578 1c89 01       		.byte	0x1
 10579 1c8a 00       		.uleb128 0
 10580 1c8b 5F5F464C 		.ascii "__FLT64_MIN_10_EXP__ (-307)\0"
 10580      5436345F 
 10580      4D494E5F 
 10580      31305F45 
 10580      58505F5F 
 10581 1ca7 01       		.byte	0x1
 10582 1ca8 00       		.uleb128 0
 10583 1ca9 5F5F464C 		.ascii "__FLT64_MAX_EXP__ 1024\0"
 10583      5436345F 
 10583      4D41585F 
 10583      4558505F 
 10583      5F203130 
 10584 1cc0 01       		.byte	0x1
 10585 1cc1 00       		.uleb128 0
 10586 1cc2 5F5F464C 		.ascii "__FLT64_MAX_10_EXP__ 308\0"
 10586      5436345F 
 10586      4D41585F 
 10586      31305F45 
 10586      58505F5F 
 10587 1cdb 01       		.byte	0x1
 10588 1cdc 00       		.uleb128 0
 10589 1cdd 5F5F464C 		.ascii "__FLT64_DECIMAL_DIG__ 17\0"
 10589      5436345F 
 10589      44454349 
 10589      4D414C5F 
 10589      4449475F 
 10590 1cf6 01       		.byte	0x1
 10591 1cf7 00       		.uleb128 0
 10592 1cf8 5F5F464C 		.ascii "__FLT64_MAX__ 1.79769313486231570814527423731704357e+308F64\0"
 10592      5436345F 
 10592      4D41585F 
 10592      5F20312E 
 10592      37393736 
 10593 1d34 01       		.byte	0x1
 10594 1d35 00       		.uleb128 0
 10595 1d36 5F5F464C 		.ascii "__FLT64_NORM_MAX__ 1.79769313486231570814527423731704357e+308F64\0"
 10595      5436345F 
 10595      4E4F524D 
 10595      5F4D4158 
 10595      5F5F2031 
 10596 1d77 01       		.byte	0x1
 10597 1d78 00       		.uleb128 0
 10598 1d79 5F5F464C 		.ascii "__FLT64_MIN__ 2.22507385850720138309023271733240406e-308F64\0"
 10598      5436345F 
 10598      4D494E5F 
 10598      5F20322E 
 10598      32323530 
 10599 1db5 01       		.byte	0x1
 10600 1db6 00       		.uleb128 0
 10601 1db7 5F5F464C 		.ascii "__FLT64_EPSILON__ 2.22044604925031308084726333618164062e-16F64\0"
 10601      5436345F 
 10601      45505349 
 10601      4C4F4E5F 
 10601      5F20322E 
 10602 1df6 01       		.byte	0x1
 10603 1df7 00       		.uleb128 0
 10604 1df8 5F5F464C 		.ascii "__FLT64_DENORM_MIN__ 4.94065645841246544176568792868221372e-324F64\0"
 10604      5436345F 
 10604      44454E4F 
 10604      524D5F4D 
 10604      494E5F5F 
 10605 1e3b 01       		.byte	0x1
 10606 1e3c 00       		.uleb128 0
 10607 1e3d 5F5F464C 		.ascii "__FLT64_HAS_DENORM__ 1\0"
 10607      5436345F 
 10607      4841535F 
 10607      44454E4F 
 10607      524D5F5F 
 10608 1e54 01       		.byte	0x1
 10609 1e55 00       		.uleb128 0
 10610 1e56 5F5F464C 		.ascii "__FLT64_HAS_INFINITY__ 1\0"
 10610      5436345F 
 10610      4841535F 
 10610      494E4649 
 10610      4E495459 
 10611 1e6f 01       		.byte	0x1
 10612 1e70 00       		.uleb128 0
 10613 1e71 5F5F464C 		.ascii "__FLT64_HAS_QUIET_NAN__ 1\0"
 10613      5436345F 
 10613      4841535F 
 10613      51554945 
 10613      545F4E41 
 10614 1e8b 01       		.byte	0x1
 10615 1e8c 00       		.uleb128 0
 10616 1e8d 5F5F464C 		.ascii "__FLT64_IS_IEC_60559__ 1\0"
 10616      5436345F 
 10616      49535F49 
 10616      45435F36 
 10616      30353539 
 10617 1ea6 01       		.byte	0x1
 10618 1ea7 00       		.uleb128 0
 10619 1ea8 5F5F464C 		.ascii "__FLT128_MANT_DIG__ 113\0"
 10619      54313238 
 10619      5F4D414E 
 10619      545F4449 
 10619      475F5F20 
 10620 1ec0 01       		.byte	0x1
 10621 1ec1 00       		.uleb128 0
 10622 1ec2 5F5F464C 		.ascii "__FLT128_DIG__ 33\0"
 10622      54313238 
 10622      5F444947 
 10622      5F5F2033 
 10622      3300
 10623 1ed4 01       		.byte	0x1
 10624 1ed5 00       		.uleb128 0
 10625 1ed6 5F5F464C 		.ascii "__FLT128_MIN_EXP__ (-16381)\0"
 10625      54313238 
 10625      5F4D494E 
 10625      5F455850 
 10625      5F5F2028 
 10626 1ef2 01       		.byte	0x1
 10627 1ef3 00       		.uleb128 0
 10628 1ef4 5F5F464C 		.ascii "__FLT128_MIN_10_EXP__ (-4931)\0"
 10628      54313238 
 10628      5F4D494E 
 10628      5F31305F 
 10628      4558505F 
 10629 1f12 01       		.byte	0x1
 10630 1f13 00       		.uleb128 0
 10631 1f14 5F5F464C 		.ascii "__FLT128_MAX_EXP__ 16384\0"
 10631      54313238 
 10631      5F4D4158 
 10631      5F455850 
 10631      5F5F2031 
 10632 1f2d 01       		.byte	0x1
 10633 1f2e 00       		.uleb128 0
 10634 1f2f 5F5F464C 		.ascii "__FLT128_MAX_10_EXP__ 4932\0"
 10634      54313238 
 10634      5F4D4158 
 10634      5F31305F 
 10634      4558505F 
 10635 1f4a 01       		.byte	0x1
 10636 1f4b 00       		.uleb128 0
 10637 1f4c 5F5F464C 		.ascii "__FLT128_DECIMAL_DIG__ 36\0"
 10637      54313238 
 10637      5F444543 
 10637      494D414C 
 10637      5F444947 
 10638 1f66 01       		.byte	0x1
 10639 1f67 00       		.uleb128 0
 10640 1f68 5F5F464C 		.ascii "__FLT128_MAX__ 1.18973149535723176508575932662800702e+4932F128\0"
 10640      54313238 
 10640      5F4D4158 
 10640      5F5F2031 
 10640      2E313839 
 10641 1fa7 01       		.byte	0x1
 10642 1fa8 00       		.uleb128 0
 10643 1fa9 5F5F464C 		.ascii "__FLT128_NORM_MAX__ 1.18973149535723176508575932662800702e+4932F128\0"
 10643      54313238 
 10643      5F4E4F52 
 10643      4D5F4D41 
 10643      585F5F20 
 10644 1fed 01       		.byte	0x1
 10645 1fee 00       		.uleb128 0
 10646 1fef 5F5F464C 		.ascii "__FLT128_MIN__ 3.36210314311209350626267781732175260e-4932F128\0"
 10646      54313238 
 10646      5F4D494E 
 10646      5F5F2033 
 10646      2E333632 
 10647 202e 01       		.byte	0x1
 10648 202f 00       		.uleb128 0
 10649 2030 5F5F464C 		.ascii "__FLT128_EPSILON__ 1.92592994438723585305597794258492732e-34F128\0"
 10649      54313238 
 10649      5F455053 
 10649      494C4F4E 
 10649      5F5F2031 
 10650 2071 01       		.byte	0x1
 10651 2072 00       		.uleb128 0
 10652 2073 5F5F464C 		.ascii "__FLT128_DENORM_MIN__ 6.47517511943802511092443895822764655e-4966F128\0"
 10652      54313238 
 10652      5F44454E 
 10652      4F524D5F 
 10652      4D494E5F 
 10653 20b9 01       		.byte	0x1
 10654 20ba 00       		.uleb128 0
 10655 20bb 5F5F464C 		.ascii "__FLT128_HAS_DENORM__ 1\0"
 10655      54313238 
 10655      5F484153 
 10655      5F44454E 
 10655      4F524D5F 
 10656 20d3 01       		.byte	0x1
 10657 20d4 00       		.uleb128 0
 10658 20d5 5F5F464C 		.ascii "__FLT128_HAS_INFINITY__ 1\0"
 10658      54313238 
 10658      5F484153 
 10658      5F494E46 
 10658      494E4954 
 10659 20ef 01       		.byte	0x1
 10660 20f0 00       		.uleb128 0
 10661 20f1 5F5F464C 		.ascii "__FLT128_HAS_QUIET_NAN__ 1\0"
 10661      54313238 
 10661      5F484153 
 10661      5F515549 
 10661      45545F4E 
 10662 210c 01       		.byte	0x1
 10663 210d 00       		.uleb128 0
 10664 210e 5F5F464C 		.ascii "__FLT128_IS_IEC_60559__ 1\0"
 10664      54313238 
 10664      5F49535F 
 10664      4945435F 
 10664      36303535 
 10665 2128 01       		.byte	0x1
 10666 2129 00       		.uleb128 0
 10667 212a 5F5F464C 		.ascii "__FLT32X_MANT_DIG__ 53\0"
 10667      54333258 
 10667      5F4D414E 
 10667      545F4449 
 10667      475F5F20 
 10668 2141 01       		.byte	0x1
 10669 2142 00       		.uleb128 0
 10670 2143 5F5F464C 		.ascii "__FLT32X_DIG__ 15\0"
 10670      54333258 
 10670      5F444947 
 10670      5F5F2031 
 10670      3500
 10671 2155 01       		.byte	0x1
 10672 2156 00       		.uleb128 0
 10673 2157 5F5F464C 		.ascii "__FLT32X_MIN_EXP__ (-1021)\0"
 10673      54333258 
 10673      5F4D494E 
 10673      5F455850 
 10673      5F5F2028 
 10674 2172 01       		.byte	0x1
 10675 2173 00       		.uleb128 0
 10676 2174 5F5F464C 		.ascii "__FLT32X_MIN_10_EXP__ (-307)\0"
 10676      54333258 
 10676      5F4D494E 
 10676      5F31305F 
 10676      4558505F 
 10677 2191 01       		.byte	0x1
 10678 2192 00       		.uleb128 0
 10679 2193 5F5F464C 		.ascii "__FLT32X_MAX_EXP__ 1024\0"
 10679      54333258 
 10679      5F4D4158 
 10679      5F455850 
 10679      5F5F2031 
 10680 21ab 01       		.byte	0x1
 10681 21ac 00       		.uleb128 0
 10682 21ad 5F5F464C 		.ascii "__FLT32X_MAX_10_EXP__ 308\0"
 10682      54333258 
 10682      5F4D4158 
 10682      5F31305F 
 10682      4558505F 
 10683 21c7 01       		.byte	0x1
 10684 21c8 00       		.uleb128 0
 10685 21c9 5F5F464C 		.ascii "__FLT32X_DECIMAL_DIG__ 17\0"
 10685      54333258 
 10685      5F444543 
 10685      494D414C 
 10685      5F444947 
 10686 21e3 01       		.byte	0x1
 10687 21e4 00       		.uleb128 0
 10688 21e5 5F5F464C 		.ascii "__FLT32X_MAX__ 1.79769313486231570814527423731704357e+308F32x\0"
 10688      54333258 
 10688      5F4D4158 
 10688      5F5F2031 
 10688      2E373937 
 10689 2223 01       		.byte	0x1
 10690 2224 00       		.uleb128 0
 10691 2225 5F5F464C 		.ascii "__FLT32X_NORM_MAX__ 1.79769313486231570814527423731704357e+308F32x\0"
 10691      54333258 
 10691      5F4E4F52 
 10691      4D5F4D41 
 10691      585F5F20 
 10692 2268 01       		.byte	0x1
 10693 2269 00       		.uleb128 0
 10694 226a 5F5F464C 		.ascii "__FLT32X_MIN__ 2.22507385850720138309023271733240406e-308F32x\0"
 10694      54333258 
 10694      5F4D494E 
 10694      5F5F2032 
 10694      2E323235 
 10695 22a8 01       		.byte	0x1
 10696 22a9 00       		.uleb128 0
 10697 22aa 5F5F464C 		.ascii "__FLT32X_EPSILON__ 2.22044604925031308084726333618164062e-16F32x\0"
 10697      54333258 
 10697      5F455053 
 10697      494C4F4E 
 10697      5F5F2032 
 10698 22eb 01       		.byte	0x1
 10699 22ec 00       		.uleb128 0
 10700 22ed 5F5F464C 		.ascii "__FLT32X_DENORM_MIN__ 4.94065645841246544176568792868221372e-324F32x\0"
 10700      54333258 
 10700      5F44454E 
 10700      4F524D5F 
 10700      4D494E5F 
 10701 2332 01       		.byte	0x1
 10702 2333 00       		.uleb128 0
 10703 2334 5F5F464C 		.ascii "__FLT32X_HAS_DENORM__ 1\0"
 10703      54333258 
 10703      5F484153 
 10703      5F44454E 
 10703      4F524D5F 
 10704 234c 01       		.byte	0x1
 10705 234d 00       		.uleb128 0
 10706 234e 5F5F464C 		.ascii "__FLT32X_HAS_INFINITY__ 1\0"
 10706      54333258 
 10706      5F484153 
 10706      5F494E46 
 10706      494E4954 
 10707 2368 01       		.byte	0x1
 10708 2369 00       		.uleb128 0
 10709 236a 5F5F464C 		.ascii "__FLT32X_HAS_QUIET_NAN__ 1\0"
 10709      54333258 
 10709      5F484153 
 10709      5F515549 
 10709      45545F4E 
 10710 2385 01       		.byte	0x1
 10711 2386 00       		.uleb128 0
 10712 2387 5F5F464C 		.ascii "__FLT32X_IS_IEC_60559__ 1\0"
 10712      54333258 
 10712      5F49535F 
 10712      4945435F 
 10712      36303535 
 10713 23a1 01       		.byte	0x1
 10714 23a2 00       		.uleb128 0
 10715 23a3 5F5F464C 		.ascii "__FLT64X_MANT_DIG__ 64\0"
 10715      54363458 
 10715      5F4D414E 
 10715      545F4449 
 10715      475F5F20 
 10716 23ba 01       		.byte	0x1
 10717 23bb 00       		.uleb128 0
 10718 23bc 5F5F464C 		.ascii "__FLT64X_DIG__ 18\0"
 10718      54363458 
 10718      5F444947 
 10718      5F5F2031 
 10718      3800
 10719 23ce 01       		.byte	0x1
 10720 23cf 00       		.uleb128 0
 10721 23d0 5F5F464C 		.ascii "__FLT64X_MIN_EXP__ (-16381)\0"
 10721      54363458 
 10721      5F4D494E 
 10721      5F455850 
 10721      5F5F2028 
 10722 23ec 01       		.byte	0x1
 10723 23ed 00       		.uleb128 0
 10724 23ee 5F5F464C 		.ascii "__FLT64X_MIN_10_EXP__ (-4931)\0"
 10724      54363458 
 10724      5F4D494E 
 10724      5F31305F 
 10724      4558505F 
 10725 240c 01       		.byte	0x1
 10726 240d 00       		.uleb128 0
 10727 240e 5F5F464C 		.ascii "__FLT64X_MAX_EXP__ 16384\0"
 10727      54363458 
 10727      5F4D4158 
 10727      5F455850 
 10727      5F5F2031 
 10728 2427 01       		.byte	0x1
 10729 2428 00       		.uleb128 0
 10730 2429 5F5F464C 		.ascii "__FLT64X_MAX_10_EXP__ 4932\0"
 10730      54363458 
 10730      5F4D4158 
 10730      5F31305F 
 10730      4558505F 
 10731 2444 01       		.byte	0x1
 10732 2445 00       		.uleb128 0
 10733 2446 5F5F464C 		.ascii "__FLT64X_DECIMAL_DIG__ 21\0"
 10733      54363458 
 10733      5F444543 
 10733      494D414C 
 10733      5F444947 
 10734 2460 01       		.byte	0x1
 10735 2461 00       		.uleb128 0
 10736 2462 5F5F464C 		.ascii "__FLT64X_MAX__ 1.18973149535723176502126385303097021e+4932F64x\0"
 10736      54363458 
 10736      5F4D4158 
 10736      5F5F2031 
 10736      2E313839 
 10737 24a1 01       		.byte	0x1
 10738 24a2 00       		.uleb128 0
 10739 24a3 5F5F464C 		.ascii "__FLT64X_NORM_MAX__ 1.18973149535723176502126385303097021e+4932F64x\0"
 10739      54363458 
 10739      5F4E4F52 
 10739      4D5F4D41 
 10739      585F5F20 
 10740 24e7 01       		.byte	0x1
 10741 24e8 00       		.uleb128 0
 10742 24e9 5F5F464C 		.ascii "__FLT64X_MIN__ 3.36210314311209350626267781732175260e-4932F64x\0"
 10742      54363458 
 10742      5F4D494E 
 10742      5F5F2033 
 10742      2E333632 
 10743 2528 01       		.byte	0x1
 10744 2529 00       		.uleb128 0
 10745 252a 5F5F464C 		.ascii "__FLT64X_EPSILON__ 1.08420217248550443400745280086994171e-19F64x\0"
 10745      54363458 
 10745      5F455053 
 10745      494C4F4E 
 10745      5F5F2031 
 10746 256b 01       		.byte	0x1
 10747 256c 00       		.uleb128 0
 10748 256d 5F5F464C 		.ascii "__FLT64X_DENORM_MIN__ 3.64519953188247460252840593361941982e-4951F64x\0"
 10748      54363458 
 10748      5F44454E 
 10748      4F524D5F 
 10748      4D494E5F 
 10749 25b3 01       		.byte	0x1
 10750 25b4 00       		.uleb128 0
 10751 25b5 5F5F464C 		.ascii "__FLT64X_HAS_DENORM__ 1\0"
 10751      54363458 
 10751      5F484153 
 10751      5F44454E 
 10751      4F524D5F 
 10752 25cd 01       		.byte	0x1
 10753 25ce 00       		.uleb128 0
 10754 25cf 5F5F464C 		.ascii "__FLT64X_HAS_INFINITY__ 1\0"
 10754      54363458 
 10754      5F484153 
 10754      5F494E46 
 10754      494E4954 
 10755 25e9 01       		.byte	0x1
 10756 25ea 00       		.uleb128 0
 10757 25eb 5F5F464C 		.ascii "__FLT64X_HAS_QUIET_NAN__ 1\0"
 10757      54363458 
 10757      5F484153 
 10757      5F515549 
 10757      45545F4E 
 10758 2606 01       		.byte	0x1
 10759 2607 00       		.uleb128 0
 10760 2608 5F5F464C 		.ascii "__FLT64X_IS_IEC_60559__ 1\0"
 10760      54363458 
 10760      5F49535F 
 10760      4945435F 
 10760      36303535 
 10761 2622 01       		.byte	0x1
 10762 2623 00       		.uleb128 0
 10763 2624 5F5F4246 		.ascii "__BFLT16_MANT_DIG__ 8\0"
 10763      4C543136 
 10763      5F4D414E 
 10763      545F4449 
 10763      475F5F20 
 10764 263a 01       		.byte	0x1
 10765 263b 00       		.uleb128 0
 10766 263c 5F5F4246 		.ascii "__BFLT16_DIG__ 2\0"
 10766      4C543136 
 10766      5F444947 
 10766      5F5F2032 
 10766      00
 10767 264d 01       		.byte	0x1
 10768 264e 00       		.uleb128 0
 10769 264f 5F5F4246 		.ascii "__BFLT16_MIN_EXP__ (-125)\0"
 10769      4C543136 
 10769      5F4D494E 
 10769      5F455850 
 10769      5F5F2028 
 10770 2669 01       		.byte	0x1
 10771 266a 00       		.uleb128 0
 10772 266b 5F5F4246 		.ascii "__BFLT16_MIN_10_EXP__ (-37)\0"
 10772      4C543136 
 10772      5F4D494E 
 10772      5F31305F 
 10772      4558505F 
 10773 2687 01       		.byte	0x1
 10774 2688 00       		.uleb128 0
 10775 2689 5F5F4246 		.ascii "__BFLT16_MAX_EXP__ 128\0"
 10775      4C543136 
 10775      5F4D4158 
 10775      5F455850 
 10775      5F5F2031 
 10776 26a0 01       		.byte	0x1
 10777 26a1 00       		.uleb128 0
 10778 26a2 5F5F4246 		.ascii "__BFLT16_MAX_10_EXP__ 38\0"
 10778      4C543136 
 10778      5F4D4158 
 10778      5F31305F 
 10778      4558505F 
 10779 26bb 01       		.byte	0x1
 10780 26bc 00       		.uleb128 0
 10781 26bd 5F5F4246 		.ascii "__BFLT16_DECIMAL_DIG__ 4\0"
 10781      4C543136 
 10781      5F444543 
 10781      494D414C 
 10781      5F444947 
 10782 26d6 01       		.byte	0x1
 10783 26d7 00       		.uleb128 0
 10784 26d8 5F5F4246 		.ascii "__BFLT16_MAX__ 3.38953138925153547590470800371487867e+38BF16\0"
 10784      4C543136 
 10784      5F4D4158 
 10784      5F5F2033 
 10784      2E333839 
 10785 2715 01       		.byte	0x1
 10786 2716 00       		.uleb128 0
 10787 2717 5F5F4246 		.ascii "__BFLT16_NORM_MAX__ 3.38953138925153547590470800371487867e+38BF16\0"
 10787      4C543136 
 10787      5F4E4F52 
 10787      4D5F4D41 
 10787      585F5F20 
 10788 2759 01       		.byte	0x1
 10789 275a 00       		.uleb128 0
 10790 275b 5F5F4246 		.ascii "__BFLT16_MIN__ 1.17549435082228750796873653722224568e-38BF16\0"
 10790      4C543136 
 10790      5F4D494E 
 10790      5F5F2031 
 10790      2E313735 
 10791 2798 01       		.byte	0x1
 10792 2799 00       		.uleb128 0
 10793 279a 5F5F4246 		.ascii "__BFLT16_EPSILON__ 7.81250000000000000000000000000000000e-3BF16\0"
 10793      4C543136 
 10793      5F455053 
 10793      494C4F4E 
 10793      5F5F2037 
 10794 27da 01       		.byte	0x1
 10795 27db 00       		.uleb128 0
 10796 27dc 5F5F4246 		.ascii "__BFLT16_DENORM_MIN__ 9.18354961579912115600575419704879436e-41BF16\0"
 10796      4C543136 
 10796      5F44454E 
 10796      4F524D5F 
 10796      4D494E5F 
 10797 2820 01       		.byte	0x1
 10798 2821 00       		.uleb128 0
 10799 2822 5F5F4246 		.ascii "__BFLT16_HAS_DENORM__ 1\0"
 10799      4C543136 
 10799      5F484153 
 10799      5F44454E 
 10799      4F524D5F 
 10800 283a 01       		.byte	0x1
 10801 283b 00       		.uleb128 0
 10802 283c 5F5F4246 		.ascii "__BFLT16_HAS_INFINITY__ 1\0"
 10802      4C543136 
 10802      5F484153 
 10802      5F494E46 
 10802      494E4954 
 10803 2856 01       		.byte	0x1
 10804 2857 00       		.uleb128 0
 10805 2858 5F5F4246 		.ascii "__BFLT16_HAS_QUIET_NAN__ 1\0"
 10805      4C543136 
 10805      5F484153 
 10805      5F515549 
 10805      45545F4E 
 10806 2873 01       		.byte	0x1
 10807 2874 00       		.uleb128 0
 10808 2875 5F5F4246 		.ascii "__BFLT16_IS_IEC_60559__ 0\0"
 10808      4C543136 
 10808      5F49535F 
 10808      4945435F 
 10808      36303535 
 10809 288f 01       		.byte	0x1
 10810 2890 00       		.uleb128 0
 10811 2891 5F5F4445 		.ascii "__DEC32_MANT_DIG__ 7\0"
 10811      4333325F 
 10811      4D414E54 
 10811      5F444947 
 10811      5F5F2037 
 10812 28a6 01       		.byte	0x1
 10813 28a7 00       		.uleb128 0
 10814 28a8 5F5F4445 		.ascii "__DEC32_MIN_EXP__ (-94)\0"
 10814      4333325F 
 10814      4D494E5F 
 10814      4558505F 
 10814      5F20282D 
 10815 28c0 01       		.byte	0x1
 10816 28c1 00       		.uleb128 0
 10817 28c2 5F5F4445 		.ascii "__DEC32_MAX_EXP__ 97\0"
 10817      4333325F 
 10817      4D41585F 
 10817      4558505F 
 10817      5F203937 
 10818 28d7 01       		.byte	0x1
 10819 28d8 00       		.uleb128 0
 10820 28d9 5F5F4445 		.ascii "__DEC32_MIN__ 1E-95DF\0"
 10820      4333325F 
 10820      4D494E5F 
 10820      5F203145 
 10820      2D393544 
 10821 28ef 01       		.byte	0x1
 10822 28f0 00       		.uleb128 0
 10823 28f1 5F5F4445 		.ascii "__DEC32_MAX__ 9.999999E96DF\0"
 10823      4333325F 
 10823      4D41585F 
 10823      5F20392E 
 10823      39393939 
 10824 290d 01       		.byte	0x1
 10825 290e 00       		.uleb128 0
 10826 290f 5F5F4445 		.ascii "__DEC32_EPSILON__ 1E-6DF\0"
 10826      4333325F 
 10826      45505349 
 10826      4C4F4E5F 
 10826      5F203145 
 10827 2928 01       		.byte	0x1
 10828 2929 00       		.uleb128 0
 10829 292a 5F5F4445 		.ascii "__DEC32_SUBNORMAL_MIN__ 0.000001E-95DF\0"
 10829      4333325F 
 10829      5355424E 
 10829      4F524D41 
 10829      4C5F4D49 
 10830 2951 01       		.byte	0x1
 10831 2952 00       		.uleb128 0
 10832 2953 5F5F4445 		.ascii "__DEC64_MANT_DIG__ 16\0"
 10832      4336345F 
 10832      4D414E54 
 10832      5F444947 
 10832      5F5F2031 
 10833 2969 01       		.byte	0x1
 10834 296a 00       		.uleb128 0
 10835 296b 5F5F4445 		.ascii "__DEC64_MIN_EXP__ (-382)\0"
 10835      4336345F 
 10835      4D494E5F 
 10835      4558505F 
 10835      5F20282D 
 10836 2984 01       		.byte	0x1
 10837 2985 00       		.uleb128 0
 10838 2986 5F5F4445 		.ascii "__DEC64_MAX_EXP__ 385\0"
 10838      4336345F 
 10838      4D41585F 
 10838      4558505F 
 10838      5F203338 
 10839 299c 01       		.byte	0x1
 10840 299d 00       		.uleb128 0
 10841 299e 5F5F4445 		.ascii "__DEC64_MIN__ 1E-383DD\0"
 10841      4336345F 
 10841      4D494E5F 
 10841      5F203145 
 10841      2D333833 
 10842 29b5 01       		.byte	0x1
 10843 29b6 00       		.uleb128 0
 10844 29b7 5F5F4445 		.ascii "__DEC64_MAX__ 9.999999999999999E384DD\0"
 10844      4336345F 
 10844      4D41585F 
 10844      5F20392E 
 10844      39393939 
 10845 29dd 01       		.byte	0x1
 10846 29de 00       		.uleb128 0
 10847 29df 5F5F4445 		.ascii "__DEC64_EPSILON__ 1E-15DD\0"
 10847      4336345F 
 10847      45505349 
 10847      4C4F4E5F 
 10847      5F203145 
 10848 29f9 01       		.byte	0x1
 10849 29fa 00       		.uleb128 0
 10850 29fb 5F5F4445 		.ascii "__DEC64_SUBNORMAL_MIN__ 0.000000000000001E-383DD\0"
 10850      4336345F 
 10850      5355424E 
 10850      4F524D41 
 10850      4C5F4D49 
 10851 2a2c 01       		.byte	0x1
 10852 2a2d 00       		.uleb128 0
 10853 2a2e 5F5F4445 		.ascii "__DEC128_MANT_DIG__ 34\0"
 10853      43313238 
 10853      5F4D414E 
 10853      545F4449 
 10853      475F5F20 
 10854 2a45 01       		.byte	0x1
 10855 2a46 00       		.uleb128 0
 10856 2a47 5F5F4445 		.ascii "__DEC128_MIN_EXP__ (-6142)\0"
 10856      43313238 
 10856      5F4D494E 
 10856      5F455850 
 10856      5F5F2028 
 10857 2a62 01       		.byte	0x1
 10858 2a63 00       		.uleb128 0
 10859 2a64 5F5F4445 		.ascii "__DEC128_MAX_EXP__ 6145\0"
 10859      43313238 
 10859      5F4D4158 
 10859      5F455850 
 10859      5F5F2036 
 10860 2a7c 01       		.byte	0x1
 10861 2a7d 00       		.uleb128 0
 10862 2a7e 5F5F4445 		.ascii "__DEC128_MIN__ 1E-6143DL\0"
 10862      43313238 
 10862      5F4D494E 
 10862      5F5F2031 
 10862      452D3631 
 10863 2a97 01       		.byte	0x1
 10864 2a98 00       		.uleb128 0
 10865 2a99 5F5F4445 		.ascii "__DEC128_MAX__ 9.999999999999999999999999999999999E6144DL\0"
 10865      43313238 
 10865      5F4D4158 
 10865      5F5F2039 
 10865      2E393939 
 10866 2ad3 01       		.byte	0x1
 10867 2ad4 00       		.uleb128 0
 10868 2ad5 5F5F4445 		.ascii "__DEC128_EPSILON__ 1E-33DL\0"
 10868      43313238 
 10868      5F455053 
 10868      494C4F4E 
 10868      5F5F2031 
 10869 2af0 01       		.byte	0x1
 10870 2af1 00       		.uleb128 0
 10871 2af2 5F5F4445 		.ascii "__DEC128_SUBNORMAL_MIN__ 0.000000000000000000000000000000001E-6143DL\0"
 10871      43313238 
 10871      5F535542 
 10871      4E4F524D 
 10871      414C5F4D 
 10872 2b37 01       		.byte	0x1
 10873 2b38 00       		.uleb128 0
 10874 2b39 5F5F5245 		.ascii "__REGISTER_PREFIX__ \0"
 10874      47495354 
 10874      45525F50 
 10874      52454649 
 10874      585F5F20 
 10875 2b4e 01       		.byte	0x1
 10876 2b4f 00       		.uleb128 0
 10877 2b50 5F5F5553 		.ascii "__USER_LABEL_PREFIX__ \0"
 10877      45525F4C 
 10877      4142454C 
 10877      5F505245 
 10877      4649585F 
 10878 2b67 01       		.byte	0x1
 10879 2b68 00       		.uleb128 0
 10880 2b69 5F5F474E 		.ascii "__GNUC_STDC_INLINE__ 1\0"
 10880      55435F53 
 10880      5444435F 
 10880      494E4C49 
 10880      4E455F5F 
 10881 2b80 01       		.byte	0x1
 10882 2b81 00       		.uleb128 0
 10883 2b82 5F5F5354 		.ascii "__STRICT_ANSI__ 1\0"
 10883      52494354 
 10883      5F414E53 
 10883      495F5F20 
 10883      3100
 10884 2b94 01       		.byte	0x1
 10885 2b95 00       		.uleb128 0
 10886 2b96 5F5F4743 		.ascii "__GCC_HAVE_SYNC_COMPARE_AND_SWAP_1 1\0"
 10886      435F4841 
 10886      56455F53 
 10886      594E435F 
 10886      434F4D50 
 10887 2bbb 01       		.byte	0x1
 10888 2bbc 00       		.uleb128 0
 10889 2bbd 5F5F4743 		.ascii "__GCC_HAVE_SYNC_COMPARE_AND_SWAP_2 1\0"
 10889      435F4841 
 10889      56455F53 
 10889      594E435F 
 10889      434F4D50 
 10890 2be2 01       		.byte	0x1
 10891 2be3 00       		.uleb128 0
 10892 2be4 5F5F4743 		.ascii "__GCC_HAVE_SYNC_COMPARE_AND_SWAP_4 1\0"
 10892      435F4841 
 10892      56455F53 
 10892      594E435F 
 10892      434F4D50 
 10893 2c09 01       		.byte	0x1
 10894 2c0a 00       		.uleb128 0
 10895 2c0b 5F5F4743 		.ascii "__GCC_HAVE_SYNC_COMPARE_AND_SWAP_8 1\0"
 10895      435F4841 
 10895      56455F53 
 10895      594E435F 
 10895      434F4D50 
 10896 2c30 01       		.byte	0x1
 10897 2c31 00       		.uleb128 0
 10898 2c32 5F5F4743 		.ascii "__GCC_HAVE_SYNC_COMPARE_AND_SWAP_16 1\0"
 10898      435F4841 
 10898      56455F53 
 10898      594E435F 
 10898      434F4D50 
 10899 2c58 01       		.byte	0x1
 10900 2c59 00       		.uleb128 0
 10901 2c5a 5F5F4743 		.ascii "__GCC_ATOMIC_BOOL_LOCK_FREE 2\0"
 10901      435F4154 
 10901      4F4D4943 
 10901      5F424F4F 
 10901      4C5F4C4F 
 10902 2c78 01       		.byte	0x1
 10903 2c79 00       		.uleb128 0
 10904 2c7a 5F5F4743 		.ascii "__GCC_ATOMIC_CHAR_LOCK_FREE 2\0"
 10904      435F4154 
 10904      4F4D4943 
 10904      5F434841 
 10904      525F4C4F 
 10905 2c98 01       		.byte	0x1
 10906 2c99 00       		.uleb128 0
 10907 2c9a 5F5F4743 		.ascii "__GCC_ATOMIC_CHAR16_T_LOCK_FREE 2\0"
 10907      435F4154 
 10907      4F4D4943 
 10907      5F434841 
 10907      5231365F 
 10908 2cbc 01       		.byte	0x1
 10909 2cbd 00       		.uleb128 0
 10910 2cbe 5F5F4743 		.ascii "__GCC_ATOMIC_CHAR32_T_LOCK_FREE 2\0"
 10910      435F4154 
 10910      4F4D4943 
 10910      5F434841 
 10910      5233325F 
 10911 2ce0 01       		.byte	0x1
 10912 2ce1 00       		.uleb128 0
 10913 2ce2 5F5F4743 		.ascii "__GCC_ATOMIC_WCHAR_T_LOCK_FREE 2\0"
 10913      435F4154 
 10913      4F4D4943 
 10913      5F574348 
 10913      41525F54 
 10914 2d03 01       		.byte	0x1
 10915 2d04 00       		.uleb128 0
 10916 2d05 5F5F4743 		.ascii "__GCC_ATOMIC_SHORT_LOCK_FREE 2\0"
 10916      435F4154 
 10916      4F4D4943 
 10916      5F53484F 
 10916      52545F4C 
 10917 2d24 01       		.byte	0x1
 10918 2d25 00       		.uleb128 0
 10919 2d26 5F5F4743 		.ascii "__GCC_ATOMIC_INT_LOCK_FREE 2\0"
 10919      435F4154 
 10919      4F4D4943 
 10919      5F494E54 
 10919      5F4C4F43 
 10920 2d43 01       		.byte	0x1
 10921 2d44 00       		.uleb128 0
 10922 2d45 5F5F4743 		.ascii "__GCC_ATOMIC_LONG_LOCK_FREE 2\0"
 10922      435F4154 
 10922      4F4D4943 
 10922      5F4C4F4E 
 10922      475F4C4F 
 10923 2d63 01       		.byte	0x1
 10924 2d64 00       		.uleb128 0
 10925 2d65 5F5F4743 		.ascii "__GCC_ATOMIC_LLONG_LOCK_FREE 2\0"
 10925      435F4154 
 10925      4F4D4943 
 10925      5F4C4C4F 
 10925      4E475F4C 
 10926 2d84 01       		.byte	0x1
 10927 2d85 00       		.uleb128 0
 10928 2d86 5F5F4743 		.ascii "__GCC_ATOMIC_TEST_AND_SET_TRUEVAL 1\0"
 10928      435F4154 
 10928      4F4D4943 
 10928      5F544553 
 10928      545F414E 
 10929 2daa 01       		.byte	0x1
 10930 2dab 00       		.uleb128 0
 10931 2dac 5F5F4743 		.ascii "__GCC_DESTRUCTIVE_SIZE 64\0"
 10931      435F4445 
 10931      53545255 
 10931      43544956 
 10931      455F5349 
 10932 2dc6 01       		.byte	0x1
 10933 2dc7 00       		.uleb128 0
 10934 2dc8 5F5F4743 		.ascii "__GCC_CONSTRUCTIVE_SIZE 64\0"
 10934      435F434F 
 10934      4E535452 
 10934      55435449 
 10934      56455F53 
 10935 2de3 01       		.byte	0x1
 10936 2de4 00       		.uleb128 0
 10937 2de5 5F5F4743 		.ascii "__GCC_ATOMIC_POINTER_LOCK_FREE 2\0"
 10937      435F4154 
 10937      4F4D4943 
 10937      5F504F49 
 10937      4E544552 
 10938 2e06 01       		.byte	0x1
 10939 2e07 00       		.uleb128 0
 10940 2e08 5F5F4841 		.ascii "__HAVE_SPECULATION_SAFE_VALUE 1\0"
 10940      56455F53 
 10940      50454355 
 10940      4C415449 
 10940      4F4E5F53 
 10941 2e28 01       		.byte	0x1
 10942 2e29 00       		.uleb128 0
 10943 2e2a 5F5F4743 		.ascii "__GCC_HAVE_DWARF2_CFI_ASM 1\0"
 10943      435F4841 
 10943      56455F44 
 10943      57415246 
 10943      325F4346 
 10944 2e46 01       		.byte	0x1
 10945 2e47 00       		.uleb128 0
 10946 2e48 5F5F5052 		.ascii "__PRAGMA_REDEFINE_EXTNAME 1\0"
 10946      41474D41 
 10946      5F524544 
 10946      4546494E 
 10946      455F4558 
 10947 2e64 01       		.byte	0x1
 10948 2e65 00       		.uleb128 0
 10949 2e66 5F5F5349 		.ascii "__SIZEOF_INT128__ 16\0"
 10949      5A454F46 
 10949      5F494E54 
 10949      3132385F 
 10949      5F203136 
 10950 2e7b 01       		.byte	0x1
 10951 2e7c 00       		.uleb128 0
 10952 2e7d 5F5F5349 		.ascii "__SIZEOF_WCHAR_T__ 2\0"
 10952      5A454F46 
 10952      5F574348 
 10952      41525F54 
 10952      5F5F2032 
 10953 2e92 01       		.byte	0x1
 10954 2e93 00       		.uleb128 0
 10955 2e94 5F5F5349 		.ascii "__SIZEOF_WINT_T__ 2\0"
 10955      5A454F46 
 10955      5F57494E 
 10955      545F545F 
 10955      5F203200 
 10956 2ea8 01       		.byte	0x1
 10957 2ea9 00       		.uleb128 0
 10958 2eaa 5F5F5349 		.ascii "__SIZEOF_PTRDIFF_T__ 8\0"
 10958      5A454F46 
 10958      5F505452 
 10958      44494646 
 10958      5F545F5F 
 10959 2ec1 01       		.byte	0x1
 10960 2ec2 00       		.uleb128 0
 10961 2ec3 5F5F616D 		.ascii "__amd64 1\0"
 10961      64363420 
 10961      3100
 10962 2ecd 01       		.byte	0x1
 10963 2ece 00       		.uleb128 0
 10964 2ecf 5F5F616D 		.ascii "__amd64__ 1\0"
 10964      6436345F 
 10964      5F203100 
 10965 2edb 01       		.byte	0x1
 10966 2edc 00       		.uleb128 0
 10967 2edd 5F5F7838 		.ascii "__x86_64 1\0"
 10967      365F3634 
 10967      203100
 10968 2ee8 01       		.byte	0x1
 10969 2ee9 00       		.uleb128 0
 10970 2eea 5F5F7838 		.ascii "__x86_64__ 1\0"
 10970      365F3634 
 10970      5F5F2031 
 10970      00
 10971 2ef7 01       		.byte	0x1
 10972 2ef8 00       		.uleb128 0
 10973 2ef9 5F5F5349 		.ascii "__SIZEOF_FLOAT80__ 16\0"
 10973      5A454F46 
 10973      5F464C4F 
 10973      41543830 
 10973      5F5F2031 
 10974 2f0f 01       		.byte	0x1
 10975 2f10 00       		.uleb128 0
 10976 2f11 5F5F5349 		.ascii "__SIZEOF_FLOAT128__ 16\0"
 10976      5A454F46 
 10976      5F464C4F 
 10976      41543132 
 10976      385F5F20 
 10977 2f28 01       		.byte	0x1
 10978 2f29 00       		.uleb128 0
 10979 2f2a 5F5F4154 		.ascii "__ATOMIC_HLE_ACQUIRE 65536\0"
 10979      4F4D4943 
 10979      5F484C45 
 10979      5F414351 
 10979      55495245 
 10980 2f45 01       		.byte	0x1
 10981 2f46 00       		.uleb128 0
 10982 2f47 5F5F4154 		.ascii "__ATOMIC_HLE_RELEASE 131072\0"
 10982      4F4D4943 
 10982      5F484C45 
 10982      5F52454C 
 10982      45415345 
 10983 2f63 01       		.byte	0x1
 10984 2f64 00       		.uleb128 0
 10985 2f65 5F5F4743 		.ascii "__GCC_ASM_FLAG_OUTPUTS__ 1\0"
 10985      435F4153 
 10985      4D5F464C 
 10985      41475F4F 
 10985      55545055 
 10986 2f80 01       		.byte	0x1
 10987 2f81 00       		.uleb128 0
 10988 2f82 5F5F6E6F 		.ascii "__nocona 1\0"
 10988      636F6E61 
 10988      203100
 10989 2f8d 01       		.byte	0x1
 10990 2f8e 00       		.uleb128 0
 10991 2f8f 5F5F6E6F 		.ascii "__nocona__ 1\0"
 10991      636F6E61 
 10991      5F5F2031 
 10991      00
 10992 2f9c 01       		.byte	0x1
 10993 2f9d 00       		.uleb128 0
 10994 2f9e 5F5F636F 		.ascii "__code_model_medium__ 1\0"
 10994      64655F6D 
 10994      6F64656C 
 10994      5F6D6564 
 10994      69756D5F 
 10995 2fb6 01       		.byte	0x1
 10996 2fb7 00       		.uleb128 0
 10997 2fb8 5F5F4D4D 		.ascii "__MMX__ 1\0"
 10997      585F5F20 
 10997      3100
 10998 2fc2 01       		.byte	0x1
 10999 2fc3 00       		.uleb128 0
 11000 2fc4 5F5F5353 		.ascii "__SSE__ 1\0"
 11000      455F5F20 
 11000      3100
 11001 2fce 01       		.byte	0x1
 11002 2fcf 00       		.uleb128 0
 11003 2fd0 5F5F5353 		.ascii "__SSE2__ 1\0"
 11003      45325F5F 
 11003      203100
 11004 2fdb 01       		.byte	0x1
 11005 2fdc 00       		.uleb128 0
 11006 2fdd 5F5F5353 		.ascii "__SSE3__ 1\0"
 11006      45335F5F 
 11006      203100
 11007 2fe8 01       		.byte	0x1
 11008 2fe9 00       		.uleb128 0
 11009 2fea 5F5F4658 		.ascii "__FXSR__ 1\0"
 11009      53525F5F 
 11009      203100
 11010 2ff5 01       		.byte	0x1
 11011 2ff6 00       		.uleb128 0
 11012 2ff7 5F5F5353 		.ascii "__SSE_MATH__ 1\0"
 11012      455F4D41 
 11012      54485F5F 
 11012      203100
 11013 3006 01       		.byte	0x1
 11014 3007 00       		.uleb128 0
 11015 3008 5F5F5353 		.ascii "__SSE2_MATH__ 1\0"
 11015      45325F4D 
 11015      4154485F 
 11015      5F203100 
 11016 3018 01       		.byte	0x1
 11017 3019 00       		.uleb128 0
 11018 301a 5F5F4D4D 		.ascii "__MMX_WITH_SSE__ 1\0"
 11018      585F5749 
 11018      54485F53 
 11018      53455F5F 
 11018      203100
 11019 302d 01       		.byte	0x1
 11020 302e 00       		.uleb128 0
 11021 302f 5F5F5345 		.ascii "__SEG_FS 1\0"
 11021      475F4653 
 11021      203100
 11022 303a 01       		.byte	0x1
 11023 303b 00       		.uleb128 0
 11024 303c 5F5F5345 		.ascii "__SEG_GS 1\0"
 11024      475F4753 
 11024      203100
 11025 3047 01       		.byte	0x1
 11026 3048 00       		.uleb128 0
 11027 3049 5F5F5345 		.ascii "__SEH__ 1\0"
 11027      485F5F20 
 11027      3100
 11028 3053 01       		.byte	0x1
 11029 3054 00       		.uleb128 0
 11030 3055 5F5F7374 		.ascii "__stdcall __attribute__((__stdcall__))\0"
 11030      6463616C 
 11030      6C205F5F 
 11030      61747472 
 11030      69627574 
 11031 307c 01       		.byte	0x1
 11032 307d 00       		.uleb128 0
 11033 307e 5F5F6661 		.ascii "__fastcall __attribute__((__fastcall__))\0"
 11033      73746361 
 11033      6C6C205F 
 11033      5F617474 
 11033      72696275 
 11034 30a7 01       		.byte	0x1
 11035 30a8 00       		.uleb128 0
 11036 30a9 5F5F7468 		.ascii "__thiscall __attribute__((__thiscall__))\0"
 11036      69736361 
 11036      6C6C205F 
 11036      5F617474 
 11036      72696275 
 11037 30d2 01       		.byte	0x1
 11038 30d3 00       		.uleb128 0
 11039 30d4 5F5F6364 		.ascii "__cdecl __attribute__((__cdecl__))\0"
 11039      65636C20 
 11039      5F5F6174 
 11039      74726962 
 11039      7574655F 
 11040 30f7 01       		.byte	0x1
 11041 30f8 00       		.uleb128 0
 11042 30f9 5F5F4758 		.ascii "__GXX_MERGED_TYPEINFO_NAMES 0\0"
 11042      585F4D45 
 11042      52474544 
 11042      5F545950 
 11042      45494E46 
 11043 3117 01       		.byte	0x1
 11044 3118 00       		.uleb128 0
 11045 3119 5F5F4758 		.ascii "__GXX_TYPEINFO_EQUALITY_INLINE 0\0"
 11045      585F5459 
 11045      5045494E 
 11045      464F5F45 
 11045      5155414C 
 11046 313a 01       		.byte	0x1
 11047 313b 00       		.uleb128 0
 11048 313c 5F5F4D53 		.ascii "__MSVCRT__ 1\0"
 11048      56435254 
 11048      5F5F2031 
 11048      00
 11049 3149 01       		.byte	0x1
 11050 314a 00       		.uleb128 0
 11051 314b 5F5F4D49 		.ascii "__MINGW32__ 1\0"
 11051      4E475733 
 11051      325F5F20 
 11051      3100
 11052 3159 01       		.byte	0x1
 11053 315a 00       		.uleb128 0
 11054 315b 5F57494E 		.ascii "_WIN32 1\0"
 11054      33322031 
 11054      00
 11055 3164 01       		.byte	0x1
 11056 3165 00       		.uleb128 0
 11057 3166 5F5F5749 		.ascii "__WIN32 1\0"
 11057      4E333220 
 11057      3100
 11058 3170 01       		.byte	0x1
 11059 3171 00       		.uleb128 0
 11060 3172 5F5F5749 		.ascii "__WIN32__ 1\0"
 11060      4E33325F 
 11060      5F203100 
 11061 317e 01       		.byte	0x1
 11062 317f 00       		.uleb128 0
 11063 3180 5F5F5749 		.ascii "__WINNT 1\0"
 11063      4E4E5420 
 11063      3100
 11064 318a 01       		.byte	0x1
 11065 318b 00       		.uleb128 0
 11066 318c 5F5F5749 		.ascii "__WINNT__ 1\0"
 11066      4E4E545F 
 11066      5F203100 
 11067 3198 01       		.byte	0x1
 11068 3199 00       		.uleb128 0
 11069 319a 5F494E54 		.ascii "_INTEGRAL_MAX_BITS 64\0"
 11069      45475241 
 11069      4C5F4D41 
 11069      585F4249 
 11069      54532036 
 11070 31b0 01       		.byte	0x1
 11071 31b1 00       		.uleb128 0
 11072 31b2 5F5F4D49 		.ascii "__MINGW64__ 1\0"
 11072      4E475736 
 11072      345F5F20 
 11072      3100
 11073 31c0 01       		.byte	0x1
 11074 31c1 00       		.uleb128 0
 11075 31c2 5F5F5749 		.ascii "__WIN64 1\0"
 11075      4E363420 
 11075      3100
 11076 31cc 01       		.byte	0x1
 11077 31cd 00       		.uleb128 0
 11078 31ce 5F5F5749 		.ascii "__WIN64__ 1\0"
 11078      4E36345F 
 11078      5F203100 
 11079 31da 01       		.byte	0x1
 11080 31db 00       		.uleb128 0
 11081 31dc 5F57494E 		.ascii "_WIN64 1\0"
 11081      36342031 
 11081      00
 11082 31e5 01       		.byte	0x1
 11083 31e6 00       		.uleb128 0
 11084 31e7 5F5F6465 		.ascii "__declspec(x) __attribute__((x))\0"
 11084      636C7370 
 11084      65632878 
 11084      29205F5F 
 11084      61747472 
 11085 3208 01       		.byte	0x1
 11086 3209 00       		.uleb128 0
 11087 320a 5F5F4445 		.ascii "__DECIMAL_BID_FORMAT__ 1\0"
 11087      43494D41 
 11087      4C5F4249 
 11087      445F464F 
 11087      524D4154 
 11088 3223 01       		.byte	0x1
 11089 3224 00       		.uleb128 0
 11090 3225 5F524545 		.ascii "_REENTRANT 1\0"
 11090      4E545241 
 11090      4E542031 
 11090      00
 11091 3232 01       		.byte	0x1
 11092 3233 00       		.uleb128 0
 11093 3234 474E555F 		.ascii "GNU_EFI_USE_MS_ABI 1\0"
 11093      4546495F 
 11093      5553455F 
 11093      4D535F41 
 11093      42492031 
 11094 3249 03       		.byte	0x3
 11095 324a 00       		.uleb128 0
 11096 324b 01       		.uleb128 0x1
 11097              		.file 14 "gnu-efi-3.0.18/inc/lib.h"
 11098 324c 03       		.byte	0x3
 11099 324d 12       		.uleb128 0x12
 11100 324e 0E       		.uleb128 0xe
 11101              		.file 15 "gnu-efi-3.0.18/inc/efi.h"
 11102 324f 03       		.byte	0x3
 11103 3250 17       		.uleb128 0x17
 11104 3251 0F       		.uleb128 0xf
 11105 3252 01       		.byte	0x1
 11106 3253 16       		.uleb128 0x16
 11107 3254 5F474E55 		.ascii "_GNU_EFI \0"
 11107      5F454649 
 11107      2000
 11108 325e 01       		.byte	0x1
 11109 325f 22       		.uleb128 0x22
 11110 3260 5F454649 		.ascii "_EFI_INCLUDE_ \0"
 11110      5F494E43 
 11110      4C554445 
 11110      5F2000
 11111 326f 01       		.byte	0x1
 11112 3270 28       		.uleb128 0x28
 11113 3271 4546495F 		.ascii "EFI_FIRMWARE_VENDOR L\"INTEL\"\0"
 11113      4649524D 
 11113      57415245 
 11113      5F56454E 
 11113      444F5220 
 11114 328e 01       		.byte	0x1
 11115 328f 29       		.uleb128 0x29
 11116 3290 4546495F 		.ascii "EFI_FIRMWARE_MAJOR_REVISION 12\0"
 11116      4649524D 
 11116      57415245 
 11116      5F4D414A 
 11116      4F525F52 
 11117 32af 01       		.byte	0x1
 11118 32b0 2A       		.uleb128 0x2a
 11119 32b1 4546495F 		.ascii "EFI_FIRMWARE_MINOR_REVISION 33\0"
 11119      4649524D 
 11119      57415245 
 11119      5F4D494E 
 11119      4F525F52 
 11120 32d0 01       		.byte	0x1
 11121 32d1 2B       		.uleb128 0x2b
 11122 32d2 4546495F 		.ascii "EFI_FIRMWARE_REVISION ((EFI_FIRMWARE_MAJOR_REVISION <<16) | (EFI_FIRMWARE_MINOR_REVISION))
 11122      4649524D 
 11122      57415245 
 11122      5F524556 
 11122      4953494F 
 11123 332d 03       		.byte	0x3
 11124 332e 2E       		.uleb128 0x2e
 11125 332f 04       		.uleb128 0x4
 11126 3330 01       		.byte	0x1
 11127 3331 14       		.uleb128 0x14
 11128 3332 5838365F 		.ascii "X86_64_EFI_BIND \0"
 11128      36345F45 
 11128      46495F42 
 11128      494E4420 
 11128      00
 11129 3343 01       		.byte	0x1
 11130 3344 1D       		.uleb128 0x1d
 11131 3345 48415645 		.ascii "HAVE_USE_MS_ABI 1\0"
 11131      5F555345 
 11131      5F4D535F 
 11131      41424920 
 11131      3100
 11132              		.file 16 "C:/Users/victim/source/repos/Paranyok/UEFI/Backend/mingw64/lib/gcc/x86_64-w64-mingw32/14
 11133 3357 03       		.byte	0x3
 11134 3358 5C       		.uleb128 0x5c
 11135 3359 10       		.uleb128 0x10
 11136 335a 03       		.byte	0x3
 11137 335b 0B       		.uleb128 0xb
 11138 335c 02       		.uleb128 0x2
 11139 335d 01       		.byte	0x1
 11140 335e 1D       		.uleb128 0x1d
 11141 335f 5F474343 		.ascii "_GCC_STDINT_H \0"
 11141      5F535444 
 11141      494E545F 
 11141      482000
 11142 336e 02       		.byte	0x2
 11143 336f 64       		.uleb128 0x64
 11144 3370 494E5438 		.ascii "INT8_MAX\0"
 11144      5F4D4158 
 11144      00
 11145 3379 01       		.byte	0x1
 11146 337a 65       		.uleb128 0x65
 11147 337b 494E5438 		.ascii "INT8_MAX __INT8_MAX__\0"
 11147      5F4D4158 
 11147      205F5F49 
 11147      4E54385F 
 11147      4D41585F 
 11148 3391 02       		.byte	0x2
 11149 3392 66       		.uleb128 0x66
 11150 3393 494E5438 		.ascii "INT8_MIN\0"
 11150      5F4D494E 
 11150      00
 11151 339c 01       		.byte	0x1
 11152 339d 67       		.uleb128 0x67
 11153 339e 494E5438 		.ascii "INT8_MIN (-INT8_MAX - 1)\0"
 11153      5F4D494E 
 11153      20282D49 
 11153      4E54385F 
 11153      4D415820 
 11154 33b7 02       		.byte	0x2
 11155 33b8 6A       		.uleb128 0x6a
 11156 33b9 55494E54 		.ascii "UINT8_MAX\0"
 11156      385F4D41 
 11156      5800
 11157 33c3 01       		.byte	0x1
 11158 33c4 6B       		.uleb128 0x6b
 11159 33c5 55494E54 		.ascii "UINT8_MAX __UINT8_MAX__\0"
 11159      385F4D41 
 11159      58205F5F 
 11159      55494E54 
 11159      385F4D41 
 11160 33dd 02       		.byte	0x2
 11161 33de 6E       		.uleb128 0x6e
 11162 33df 494E5431 		.ascii "INT16_MAX\0"
 11162      365F4D41 
 11162      5800
 11163 33e9 01       		.byte	0x1
 11164 33ea 6F       		.uleb128 0x6f
 11165 33eb 494E5431 		.ascii "INT16_MAX __INT16_MAX__\0"
 11165      365F4D41 
 11165      58205F5F 
 11165      494E5431 
 11165      365F4D41 
 11166 3403 02       		.byte	0x2
 11167 3404 70       		.uleb128 0x70
 11168 3405 494E5431 		.ascii "INT16_MIN\0"
 11168      365F4D49 
 11168      4E00
 11169 340f 01       		.byte	0x1
 11170 3410 71       		.uleb128 0x71
 11171 3411 494E5431 		.ascii "INT16_MIN (-INT16_MAX - 1)\0"
 11171      365F4D49 
 11171      4E20282D 
 11171      494E5431 
 11171      365F4D41 
 11172 342c 02       		.byte	0x2
 11173 342d 74       		.uleb128 0x74
 11174 342e 55494E54 		.ascii "UINT16_MAX\0"
 11174      31365F4D 
 11174      415800
 11175 3439 01       		.byte	0x1
 11176 343a 75       		.uleb128 0x75
 11177 343b 55494E54 		.ascii "UINT16_MAX __UINT16_MAX__\0"
 11177      31365F4D 
 11177      4158205F 
 11177      5F55494E 
 11177      5431365F 
 11178 3455 02       		.byte	0x2
 11179 3456 78       		.uleb128 0x78
 11180 3457 494E5433 		.ascii "INT32_MAX\0"
 11180      325F4D41 
 11180      5800
 11181 3461 01       		.byte	0x1
 11182 3462 79       		.uleb128 0x79
 11183 3463 494E5433 		.ascii "INT32_MAX __INT32_MAX__\0"
 11183      325F4D41 
 11183      58205F5F 
 11183      494E5433 
 11183      325F4D41 
 11184 347b 02       		.byte	0x2
 11185 347c 7A       		.uleb128 0x7a
 11186 347d 494E5433 		.ascii "INT32_MIN\0"
 11186      325F4D49 
 11186      4E00
 11187 3487 01       		.byte	0x1
 11188 3488 7B       		.uleb128 0x7b
 11189 3489 494E5433 		.ascii "INT32_MIN (-INT32_MAX - 1)\0"
 11189      325F4D49 
 11189      4E20282D 
 11189      494E5433 
 11189      325F4D41 
 11190 34a4 02       		.byte	0x2
 11191 34a5 7E       		.uleb128 0x7e
 11192 34a6 55494E54 		.ascii "UINT32_MAX\0"
 11192      33325F4D 
 11192      415800
 11193 34b1 01       		.byte	0x1
 11194 34b2 7F       		.uleb128 0x7f
 11195 34b3 55494E54 		.ascii "UINT32_MAX __UINT32_MAX__\0"
 11195      33325F4D 
 11195      4158205F 
 11195      5F55494E 
 11195      5433325F 
 11196 34cd 02       		.byte	0x2
 11197 34ce 8201     		.uleb128 0x82
 11198 34d0 494E5436 		.ascii "INT64_MAX\0"
 11198      345F4D41 
 11198      5800
 11199 34da 01       		.byte	0x1
 11200 34db 8301     		.uleb128 0x83
 11201 34dd 494E5436 		.ascii "INT64_MAX __INT64_MAX__\0"
 11201      345F4D41 
 11201      58205F5F 
 11201      494E5436 
 11201      345F4D41 
 11202 34f5 02       		.byte	0x2
 11203 34f6 8401     		.uleb128 0x84
 11204 34f8 494E5436 		.ascii "INT64_MIN\0"
 11204      345F4D49 
 11204      4E00
 11205 3502 01       		.byte	0x1
 11206 3503 8501     		.uleb128 0x85
 11207 3505 494E5436 		.ascii "INT64_MIN (-INT64_MAX - 1)\0"
 11207      345F4D49 
 11207      4E20282D 
 11207      494E5436 
 11207      345F4D41 
 11208 3520 02       		.byte	0x2
 11209 3521 8801     		.uleb128 0x88
 11210 3523 55494E54 		.ascii "UINT64_MAX\0"
 11210      36345F4D 
 11210      415800
 11211 352e 01       		.byte	0x1
 11212 352f 8901     		.uleb128 0x89
 11213 3531 55494E54 		.ascii "UINT64_MAX __UINT64_MAX__\0"
 11213      36345F4D 
 11213      4158205F 
 11213      5F55494E 
 11213      5436345F 
 11214 354b 02       		.byte	0x2
 11215 354c 8C01     		.uleb128 0x8c
 11216 354e 494E545F 		.ascii "INT_LEAST8_MAX\0"
 11216      4C454153 
 11216      54385F4D 
 11216      415800
 11217 355d 01       		.byte	0x1
 11218 355e 8D01     		.uleb128 0x8d
 11219 3560 494E545F 		.ascii "INT_LEAST8_MAX __INT_LEAST8_MAX__\0"
 11219      4C454153 
 11219      54385F4D 
 11219      4158205F 
 11219      5F494E54 
 11220 3582 02       		.byte	0x2
 11221 3583 8E01     		.uleb128 0x8e
 11222 3585 494E545F 		.ascii "INT_LEAST8_MIN\0"
 11222      4C454153 
 11222      54385F4D 
 11222      494E00
 11223 3594 01       		.byte	0x1
 11224 3595 8F01     		.uleb128 0x8f
 11225 3597 494E545F 		.ascii "INT_LEAST8_MIN (-INT_LEAST8_MAX - 1)\0"
 11225      4C454153 
 11225      54385F4D 
 11225      494E2028 
 11225      2D494E54 
 11226 35bc 02       		.byte	0x2
 11227 35bd 9001     		.uleb128 0x90
 11228 35bf 55494E54 		.ascii "UINT_LEAST8_MAX\0"
 11228      5F4C4541 
 11228      5354385F 
 11228      4D415800 
 11229 35cf 01       		.byte	0x1
 11230 35d0 9101     		.uleb128 0x91
 11231 35d2 55494E54 		.ascii "UINT_LEAST8_MAX __UINT_LEAST8_MAX__\0"
 11231      5F4C4541 
 11231      5354385F 
 11231      4D415820 
 11231      5F5F5549 
 11232 35f6 02       		.byte	0x2
 11233 35f7 9201     		.uleb128 0x92
 11234 35f9 494E545F 		.ascii "INT_LEAST16_MAX\0"
 11234      4C454153 
 11234      5431365F 
 11234      4D415800 
 11235 3609 01       		.byte	0x1
 11236 360a 9301     		.uleb128 0x93
 11237 360c 494E545F 		.ascii "INT_LEAST16_MAX __INT_LEAST16_MAX__\0"
 11237      4C454153 
 11237      5431365F 
 11237      4D415820 
 11237      5F5F494E 
 11238 3630 02       		.byte	0x2
 11239 3631 9401     		.uleb128 0x94
 11240 3633 494E545F 		.ascii "INT_LEAST16_MIN\0"
 11240      4C454153 
 11240      5431365F 
 11240      4D494E00 
 11241 3643 01       		.byte	0x1
 11242 3644 9501     		.uleb128 0x95
 11243 3646 494E545F 		.ascii "INT_LEAST16_MIN (-INT_LEAST16_MAX - 1)\0"
 11243      4C454153 
 11243      5431365F 
 11243      4D494E20 
 11243      282D494E 
 11244 366d 02       		.byte	0x2
 11245 366e 9601     		.uleb128 0x96
 11246 3670 55494E54 		.ascii "UINT_LEAST16_MAX\0"
 11246      5F4C4541 
 11246      53543136 
 11246      5F4D4158 
 11246      00
 11247 3681 01       		.byte	0x1
 11248 3682 9701     		.uleb128 0x97
 11249 3684 55494E54 		.ascii "UINT_LEAST16_MAX __UINT_LEAST16_MAX__\0"
 11249      5F4C4541 
 11249      53543136 
 11249      5F4D4158 
 11249      205F5F55 
 11250 36aa 02       		.byte	0x2
 11251 36ab 9801     		.uleb128 0x98
 11252 36ad 494E545F 		.ascii "INT_LEAST32_MAX\0"
 11252      4C454153 
 11252      5433325F 
 11252      4D415800 
 11253 36bd 01       		.byte	0x1
 11254 36be 9901     		.uleb128 0x99
 11255 36c0 494E545F 		.ascii "INT_LEAST32_MAX __INT_LEAST32_MAX__\0"
 11255      4C454153 
 11255      5433325F 
 11255      4D415820 
 11255      5F5F494E 
 11256 36e4 02       		.byte	0x2
 11257 36e5 9A01     		.uleb128 0x9a
 11258 36e7 494E545F 		.ascii "INT_LEAST32_MIN\0"
 11258      4C454153 
 11258      5433325F 
 11258      4D494E00 
 11259 36f7 01       		.byte	0x1
 11260 36f8 9B01     		.uleb128 0x9b
 11261 36fa 494E545F 		.ascii "INT_LEAST32_MIN (-INT_LEAST32_MAX - 1)\0"
 11261      4C454153 
 11261      5433325F 
 11261      4D494E20 
 11261      282D494E 
 11262 3721 02       		.byte	0x2
 11263 3722 9C01     		.uleb128 0x9c
 11264 3724 55494E54 		.ascii "UINT_LEAST32_MAX\0"
 11264      5F4C4541 
 11264      53543332 
 11264      5F4D4158 
 11264      00
 11265 3735 01       		.byte	0x1
 11266 3736 9D01     		.uleb128 0x9d
 11267 3738 55494E54 		.ascii "UINT_LEAST32_MAX __UINT_LEAST32_MAX__\0"
 11267      5F4C4541 
 11267      53543332 
 11267      5F4D4158 
 11267      205F5F55 
 11268 375e 02       		.byte	0x2
 11269 375f 9E01     		.uleb128 0x9e
 11270 3761 494E545F 		.ascii "INT_LEAST64_MAX\0"
 11270      4C454153 
 11270      5436345F 
 11270      4D415800 
 11271 3771 01       		.byte	0x1
 11272 3772 9F01     		.uleb128 0x9f
 11273 3774 494E545F 		.ascii "INT_LEAST64_MAX __INT_LEAST64_MAX__\0"
 11273      4C454153 
 11273      5436345F 
 11273      4D415820 
 11273      5F5F494E 
 11274 3798 02       		.byte	0x2
 11275 3799 A001     		.uleb128 0xa0
 11276 379b 494E545F 		.ascii "INT_LEAST64_MIN\0"
 11276      4C454153 
 11276      5436345F 
 11276      4D494E00 
 11277 37ab 01       		.byte	0x1
 11278 37ac A101     		.uleb128 0xa1
 11279 37ae 494E545F 		.ascii "INT_LEAST64_MIN (-INT_LEAST64_MAX - 1)\0"
 11279      4C454153 
 11279      5436345F 
 11279      4D494E20 
 11279      282D494E 
 11280 37d5 02       		.byte	0x2
 11281 37d6 A201     		.uleb128 0xa2
 11282 37d8 55494E54 		.ascii "UINT_LEAST64_MAX\0"
 11282      5F4C4541 
 11282      53543634 
 11282      5F4D4158 
 11282      00
 11283 37e9 01       		.byte	0x1
 11284 37ea A301     		.uleb128 0xa3
 11285 37ec 55494E54 		.ascii "UINT_LEAST64_MAX __UINT_LEAST64_MAX__\0"
 11285      5F4C4541 
 11285      53543634 
 11285      5F4D4158 
 11285      205F5F55 
 11286 3812 02       		.byte	0x2
 11287 3813 A501     		.uleb128 0xa5
 11288 3815 494E545F 		.ascii "INT_FAST8_MAX\0"
 11288      46415354 
 11288      385F4D41 
 11288      5800
 11289 3823 01       		.byte	0x1
 11290 3824 A601     		.uleb128 0xa6
 11291 3826 494E545F 		.ascii "INT_FAST8_MAX __INT_FAST8_MAX__\0"
 11291      46415354 
 11291      385F4D41 
 11291      58205F5F 
 11291      494E545F 
 11292 3846 02       		.byte	0x2
 11293 3847 A701     		.uleb128 0xa7
 11294 3849 494E545F 		.ascii "INT_FAST8_MIN\0"
 11294      46415354 
 11294      385F4D49 
 11294      4E00
 11295 3857 01       		.byte	0x1
 11296 3858 A801     		.uleb128 0xa8
 11297 385a 494E545F 		.ascii "INT_FAST8_MIN (-INT_FAST8_MAX - 1)\0"
 11297      46415354 
 11297      385F4D49 
 11297      4E20282D 
 11297      494E545F 
 11298 387d 02       		.byte	0x2
 11299 387e A901     		.uleb128 0xa9
 11300 3880 55494E54 		.ascii "UINT_FAST8_MAX\0"
 11300      5F464153 
 11300      54385F4D 
 11300      415800
 11301 388f 01       		.byte	0x1
 11302 3890 AA01     		.uleb128 0xaa
 11303 3892 55494E54 		.ascii "UINT_FAST8_MAX __UINT_FAST8_MAX__\0"
 11303      5F464153 
 11303      54385F4D 
 11303      4158205F 
 11303      5F55494E 
 11304 38b4 02       		.byte	0x2
 11305 38b5 AB01     		.uleb128 0xab
 11306 38b7 494E545F 		.ascii "INT_FAST16_MAX\0"
 11306      46415354 
 11306      31365F4D 
 11306      415800
 11307 38c6 01       		.byte	0x1
 11308 38c7 AC01     		.uleb128 0xac
 11309 38c9 494E545F 		.ascii "INT_FAST16_MAX __INT_FAST16_MAX__\0"
 11309      46415354 
 11309      31365F4D 
 11309      4158205F 
 11309      5F494E54 
 11310 38eb 02       		.byte	0x2
 11311 38ec AD01     		.uleb128 0xad
 11312 38ee 494E545F 		.ascii "INT_FAST16_MIN\0"
 11312      46415354 
 11312      31365F4D 
 11312      494E00
 11313 38fd 01       		.byte	0x1
 11314 38fe AE01     		.uleb128 0xae
 11315 3900 494E545F 		.ascii "INT_FAST16_MIN (-INT_FAST16_MAX - 1)\0"
 11315      46415354 
 11315      31365F4D 
 11315      494E2028 
 11315      2D494E54 
 11316 3925 02       		.byte	0x2
 11317 3926 AF01     		.uleb128 0xaf
 11318 3928 55494E54 		.ascii "UINT_FAST16_MAX\0"
 11318      5F464153 
 11318      5431365F 
 11318      4D415800 
 11319 3938 01       		.byte	0x1
 11320 3939 B001     		.uleb128 0xb0
 11321 393b 55494E54 		.ascii "UINT_FAST16_MAX __UINT_FAST16_MAX__\0"
 11321      5F464153 
 11321      5431365F 
 11321      4D415820 
 11321      5F5F5549 
 11322 395f 02       		.byte	0x2
 11323 3960 B101     		.uleb128 0xb1
 11324 3962 494E545F 		.ascii "INT_FAST32_MAX\0"
 11324      46415354 
 11324      33325F4D 
 11324      415800
 11325 3971 01       		.byte	0x1
 11326 3972 B201     		.uleb128 0xb2
 11327 3974 494E545F 		.ascii "INT_FAST32_MAX __INT_FAST32_MAX__\0"
 11327      46415354 
 11327      33325F4D 
 11327      4158205F 
 11327      5F494E54 
 11328 3996 02       		.byte	0x2
 11329 3997 B301     		.uleb128 0xb3
 11330 3999 494E545F 		.ascii "INT_FAST32_MIN\0"
 11330      46415354 
 11330      33325F4D 
 11330      494E00
 11331 39a8 01       		.byte	0x1
 11332 39a9 B401     		.uleb128 0xb4
 11333 39ab 494E545F 		.ascii "INT_FAST32_MIN (-INT_FAST32_MAX - 1)\0"
 11333      46415354 
 11333      33325F4D 
 11333      494E2028 
 11333      2D494E54 
 11334 39d0 02       		.byte	0x2
 11335 39d1 B501     		.uleb128 0xb5
 11336 39d3 55494E54 		.ascii "UINT_FAST32_MAX\0"
 11336      5F464153 
 11336      5433325F 
 11336      4D415800 
 11337 39e3 01       		.byte	0x1
 11338 39e4 B601     		.uleb128 0xb6
 11339 39e6 55494E54 		.ascii "UINT_FAST32_MAX __UINT_FAST32_MAX__\0"
 11339      5F464153 
 11339      5433325F 
 11339      4D415820 
 11339      5F5F5549 
 11340 3a0a 02       		.byte	0x2
 11341 3a0b B701     		.uleb128 0xb7
 11342 3a0d 494E545F 		.ascii "INT_FAST64_MAX\0"
 11342      46415354 
 11342      36345F4D 
 11342      415800
 11343 3a1c 01       		.byte	0x1
 11344 3a1d B801     		.uleb128 0xb8
 11345 3a1f 494E545F 		.ascii "INT_FAST64_MAX __INT_FAST64_MAX__\0"
 11345      46415354 
 11345      36345F4D 
 11345      4158205F 
 11345      5F494E54 
 11346 3a41 02       		.byte	0x2
 11347 3a42 B901     		.uleb128 0xb9
 11348 3a44 494E545F 		.ascii "INT_FAST64_MIN\0"
 11348      46415354 
 11348      36345F4D 
 11348      494E00
 11349 3a53 01       		.byte	0x1
 11350 3a54 BA01     		.uleb128 0xba
 11351 3a56 494E545F 		.ascii "INT_FAST64_MIN (-INT_FAST64_MAX - 1)\0"
 11351      46415354 
 11351      36345F4D 
 11351      494E2028 
 11351      2D494E54 
 11352 3a7b 02       		.byte	0x2
 11353 3a7c BB01     		.uleb128 0xbb
 11354 3a7e 55494E54 		.ascii "UINT_FAST64_MAX\0"
 11354      5F464153 
 11354      5436345F 
 11354      4D415800 
 11355 3a8e 01       		.byte	0x1
 11356 3a8f BC01     		.uleb128 0xbc
 11357 3a91 55494E54 		.ascii "UINT_FAST64_MAX __UINT_FAST64_MAX__\0"
 11357      5F464153 
 11357      5436345F 
 11357      4D415820 
 11357      5F5F5549 
 11358 3ab5 02       		.byte	0x2
 11359 3ab6 BF01     		.uleb128 0xbf
 11360 3ab8 494E5450 		.ascii "INTPTR_MAX\0"
 11360      54525F4D 
 11360      415800
 11361 3ac3 01       		.byte	0x1
 11362 3ac4 C001     		.uleb128 0xc0
 11363 3ac6 494E5450 		.ascii "INTPTR_MAX __INTPTR_MAX__\0"
 11363      54525F4D 
 11363      4158205F 
 11363      5F494E54 
 11363      5054525F 
 11364 3ae0 02       		.byte	0x2
 11365 3ae1 C101     		.uleb128 0xc1
 11366 3ae3 494E5450 		.ascii "INTPTR_MIN\0"
 11366      54525F4D 
 11366      494E00
 11367 3aee 01       		.byte	0x1
 11368 3aef C201     		.uleb128 0xc2
 11369 3af1 494E5450 		.ascii "INTPTR_MIN (-INTPTR_MAX - 1)\0"
 11369      54525F4D 
 11369      494E2028 
 11369      2D494E54 
 11369      5054525F 
 11370 3b0e 02       		.byte	0x2
 11371 3b0f C501     		.uleb128 0xc5
 11372 3b11 55494E54 		.ascii "UINTPTR_MAX\0"
 11372      5054525F 
 11372      4D415800 
 11373 3b1d 01       		.byte	0x1
 11374 3b1e C601     		.uleb128 0xc6
 11375 3b20 55494E54 		.ascii "UINTPTR_MAX __UINTPTR_MAX__\0"
 11375      5054525F 
 11375      4D415820 
 11375      5F5F5549 
 11375      4E545054 
 11376 3b3c 02       		.byte	0x2
 11377 3b3d C901     		.uleb128 0xc9
 11378 3b3f 494E544D 		.ascii "INTMAX_MAX\0"
 11378      41585F4D 
 11378      415800
 11379 3b4a 01       		.byte	0x1
 11380 3b4b CA01     		.uleb128 0xca
 11381 3b4d 494E544D 		.ascii "INTMAX_MAX __INTMAX_MAX__\0"
 11381      41585F4D 
 11381      4158205F 
 11381      5F494E54 
 11381      4D41585F 
 11382 3b67 02       		.byte	0x2
 11383 3b68 CB01     		.uleb128 0xcb
 11384 3b6a 494E544D 		.ascii "INTMAX_MIN\0"
 11384      41585F4D 
 11384      494E00
 11385 3b75 01       		.byte	0x1
 11386 3b76 CC01     		.uleb128 0xcc
 11387 3b78 494E544D 		.ascii "INTMAX_MIN (-INTMAX_MAX - 1)\0"
 11387      41585F4D 
 11387      494E2028 
 11387      2D494E54 
 11387      4D41585F 
 11388 3b95 02       		.byte	0x2
 11389 3b96 CD01     		.uleb128 0xcd
 11390 3b98 55494E54 		.ascii "UINTMAX_MAX\0"
 11390      4D41585F 
 11390      4D415800 
 11391 3ba4 01       		.byte	0x1
 11392 3ba5 CE01     		.uleb128 0xce
 11393 3ba7 55494E54 		.ascii "UINTMAX_MAX __UINTMAX_MAX__\0"
 11393      4D41585F 
 11393      4D415820 
 11393      5F5F5549 
 11393      4E544D41 
 11394 3bc3 02       		.byte	0x2
 11395 3bc4 D201     		.uleb128 0xd2
 11396 3bc6 50545244 		.ascii "PTRDIFF_MAX\0"
 11396      4946465F 
 11396      4D415800 
 11397 3bd2 01       		.byte	0x1
 11398 3bd3 D301     		.uleb128 0xd3
 11399 3bd5 50545244 		.ascii "PTRDIFF_MAX __PTRDIFF_MAX__\0"
 11399      4946465F 
 11399      4D415820 
 11399      5F5F5054 
 11399      52444946 
 11400 3bf1 02       		.byte	0x2
 11401 3bf2 D401     		.uleb128 0xd4
 11402 3bf4 50545244 		.ascii "PTRDIFF_MIN\0"
 11402      4946465F 
 11402      4D494E00 
 11403 3c00 01       		.byte	0x1
 11404 3c01 D501     		.uleb128 0xd5
 11405 3c03 50545244 		.ascii "PTRDIFF_MIN (-PTRDIFF_MAX - 1)\0"
 11405      4946465F 
 11405      4D494E20 
 11405      282D5054 
 11405      52444946 
 11406 3c22 02       		.byte	0x2
 11407 3c23 D701     		.uleb128 0xd7
 11408 3c25 5349475F 		.ascii "SIG_ATOMIC_MAX\0"
 11408      41544F4D 
 11408      49435F4D 
 11408      415800
 11409 3c34 01       		.byte	0x1
 11410 3c35 D801     		.uleb128 0xd8
 11411 3c37 5349475F 		.ascii "SIG_ATOMIC_MAX __SIG_ATOMIC_MAX__\0"
 11411      41544F4D 
 11411      49435F4D 
 11411      4158205F 
 11411      5F534947 
 11412 3c59 02       		.byte	0x2
 11413 3c5a D901     		.uleb128 0xd9
 11414 3c5c 5349475F 		.ascii "SIG_ATOMIC_MIN\0"
 11414      41544F4D 
 11414      49435F4D 
 11414      494E00
 11415 3c6b 01       		.byte	0x1
 11416 3c6c DA01     		.uleb128 0xda
 11417 3c6e 5349475F 		.ascii "SIG_ATOMIC_MIN __SIG_ATOMIC_MIN__\0"
 11417      41544F4D 
 11417      49435F4D 
 11417      494E205F 
 11417      5F534947 
 11418 3c90 02       		.byte	0x2
 11419 3c91 DC01     		.uleb128 0xdc
 11420 3c93 53495A45 		.ascii "SIZE_MAX\0"
 11420      5F4D4158 
 11420      00
 11421 3c9c 01       		.byte	0x1
 11422 3c9d DD01     		.uleb128 0xdd
 11423 3c9f 53495A45 		.ascii "SIZE_MAX __SIZE_MAX__\0"
 11423      5F4D4158 
 11423      205F5F53 
 11423      495A455F 
 11423      4D41585F 
 11424 3cb5 02       		.byte	0x2
 11425 3cb6 DF01     		.uleb128 0xdf
 11426 3cb8 57434841 		.ascii "WCHAR_MAX\0"
 11426      525F4D41 
 11426      5800
 11427 3cc2 01       		.byte	0x1
 11428 3cc3 E001     		.uleb128 0xe0
 11429 3cc5 57434841 		.ascii "WCHAR_MAX __WCHAR_MAX__\0"
 11429      525F4D41 
 11429      58205F5F 
 11429      57434841 
 11429      525F4D41 
 11430 3cdd 02       		.byte	0x2
 11431 3cde E101     		.uleb128 0xe1
 11432 3ce0 57434841 		.ascii "WCHAR_MIN\0"
 11432      525F4D49 
 11432      4E00
 11433 3cea 01       		.byte	0x1
 11434 3ceb E201     		.uleb128 0xe2
 11435 3ced 57434841 		.ascii "WCHAR_MIN __WCHAR_MIN__\0"
 11435      525F4D49 
 11435      4E205F5F 
 11435      57434841 
 11435      525F4D49 
 11436 3d05 02       		.byte	0x2
 11437 3d06 E401     		.uleb128 0xe4
 11438 3d08 57494E54 		.ascii "WINT_MAX\0"
 11438      5F4D4158 
 11438      00
 11439 3d11 01       		.byte	0x1
 11440 3d12 E501     		.uleb128 0xe5
 11441 3d14 57494E54 		.ascii "WINT_MAX __WINT_MAX__\0"
 11441      5F4D4158 
 11441      205F5F57 
 11441      494E545F 
 11441      4D41585F 
 11442 3d2a 02       		.byte	0x2
 11443 3d2b E601     		.uleb128 0xe6
 11444 3d2d 57494E54 		.ascii "WINT_MIN\0"
 11444      5F4D494E 
 11444      00
 11445 3d36 01       		.byte	0x1
 11446 3d37 E701     		.uleb128 0xe7
 11447 3d39 57494E54 		.ascii "WINT_MIN __WINT_MIN__\0"
 11447      5F4D494E 
 11447      205F5F57 
 11447      494E545F 
 11447      4D494E5F 
 11448 3d4f 02       		.byte	0x2
 11449 3d50 EF01     		.uleb128 0xef
 11450 3d52 494E5438 		.ascii "INT8_C\0"
 11450      5F4300
 11451 3d59 01       		.byte	0x1
 11452 3d5a F001     		.uleb128 0xf0
 11453 3d5c 494E5438 		.ascii "INT8_C(c) __INT8_C(c)\0"
 11453      5F432863 
 11453      29205F5F 
 11453      494E5438 
 11453      5F432863 
 11454 3d72 02       		.byte	0x2
 11455 3d73 F101     		.uleb128 0xf1
 11456 3d75 494E5431 		.ascii "INT16_C\0"
 11456      365F4300 
 11457 3d7d 01       		.byte	0x1
 11458 3d7e F201     		.uleb128 0xf2
 11459 3d80 494E5431 		.ascii "INT16_C(c) __INT16_C(c)\0"
 11459      365F4328 
 11459      6329205F 
 11459      5F494E54 
 11459      31365F43 
 11460 3d98 02       		.byte	0x2
 11461 3d99 F301     		.uleb128 0xf3
 11462 3d9b 494E5433 		.ascii "INT32_C\0"
 11462      325F4300 
 11463 3da3 01       		.byte	0x1
 11464 3da4 F401     		.uleb128 0xf4
 11465 3da6 494E5433 		.ascii "INT32_C(c) __INT32_C(c)\0"
 11465      325F4328 
 11465      6329205F 
 11465      5F494E54 
 11465      33325F43 
 11466 3dbe 02       		.byte	0x2
 11467 3dbf F501     		.uleb128 0xf5
 11468 3dc1 494E5436 		.ascii "INT64_C\0"
 11468      345F4300 
 11469 3dc9 01       		.byte	0x1
 11470 3dca F601     		.uleb128 0xf6
 11471 3dcc 494E5436 		.ascii "INT64_C(c) __INT64_C(c)\0"
 11471      345F4328 
 11471      6329205F 
 11471      5F494E54 
 11471      36345F43 
 11472 3de4 02       		.byte	0x2
 11473 3de5 F701     		.uleb128 0xf7
 11474 3de7 55494E54 		.ascii "UINT8_C\0"
 11474      385F4300 
 11475 3def 01       		.byte	0x1
 11476 3df0 F801     		.uleb128 0xf8
 11477 3df2 55494E54 		.ascii "UINT8_C(c) __UINT8_C(c)\0"
 11477      385F4328 
 11477      6329205F 
 11477      5F55494E 
 11477      54385F43 
 11478 3e0a 02       		.byte	0x2
 11479 3e0b F901     		.uleb128 0xf9
 11480 3e0d 55494E54 		.ascii "UINT16_C\0"
 11480      31365F43 
 11480      00
 11481 3e16 01       		.byte	0x1
 11482 3e17 FA01     		.uleb128 0xfa
 11483 3e19 55494E54 		.ascii "UINT16_C(c) __UINT16_C(c)\0"
 11483      31365F43 
 11483      28632920 
 11483      5F5F5549 
 11483      4E543136 
 11484 3e33 02       		.byte	0x2
 11485 3e34 FB01     		.uleb128 0xfb
 11486 3e36 55494E54 		.ascii "UINT32_C\0"
 11486      33325F43 
 11486      00
 11487 3e3f 01       		.byte	0x1
 11488 3e40 FC01     		.uleb128 0xfc
 11489 3e42 55494E54 		.ascii "UINT32_C(c) __UINT32_C(c)\0"
 11489      33325F43 
 11489      28632920 
 11489      5F5F5549 
 11489      4E543332 
 11490 3e5c 02       		.byte	0x2
 11491 3e5d FD01     		.uleb128 0xfd
 11492 3e5f 55494E54 		.ascii "UINT64_C\0"
 11492      36345F43 
 11492      00
 11493 3e68 01       		.byte	0x1
 11494 3e69 FE01     		.uleb128 0xfe
 11495 3e6b 55494E54 		.ascii "UINT64_C(c) __UINT64_C(c)\0"
 11495      36345F43 
 11495      28632920 
 11495      5F5F5549 
 11495      4E543634 
 11496 3e85 02       		.byte	0x2
 11497 3e86 FF01     		.uleb128 0xff
 11498 3e88 494E544D 		.ascii "INTMAX_C\0"
 11498      41585F43 
 11498      00
 11499 3e91 01       		.byte	0x1
 11500 3e92 8002     		.uleb128 0x100
 11501 3e94 494E544D 		.ascii "INTMAX_C(c) __INTMAX_C(c)\0"
 11501      41585F43 
 11501      28632920 
 11501      5F5F494E 
 11501      544D4158 
 11502 3eae 02       		.byte	0x2
 11503 3eaf 8102     		.uleb128 0x101
 11504 3eb1 55494E54 		.ascii "UINTMAX_C\0"
 11504      4D41585F 
 11504      4300
 11505 3ebb 01       		.byte	0x1
 11506 3ebc 8202     		.uleb128 0x102
 11507 3ebe 55494E54 		.ascii "UINTMAX_C(c) __UINTMAX_C(c)\0"
 11507      4D41585F 
 11507      43286329 
 11507      205F5F55 
 11507      494E544D 
 11508 3eda 04       		.byte	0x4
 11509 3edb 01       		.byte	0x1
 11510 3edc 0D       		.uleb128 0xd
 11511 3edd 5F474343 		.ascii "_GCC_WRAP_STDINT_H \0"
 11511      5F575241 
 11511      505F5354 
 11511      44494E54 
 11511      5F482000 
 11512 3ef1 04       		.byte	0x4
 11513              		.file 17 "C:/Users/victim/source/repos/Paranyok/UEFI/Backend/mingw64/lib/gcc/x86_64-w64-mingw32/14
 11514 3ef2 03       		.byte	0x3
 11515 3ef3 63       		.uleb128 0x63
 11516 3ef4 11       		.uleb128 0x11
 11517              		.file 18 "C:/Users/victim/source/repos/Paranyok/UEFI/Backend/mingw64/include/stddef.h"
 11518 3ef5 03       		.byte	0x3
 11519 3ef6 01       		.uleb128 0x1
 11520 3ef7 12       		.uleb128 0x12
 11521              		.file 19 "C:/Users/victim/source/repos/Paranyok/UEFI/Backend/mingw64/include/crtdefs.h"
 11522 3ef8 03       		.byte	0x3
 11523 3ef9 07       		.uleb128 0x7
 11524 3efa 13       		.uleb128 0x13
 11525 3efb 01       		.byte	0x1
 11526 3efc 08       		.uleb128 0x8
 11527 3efd 5F494E43 		.ascii "_INC_CRTDEFS \0"
 11527      5F435254 
 11527      44454653 
 11527      2000
 11528 3f0b 03       		.byte	0x3
 11529 3f0c 0A       		.uleb128 0xa
 11530 3f0d 03       		.uleb128 0x3
 11531 3f0e 01       		.byte	0x1
 11532 3f0f 08       		.uleb128 0x8
 11533 3f10 5F494E43 		.ascii "_INC_CORECRT \0"
 11533      5F434F52 
 11533      45435254 
 11533      2000
 11534              		.file 20 "C:/Users/victim/source/repos/Paranyok/UEFI/Backend/mingw64/include/_mingw.h"
 11535 3f1e 03       		.byte	0x3
 11536 3f1f 0A       		.uleb128 0xa
 11537 3f20 14       		.uleb128 0x14
 11538 3f21 01       		.byte	0x1
 11539 3f22 08       		.uleb128 0x8
 11540 3f23 5F494E43 		.ascii "_INC__MINGW_H \0"
 11540      5F5F4D49 
 11540      4E47575F 
 11540      482000
 11541              		.file 21 "C:/Users/victim/source/repos/Paranyok/UEFI/Backend/mingw64/include/_mingw_mac.h"
 11542 3f32 03       		.byte	0x3
 11543 3f33 0A       		.uleb128 0xa
 11544 3f34 15       		.uleb128 0x15
 11545 3f35 01       		.byte	0x1
 11546 3f36 08       		.uleb128 0x8
 11547 3f37 5F494E43 		.ascii "_INC_CRTDEFS_MACRO \0"
 11547      5F435254 
 11547      44454653 
 11547      5F4D4143 
 11547      524F2000 
 11548 3f4b 01       		.byte	0x1
 11549 3f4c 0A       		.uleb128 0xa
 11550 3f4d 5F5F5354 		.ascii "__STRINGIFY(x) #x\0"
 11550      52494E47 
 11550      49465928 
 11550      78292023 
 11550      7800
 11551 3f5f 01       		.byte	0x1
 11552 3f60 0B       		.uleb128 0xb
 11553 3f61 5F5F4D49 		.ascii "__MINGW64_STRINGIFY(x) __STRINGIFY(x)\0"
 11553      4E475736 
 11553      345F5354 
 11553      52494E47 
 11553      49465928 
 11554 3f87 01       		.byte	0x1
 11555 3f88 0E       		.uleb128 0xe
 11556 3f89 5F5F4D49 		.ascii "__MINGW64_VERSION_MAJOR 13\0"
 11556      4E475736 
 11556      345F5645 
 11556      5253494F 
 11556      4E5F4D41 
 11557 3fa4 01       		.byte	0x1
 11558 3fa5 0F       		.uleb128 0xf
 11559 3fa6 5F5F4D49 		.ascii "__MINGW64_VERSION_MINOR 0\0"
 11559      4E475736 
 11559      345F5645 
 11559      5253494F 
 11559      4E5F4D49 
 11560 3fc0 01       		.byte	0x1
 11561 3fc1 10       		.uleb128 0x10
 11562 3fc2 5F5F4D49 		.ascii "__MINGW64_VERSION_BUGFIX 0\0"
 11562      4E475736 
 11562      345F5645 
 11562      5253494F 
 11562      4E5F4255 
 11563 3fdd 01       		.byte	0x1
 11564 3fde 18       		.uleb128 0x18
 11565 3fdf 5F5F4D49 		.ascii "__MINGW64_VERSION_RC 0\0"
 11565      4E475736 
 11565      345F5645 
 11565      5253494F 
 11565      4E5F5243 
 11566 3ff6 01       		.byte	0x1
 11567 3ff7 1A       		.uleb128 0x1a
 11568 3ff8 5F5F4D49 		.ascii "__MINGW64_VERSION_STR __MINGW64_STRINGIFY(__MINGW64_VERSION_MAJOR) \".\" __MINGW64_STRINGI
 11568      4E475736 
 11568      345F5645 
 11568      5253494F 
 11568      4E5F5354 
 11569 409e 01       		.byte	0x1
 11570 409f 21       		.uleb128 0x21
 11571 40a0 5F5F4D49 		.ascii "__MINGW64_VERSION_STATE \"alpha\"\0"
 11571      4E475736 
 11571      345F5645 
 11571      5253494F 
 11571      4E5F5354 
 11572 40c0 01       		.byte	0x1
 11573 40c1 27       		.uleb128 0x27
 11574 40c2 5F5F4D49 		.ascii "__MINGW32_MAJOR_VERSION 3\0"
 11574      4E475733 
 11574      325F4D41 
 11574      4A4F525F 
 11574      56455253 
 11575 40dc 01       		.byte	0x1
 11576 40dd 28       		.uleb128 0x28
 11577 40de 5F5F4D49 		.ascii "__MINGW32_MINOR_VERSION 11\0"
 11577      4E475733 
 11577      325F4D49 
 11577      4E4F525F 
 11577      56455253 
 11578 40f9 01       		.byte	0x1
 11579 40fa 3E       		.uleb128 0x3e
 11580 40fb 5F4D5F41 		.ascii "_M_AMD64 100\0"
 11580      4D443634 
 11580      20313030 
 11580      00
 11581 4108 01       		.byte	0x1
 11582 4109 3F       		.uleb128 0x3f
 11583 410a 5F4D5F58 		.ascii "_M_X64 100\0"
 11583      36342031 
 11583      303000
 11584 4115 02       		.byte	0x2
 11585 4116 63       		.uleb128 0x63
 11586 4117 5F00     		.ascii "_\0"
 11587 4119 01       		.byte	0x1
 11588 411a 64       		.uleb128 0x64
 11589 411b 5F203100 		.ascii "_ 1\0"
 11590 411f 01       		.byte	0x1
 11591 4120 68       		.uleb128 0x68
 11592 4121 5F5F4D49 		.ascii "__MINGW_USE_UNDERSCORE_PREFIX 0\0"
 11592      4E47575F 
 11592      5553455F 
 11592      554E4445 
 11592      5253434F 
 11593 4141 02       		.byte	0x2
 11594 4142 6A       		.uleb128 0x6a
 11595 4143 5F00     		.ascii "_\0"
 11596 4145 01       		.byte	0x1
 11597 4146 77       		.uleb128 0x77
 11598 4147 5F5F4D49 		.ascii "__MINGW_IMP_SYMBOL(sym) __imp_ ##sym\0"
 11598      4E47575F 
 11598      494D505F 
 11598      53594D42 
 11598      4F4C2873 
 11599 416c 01       		.byte	0x1
 11600 416d 78       		.uleb128 0x78
 11601 416e 5F5F4D49 		.ascii "__MINGW_IMP_LSYMBOL(sym) __imp_ ##sym\0"
 11601      4E47575F 
 11601      494D505F 
 11601      4C53594D 
 11601      424F4C28 
 11602 4194 01       		.byte	0x1
 11603 4195 79       		.uleb128 0x79
 11604 4196 5F5F4D49 		.ascii "__MINGW_USYMBOL(sym) sym\0"
 11604      4E47575F 
 11604      5553594D 
 11604      424F4C28 
 11604      73796D29 
 11605 41af 01       		.byte	0x1
 11606 41b0 7A       		.uleb128 0x7a
 11607 41b1 5F5F4D49 		.ascii "__MINGW_LSYMBOL(sym) _ ##sym\0"
 11607      4E47575F 
 11607      4C53594D 
 11607      424F4C28 
 11607      73796D29 
 11608 41ce 01       		.byte	0x1
 11609 41cf 8201     		.uleb128 0x82
 11610 41d1 5F5F4D49 		.ascii "__MINGW_ASM_CALL(func) __asm__(__MINGW64_STRINGIFY(__MINGW_USYMBOL(func)))\0"
 11610      4E47575F 
 11610      41534D5F 
 11610      43414C4C 
 11610      2866756E 
 11611 421c 01       		.byte	0x1
 11612 421d 8301     		.uleb128 0x83
 11613 421f 5F5F4D49 		.ascii "__MINGW_ASM_CRT_CALL(func) __asm__(__STRINGIFY(func))\0"
 11613      4E47575F 
 11613      41534D5F 
 11613      4352545F 
 11613      43414C4C 
 11614 4255 02       		.byte	0x2
 11615 4256 9D01     		.uleb128 0x9d
 11616 4258 5F5F4D49 		.ascii "__MINGW_EXTENSION\0"
 11616      4E47575F 
 11616      45585445 
 11616      4E53494F 
 11616      4E00
 11617 426a 01       		.byte	0x1
 11618 426b A301     		.uleb128 0xa3
 11619 426d 5F5F4D49 		.ascii "__MINGW_EXTENSION __extension__\0"
 11619      4E47575F 
 11619      45585445 
 11619      4E53494F 
 11619      4E205F5F 
 11620 428d 01       		.byte	0x1
 11621 428e AB01     		.uleb128 0xab
 11622 4290 5F5F4338 		.ascii "__C89_NAMELESS __MINGW_EXTENSION\0"
 11622      395F4E41 
 11622      4D454C45 
 11622      5353205F 
 11622      5F4D494E 
 11623 42b1 01       		.byte	0x1
 11624 42b2 AC01     		.uleb128 0xac
 11625 42b4 5F5F4338 		.ascii "__C89_NAMELESSSTRUCTNAME \0"
 11625      395F4E41 
 11625      4D454C45 
 11625      53535354 
 11625      52554354 
 11626 42ce 01       		.byte	0x1
 11627 42cf AD01     		.uleb128 0xad
 11628 42d1 5F5F4338 		.ascii "__C89_NAMELESSSTRUCTNAME1 \0"
 11628      395F4E41 
 11628      4D454C45 
 11628      53535354 
 11628      52554354 
 11629 42ec 01       		.byte	0x1
 11630 42ed AE01     		.uleb128 0xae
 11631 42ef 5F5F4338 		.ascii "__C89_NAMELESSSTRUCTNAME2 \0"
 11631      395F4E41 
 11631      4D454C45 
 11631      53535354 
 11631      52554354 
 11632 430a 01       		.byte	0x1
 11633 430b AF01     		.uleb128 0xaf
 11634 430d 5F5F4338 		.ascii "__C89_NAMELESSSTRUCTNAME3 \0"
 11634      395F4E41 
 11634      4D454C45 
 11634      53535354 
 11634      52554354 
 11635 4328 01       		.byte	0x1
 11636 4329 B001     		.uleb128 0xb0
 11637 432b 5F5F4338 		.ascii "__C89_NAMELESSSTRUCTNAME4 \0"
 11637      395F4E41 
 11637      4D454C45 
 11637      53535354 
 11637      52554354 
 11638 4346 01       		.byte	0x1
 11639 4347 B101     		.uleb128 0xb1
 11640 4349 5F5F4338 		.ascii "__C89_NAMELESSSTRUCTNAME5 \0"
 11640      395F4E41 
 11640      4D454C45 
 11640      53535354 
 11640      52554354 
 11641 4364 01       		.byte	0x1
 11642 4365 B201     		.uleb128 0xb2
 11643 4367 5F5F4338 		.ascii "__C89_NAMELESSUNIONNAME \0"
 11643      395F4E41 
 11643      4D454C45 
 11643      5353554E 
 11643      494F4E4E 
 11644 4380 01       		.byte	0x1
 11645 4381 B301     		.uleb128 0xb3
 11646 4383 5F5F4338 		.ascii "__C89_NAMELESSUNIONNAME1 \0"
 11646      395F4E41 
 11646      4D454C45 
 11646      5353554E 
 11646      494F4E4E 
 11647 439d 01       		.byte	0x1
 11648 439e B401     		.uleb128 0xb4
 11649 43a0 5F5F4338 		.ascii "__C89_NAMELESSUNIONNAME2 \0"
 11649      395F4E41 
 11649      4D454C45 
 11649      5353554E 
 11649      494F4E4E 
 11650 43ba 01       		.byte	0x1
 11651 43bb B501     		.uleb128 0xb5
 11652 43bd 5F5F4338 		.ascii "__C89_NAMELESSUNIONNAME3 \0"
 11652      395F4E41 
 11652      4D454C45 
 11652      5353554E 
 11652      494F4E4E 
 11653 43d7 01       		.byte	0x1
 11654 43d8 B601     		.uleb128 0xb6
 11655 43da 5F5F4338 		.ascii "__C89_NAMELESSUNIONNAME4 \0"
 11655      395F4E41 
 11655      4D454C45 
 11655      5353554E 
 11655      494F4E4E 
 11656 43f4 01       		.byte	0x1
 11657 43f5 B701     		.uleb128 0xb7
 11658 43f7 5F5F4338 		.ascii "__C89_NAMELESSUNIONNAME5 \0"
 11658      395F4E41 
 11658      4D454C45 
 11658      5353554E 
 11658      494F4E4E 
 11659 4411 01       		.byte	0x1
 11660 4412 B801     		.uleb128 0xb8
 11661 4414 5F5F4338 		.ascii "__C89_NAMELESSUNIONNAME6 \0"
 11661      395F4E41 
 11661      4D454C45 
 11661      5353554E 
 11661      494F4E4E 
 11662 442e 01       		.byte	0x1
 11663 442f B901     		.uleb128 0xb9
 11664 4431 5F5F4338 		.ascii "__C89_NAMELESSUNIONNAME7 \0"
 11664      395F4E41 
 11664      4D454C45 
 11664      5353554E 
 11664      494F4E4E 
 11665 444b 01       		.byte	0x1
 11666 444c BA01     		.uleb128 0xba
 11667 444e 5F5F4338 		.ascii "__C89_NAMELESSUNIONNAME8 \0"
 11667      395F4E41 
 11667      4D454C45 
 11667      5353554E 
 11667      494F4E4E 
 11668 4468 01       		.byte	0x1
 11669 4469 BE01     		.uleb128 0xbe
 11670 446b 5F5F474E 		.ascii "__GNU_EXTENSION __MINGW_EXTENSION\0"
 11670      555F4558 
 11670      54454E53 
 11670      494F4E20 
 11670      5F5F4D49 
 11671 448d 01       		.byte	0x1
 11672 448e C301     		.uleb128 0xc3
 11673 4490 5F5F4D49 		.ascii "__MINGW_HAVE_ANSI_C99_PRINTF 1\0"
 11673      4E47575F 
 11673      48415645 
 11673      5F414E53 
 11673      495F4339 
 11674 44af 01       		.byte	0x1
 11675 44b0 C401     		.uleb128 0xc4
 11676 44b2 5F5F4D49 		.ascii "__MINGW_HAVE_WIDE_C99_PRINTF 1\0"
 11676      4E47575F 
 11676      48415645 
 11676      5F574944 
 11676      455F4339 
 11677 44d1 01       		.byte	0x1
 11678 44d2 C501     		.uleb128 0xc5
 11679 44d4 5F5F4D49 		.ascii "__MINGW_HAVE_ANSI_C99_SCANF 1\0"
 11679      4E47575F 
 11679      48415645 
 11679      5F414E53 
 11679      495F4339 
 11680 44f2 01       		.byte	0x1
 11681 44f3 C601     		.uleb128 0xc6
 11682 44f5 5F5F4D49 		.ascii "__MINGW_HAVE_WIDE_C99_SCANF 1\0"
 11682      4E47575F 
 11682      48415645 
 11682      5F574944 
 11682      455F4339 
 11683 4513 01       		.byte	0x1
 11684 4514 CB01     		.uleb128 0xcb
 11685 4516 5F5F4D49 		.ascii "__MINGW_POISON_NAME(__IFACE) __IFACE ##_layout_has_not_been_verified_and_its_declaration_i
 11685      4E47575F 
 11685      504F4953 
 11685      4F4E5F4E 
 11685      414D4528 
 11686 4588 01       		.byte	0x1
 11687 4589 D101     		.uleb128 0xd1
 11688 458b 5F5F4D53 		.ascii "__MSABI_LONG(x) x ## l\0"
 11688      4142495F 
 11688      4C4F4E47 
 11688      28782920 
 11688      78202323 
 11689 45a2 01       		.byte	0x1
 11690 45a3 D801     		.uleb128 0xd8
 11691 45a5 5F5F4D49 		.ascii "__MINGW_GCC_VERSION (__GNUC__ * 10000 + __GNUC_MINOR__ * 100 + __GNUC_PATCHLEVEL__)\0"
 11691      4E47575F 
 11691      4743435F 
 11691      56455253 
 11691      494F4E20 
 11692 45f9 01       		.byte	0x1
 11693 45fa E001     		.uleb128 0xe0
 11694 45fc 5F5F4D49 		.ascii "__MINGW_GNUC_PREREQ(major,minor) (__GNUC__ > (major) || (__GNUC__ == (major) && __GNUC_MIN
 11694      4E47575F 
 11694      474E5543 
 11694      5F505245 
 11694      52455128 
 11695 4668 01       		.byte	0x1
 11696 4669 EB01     		.uleb128 0xeb
 11697 466b 5F5F4D49 		.ascii "__MINGW_MSC_PREREQ(major,minor) 0\0"
 11697      4E47575F 
 11697      4D53435F 
 11697      50524552 
 11697      4551286D 
 11698 468d 01       		.byte	0x1
 11699 468e F701     		.uleb128 0xf7
 11700 4690 5F5F4D49 		.ascii "__MINGW_ATTRIB_DEPRECATED_STR(X) \0"
 11700      4E47575F 
 11700      41545452 
 11700      49425F44 
 11700      45505245 
 11701 46b2 01       		.byte	0x1
 11702 46b3 FA01     		.uleb128 0xfa
 11703 46b5 5F5F4D49 		.ascii "__MINGW_SEC_WARN_STR \"This function or variable may be unsafe, use _CRT_SECURE_NO_WARNING
 11703      4E47575F 
 11703      5345435F 
 11703      5741524E 
 11703      5F535452 
 11704 4728 01       		.byte	0x1
 11705 4729 FD01     		.uleb128 0xfd
 11706 472b 5F5F4D49 		.ascii "__MINGW_MSVC2005_DEPREC_STR \"This POSIX function is deprecated beginning in Visual C++ 20
 11706      4E47575F 
 11706      4D535643 
 11706      32303035 
 11706      5F444550 
 11707 47be 01       		.byte	0x1
 11708 47bf 8102     		.uleb128 0x101
 11709 47c1 5F5F4D49 		.ascii "__MINGW_ATTRIB_DEPRECATED_MSVC2005 __MINGW_ATTRIB_DEPRECATED_STR(__MINGW_MSVC2005_DEPREC_S
 11709      4E47575F 
 11709      41545452 
 11709      49425F44 
 11709      45505245 
 11710 481f 01       		.byte	0x1
 11711 4820 8802     		.uleb128 0x108
 11712 4822 5F5F4D49 		.ascii "__MINGW_ATTRIB_DEPRECATED_SEC_WARN __MINGW_ATTRIB_DEPRECATED_STR(__MINGW_SEC_WARN_STR)\0"
 11712      4E47575F 
 11712      41545452 
 11712      49425F44 
 11712      45505245 
 11713 4879 01       		.byte	0x1
 11714 487a 9B02     		.uleb128 0x11b
 11715 487c 5F5F4D49 		.ascii "__MINGW_MS_PRINTF(__format,__args) __attribute__((__format__(__ms_printf__, __format,__arg
 11715      4E47575F 
 11715      4D535F50 
 11715      52494E54 
 11715      46285F5F 
 11716 48db 01       		.byte	0x1
 11717 48dc 9E02     		.uleb128 0x11e
 11718 48de 5F5F4D49 		.ascii "__MINGW_MS_SCANF(__format,__args) __attribute__((__format__(__ms_scanf__, __format,__args)
 11718      4E47575F 
 11718      4D535F53 
 11718      43414E46 
 11718      285F5F66 
 11719 493b 01       		.byte	0x1
 11720 493c A102     		.uleb128 0x121
 11721 493e 5F5F4D49 		.ascii "__MINGW_GNU_PRINTF(__format,__args) __attribute__((__format__(__gnu_printf__,__format,__ar
 11721      4E47575F 
 11721      474E555F 
 11721      5052494E 
 11721      5446285F 
 11722 499e 01       		.byte	0x1
 11723 499f A402     		.uleb128 0x124
 11724 49a1 5F5F4D49 		.ascii "__MINGW_GNU_SCANF(__format,__args) __attribute__((__format__(__gnu_scanf__, __format,__arg
 11724      4E47575F 
 11724      474E555F 
 11724      5343414E 
 11724      46285F5F 
 11725 4a00 02       		.byte	0x2
 11726 4a01 A802     		.uleb128 0x128
 11727 4a03 5F5F6D69 		.ascii "__mingw_ovr\0"
 11727      6E67775F 
 11727      6F767200 
 11728 4a0f 01       		.byte	0x1
 11729 4a10 AD02     		.uleb128 0x12d
 11730 4a12 5F5F6D69 		.ascii "__mingw_ovr static __attribute__ ((__unused__)) __inline__ __cdecl\0"
 11730      6E67775F 
 11730      6F767220 
 11730      73746174 
 11730      6963205F 
 11731 4a55 01       		.byte	0x1
 11732 4a56 B402     		.uleb128 0x134
 11733 4a58 5F5F6D69 		.ascii "__mingw_attribute_artificial __attribute__((__artificial__))\0"
 11733      6E67775F 
 11733      61747472 
 11733      69627574 
 11733      655F6172 
 11734 4a95 01       		.byte	0x1
 11735 4a96 BA02     		.uleb128 0x13a
 11736 4a98 5F5F4D49 		.ascii "__MINGW_SELECTANY __attribute__((__selectany__))\0"
 11736      4E47575F 
 11736      53454C45 
 11736      4354414E 
 11736      59205F5F 
 11737 4ac9 01       		.byte	0x1
 11738 4aca D302     		.uleb128 0x153
 11739 4acc 5F5F4D49 		.ascii "__MINGW_FORTIFY_LEVEL 0\0"
 11739      4E47575F 
 11739      464F5254 
 11739      4946595F 
 11739      4C455645 
 11740 4ae4 01       		.byte	0x1
 11741 4ae5 FB02     		.uleb128 0x17b
 11742 4ae7 5F5F6D69 		.ascii "__mingw_bos_ovr __mingw_ovr\0"
 11742      6E67775F 
 11742      626F735F 
 11742      6F767220 
 11742      5F5F6D69 
 11743 4b03 01       		.byte	0x1
 11744 4b04 8803     		.uleb128 0x188
 11745 4b06 5F5F4D49 		.ascii "__MINGW_FORTIFY_VA_ARG 0\0"
 11745      4E47575F 
 11745      464F5254 
 11745      4946595F 
 11745      56415F41 
 11746 4b1f 02       		.byte	0x2
 11747 4b20 8B03     		.uleb128 0x18b
 11748 4b22 5F5F6861 		.ascii "__has_builtin\0"
 11748      735F6275 
 11748      696C7469 
 11748      6E00
 11749 4b30 04       		.byte	0x4
 11750              		.file 22 "C:/Users/victim/source/repos/Paranyok/UEFI/Backend/mingw64/include/_mingw_secapi.h"
 11751 4b31 03       		.byte	0x3
 11752 4b32 0B       		.uleb128 0xb
 11753 4b33 16       		.uleb128 0x16
 11754 4b34 01       		.byte	0x1
 11755 4b35 08       		.uleb128 0x8
 11756 4b36 5F494E43 		.ascii "_INC_MINGW_SECAPI \0"
 11756      5F4D494E 
 11756      47575F53 
 11756      45434150 
 11756      492000
 11757 4b49 02       		.byte	0x2
 11758 4b4a 1D       		.uleb128 0x1d
 11759 4b4b 5F435254 		.ascii "_CRT_SECURE_CPP_OVERLOAD_SECURE_NAMES\0"
 11759      5F534543 
 11759      5552455F 
 11759      4350505F 
 11759      4F564552 
 11760 4b71 02       		.byte	0x2
 11761 4b72 1E       		.uleb128 0x1e
 11762 4b73 5F435254 		.ascii "_CRT_SECURE_CPP_OVERLOAD_SECURE_NAMES_MEMORY\0"
 11762      5F534543 
 11762      5552455F 
 11762      4350505F 
 11762      4F564552 
 11763 4ba0 02       		.byte	0x2
 11764 4ba1 1F       		.uleb128 0x1f
 11765 4ba2 5F435254 		.ascii "_CRT_SECURE_CPP_OVERLOAD_STANDARD_NAMES\0"
 11765      5F534543 
 11765      5552455F 
 11765      4350505F 
 11765      4F564552 
 11766 4bca 02       		.byte	0x2
 11767 4bcb 20       		.uleb128 0x20
 11768 4bcc 5F435254 		.ascii "_CRT_SECURE_CPP_OVERLOAD_STANDARD_NAMES_COUNT\0"
 11768      5F534543 
 11768      5552455F 
 11768      4350505F 
 11768      4F564552 
 11769 4bfa 02       		.byte	0x2
 11770 4bfb 21       		.uleb128 0x21
 11771 4bfc 5F435254 		.ascii "_CRT_SECURE_CPP_OVERLOAD_STANDARD_NAMES_MEMORY\0"
 11771      5F534543 
 11771      5552455F 
 11771      4350505F 
 11771      4F564552 
 11772 4c2b 01       		.byte	0x1
 11773 4c2c 22       		.uleb128 0x22
 11774 4c2d 5F435254 		.ascii "_CRT_SECURE_CPP_OVERLOAD_SECURE_NAMES 0\0"
 11774      5F534543 
 11774      5552455F 
 11774      4350505F 
 11774      4F564552 
 11775 4c55 01       		.byte	0x1
 11776 4c56 23       		.uleb128 0x23
 11777 4c57 5F435254 		.ascii "_CRT_SECURE_CPP_OVERLOAD_SECURE_NAMES_MEMORY 0\0"
 11777      5F534543 
 11777      5552455F 
 11777      4350505F 
 11777      4F564552 
 11778 4c86 01       		.byte	0x1
 11779 4c87 24       		.uleb128 0x24
 11780 4c88 5F435254 		.ascii "_CRT_SECURE_CPP_OVERLOAD_STANDARD_NAMES 0\0"
 11780      5F534543 
 11780      5552455F 
 11780      4350505F 
 11780      4F564552 
 11781 4cb2 01       		.byte	0x1
 11782 4cb3 25       		.uleb128 0x25
 11783 4cb4 5F435254 		.ascii "_CRT_SECURE_CPP_OVERLOAD_STANDARD_NAMES_COUNT 0\0"
 11783      5F534543 
 11783      5552455F 
 11783      4350505F 
 11783      4F564552 
 11784 4ce4 01       		.byte	0x1
 11785 4ce5 26       		.uleb128 0x26
 11786 4ce6 5F435254 		.ascii "_CRT_SECURE_CPP_OVERLOAD_STANDARD_NAMES_MEMORY 0\0"
 11786      5F534543 
 11786      5552455F 
 11786      4350505F 
 11786      4F564552 
 11787 4d17 01       		.byte	0x1
 11788 4d18 29       		.uleb128 0x29
 11789 4d19 5F5F4D49 		.ascii "__MINGW_CRT_NAME_CONCAT2(sym) ::sym ##_s\0"
 11789      4E47575F 
 11789      4352545F 
 11789      4E414D45 
 11789      5F434F4E 
 11790 4d42 01       		.byte	0x1
 11791 4d43 45       		.uleb128 0x45
 11792 4d44 5F5F4352 		.ascii "__CRT_SECURE_CPP_OVERLOAD_STANDARD_NAMES_MEMORY_0_3_(__ret,__func,__type1,__attrib1,__arg1
 11792      545F5345 
 11792      43555245 
 11792      5F435050 
 11792      5F4F5645 
 11793 4e63 04       		.byte	0x4
 11794 4e64 01       		.byte	0x1
 11795 4e65 18       		.uleb128 0x18
 11796 4e66 5F5F4C4F 		.ascii "__LONG32 long\0"
 11796      4E473332 
 11796      206C6F6E 
 11796      6700
 11797 4e74 01       		.byte	0x1
 11798 4e75 2C       		.uleb128 0x2c
 11799 4e76 5F5F4D49 		.ascii "__MINGW_IMPORT extern __attribute__ ((__dllimport__))\0"
 11799      4E47575F 
 11799      494D504F 
 11799      52542065 
 11799      78746572 
 11800 4eac 02       		.byte	0x2
 11801 4ead 2F       		.uleb128 0x2f
 11802 4eae 5F5F5553 		.ascii "__USE_CRTIMP\0"
 11802      455F4352 
 11802      54494D50 
 11802      00
 11803 4ebb 01       		.byte	0x1
 11804 4ebc 31       		.uleb128 0x31
 11805 4ebd 5F5F5553 		.ascii "__USE_CRTIMP 1\0"
 11805      455F4352 
 11805      54494D50 
 11805      203100
 11806 4ecc 01       		.byte	0x1
 11807 4ecd 34       		.uleb128 0x34
 11808 4ece 5F435254 		.ascii "_CRTIMP __attribute__ ((__dllimport__))\0"
 11808      494D5020 
 11808      5F5F6174 
 11808      74726962 
 11808      7574655F 
 11809 4ef6 01       		.byte	0x1
 11810 4ef7 39       		.uleb128 0x39
 11811 4ef8 5F5F4445 		.ascii "__DECLSPEC_SUPPORTED \0"
 11811      434C5350 
 11811      45435F53 
 11811      5550504F 
 11811      52544544 
 11812 4f0e 01       		.byte	0x1
 11813 4f0f 46       		.uleb128 0x46
 11814 4f10 5553455F 		.ascii "USE___UUIDOF 0\0"
 11814      5F5F5555 
 11814      49444F46 
 11814      203000
 11815 4f1f 01       		.byte	0x1
 11816 4f20 4A       		.uleb128 0x4a
 11817 4f21 5F696E6C 		.ascii "_inline __inline\0"
 11817      696E6520 
 11817      5F5F696E 
 11817      6C696E65 
 11817      00
 11818 4f32 01       		.byte	0x1
 11819 4f33 53       		.uleb128 0x53
 11820 4f34 5F5F4352 		.ascii "__CRT_INLINE extern inline __attribute__((__gnu_inline__))\0"
 11820      545F494E 
 11820      4C494E45 
 11820      20657874 
 11820      65726E20 
 11821 4f6f 01       		.byte	0x1
 11822 4f70 5A       		.uleb128 0x5a
 11823 4f71 5F5F4D49 		.ascii "__MINGW_INTRIN_INLINE extern __inline__ __attribute__((__always_inline__,__gnu_inline__))\
 11823      4E47575F 
 11823      494E5452 
 11823      494E5F49 
 11823      4E4C494E 
 11824 4fcb 01       		.byte	0x1
 11825 4fcc 68       		.uleb128 0x68
 11826 4fcd 5F5F554E 		.ascii "__UNUSED_PARAM(x) x __attribute__ ((__unused__))\0"
 11826      55534544 
 11826      5F504152 
 11826      414D2878 
 11826      29207820 
 11827 4ffe 01       		.byte	0x1
 11828 4fff 77       		.uleb128 0x77
 11829 5000 5F5F7265 		.ascii "__restrict_arr __restrict\0"
 11829      73747269 
 11829      63745F61 
 11829      7272205F 
 11829      5F726573 
 11830 501a 01       		.byte	0x1
 11831 501b 8701     		.uleb128 0x87
 11832 501d 5F5F4D49 		.ascii "__MINGW_ATTRIB_NORETURN __attribute__ ((__noreturn__))\0"
 11832      4E47575F 
 11832      41545452 
 11832      49425F4E 
 11832      4F524554 
 11833 5054 01       		.byte	0x1
 11834 5055 8801     		.uleb128 0x88
 11835 5057 5F5F4D49 		.ascii "__MINGW_ATTRIB_CONST __attribute__ ((__const__))\0"
 11835      4E47575F 
 11835      41545452 
 11835      49425F43 
 11835      4F4E5354 
 11836 5088 01       		.byte	0x1
 11837 5089 9201     		.uleb128 0x92
 11838 508b 5F5F4D49 		.ascii "__MINGW_ATTRIB_MALLOC __attribute__ ((__malloc__))\0"
 11838      4E47575F 
 11838      41545452 
 11838      49425F4D 
 11838      414C4C4F 
 11839 50be 01       		.byte	0x1
 11840 50bf 9301     		.uleb128 0x93
 11841 50c1 5F5F4D49 		.ascii "__MINGW_ATTRIB_PURE __attribute__ ((__pure__))\0"
 11841      4E47575F 
 11841      41545452 
 11841      49425F50 
 11841      55524520 
 11842 50f0 01       		.byte	0x1
 11843 50f1 A001     		.uleb128 0xa0
 11844 50f3 5F5F4D49 		.ascii "__MINGW_ATTRIB_NONNULL(arg) __attribute__ ((__nonnull__ (arg)))\0"
 11844      4E47575F 
 11844      41545452 
 11844      49425F4E 
 11844      4F4E4E55 
 11845 5133 01       		.byte	0x1
 11846 5134 A601     		.uleb128 0xa6
 11847 5136 5F5F4D49 		.ascii "__MINGW_ATTRIB_UNUSED __attribute__ ((__unused__))\0"
 11847      4E47575F 
 11847      41545452 
 11847      49425F55 
 11847      4E555345 
 11848 5169 01       		.byte	0x1
 11849 516a AC01     		.uleb128 0xac
 11850 516c 5F5F4D49 		.ascii "__MINGW_ATTRIB_USED __attribute__ ((__used__))\0"
 11850      4E47575F 
 11850      41545452 
 11850      49425F55 
 11850      53454420 
 11851 519b 01       		.byte	0x1
 11852 519c AD01     		.uleb128 0xad
 11853 519e 5F5F4D49 		.ascii "__MINGW_ATTRIB_DEPRECATED __attribute__ ((__deprecated__))\0"
 11853      4E47575F 
 11853      41545452 
 11853      49425F44 
 11853      45505245 
 11854 51d9 01       		.byte	0x1
 11855 51da AF01     		.uleb128 0xaf
 11856 51dc 5F5F4D49 		.ascii "__MINGW_ATTRIB_DEPRECATED_MSG(x) __attribute__ ((__deprecated__(x)))\0"
 11856      4E47575F 
 11856      41545452 
 11856      49425F44 
 11856      45505245 
 11857 5221 01       		.byte	0x1
 11858 5222 BE01     		.uleb128 0xbe
 11859 5224 5F5F4D49 		.ascii "__MINGW_NOTHROW __attribute__ ((__nothrow__))\0"
 11859      4E47575F 
 11859      4E4F5448 
 11859      524F5720 
 11859      5F5F6174 
 11860 5252 01       		.byte	0x1
 11861 5253 C601     		.uleb128 0xc6
 11862 5255 5F5F4D49 		.ascii "__MINGW_ATTRIB_NO_OPTIMIZE __attribute__((__optimize__ (\"0\")))\0"
 11862      4E47575F 
 11862      41545452 
 11862      49425F4E 
 11862      4F5F4F50 
 11863 5294 01       		.byte	0x1
 11864 5295 CC01     		.uleb128 0xcc
 11865 5297 5F5F4D49 		.ascii "__MINGW_PRAGMA_PARAM(x) _Pragma (#x)\0"
 11865      4E47575F 
 11865      50524147 
 11865      4D415F50 
 11865      4152414D 
 11866 52bc 01       		.byte	0x1
 11867 52bd D301     		.uleb128 0xd3
 11868 52bf 5F5F4D49 		.ascii "__MINGW_BROKEN_INTERFACE(x) __MINGW_PRAGMA_PARAM(message (\"Interface \" _CRT_STRINGIZE(x)
 11868      4E47575F 
 11868      42524F4B 
 11868      454E5F49 
 11868      4E544552 
 11869 5334 01       		.byte	0x1
 11870 5335 DE01     		.uleb128 0xde
 11871 5337 5F5F4D53 		.ascii "__MSVCRT_VERSION__ 0x700\0"
 11871      56435254 
 11871      5F564552 
 11871      53494F4E 
 11871      5F5F2030 
 11872 5350 01       		.byte	0x1
 11873 5351 E801     		.uleb128 0xe8
 11874 5353 5F57494E 		.ascii "_WIN32_WINNT 0x601\0"
 11874      33325F57 
 11874      494E4E54 
 11874      20307836 
 11874      303100
 11875 5366 01       		.byte	0x1
 11876 5367 EC01     		.uleb128 0xec
 11877 5369 5F494E54 		.ascii "_INT128_DEFINED \0"
 11877      3132385F 
 11877      44454649 
 11877      4E454420 
 11877      00
 11878 537a 01       		.byte	0x1
 11879 537b EE01     		.uleb128 0xee
 11880 537d 5F5F696E 		.ascii "__int8 char\0"
 11880      74382063 
 11880      68617200 
 11881 5389 01       		.byte	0x1
 11882 538a EF01     		.uleb128 0xef
 11883 538c 5F5F696E 		.ascii "__int16 short\0"
 11883      74313620 
 11883      73686F72 
 11883      7400
 11884 539a 01       		.byte	0x1
 11885 539b F001     		.uleb128 0xf0
 11886 539d 5F5F696E 		.ascii "__int32 int\0"
 11886      74333220 
 11886      696E7400 
 11887 53a9 01       		.byte	0x1
 11888 53aa F101     		.uleb128 0xf1
 11889 53ac 5F5F696E 		.ascii "__int64 long long\0"
 11889      74363420 
 11889      6C6F6E67 
 11889      206C6F6E 
 11889      6700
 11890 53be 01       		.byte	0x1
 11891 53bf FF01     		.uleb128 0xff
 11892 53c1 5F5F7074 		.ascii "__ptr32 \0"
 11892      72333220 
 11892      00
 11893 53ca 01       		.byte	0x1
 11894 53cb 8002     		.uleb128 0x100
 11895 53cd 5F5F7074 		.ascii "__ptr64 \0"
 11895      72363420 
 11895      00
 11896 53d6 01       		.byte	0x1
 11897 53d7 8202     		.uleb128 0x102
 11898 53d9 5F5F756E 		.ascii "__unaligned \0"
 11898      616C6967 
 11898      6E656420 
 11898      00
 11899 53e6 01       		.byte	0x1
 11900 53e7 8502     		.uleb128 0x105
 11901 53e9 5F5F7736 		.ascii "__w64 \0"
 11901      342000
 11902 53f0 01       		.byte	0x1
 11903 53f1 8A02     		.uleb128 0x10a
 11904 53f3 5F5F666F 		.ascii "__forceinline extern __inline__ __attribute__((__always_inline__,__gnu_inline__))\0"
 11904      72636569 
 11904      6E6C696E 
 11904      65206578 
 11904      7465726E 
 11905 5445 01       		.byte	0x1
 11906 5446 9602     		.uleb128 0x116
 11907 5448 5F5F6E6F 		.ascii "__nothrow \0"
 11907      7468726F 
 11907      772000
 11908              		.file 23 "C:/Users/victim/source/repos/Paranyok/UEFI/Backend/mingw64/include/vadefs.h"
 11909 5453 03       		.byte	0x3
 11910 5454 9A02     		.uleb128 0x11a
 11911 5456 17       		.uleb128 0x17
 11912 5457 01       		.byte	0x1
 11913 5458 07       		.uleb128 0x7
 11914 5459 5F494E43 		.ascii "_INC_VADEFS \0"
 11914      5F564144 
 11914      45465320 
 11914      00
 11915 5466 03       		.byte	0x3
 11916 5467 09       		.uleb128 0x9
 11917 5468 14       		.uleb128 0x14
 11918 5469 01       		.byte	0x1
 11919 546a 8A05     		.uleb128 0x28a
 11920 546c 4D494E47 		.ascii "MINGW_SDK_INIT \0"
 11920      575F5344 
 11920      4B5F494E 
 11920      49542000 
 11921 547c 01       		.byte	0x1
 11922 547d 8E05     		.uleb128 0x28e
 11923 547f 4D494E47 		.ascii "MINGW_HAS_SECURE_API 1\0"
 11923      575F4841 
 11923      535F5345 
 11923      43555245 
 11923      5F415049 
 11924 5496 01       		.byte	0x1
 11925 5497 9105     		.uleb128 0x291
 11926 5499 5F5F5354 		.ascii "__STDC_SECURE_LIB__ 200411L\0"
 11926      44435F53 
 11926      45435552 
 11926      455F4C49 
 11926      425F5F20 
 11927 54b5 01       		.byte	0x1
 11928 54b6 9205     		.uleb128 0x292
 11929 54b8 5F5F474F 		.ascii "__GOT_SECURE_LIB__ __STDC_SECURE_LIB__\0"
 11929      545F5345 
 11929      43555245 
 11929      5F4C4942 
 11929      5F5F205F 
 11930              		.file 24 "C:/Users/victim/source/repos/Paranyok/UEFI/Backend/mingw64/include/sdks/_mingw_ddk.h"
 11931 54df 03       		.byte	0x3
 11932 54e0 9505     		.uleb128 0x295
 11933 54e2 18       		.uleb128 0x18
 11934 54e3 01       		.byte	0x1
 11935 54e4 02       		.uleb128 0x2
 11936 54e5 4D494E47 		.ascii "MINGW_DDK_H \0"
 11936      575F4444 
 11936      4B5F4820 
 11936      00
 11937 54f2 01       		.byte	0x1
 11938 54f3 04       		.uleb128 0x4
 11939 54f4 4D494E47 		.ascii "MINGW_HAS_DDK_H 1\0"
 11939      575F4841 
 11939      535F4444 
 11939      4B5F4820 
 11939      3100
 11940 5506 04       		.byte	0x4
 11941 5507 04       		.byte	0x4
 11942 5508 02       		.byte	0x2
 11943 5509 0C       		.uleb128 0xc
 11944 550a 5F435254 		.ascii "_CRT_PACKING\0"
 11944      5F504143 
 11944      4B494E47 
 11944      00
 11945 5517 01       		.byte	0x1
 11946 5518 0D       		.uleb128 0xd
 11947 5519 5F435254 		.ascii "_CRT_PACKING 8\0"
 11947      5F504143 
 11947      4B494E47 
 11947      203800
 11948 5528 01       		.byte	0x1
 11949 5529 17       		.uleb128 0x17
 11950 552a 5F5F474E 		.ascii "__GNUC_VA_LIST \0"
 11950      55435F56 
 11950      415F4C49 
 11950      53542000 
 11951 553a 01       		.byte	0x1
 11952 553b 1D       		.uleb128 0x1d
 11953 553c 5F56415F 		.ascii "_VA_LIST_DEFINED \0"
 11953      4C495354 
 11953      5F444546 
 11953      494E4544 
 11953      2000
 11954 554e 01       		.byte	0x1
 11955 554f 2A       		.uleb128 0x2a
 11956 5550 5F414444 		.ascii "_ADDRESSOF(v) (&(v))\0"
 11956      52455353 
 11956      4F462876 
 11956      29202826 
 11956      28762929 
 11957 5565 01       		.byte	0x1
 11958 5566 30       		.uleb128 0x30
 11959 5567 5F637274 		.ascii "_crt_va_start(v,l) __builtin_va_start(v,l)\0"
 11959      5F76615F 
 11959      73746172 
 11959      7428762C 
 11959      6C29205F 
 11960 5592 01       		.byte	0x1
 11961 5593 31       		.uleb128 0x31
 11962 5594 5F637274 		.ascii "_crt_va_arg(v,l) __builtin_va_arg(v,l)\0"
 11962      5F76615F 
 11962      61726728 
 11962      762C6C29 
 11962      205F5F62 
 11963 55bb 01       		.byte	0x1
 11964 55bc 32       		.uleb128 0x32
 11965 55bd 5F637274 		.ascii "_crt_va_end(v) __builtin_va_end(v)\0"
 11965      5F76615F 
 11965      656E6428 
 11965      7629205F 
 11965      5F627569 
 11966 55e0 01       		.byte	0x1
 11967 55e1 33       		.uleb128 0x33
 11968 55e2 5F637274 		.ascii "_crt_va_copy(d,s) __builtin_va_copy(d,s)\0"
 11968      5F76615F 
 11968      636F7079 
 11968      28642C73 
 11968      29205F5F 
 11969 560b 04       		.byte	0x4
 11970 560c 01       		.byte	0x1
 11971 560d 9D02     		.uleb128 0x11d
 11972 560f 5F5F4352 		.ascii "__CRT_STRINGIZE(_Value) #_Value\0"
 11972      545F5354 
 11972      52494E47 
 11972      495A4528 
 11972      5F56616C 
 11973 562f 01       		.byte	0x1
 11974 5630 9E02     		.uleb128 0x11e
 11975 5632 5F435254 		.ascii "_CRT_STRINGIZE(_Value) __CRT_STRINGIZE(_Value)\0"
 11975      5F535452 
 11975      494E4749 
 11975      5A45285F 
 11975      56616C75 
 11976 5661 01       		.byte	0x1
 11977 5662 A202     		.uleb128 0x122
 11978 5664 5F5F4352 		.ascii "__CRT_WIDE(_String) L ## _String\0"
 11978      545F5749 
 11978      4445285F 
 11978      53747269 
 11978      6E672920 
 11979 5685 01       		.byte	0x1
 11980 5686 A302     		.uleb128 0x123
 11981 5688 5F435254 		.ascii "_CRT_WIDE(_String) __CRT_WIDE(_String)\0"
 11981      5F574944 
 11981      45285F53 
 11981      7472696E 
 11981      6729205F 
 11982 56af 01       		.byte	0x1
 11983 56b0 A702     		.uleb128 0x127
 11984 56b2 5F573634 		.ascii "_W64 \0"
 11984      2000
 11985 56b8 01       		.byte	0x1
 11986 56b9 AE02     		.uleb128 0x12e
 11987 56bb 5F435254 		.ascii "_CRTIMP_NOIA64 _CRTIMP\0"
 11987      494D505F 
 11987      4E4F4941 
 11987      3634205F 
 11987      43525449 
 11988 56d2 01       		.byte	0x1
 11989 56d3 B302     		.uleb128 0x133
 11990 56d5 5F435254 		.ascii "_CRTIMP2 _CRTIMP\0"
 11990      494D5032 
 11990      205F4352 
 11990      54494D50 
 11990      00
 11991 56e6 01       		.byte	0x1
 11992 56e7 B702     		.uleb128 0x137
 11993 56e9 5F435254 		.ascii "_CRTIMP_ALTERNATIVE _CRTIMP\0"
 11993      494D505F 
 11993      414C5445 
 11993      524E4154 
 11993      49564520 
 11994 5705 01       		.byte	0x1
 11995 5706 B802     		.uleb128 0x138
 11996 5708 5F435254 		.ascii "_CRT_ALTERNATIVE_IMPORTED \0"
 11996      5F414C54 
 11996      45524E41 
 11996      54495645 
 11996      5F494D50 
 11997 5723 01       		.byte	0x1
 11998 5724 BC02     		.uleb128 0x13c
 11999 5726 5F4D5254 		.ascii "_MRTIMP2 _CRTIMP\0"
 11999      494D5032 
 11999      205F4352 
 11999      54494D50 
 11999      00
 12000 5737 01       		.byte	0x1
 12001 5738 C502     		.uleb128 0x145
 12002 573a 5F444C4C 		.ascii "_DLL \0"
 12002      2000
 12003 5740 01       		.byte	0x1
 12004 5741 C902     		.uleb128 0x149
 12005 5743 5F4D5420 		.ascii "_MT \0"
 12005      00
 12006 5748 01       		.byte	0x1
 12007 5749 CD02     		.uleb128 0x14d
 12008 574b 5F4D4352 		.ascii "_MCRTIMP _CRTIMP\0"
 12008      54494D50 
 12008      205F4352 
 12008      54494D50 
 12008      00
 12009 575c 01       		.byte	0x1
 12010 575d D102     		.uleb128 0x151
 12011 575f 5F435254 		.ascii "_CRTIMP_PURE _CRTIMP\0"
 12011      494D505F 
 12011      50555245 
 12011      205F4352 
 12011      54494D50 
 12012 5774 01       		.byte	0x1
 12013 5775 D502     		.uleb128 0x155
 12014 5777 5F50474C 		.ascii "_PGLOBAL \0"
 12014      4F42414C 
 12014      2000
 12015 5781 01       		.byte	0x1
 12016 5782 D902     		.uleb128 0x159
 12017 5784 5F41474C 		.ascii "_AGLOBAL \0"
 12017      4F42414C 
 12017      2000
 12018 578e 01       		.byte	0x1
 12019 578f DC02     		.uleb128 0x15c
 12020 5791 5F534543 		.ascii "_SECURECRT_FILL_BUFFER_PATTERN 0xFD\0"
 12020      55524543 
 12020      52545F46 
 12020      494C4C5F 
 12020      42554646 
 12021 57b5 01       		.byte	0x1
 12022 57b6 DD02     		.uleb128 0x15d
 12023 57b8 5F435254 		.ascii "_CRT_DEPRECATE_TEXT(_Text) __declspec(deprecated)\0"
 12023      5F444550 
 12023      52454341 
 12023      54455F54 
 12023      45585428 
 12024 57ea 01       		.byte	0x1
 12025 57eb E002     		.uleb128 0x160
 12026 57ed 5F435254 		.ascii "_CRT_INSECURE_DEPRECATE_MEMORY(_Replacement) \0"
 12026      5F494E53 
 12026      45435552 
 12026      455F4445 
 12026      50524543 
 12027 581b 01       		.byte	0x1
 12028 581c E402     		.uleb128 0x164
 12029 581e 5F435254 		.ascii "_CRT_INSECURE_DEPRECATE_GLOBALS(_Replacement) \0"
 12029      5F494E53 
 12029      45435552 
 12029      455F4445 
 12029      50524543 
 12030 584d 01       		.byte	0x1
 12031 584e E802     		.uleb128 0x168
 12032 5850 5F435254 		.ascii "_CRT_MANAGED_HEAP_DEPRECATE \0"
 12032      5F4D414E 
 12032      41474544 
 12032      5F484541 
 12032      505F4445 
 12033 586d 01       		.byte	0x1
 12034 586e EC02     		.uleb128 0x16c
 12035 5870 5F435254 		.ascii "_CRT_OBSOLETE(_NewItem) \0"
 12035      5F4F4253 
 12035      4F4C4554 
 12035      45285F4E 
 12035      65774974 
 12036 5889 01       		.byte	0x1
 12037 588a F802     		.uleb128 0x178
 12038 588c 5F434F4E 		.ascii "_CONST_RETURN \0"
 12038      53545F52 
 12038      45545552 
 12038      4E2000
 12039 589b 01       		.byte	0x1
 12040 589c FD02     		.uleb128 0x17d
 12041 589e 554E414C 		.ascii "UNALIGNED __unaligned\0"
 12041      49474E45 
 12041      44205F5F 
 12041      756E616C 
 12041      69676E65 
 12042 58b4 01       		.byte	0x1
 12043 58b5 8703     		.uleb128 0x187
 12044 58b7 5F435254 		.ascii "_CRT_ALIGN(x) __attribute__ ((__aligned__ (x)))\0"
 12044      5F414C49 
 12044      474E2878 
 12044      29205F5F 
 12044      61747472 
 12045 58e7 01       		.byte	0x1
 12046 58e8 8E03     		.uleb128 0x18e
 12047 58ea 5F5F4352 		.ascii "__CRTDECL __cdecl\0"
 12047      54444543 
 12047      4C205F5F 
 12047      63646563 
 12047      6C00
 12048 58fc 01       		.byte	0x1
 12049 58fd 9103     		.uleb128 0x191
 12050 58ff 5F415247 		.ascii "_ARGMAX 100\0"
 12050      4D415820 
 12050      31303000 
 12051 590b 01       		.byte	0x1
 12052 590c 9403     		.uleb128 0x194
 12053 590e 5F545255 		.ascii "_TRUNCATE ((size_t)-1)\0"
 12053      4E434154 
 12053      45202828 
 12053      73697A65 
 12053      5F74292D 
 12054 5925 01       		.byte	0x1
 12055 5926 9803     		.uleb128 0x198
 12056 5928 5F435254 		.ascii "_CRT_UNUSED(x) (void)x\0"
 12056      5F554E55 
 12056      53454428 
 12056      78292028 
 12056      766F6964 
 12057 593f 01       		.byte	0x1
 12058 5940 AD03     		.uleb128 0x1ad
 12059 5942 5F5F5553 		.ascii "__USE_MINGW_ANSI_STDIO 1\0"
 12059      455F4D49 
 12059      4E47575F 
 12059      414E5349 
 12059      5F535444 
 12060 595b 01       		.byte	0x1
 12061 595c B403     		.uleb128 0x1b4
 12062 595e 5F5F5553 		.ascii "__USE_MINGW_ANSI_STDIO 1\0"
 12062      455F4D49 
 12062      4E47575F 
 12062      414E5349 
 12062      5F535444 
 12063 5977 02       		.byte	0x2
 12064 5978 C603     		.uleb128 0x1c6
 12065 597a 5F435254 		.ascii "_CRT_glob\0"
 12065      5F676C6F 
 12065      6200
 12066 5984 01       		.byte	0x1
 12067 5985 C703     		.uleb128 0x1c7
 12068 5987 5F435254 		.ascii "_CRT_glob _dowildcard\0"
 12068      5F676C6F 
 12068      62205F64 
 12068      6F77696C 
 12068      64636172 
 12069 599d 01       		.byte	0x1
 12070 599e D703     		.uleb128 0x1d7
 12071 59a0 5F5F414E 		.ascii "__ANONYMOUS_DEFINED \0"
 12071      4F4E594D 
 12071      4F55535F 
 12071      44454649 
 12071      4E454420 
 12072 59b5 01       		.byte	0x1
 12073 59b6 D803     		.uleb128 0x1d8
 12074 59b8 5F414E4F 		.ascii "_ANONYMOUS_UNION __MINGW_EXTENSION\0"
 12074      4E594D4F 
 12074      55535F55 
 12074      4E494F4E 
 12074      205F5F4D 
 12075 59db 01       		.byte	0x1
 12076 59dc D903     		.uleb128 0x1d9
 12077 59de 5F414E4F 		.ascii "_ANONYMOUS_STRUCT __MINGW_EXTENSION\0"
 12077      4E594D4F 
 12077      55535F53 
 12077      54525543 
 12077      54205F5F 
 12078 5a02 01       		.byte	0x1
 12079 5a03 DB03     		.uleb128 0x1db
 12080 5a05 5F554E49 		.ascii "_UNION_NAME(x) \0"
 12080      4F4E5F4E 
 12080      414D4528 
 12080      78292000 
 12081 5a15 01       		.byte	0x1
 12082 5a16 DC03     		.uleb128 0x1dc
 12083 5a18 5F535452 		.ascii "_STRUCT_NAME(x) \0"
 12083      5543545F 
 12083      4E414D45 
 12083      28782920 
 12083      00
 12084 5a29 01       		.byte	0x1
 12085 5a2a F003     		.uleb128 0x1f0
 12086 5a2c 44554D4D 		.ascii "DUMMYUNIONNAME \0"
 12086      59554E49 
 12086      4F4E4E41 
 12086      4D452000 
 12087 5a3c 01       		.byte	0x1
 12088 5a3d F103     		.uleb128 0x1f1
 12089 5a3f 44554D4D 		.ascii "DUMMYUNIONNAME1 \0"
 12089      59554E49 
 12089      4F4E4E41 
 12089      4D453120 
 12089      00
 12090 5a50 01       		.byte	0x1
 12091 5a51 F203     		.uleb128 0x1f2
 12092 5a53 44554D4D 		.ascii "DUMMYUNIONNAME2 \0"
 12092      59554E49 
 12092      4F4E4E41 
 12092      4D453220 
 12092      00
 12093 5a64 01       		.byte	0x1
 12094 5a65 F303     		.uleb128 0x1f3
 12095 5a67 44554D4D 		.ascii "DUMMYUNIONNAME3 \0"
 12095      59554E49 
 12095      4F4E4E41 
 12095      4D453320 
 12095      00
 12096 5a78 01       		.byte	0x1
 12097 5a79 F403     		.uleb128 0x1f4
 12098 5a7b 44554D4D 		.ascii "DUMMYUNIONNAME4 \0"
 12098      59554E49 
 12098      4F4E4E41 
 12098      4D453420 
 12098      00
 12099 5a8c 01       		.byte	0x1
 12100 5a8d F503     		.uleb128 0x1f5
 12101 5a8f 44554D4D 		.ascii "DUMMYUNIONNAME5 \0"
 12101      59554E49 
 12101      4F4E4E41 
 12101      4D453520 
 12101      00
 12102 5aa0 01       		.byte	0x1
 12103 5aa1 F603     		.uleb128 0x1f6
 12104 5aa3 44554D4D 		.ascii "DUMMYUNIONNAME6 \0"
 12104      59554E49 
 12104      4F4E4E41 
 12104      4D453620 
 12104      00
 12105 5ab4 01       		.byte	0x1
 12106 5ab5 F703     		.uleb128 0x1f7
 12107 5ab7 44554D4D 		.ascii "DUMMYUNIONNAME7 \0"
 12107      59554E49 
 12107      4F4E4E41 
 12107      4D453720 
 12107      00
 12108 5ac8 01       		.byte	0x1
 12109 5ac9 F803     		.uleb128 0x1f8
 12110 5acb 44554D4D 		.ascii "DUMMYUNIONNAME8 \0"
 12110      59554E49 
 12110      4F4E4E41 
 12110      4D453820 
 12110      00
 12111 5adc 01       		.byte	0x1
 12112 5add F903     		.uleb128 0x1f9
 12113 5adf 44554D4D 		.ascii "DUMMYUNIONNAME9 \0"
 12113      59554E49 
 12113      4F4E4E41 
 12113      4D453920 
 12113      00
 12114 5af0 01       		.byte	0x1
 12115 5af1 8604     		.uleb128 0x206
 12116 5af3 44554D4D 		.ascii "DUMMYSTRUCTNAME \0"
 12116      59535452 
 12116      5543544E 
 12116      414D4520 
 12116      00
 12117 5b04 01       		.byte	0x1
 12118 5b05 8704     		.uleb128 0x207
 12119 5b07 44554D4D 		.ascii "DUMMYSTRUCTNAME1 \0"
 12119      59535452 
 12119      5543544E 
 12119      414D4531 
 12119      2000
 12120 5b19 01       		.byte	0x1
 12121 5b1a 8804     		.uleb128 0x208
 12122 5b1c 44554D4D 		.ascii "DUMMYSTRUCTNAME2 \0"
 12122      59535452 
 12122      5543544E 
 12122      414D4532 
 12122      2000
 12123 5b2e 01       		.byte	0x1
 12124 5b2f 8904     		.uleb128 0x209
 12125 5b31 44554D4D 		.ascii "DUMMYSTRUCTNAME3 \0"
 12125      59535452 
 12125      5543544E 
 12125      414D4533 
 12125      2000
 12126 5b43 01       		.byte	0x1
 12127 5b44 8A04     		.uleb128 0x20a
 12128 5b46 44554D4D 		.ascii "DUMMYSTRUCTNAME4 \0"
 12128      59535452 
 12128      5543544E 
 12128      414D4534 
 12128      2000
 12129 5b58 01       		.byte	0x1
 12130 5b59 8B04     		.uleb128 0x20b
 12131 5b5b 44554D4D 		.ascii "DUMMYSTRUCTNAME5 \0"
 12131      59535452 
 12131      5543544E 
 12131      414D4535 
 12131      2000
 12132 5b6d 01       		.byte	0x1
 12133 5b6e B304     		.uleb128 0x233
 12134 5b70 5F5F4352 		.ascii "__CRT_UUID_DECL(type,l,w1,w2,b1,b2,b3,b4,b5,b6,b7,b8) \0"
 12134      545F5555 
 12134      49445F44 
 12134      45434C28 
 12134      74797065 
 12135 5ba7 01       		.byte	0x1
 12136 5ba8 BF04     		.uleb128 0x23f
 12137 5baa 5F5F4D49 		.ascii "__MINGW_DEBUGBREAK_IMPL !__has_builtin(__debugbreak)\0"
 12137      4E47575F 
 12137      44454255 
 12137      47425245 
 12137      414B5F49 
 12138 5bdf 01       		.byte	0x1
 12139 5be0 D404     		.uleb128 0x254
 12140 5be2 5F5F4D49 		.ascii "__MINGW_FASTFAIL_IMPL !__has_builtin(__fastfail)\0"
 12140      4E47575F 
 12140      46415354 
 12140      4641494C 
 12140      5F494D50 
 12141 5c13 01       		.byte	0x1
 12142 5c14 EC04     		.uleb128 0x26c
 12143 5c16 5F5F4D49 		.ascii "__MINGW_PREFETCH_IMPL !__has_builtin(__prefetch)\0"
 12143      4E47575F 
 12143      50524546 
 12143      45544348 
 12143      5F494D50 
 12144 5c47 04       		.byte	0x4
 12145 5c48 02       		.byte	0x2
 12146 5c49 0D       		.uleb128 0xd
 12147 5c4a 5F435254 		.ascii "_CRT_PACKING\0"
 12147      5F504143 
 12147      4B494E47 
 12147      00
 12148 5c57 01       		.byte	0x1
 12149 5c58 0E       		.uleb128 0xe
 12150 5c59 5F435254 		.ascii "_CRT_PACKING 8\0"
 12150      5F504143 
 12150      4B494E47 
 12150      203800
 12151 5c68 01       		.byte	0x1
 12152 5c69 18       		.uleb128 0x18
 12153 5c6a 5F435254 		.ascii "_CRTNOALIAS \0"
 12153      4E4F414C 
 12153      49415320 
 12153      00
 12154 5c77 01       		.byte	0x1
 12155 5c78 1C       		.uleb128 0x1c
 12156 5c79 5F435254 		.ascii "_CRTRESTRICT \0"
 12156      52455354 
 12156      52494354 
 12156      2000
 12157 5c87 01       		.byte	0x1
 12158 5c88 20       		.uleb128 0x20
 12159 5c89 5F53495A 		.ascii "_SIZE_T_DEFINED \0"
 12159      455F545F 
 12159      44454649 
 12159      4E454420 
 12159      00
 12160 5c9a 02       		.byte	0x2
 12161 5c9b 21       		.uleb128 0x21
 12162 5c9c 73697A65 		.ascii "size_t\0"
 12162      5F7400
 12163 5ca3 01       		.byte	0x1
 12164 5ca4 2A       		.uleb128 0x2a
 12165 5ca5 5F535349 		.ascii "_SSIZE_T_DEFINED \0"
 12165      5A455F54 
 12165      5F444546 
 12165      494E4544 
 12165      2000
 12166 5cb7 02       		.byte	0x2
 12167 5cb8 2B       		.uleb128 0x2b
 12168 5cb9 7373697A 		.ascii "ssize_t\0"
 12168      655F7400 
 12169 5cc1 01       		.byte	0x1
 12170 5cc2 35       		.uleb128 0x35
 12171 5cc3 5F525349 		.ascii "_RSIZE_T_DEFINED \0"
 12171      5A455F54 
 12171      5F444546 
 12171      494E4544 
 12171      2000
 12172 5cd5 01       		.byte	0x1
 12173 5cd6 39       		.uleb128 0x39
 12174 5cd7 5F494E54 		.ascii "_INTPTR_T_DEFINED \0"
 12174      5054525F 
 12174      545F4445 
 12174      46494E45 
 12174      442000
 12175 5cea 01       		.byte	0x1
 12176 5ceb 3B       		.uleb128 0x3b
 12177 5cec 5F5F696E 		.ascii "__intptr_t_defined \0"
 12177      74707472 
 12177      5F745F64 
 12177      6566696E 
 12177      65642000 
 12178 5d00 02       		.byte	0x2
 12179 5d01 3C       		.uleb128 0x3c
 12180 5d02 696E7470 		.ascii "intptr_t\0"
 12180      74725F74 
 12180      00
 12181 5d0b 01       		.byte	0x1
 12182 5d0c 46       		.uleb128 0x46
 12183 5d0d 5F55494E 		.ascii "_UINTPTR_T_DEFINED \0"
 12183      54505452 
 12183      5F545F44 
 12183      4546494E 
 12183      45442000 
 12184 5d21 01       		.byte	0x1
 12185 5d22 48       		.uleb128 0x48
 12186 5d23 5F5F7569 		.ascii "__uintptr_t_defined \0"
 12186      6E747074 
 12186      725F745F 
 12186      64656669 
 12186      6E656420 
 12187 5d38 02       		.byte	0x2
 12188 5d39 49       		.uleb128 0x49
 12189 5d3a 75696E74 		.ascii "uintptr_t\0"
 12189      7074725F 
 12189      7400
 12190 5d44 01       		.byte	0x1
 12191 5d45 53       		.uleb128 0x53
 12192 5d46 5F505452 		.ascii "_PTRDIFF_T_DEFINED \0"
 12192      44494646 
 12192      5F545F44 
 12192      4546494E 
 12192      45442000 
 12193 5d5a 01       		.byte	0x1
 12194 5d5b 55       		.uleb128 0x55
 12195 5d5c 5F505452 		.ascii "_PTRDIFF_T_ \0"
 12195      44494646 
 12195      5F545F20 
 12195      00
 12196 5d69 02       		.byte	0x2
 12197 5d6a 56       		.uleb128 0x56
 12198 5d6b 70747264 		.ascii "ptrdiff_t\0"
 12198      6966665F 
 12198      7400
 12199 5d75 01       		.byte	0x1
 12200 5d76 60       		.uleb128 0x60
 12201 5d77 5F574348 		.ascii "_WCHAR_T_DEFINED \0"
 12201      41525F54 
 12201      5F444546 
 12201      494E4544 
 12201      2000
 12202 5d89 01       		.byte	0x1
 12203 5d8a 67       		.uleb128 0x67
 12204 5d8b 5F574354 		.ascii "_WCTYPE_T_DEFINED \0"
 12204      5950455F 
 12204      545F4445 
 12204      46494E45 
 12204      442000
 12205 5d9e 01       		.byte	0x1
 12206 5d9f 69       		.uleb128 0x69
 12207 5da0 5F57494E 		.ascii "_WINT_T \0"
 12207      545F5420 
 12207      00
 12208 5da9 01       		.byte	0x1
 12209 5daa 70       		.uleb128 0x70
 12210 5dab 5F455252 		.ascii "_ERRCODE_DEFINED \0"
 12210      434F4445 
 12210      5F444546 
 12210      494E4544 
 12210      2000
 12211 5dbd 01       		.byte	0x1
 12212 5dbe 75       		.uleb128 0x75
 12213 5dbf 5F54494D 		.ascii "_TIME32_T_DEFINED \0"
 12213      4533325F 
 12213      545F4445 
 12213      46494E45 
 12213      442000
 12214 5dd2 01       		.byte	0x1
 12215 5dd3 7A       		.uleb128 0x7a
 12216 5dd4 5F54494D 		.ascii "_TIME64_T_DEFINED \0"
 12216      4536345F 
 12216      545F4445 
 12216      46494E45 
 12216      442000
 12217 5de7 01       		.byte	0x1
 12218 5de8 8601     		.uleb128 0x86
 12219 5dea 5F54494D 		.ascii "_TIME_T_DEFINED \0"
 12219      455F545F 
 12219      44454649 
 12219      4E454420 
 12219      00
 12220 5dfb 01       		.byte	0x1
 12221 5dfc 8F01     		.uleb128 0x8f
 12222 5dfe 5F435254 		.ascii "_CRT_SECURE_CPP_NOTHROW throw()\0"
 12222      5F534543 
 12222      5552455F 
 12222      4350505F 
 12222      4E4F5448 
 12223 5e1e 01       		.byte	0x1
 12224 5e1f 8602     		.uleb128 0x106
 12225 5e21 5F5F4445 		.ascii "__DEFINE_CPP_OVERLOAD_SECURE_FUNC_0_0(__ret,__func,__dsttype,__dst) \0"
 12225      46494E45 
 12225      5F435050 
 12225      5F4F5645 
 12225      524C4F41 
 12226 5e66 01       		.byte	0x1
 12227 5e67 8702     		.uleb128 0x107
 12228 5e69 5F5F4445 		.ascii "__DEFINE_CPP_OVERLOAD_SECURE_FUNC_0_1(__ret,__func,__dsttype,__dst,__type1,__arg1) \0"
 12228      46494E45 
 12228      5F435050 
 12228      5F4F5645 
 12228      524C4F41 
 12229 5ebd 01       		.byte	0x1
 12230 5ebe 8802     		.uleb128 0x108
 12231 5ec0 5F5F4445 		.ascii "__DEFINE_CPP_OVERLOAD_SECURE_FUNC_0_2(__ret,__func,__dsttype,__dst,__type1,__arg1,__type2,
 12231      46494E45 
 12231      5F435050 
 12231      5F4F5645 
 12231      524C4F41 
 12232 5f23 01       		.byte	0x1
 12233 5f24 8902     		.uleb128 0x109
 12234 5f26 5F5F4445 		.ascii "__DEFINE_CPP_OVERLOAD_SECURE_FUNC_0_3(__ret,__func,__dsttype,__dst,__type1,__arg1,__type2,
 12234      46494E45 
 12234      5F435050 
 12234      5F4F5645 
 12234      524C4F41 
 12235 5f98 01       		.byte	0x1
 12236 5f99 8A02     		.uleb128 0x10a
 12237 5f9b 5F5F4445 		.ascii "__DEFINE_CPP_OVERLOAD_SECURE_FUNC_0_4(__ret,__func,__dsttype,__dst,__type1,__arg1,__type2,
 12237      46494E45 
 12237      5F435050 
 12237      5F4F5645 
 12237      524C4F41 
 12238 601c 01       		.byte	0x1
 12239 601d 8B02     		.uleb128 0x10b
 12240 601f 5F5F4445 		.ascii "__DEFINE_CPP_OVERLOAD_SECURE_FUNC_1_1(__ret,__func,__type0,__arg0,__dsttype,__dst,__type1,
 12240      46494E45 
 12240      5F435050 
 12240      5F4F5645 
 12240      524C4F41 
 12241 6082 01       		.byte	0x1
 12242 6083 8C02     		.uleb128 0x10c
 12243 6085 5F5F4445 		.ascii "__DEFINE_CPP_OVERLOAD_SECURE_FUNC_1_2(__ret,__func,__type0,__arg0,__dsttype,__dst,__type1,
 12243      46494E45 
 12243      5F435050 
 12243      5F4F5645 
 12243      524C4F41 
 12244 60f7 01       		.byte	0x1
 12245 60f8 8D02     		.uleb128 0x10d
 12246 60fa 5F5F4445 		.ascii "__DEFINE_CPP_OVERLOAD_SECURE_FUNC_1_3(__ret,__func,__type0,__arg0,__dsttype,__dst,__type1,
 12246      46494E45 
 12246      5F435050 
 12246      5F4F5645 
 12246      524C4F41 
 12247 617b 01       		.byte	0x1
 12248 617c 8E02     		.uleb128 0x10e
 12249 617e 5F5F4445 		.ascii "__DEFINE_CPP_OVERLOAD_SECURE_FUNC_2_0(__ret,__func,__type1,__arg1,__type2,__arg2,__dsttype
 12249      46494E45 
 12249      5F435050 
 12249      5F4F5645 
 12249      524C4F41 
 12250 61e1 01       		.byte	0x1
 12251 61e2 8F02     		.uleb128 0x10f
 12252 61e4 5F5F4445 		.ascii "__DEFINE_CPP_OVERLOAD_SECURE_FUNC_0_1_ARGLIST(__ret,__func,__vfunc,__dsttype,__dst,__type1
 12252      46494E45 
 12252      5F435050 
 12252      5F4F5645 
 12252      524C4F41 
 12253 6248 01       		.byte	0x1
 12254 6249 9002     		.uleb128 0x110
 12255 624b 5F5F4445 		.ascii "__DEFINE_CPP_OVERLOAD_SECURE_FUNC_0_2_ARGLIST(__ret,__func,__vfunc,__dsttype,__dst,__type1
 12255      46494E45 
 12255      5F435050 
 12255      5F4F5645 
 12255      524C4F41 
 12256 62be 01       		.byte	0x1
 12257 62bf 9102     		.uleb128 0x111
 12258 62c1 5F5F4445 		.ascii "__DEFINE_CPP_OVERLOAD_SECURE_FUNC_SPLITPATH(__ret,__func,__dsttype,__src) \0"
 12258      46494E45 
 12258      5F435050 
 12258      5F4F5645 
 12258      524C4F41 
 12259 630c 01       		.byte	0x1
 12260 630d 9502     		.uleb128 0x115
 12261 630f 5F5F4445 		.ascii "__DEFINE_CPP_OVERLOAD_STANDARD_FUNC_0_0(__ret_type,__ret_policy,__decl_spec,__name,__dst_a
 12261      46494E45 
 12261      5F435050 
 12261      5F4F5645 
 12261      524C4F41 
 12262 640f 01       		.byte	0x1
 12263 6410 9702     		.uleb128 0x117
 12264 6412 5F5F4445 		.ascii "__DEFINE_CPP_OVERLOAD_STANDARD_FUNC_0_1(__ret_type,__ret_policy,__decl_spec,__name,__dst_a
 12264      46494E45 
 12264      5F435050 
 12264      5F4F5645 
 12264      524C4F41 
 12265 654f 01       		.byte	0x1
 12266 6550 9902     		.uleb128 0x119
 12267 6552 5F5F4445 		.ascii "__DEFINE_CPP_OVERLOAD_STANDARD_FUNC_0_2(__ret_type,__ret_policy,__decl_spec,__name,__dst_a
 12267      46494E45 
 12267      5F435050 
 12267      5F4F5645 
 12267      524C4F41 
 12268 66a2 01       		.byte	0x1
 12269 66a3 9B02     		.uleb128 0x11b
 12270 66a5 5F5F4445 		.ascii "__DEFINE_CPP_OVERLOAD_STANDARD_FUNC_0_3(__ret_type,__ret_policy,__decl_spec,__name,__dst_a
 12270      46494E45 
 12270      5F435050 
 12270      5F4F5645 
 12270      524C4F41 
 12271 681d 01       		.byte	0x1
 12272 681e 9D02     		.uleb128 0x11d
 12273 6820 5F5F4445 		.ascii "__DEFINE_CPP_OVERLOAD_STANDARD_FUNC_0_4(__ret_type,__ret_policy,__decl_spec,__name,__dst_a
 12273      46494E45 
 12273      5F435050 
 12273      5F4F5645 
 12273      524C4F41 
 12274 69c0 01       		.byte	0x1
 12275 69c1 A603     		.uleb128 0x1a6
 12276 69c3 5F5F4445 		.ascii "__DEFINE_CPP_OVERLOAD_STANDARD_FUNC_0_0_EX(__ret_type,__ret_policy,__decl_spec,__name,__se
 12276      46494E45 
 12276      5F435050 
 12276      5F4F5645 
 12276      524C4F41 
 12277 6a42 01       		.byte	0x1
 12278 6a43 A703     		.uleb128 0x1a7
 12279 6a45 5F5F4445 		.ascii "__DEFINE_CPP_OVERLOAD_STANDARD_FUNC_0_1_EX(__ret_type,__ret_policy,__decl_spec,__name,__se
 12279      46494E45 
 12279      5F435050 
 12279      5F4F5645 
 12279      524C4F41 
 12280 6ad7 01       		.byte	0x1
 12281 6ad8 A803     		.uleb128 0x1a8
 12282 6ada 5F5F4445 		.ascii "__DEFINE_CPP_OVERLOAD_STANDARD_FUNC_0_2_EX(__ret_type,__ret_policy,__decl_spec,__name,__se
 12282      46494E45 
 12282      5F435050 
 12282      5F4F5645 
 12282      524C4F41 
 12283 6b7f 01       		.byte	0x1
 12284 6b80 A903     		.uleb128 0x1a9
 12285 6b82 5F5F4445 		.ascii "__DEFINE_CPP_OVERLOAD_STANDARD_FUNC_0_3_EX(__ret_type,__ret_policy,__decl_spec,__name,__se
 12285      46494E45 
 12285      5F435050 
 12285      5F4F5645 
 12285      524C4F41 
 12286 6c3a 01       		.byte	0x1
 12287 6c3b AA03     		.uleb128 0x1aa
 12288 6c3d 5F5F4445 		.ascii "__DEFINE_CPP_OVERLOAD_STANDARD_FUNC_0_4_EX(__ret_type,__ret_policy,__decl_spec,__name,__se
 12288      46494E45 
 12288      5F435050 
 12288      5F4F5645 
 12288      524C4F41 
 12289 6d08 01       		.byte	0x1
 12290 6d09 BA03     		.uleb128 0x1ba
 12291 6d0b 5F544147 		.ascii "_TAGLC_ID_DEFINED \0"
 12291      4C435F49 
 12291      445F4445 
 12291      46494E45 
 12291      442000
 12292 6d1e 01       		.byte	0x1
 12293 6d1f C303     		.uleb128 0x1c3
 12294 6d21 5F544852 		.ascii "_THREADLOCALEINFO \0"
 12294      4541444C 
 12294      4F43414C 
 12294      45494E46 
 12294      4F2000
 12295 6d34 01       		.byte	0x1
 12296 6d35 E603     		.uleb128 0x1e6
 12297 6d37 5F5F6372 		.ascii "__crt_typefix(ctype) \0"
 12297      745F7479 
 12297      70656669 
 12297      78286374 
 12297      79706529 
 12298 6d4d 01       		.byte	0x1
 12299 6d4e F003     		.uleb128 0x1f0
 12300 6d50 5F435254 		.ascii "_CRT_USE_WINAPI_FAMILY_DESKTOP_APP \0"
 12300      5F555345 
 12300      5F57494E 
 12300      4150495F 
 12300      46414D49 
 12301 6d74 04       		.byte	0x4
 12302 6d75 04       		.byte	0x4
 12303 6d76 01       		.byte	0x1
 12304 6d77 0A       		.uleb128 0xa
 12305 6d78 5F494E43 		.ascii "_INC_STDDEF \0"
 12305      5F535444 
 12305      44454620 
 12305      00
 12306 6d85 01       		.byte	0x1
 12307 6d86 11       		.uleb128 0x11
 12308 6d87 5F435254 		.ascii "_CRT_ERRNO_DEFINED \0"
 12308      5F455252 
 12308      4E4F5F44 
 12308      4546494E 
 12308      45442000 
 12309 6d9b 01       		.byte	0x1
 12310 6d9c 13       		.uleb128 0x13
 12311 6d9d 6572726E 		.ascii "errno (*_errno())\0"
 12311      6F20282A 
 12311      5F657272 
 12311      6E6F2829 
 12311      2900
 12312 6daf 01       		.byte	0x1
 12313 6db0 19       		.uleb128 0x19
 12314 6db1 5F746872 		.ascii "_threadid (__threadid())\0"
 12314      65616469 
 12314      6420285F 
 12314      5F746872 
 12314      65616469 
 12315 6dca 01       		.byte	0x1
 12316 6dcb 31       		.uleb128 0x31
 12317 6dcc 5F535444 		.ascii "_STDDEF_H \0"
 12317      4445465F 
 12317      482000
 12318 6dd7 01       		.byte	0x1
 12319 6dd8 32       		.uleb128 0x32
 12320 6dd9 5F535444 		.ascii "_STDDEF_H_ \0"
 12320      4445465F 
 12320      485F2000 
 12321 6de5 01       		.byte	0x1
 12322 6de6 34       		.uleb128 0x34
 12323 6de7 5F414E53 		.ascii "_ANSI_STDDEF_H \0"
 12323      495F5354 
 12323      44444546 
 12323      5F482000 
 12324 6df7 01       		.byte	0x1
 12325 6df8 36       		.uleb128 0x36
 12326 6df9 5F5F5354 		.ascii "__STDDEF_H__ \0"
 12326      44444546 
 12326      5F485F5F 
 12326      2000
 12327 6e07 02       		.byte	0x2
 12328 6e08 A301     		.uleb128 0xa3
 12329 6e0a 5F5F6E65 		.ascii "__need_ptrdiff_t\0"
 12329      65645F70 
 12329      74726469 
 12329      66665F74 
 12329      00
 12330 6e1b 02       		.byte	0x2
 12331 6e1c F001     		.uleb128 0xf0
 12332 6e1e 5F5F6E65 		.ascii "__need_size_t\0"
 12332      65645F73 
 12332      697A655F 
 12332      7400
 12333 6e2c 02       		.byte	0x2
 12334 6e2d D102     		.uleb128 0x151
 12335 6e2f 5F5F6E65 		.ascii "__need_wchar_t\0"
 12335      65645F77 
 12335      63686172 
 12335      5F7400
 12336 6e3e 02       		.byte	0x2
 12337 6e3f 8A03     		.uleb128 0x18a
 12338 6e41 4E554C4C 		.ascii "NULL\0"
 12338      00
 12339 6e46 01       		.byte	0x1
 12340 6e47 8F03     		.uleb128 0x18f
 12341 6e49 4E554C4C 		.ascii "NULL ((void *)0)\0"
 12341      20282876 
 12341      6F696420 
 12341      2A293029 
 12341      00
 12342 6e5a 02       		.byte	0x2
 12343 6e5b 9903     		.uleb128 0x199
 12344 6e5d 5F5F6E65 		.ascii "__need_NULL\0"
 12344      65645F4E 
 12344      554C4C00 
 12345 6e69 01       		.byte	0x1
 12346 6e6a 9E03     		.uleb128 0x19e
 12347 6e6c 6F666673 		.ascii "offsetof(TYPE,MEMBER) __builtin_offsetof (TYPE, MEMBER)\0"
 12347      65746F66 
 12347      28545950 
 12347      452C4D45 
 12347      4D424552 
 12348 6ea4 01       		.byte	0x1
 12349 6ea5 A303     		.uleb128 0x1a3
 12350 6ea7 5F474343 		.ascii "_GCC_MAX_ALIGN_T \0"
 12350      5F4D4158 
 12350      5F414C49 
 12350      474E5F54 
 12350      2000
 12351 6eb9 01       		.byte	0x1
 12352 6eba A403     		.uleb128 0x1a4
 12353 6ebc 5F5F434C 		.ascii "__CLANG_MAX_ALIGN_T_DEFINED \0"
 12353      414E475F 
 12353      4D41585F 
 12353      414C4947 
 12353      4E5F545F 
 12354 6ed9 04       		.byte	0x4
 12355 6eda 04       		.byte	0x4
 12356 6edb 01       		.byte	0x1
 12357 6edc 66       		.uleb128 0x66
 12358 6edd 57434841 		.ascii "WCHAR CHAR16\0"
 12358      52204348 
 12358      41523136 
 12358      00
 12359 6eea 02       		.byte	0x2
 12360 6eeb 77       		.uleb128 0x77
 12361 6eec 564F4944 		.ascii "VOID\0"
 12361      00
 12362 6ef1 01       		.byte	0x1
 12363 6ef2 8401     		.uleb128 0x84
 12364 6ef4 504F5354 		.ascii "POST_CODE(_Data) \0"
 12364      5F434F44 
 12364      45285F44 
 12364      61746129 
 12364      2000
 12365 6f06 01       		.byte	0x1
 12366 6f07 8801     		.uleb128 0x88
 12367 6f09 45464945 		.ascii "EFIERR(a) (0x8000000000000000 | a)\0"
 12367      52522861 
 12367      29202830 
 12367      78383030 
 12367      30303030 
 12368 6f2c 01       		.byte	0x1
 12369 6f2d 8901     		.uleb128 0x89
 12370 6f2f 4546495F 		.ascii "EFI_ERROR_MASK 0x8000000000000000\0"
 12370      4552524F 
 12370      525F4D41 
 12370      534B2030 
 12370      78383030 
 12371 6f51 01       		.byte	0x1
 12372 6f52 8A01     		.uleb128 0x8a
 12373 6f54 45464945 		.ascii "EFIERR_OEM(a) (0xc000000000000000 | a)\0"
 12373      52525F4F 
 12373      454D2861 
 12373      29202830 
 12373      78633030 
 12374 6f7b 01       		.byte	0x1
 12375 6f7c 8D01     		.uleb128 0x8d
 12376 6f7e 4241445F 		.ascii "BAD_POINTER 0xFBFBFBFBFBFBFBFB\0"
 12376      504F494E 
 12376      54455220 
 12376      30784642 
 12376      46424642 
 12377 6f9d 01       		.byte	0x1
 12378 6f9e 8E01     		.uleb128 0x8e
 12379 6fa0 4D41585F 		.ascii "MAX_ADDRESS 0xFFFFFFFFFFFFFFFF\0"
 12379      41444452 
 12379      45535320 
 12379      30784646 
 12379      46464646 
 12380 6fbf 01       		.byte	0x1
 12381 6fc0 9301     		.uleb128 0x93
 12382 6fc2 42524541 		.ascii "BREAKPOINT() while (TRUE);\0"
 12382      4B504F49 
 12382      4E542829 
 12382      20776869 
 12382      6C652028 
 12383 6fdd 01       		.byte	0x1
 12384 6fde 9A01     		.uleb128 0x9a
 12385 6fe0 4D494E5F 		.ascii "MIN_ALIGNMENT_SIZE 4\0"
 12385      414C4947 
 12385      4E4D454E 
 12385      545F5349 
 12385      5A452034 
 12386 6ff5 01       		.byte	0x1
 12387 6ff6 9C01     		.uleb128 0x9c
 12388 6ff8 414C4947 		.ascii "ALIGN_VARIABLE(Value,Adjustment) (UINTN)Adjustment = 0; if((UINTN)Value % MIN_ALIGNMENT_SI
 12388      4E5F5641 
 12388      52494142 
 12388      4C452856 
 12388      616C7565 
 12389 70cd 01       		.byte	0x1
 12390 70ce A701     		.uleb128 0xa7
 12391 70d0 4546495F 		.ascii "EFI_SIGNATURE_16(A,B) ((A) | (B<<8))\0"
 12391      5349474E 
 12391      41545552 
 12391      455F3136 
 12391      28412C42 
 12392 70f5 01       		.byte	0x1
 12393 70f6 A801     		.uleb128 0xa8
 12394 70f8 4546495F 		.ascii "EFI_SIGNATURE_32(A,B,C,D) (EFI_SIGNATURE_16(A,B) | (EFI_SIGNATURE_16(C,D) << 16))\0"
 12394      5349474E 
 12394      41545552 
 12394      455F3332 
 12394      28412C42 
 12395 714a 01       		.byte	0x1
 12396 714b A901     		.uleb128 0xa9
 12397 714d 4546495F 		.ascii "EFI_SIGNATURE_64(A,B,C,D,E,F,G,H) (EFI_SIGNATURE_32(A,B,C,D) | ((UINT64)(EFI_SIGNATURE_32(
 12397      5349474E 
 12397      41545552 
 12397      455F3634 
 12397      28412C42 
 12398 71b9 01       		.byte	0x1
 12399 71ba B101     		.uleb128 0xb1
 12400 71bc 4558504F 		.ascii "EXPORTAPI \0"
 12400      52544150 
 12400      492000
 12401 71c7 01       		.byte	0x1
 12402 71c8 C201     		.uleb128 0xc2
 12403 71ca 45464941 		.ascii "EFIAPI __attribute__((ms_abi))\0"
 12403      5049205F 
 12403      5F617474 
 12403      72696275 
 12403      74655F5F 
 12404 71e9 01       		.byte	0x1
 12405 71ea C801     		.uleb128 0xc8
 12406 71ec 424F4F54 		.ascii "BOOTSERVICE \0"
 12406      53455256 
 12406      49434520 
 12406      00
 12407 71f9 01       		.byte	0x1
 12408 71fa CB01     		.uleb128 0xcb
 12409 71fc 52554E54 		.ascii "RUNTIMESERVICE \0"
 12409      494D4553 
 12409      45525649 
 12409      43452000 
 12410 720c 01       		.byte	0x1
 12411 720d CC01     		.uleb128 0xcc
 12412 720f 52554E54 		.ascii "RUNTIMEFUNCTION \0"
 12412      494D4546 
 12412      554E4354 
 12412      494F4E20 
 12412      00
 12413 7220 01       		.byte	0x1
 12414 7221 CF01     		.uleb128 0xcf
 12415 7223 52554E54 		.ascii "RUNTIME_CODE(a) alloc_text(\"rtcode\", a)\0"
 12415      494D455F 
 12415      434F4445 
 12415      28612920 
 12415      616C6C6F 
 12416 724b 01       		.byte	0x1
 12417 724c D001     		.uleb128 0xd0
 12418 724e 42454749 		.ascii "BEGIN_RUNTIME_DATA() data_seg(\"rtdata\")\0"
 12418      4E5F5255 
 12418      4E54494D 
 12418      455F4441 
 12418      54412829 
 12419 7276 01       		.byte	0x1
 12420 7277 D101     		.uleb128 0xd1
 12421 7279 454E445F 		.ascii "END_RUNTIME_DATA() data_seg(\"\")\0"
 12421      52554E54 
 12421      494D455F 
 12421      44415441 
 12421      28292064 
 12422 7299 01       		.byte	0x1
 12423 729a D301     		.uleb128 0xd3
 12424 729c 564F4C41 		.ascii "VOLATILE volatile\0"
 12424      54494C45 
 12424      20766F6C 
 12424      6174696C 
 12424      6500
 12425 72ae 01       		.byte	0x1
 12426 72af D501     		.uleb128 0xd5
 12427 72b1 4D454D4F 		.ascii "MEMORY_FENCE() \0"
 12427      52595F46 
 12427      454E4345 
 12427      28292000 
 12428 72c1 01       		.byte	0x1
 12429 72c2 8502     		.uleb128 0x105
 12430 72c4 4546495F 		.ascii "EFI_DRIVER_ENTRY_POINT(InitFunction) UINTN InitializeDriver ( VOID *ImageHandle, VOID *Sys
 12430      44524956 
 12430      45525F45 
 12430      4E545259 
 12430      5F504F49 
 12431 73d1 01       		.byte	0x1
 12432 73d2 9702     		.uleb128 0x117
 12433 73d4 4C4F4144 		.ascii "LOAD_INTERNAL_DRIVER(_if,type,name,entry) (_if)->LoadInternal(type, name, entry)\0"
 12433      5F494E54 
 12433      45524E41 
 12433      4C5F4452 
 12433      49564552 
 12434 7425 01       		.byte	0x1
 12435 7426 A602     		.uleb128 0x126
 12436 7428 494E5445 		.ascii "INTERFACE_DECL(x) struct x\0"
 12436      52464143 
 12436      455F4445 
 12436      434C2878 
 12436      29207374 
 12437 7443 01       		.byte	0x1
 12438 7444 AE02     		.uleb128 0x12e
 12439 7446 75656669 		.ascii "uefi_call_wrapper(func,va_num,...) func(__VA_ARGS__)\0"
 12439      5F63616C 
 12439      6C5F7772 
 12439      61707065 
 12439      72286675 
 12440 747b 01       		.byte	0x1
 12441 747c 8303     		.uleb128 0x183
 12442 747e 4546495F 		.ascii "EFI_FUNCTION __attribute__((ms_abi))\0"
 12442      46554E43 
 12442      54494F4E 
 12442      205F5F61 
 12442      74747269 
 12443 74a3 04       		.byte	0x4
 12444              		.file 25 "gnu-efi-3.0.18/inc/eficompiler.h"
 12445 74a4 03       		.byte	0x3
 12446 74a5 41       		.uleb128 0x41
 12447 74a6 19       		.uleb128 0x19
 12448 74a7 01       		.byte	0x1
 12449 74a8 12       		.uleb128 0x12
 12450 74a9 4546495F 		.ascii "EFI_UNUSED __attribute__((__unused__))\0"
 12450      554E5553 
 12450      4544205F 
 12450      5F617474 
 12450      72696275 
 12451 74d0 01       		.byte	0x1
 12452 74d1 1B       		.uleb128 0x1b
 12453 74d2 4546495F 		.ascii "EFI_NO_TAIL_CALL __attribute__((optimize(\"no-optimize-sibling-calls\")))\0"
 12453      4E4F5F54 
 12453      41494C5F 
 12453      43414C4C 
 12453      205F5F61 
 12454 751a 01       		.byte	0x1
 12455 751b 25       		.uleb128 0x25
 12456 751c 4546495F 		.ascii "EFI_OPTNONE __attribute__((__optimize__(\"0\")))\0"
 12456      4F50544E 
 12456      4F4E4520 
 12456      5F5F6174 
 12456      74726962 
 12457 754b 01       		.byte	0x1
 12458 754c 2C       		.uleb128 0x2c
 12459 754d 4546495F 		.ascii "EFI_ALIGN(x) __attribute__((__aligned__(x)))\0"
 12459      414C4947 
 12459      4E287829 
 12459      205F5F61 
 12459      74747269 
 12460 757a 01       		.byte	0x1
 12461 757b 30       		.uleb128 0x30
 12462 757c 414C4947 		.ascii "ALIGN(x) EFI_ALIGN(x)\0"
 12462      4E287829 
 12462      20454649 
 12462      5F414C49 
 12462      474E2878 
 12463 7592 01       		.byte	0x1
 12464 7593 36       		.uleb128 0x36
 12465 7594 4546495F 		.ascii "EFI_NORETURN __attribute__((noreturn))\0"
 12465      4E4F5245 
 12465      5455524E 
 12465      205F5F61 
 12465      74747269 
 12466 75bb 04       		.byte	0x4
 12467 75bc 03       		.byte	0x3
 12468 75bd 42       		.uleb128 0x42
 12469 75be 05       		.uleb128 0x5
 12470 75bf 01       		.byte	0x1
 12471 75c0 02       		.uleb128 0x2
 12472 75c1 5F454649 		.ascii "_EFI_DEF_H \0"
 12472      5F444546 
 12472      5F482000 
 12473 75cd 01       		.byte	0x1
 12474 75ce 22       		.uleb128 0x22
 12475 75cf 434F4E53 		.ascii "CONST const\0"
 12475      5420636F 
 12475      6E737400 
 12476 75db 01       		.byte	0x1
 12477 75dc 29       		.uleb128 0x29
 12478 75dd 54525545 		.ascii "TRUE ((BOOLEAN) 1)\0"
 12478      20282842 
 12478      4F4F4C45 
 12478      414E2920 
 12478      312900
 12479 75f0 01       		.byte	0x1
 12480 75f1 2A       		.uleb128 0x2a
 12481 75f2 46414C53 		.ascii "FALSE ((BOOLEAN) 0)\0"
 12481      45202828 
 12481      424F4F4C 
 12481      45414E29 
 12481      20302900 
 12482 7606 01       		.byte	0x1
 12483 7607 4B       		.uleb128 0x4b
 12484 7608 494E2000 		.ascii "IN \0"
 12485 760c 01       		.byte	0x1
 12486 760d 4C       		.uleb128 0x4c
 12487 760e 4F555420 		.ascii "OUT \0"
 12487      00
 12488 7613 01       		.byte	0x1
 12489 7614 4D       		.uleb128 0x4d
 12490 7615 4F505449 		.ascii "OPTIONAL \0"
 12490      4F4E414C 
 12490      2000
 12491 761f 01       		.byte	0x1
 12492 7620 70       		.uleb128 0x70
 12493 7621 4546495F 		.ascii "EFI_TIME_ADJUST_DAYLIGHT 0x01\0"
 12493      54494D45 
 12493      5F41444A 
 12493      5553545F 
 12493      4441594C 
 12494 763f 01       		.byte	0x1
 12495 7640 71       		.uleb128 0x71
 12496 7641 4546495F 		.ascii "EFI_TIME_IN_DAYLIGHT 0x02\0"
 12496      54494D45 
 12496      5F494E5F 
 12496      4441594C 
 12496      49474854 
 12497 765b 01       		.byte	0x1
 12498 765c 74       		.uleb128 0x74
 12499 765d 4546495F 		.ascii "EFI_UNSPECIFIED_TIMEZONE 0x07FF\0"
 12499      554E5350 
 12499      45434946 
 12499      4945445F 
 12499      54494D45 
 12500 767d 01       		.byte	0x1
 12501 767e C001     		.uleb128 0xc0
 12502 7680 4546495F 		.ascii "EFI_MEMORY_UC 0x0000000000000001\0"
 12502      4D454D4F 
 12502      52595F55 
 12502      43203078 
 12502      30303030 
 12503 76a1 01       		.byte	0x1
 12504 76a2 C101     		.uleb128 0xc1
 12505 76a4 4546495F 		.ascii "EFI_MEMORY_WC 0x0000000000000002\0"
 12505      4D454D4F 
 12505      52595F57 
 12505      43203078 
 12505      30303030 
 12506 76c5 01       		.byte	0x1
 12507 76c6 C201     		.uleb128 0xc2
 12508 76c8 4546495F 		.ascii "EFI_MEMORY_WT 0x0000000000000004\0"
 12508      4D454D4F 
 12508      52595F57 
 12508      54203078 
 12508      30303030 
 12509 76e9 01       		.byte	0x1
 12510 76ea C301     		.uleb128 0xc3
 12511 76ec 4546495F 		.ascii "EFI_MEMORY_WB 0x0000000000000008\0"
 12511      4D454D4F 
 12511      52595F57 
 12511      42203078 
 12511      30303030 
 12512 770d 01       		.byte	0x1
 12513 770e C401     		.uleb128 0xc4
 12514 7710 4546495F 		.ascii "EFI_MEMORY_UCE 0x0000000000000010\0"
 12514      4D454D4F 
 12514      52595F55 
 12514      43452030 
 12514      78303030 
 12515 7732 01       		.byte	0x1
 12516 7733 C701     		.uleb128 0xc7
 12517 7735 4546495F 		.ascii "EFI_MEMORY_WP 0x0000000000001000\0"
 12517      4D454D4F 
 12517      52595F57 
 12517      50203078 
 12517      30303030 
 12518 7756 01       		.byte	0x1
 12519 7757 C801     		.uleb128 0xc8
 12520 7759 4546495F 		.ascii "EFI_MEMORY_RP 0x0000000000002000\0"
 12520      4D454D4F 
 12520      52595F52 
 12520      50203078 
 12520      30303030 
 12521 777a 01       		.byte	0x1
 12522 777b C901     		.uleb128 0xc9
 12523 777d 4546495F 		.ascii "EFI_MEMORY_XP 0x0000000000004000\0"
 12523      4D454D4F 
 12523      52595F58 
 12523      50203078 
 12523      30303030 
 12524 779e 01       		.byte	0x1
 12525 779f CA01     		.uleb128 0xca
 12526 77a1 4546495F 		.ascii "EFI_MEMORY_RO 0x0000000000020000\0"
 12526      4D454D4F 
 12526      52595F52 
 12526      4F203078 
 12526      30303030 
 12527 77c2 01       		.byte	0x1
 12528 77c3 CD01     		.uleb128 0xcd
 12529 77c5 4546495F 		.ascii "EFI_MEMORY_NV 0x0000000000008000\0"
 12529      4D454D4F 
 12529      52595F4E 
 12529      56203078 
 12529      30303030 
 12530 77e6 01       		.byte	0x1
 12531 77e7 CE01     		.uleb128 0xce
 12532 77e9 4546495F 		.ascii "EFI_MEMORY_RUNTIME 0x8000000000000000\0"
 12532      4D454D4F 
 12532      52595F52 
 12532      554E5449 
 12532      4D452030 
 12533 780f 01       		.byte	0x1
 12534 7810 D101     		.uleb128 0xd1
 12535 7812 4546495F 		.ascii "EFI_MEMORY_MORE_RELIABLE 0x0000000000010000\0"
 12535      4D454D4F 
 12535      52595F4D 
 12535      4F52455F 
 12535      52454C49 
 12536 783e 01       		.byte	0x1
 12537 783f D201     		.uleb128 0xd2
 12538 7841 4546495F 		.ascii "EFI_MEMORY_SP 0x0000000000040000\0"
 12538      4D454D4F 
 12538      52595F53 
 12538      50203078 
 12538      30303030 
 12539 7862 01       		.byte	0x1
 12540 7863 D301     		.uleb128 0xd3
 12541 7865 4546495F 		.ascii "EFI_MEMORY_CPU_CRYPTO 0x0000000000080000\0"
 12541      4D454D4F 
 12541      52595F43 
 12541      50555F43 
 12541      52595054 
 12542 788e 01       		.byte	0x1
 12543 788f D401     		.uleb128 0xd4
 12544 7891 4546495F 		.ascii "EFI_MEMORY_ISA_VALID 0x4000000000000000\0"
 12544      4D454D4F 
 12544      52595F49 
 12544      53415F56 
 12544      414C4944 
 12545 78b9 01       		.byte	0x1
 12546 78ba D501     		.uleb128 0xd5
 12547 78bc 4546495F 		.ascii "EFI_MEMORY_ISA_MASK 0x0FFFF00000000000\0"
 12547      4D454D4F 
 12547      52595F49 
 12547      53415F4D 
 12547      41534B20 
 12548 78e3 01       		.byte	0x1
 12549 78e4 D801     		.uleb128 0xd8
 12550 78e6 4546495F 		.ascii "EFI_MEMORY_DESCRIPTOR_VERSION 1\0"
 12550      4D454D4F 
 12550      52595F44 
 12550      45534352 
 12550      4950544F 
 12551 7906 01       		.byte	0x1
 12552 7907 E701     		.uleb128 0xe7
 12553 7909 49534F5F 		.ascii "ISO_639_2_ENTRY_SIZE 3\0"
 12553      3633395F 
 12553      325F454E 
 12553      5452595F 
 12553      53495A45 
 12554 7920 01       		.byte	0x1
 12555 7921 ED01     		.uleb128 0xed
 12556 7923 4546495F 		.ascii "EFI_PAGE_SIZE 4096\0"
 12556      50414745 
 12556      5F53495A 
 12556      45203430 
 12556      393600
 12557 7936 01       		.byte	0x1
 12558 7937 EE01     		.uleb128 0xee
 12559 7939 4546495F 		.ascii "EFI_PAGE_MASK 0xFFF\0"
 12559      50414745 
 12559      5F4D4153 
 12559      4B203078 
 12559      46464600 
 12560 794d 01       		.byte	0x1
 12561 794e EF01     		.uleb128 0xef
 12562 7950 4546495F 		.ascii "EFI_PAGE_SHIFT 12\0"
 12562      50414745 
 12562      5F534849 
 12562      46542031 
 12562      3200
 12563 7962 01       		.byte	0x1
 12564 7963 F101     		.uleb128 0xf1
 12565 7965 4546495F 		.ascii "EFI_SIZE_TO_PAGES(a) ( ((a) >> EFI_PAGE_SHIFT) + ((a) & EFI_PAGE_MASK ? 1 : 0) )\0"
 12565      53495A45 
 12565      5F544F5F 
 12565      50414745 
 12565      53286129 
 12566 79b6 01       		.byte	0x1
 12567 79b7 F401     		.uleb128 0xf4
 12568 79b9 4546495F 		.ascii "EFI_OS_INDICATIONS_BOOT_TO_FW_UI 0x0000000000000001\0"
 12568      4F535F49 
 12568      4E444943 
 12568      4154494F 
 12568      4E535F42 
 12569 79ed 01       		.byte	0x1
 12570 79ee F501     		.uleb128 0xf5
 12571 79f0 4546495F 		.ascii "EFI_OS_INDICATIONS_TIMESTAMP_REVOCATION 0x0000000000000002\0"
 12571      4F535F49 
 12571      4E444943 
 12571      4154494F 
 12571      4E535F54 
 12572 7a2b 01       		.byte	0x1
 12573 7a2c F601     		.uleb128 0xf6
 12574 7a2e 4546495F 		.ascii "EFI_OS_INDICATIONS_FILE_CAPSULE_DELIVERY_SUPPORTED 0x0000000000000004\0"
 12574      4F535F49 
 12574      4E444943 
 12574      4154494F 
 12574      4E535F46 
 12575 7a74 01       		.byte	0x1
 12576 7a75 F801     		.uleb128 0xf8
 12577 7a77 4546495F 		.ascii "EFI_OS_INDICATIONS_FMP_CAPSULE_SUPPORTED 0x0000000000000008\0"
 12577      4F535F49 
 12577      4E444943 
 12577      4154494F 
 12577      4E535F46 
 12578 7ab3 01       		.byte	0x1
 12579 7ab4 FA01     		.uleb128 0xfa
 12580 7ab6 4546495F 		.ascii "EFI_OS_INDICATIONS_CAPSULE_RESULT_VAR_SUPPORTED 0x0000000000000010\0"
 12580      4F535F49 
 12580      4E444943 
 12580      4154494F 
 12580      4E535F43 
 12581 7af9 01       		.byte	0x1
 12582 7afa FC01     		.uleb128 0xfc
 12583 7afc 4546495F 		.ascii "EFI_OS_INDICATIONS_START_OS_RECOVERY 0x0000000000000020\0"
 12583      4F535F49 
 12583      4E444943 
 12583      4154494F 
 12583      4E535F53 
 12584 7b34 01       		.byte	0x1
 12585 7b35 FD01     		.uleb128 0xfd
 12586 7b37 4546495F 		.ascii "EFI_OS_INDICATIONS_START_PLATFORM_RECOVERY 0x0000000000000040\0"
 12586      4F535F49 
 12586      4E444943 
 12586      4154494F 
 12586      4E535F53 
 12587 7b75 01       		.byte	0x1
 12588 7b76 FF01     		.uleb128 0xff
 12589 7b78 4546495F 		.ascii "EFI_OS_INDICATIONS_JSON_CONFIG_DATA_REFRESH 0x0000000000000080\0"
 12589      4F535F49 
 12589      4E444943 
 12589      4154494F 
 12589      4E535F4A 
 12590 7bb7 04       		.byte	0x4
 12591 7bb8 03       		.byte	0x3
 12592 7bb9 43       		.uleb128 0x43
 12593 7bba 06       		.uleb128 0x6
 12594 7bbb 01       		.byte	0x1
 12595 7bbc 02       		.uleb128 0x2
 12596 7bbd 5F444556 		.ascii "_DEVPATH_H \0"
 12596      50415448 
 12596      5F482000 
 12597 7bc9 01       		.byte	0x1
 12598 7bca 23       		.uleb128 0x23
 12599 7bcb 4546495F 		.ascii "EFI_DP_TYPE_MASK 0x7F\0"
 12599      44505F54 
 12599      5950455F 
 12599      4D41534B 
 12599      20307837 
 12600 7be1 01       		.byte	0x1
 12601 7be2 24       		.uleb128 0x24
 12602 7be3 4546495F 		.ascii "EFI_DP_TYPE_UNPACKED 0x80\0"
 12602      44505F54 
 12602      5950455F 
 12602      554E5041 
 12602      434B4544 
 12603 7bfd 01       		.byte	0x1
 12604 7bfe 27       		.uleb128 0x27
 12605 7bff 454E445F 		.ascii "END_DEVICE_PATH_TYPE 0x7f\0"
 12605      44455649 
 12605      43455F50 
 12605      4154485F 
 12605      54595045 
 12606 7c19 01       		.byte	0x1
 12607 7c1a 2A       		.uleb128 0x2a
 12608 7c1b 454E445F 		.ascii "END_ENTIRE_DEVICE_PATH_SUBTYPE 0xff\0"
 12608      454E5449 
 12608      52455F44 
 12608      45564943 
 12608      455F5041 
 12609 7c3f 01       		.byte	0x1
 12610 7c40 2B       		.uleb128 0x2b
 12611 7c41 454E445F 		.ascii "END_INSTANCE_DEVICE_PATH_SUBTYPE 0x01\0"
 12611      494E5354 
 12611      414E4345 
 12611      5F444556 
 12611      4943455F 
 12612 7c67 01       		.byte	0x1
 12613 7c68 2C       		.uleb128 0x2c
 12614 7c69 454E445F 		.ascii "END_DEVICE_PATH_LENGTH (sizeof(EFI_DEVICE_PATH_PROTOCOL))\0"
 12614      44455649 
 12614      43455F50 
 12614      4154485F 
 12614      4C454E47 
 12615 7ca3 01       		.byte	0x1
 12616 7ca4 2F       		.uleb128 0x2f
 12617 7ca5 44505F49 		.ascii "DP_IS_END_TYPE(a) \0"
 12617      535F454E 
 12617      445F5459 
 12617      50452861 
 12617      292000
 12618 7cb8 01       		.byte	0x1
 12619 7cb9 30       		.uleb128 0x30
 12620 7cba 44505F49 		.ascii "DP_IS_END_SUBTYPE(a) ( ((a)->SubType == END_ENTIRE_DEVICE_PATH_SUBTYPE )\0"
 12620      535F454E 
 12620      445F5355 
 12620      42545950 
 12620      45286129 
 12621 7d03 01       		.byte	0x1
 12622 7d04 32       		.uleb128 0x32
 12623 7d05 44657669 		.ascii "DevicePathType(a) ( ((a)->Type) & EFI_DP_TYPE_MASK )\0"
 12623      63655061 
 12623      74685479 
 12623      70652861 
 12623      29202820 
 12624 7d3a 01       		.byte	0x1
 12625 7d3b 33       		.uleb128 0x33
 12626 7d3c 44657669 		.ascii "DevicePathSubType(a) ( (a)->SubType )\0"
 12626      63655061 
 12626      74685375 
 12626      62547970 
 12626      65286129 
 12627 7d62 01       		.byte	0x1
 12628 7d63 34       		.uleb128 0x34
 12629 7d64 44657669 		.ascii "DevicePathNodeLength(a) ( ((a)->Length[0]) | ((a)->Length[1] << 8) )\0"
 12629      63655061 
 12629      74684E6F 
 12629      64654C65 
 12629      6E677468 
 12630 7da9 01       		.byte	0x1
 12631 7daa 35       		.uleb128 0x35
 12632 7dab 4E657874 		.ascii "NextDevicePathNode(a) ( (EFI_DEVICE_PATH_PROTOCOL *) ( ((UINT8 *) (a)) + DevicePathNodeLen
 12632      44657669 
 12632      63655061 
 12632      74684E6F 
 12632      64652861 
 12633 7e0e 01       		.byte	0x1
 12634 7e0f 37       		.uleb128 0x37
 12635 7e10 49734465 		.ascii "IsDevicePathEndType(a) ( DevicePathType(a) == END_DEVICE_PATH_TYPE )\0"
 12635      76696365 
 12635      50617468 
 12635      456E6454 
 12635      79706528 
 12636 7e55 01       		.byte	0x1
 12637 7e56 38       		.uleb128 0x38
 12638 7e57 49734465 		.ascii "IsDevicePathEndSubType(a) ( (a)->SubType == END_ENTIRE_DEVICE_PATH_SUBTYPE )\0"
 12638      76696365 
 12638      50617468 
 12638      456E6453 
 12638      75625479 
 12639 7ea4 01       		.byte	0x1
 12640 7ea5 39       		.uleb128 0x39
 12641 7ea6 49734465 		.ascii "IsDevicePathEnd(a) ( IsDevicePathEndType(a) && IsDevicePathEndSubType(a) )\0"
 12641      76696365 
 12641      50617468 
 12641      456E6428 
 12641      61292028 
 12642 7ef1 01       		.byte	0x1
 12643 7ef2 3A       		.uleb128 0x3a
 12644 7ef3 49734465 		.ascii "IsDevicePathUnpacked(a) ( (a)->Type & EFI_DP_TYPE_UNPACKED )\0"
 12644      76696365 
 12644      50617468 
 12644      556E7061 
 12644      636B6564 
 12645 7f30 01       		.byte	0x1
 12646 7f31 3D       		.uleb128 0x3d
 12647 7f32 53657444 		.ascii "SetDevicePathNodeLength(a,l) { (a)->Length[0] = (UINT8) (l); (a)->Length[1] = (UINT8) ((l)
 12647      65766963 
 12647      65506174 
 12647      684E6F64 
 12647      654C656E 
 12648 7f96 01       		.byte	0x1
 12649 7f97 42       		.uleb128 0x42
 12650 7f98 53657444 		.ascii "SetDevicePathEndNode(a) { (a)->Type = END_DEVICE_PATH_TYPE; (a)->SubType = END_ENTIRE_DEVI
 12650      65766963 
 12650      65506174 
 12650      68456E64 
 12650      4E6F6465 
 12651 804c 01       		.byte	0x1
 12652 804d 4E       		.uleb128 0x4e
 12653 804e 48415244 		.ascii "HARDWARE_DEVICE_PATH 0x01\0"
 12653      57415245 
 12653      5F444556 
 12653      4943455F 
 12653      50415448 
 12654 8068 01       		.byte	0x1
 12655 8069 50       		.uleb128 0x50
 12656 806a 48575F50 		.ascii "HW_PCI_DP 0x01\0"
 12656      43495F44 
 12656      50203078 
 12656      303100
 12657 8079 01       		.byte	0x1
 12658 807a 57       		.uleb128 0x57
 12659 807b 48575F50 		.ascii "HW_PCCARD_DP 0x02\0"
 12659      43434152 
 12659      445F4450 
 12659      20307830 
 12659      3200
 12660 808d 01       		.byte	0x1
 12661 808e 5D       		.uleb128 0x5d
 12662 808f 48575F4D 		.ascii "HW_MEMMAP_DP 0x03\0"
 12662      454D4D41 
 12662      505F4450 
 12662      20307830 
 12662      3300
 12663 80a1 01       		.byte	0x1
 12664 80a2 65       		.uleb128 0x65
 12665 80a3 48575F56 		.ascii "HW_VENDOR_DP 0x04\0"
 12665      454E444F 
 12665      525F4450 
 12665      20307830 
 12665      3400
 12666 80b5 01       		.byte	0x1
 12667 80b6 6B       		.uleb128 0x6b
 12668 80b7 554E4B4E 		.ascii "UNKNOWN_DEVICE_GUID { 0xcf31fac5, 0xc24e, 0x11d2, {0x85, 0xf3, 0x0, 0xa0, 0xc9, 0x3e, 0xc9
 12668      4F574E5F 
 12668      44455649 
 12668      43455F47 
 12668      55494420 
 12669 811b 01       		.byte	0x1
 12670 811c 73       		.uleb128 0x73
 12671 811d 48575F43 		.ascii "HW_CONTROLLER_DP 0x05\0"
 12671      4F4E5452 
 12671      4F4C4C45 
 12671      525F4450 
 12671      20307830 
 12672 8133 01       		.byte	0x1
 12673 8134 7D       		.uleb128 0x7d
 12674 8135 41435049 		.ascii "ACPI_DEVICE_PATH 0x02\0"
 12674      5F444556 
 12674      4943455F 
 12674      50415448 
 12674      20307830 
 12675 814b 01       		.byte	0x1
 12676 814c 7F       		.uleb128 0x7f
 12677 814d 41435049 		.ascii "ACPI_DP 0x01\0"
 12677      5F445020 
 12677      30783031 
 12677      00
 12678 815a 01       		.byte	0x1
 12679 815b 8601     		.uleb128 0x86
 12680 815d 45585041 		.ascii "EXPANDED_ACPI_DP 0x02\0"
 12680      4E444544 
 12680      5F414350 
 12680      495F4450 
 12680      20307830 
 12681 8173 01       		.byte	0x1
 12682 8174 8F01     		.uleb128 0x8f
 12683 8176 41435049 		.ascii "ACPI_ADR_DP 3\0"
 12683      5F414452 
 12683      5F445020 
 12683      3300
 12684 8184 01       		.byte	0x1
 12685 8185 9C01     		.uleb128 0x9c
 12686 8187 504E505F 		.ascii "PNP_EISA_ID_CONST 0x41d0\0"
 12686      45495341 
 12686      5F49445F 
 12686      434F4E53 
 12686      54203078 
 12687 81a0 01       		.byte	0x1
 12688 81a1 9D01     		.uleb128 0x9d
 12689 81a3 45495341 		.ascii "EISA_ID(_Name,_Num) ((UINT32) ((_Name) | (_Num) << 16))\0"
 12689      5F494428 
 12689      5F4E616D 
 12689      652C5F4E 
 12689      756D2920 
 12690 81db 01       		.byte	0x1
 12691 81dc 9E01     		.uleb128 0x9e
 12692 81de 45495341 		.ascii "EISA_PNP_ID(_PNPId) (EISA_ID(PNP_EISA_ID_CONST, (_PNPId)))\0"
 12692      5F504E50 
 12692      5F494428 
 12692      5F504E50 
 12692      49642920 
 12693 8219 01       		.byte	0x1
 12694 821a A001     		.uleb128 0xa0
 12695 821c 504E505F 		.ascii "PNP_EISA_ID_MASK 0xffff\0"
 12695      45495341 
 12695      5F49445F 
 12695      4D41534B 
 12695      20307866 
 12696 8234 01       		.byte	0x1
 12697 8235 A101     		.uleb128 0xa1
 12698 8237 45495341 		.ascii "EISA_ID_TO_NUM(_Id) ((_Id) >> 16)\0"
 12698      5F49445F 
 12698      544F5F4E 
 12698      554D285F 
 12698      49642920 
 12699 8259 01       		.byte	0x1
 12700 825a A701     		.uleb128 0xa7
 12701 825c 4D455353 		.ascii "MESSAGING_DEVICE_PATH 0x03\0"
 12701      4147494E 
 12701      475F4445 
 12701      56494345 
 12701      5F504154 
 12702 8277 01       		.byte	0x1
 12703 8278 A901     		.uleb128 0xa9
 12704 827a 4D53475F 		.ascii "MSG_ATAPI_DP 0x01\0"
 12704      41544150 
 12704      495F4450 
 12704      20307830 
 12704      3100
 12705 828c 01       		.byte	0x1
 12706 828d B101     		.uleb128 0xb1
 12707 828f 4D53475F 		.ascii "MSG_SCSI_DP 0x02\0"
 12707      53435349 
 12707      5F445020 
 12707      30783032 
 12707      00
 12708 82a0 01       		.byte	0x1
 12709 82a1 B801     		.uleb128 0xb8
 12710 82a3 4D53475F 		.ascii "MSG_FIBRECHANNEL_DP 0x03\0"
 12710      46494252 
 12710      45434841 
 12710      4E4E454C 
 12710      5F445020 
 12711 82bc 01       		.byte	0x1
 12712 82bd C401     		.uleb128 0xc4
 12713 82bf 4D53475F 		.ascii "MSG_FIBRECHANNELEX_DP 21\0"
 12713      46494252 
 12713      45434841 
 12713      4E4E454C 
 12713      45585F44 
 12714 82d8 01       		.byte	0x1
 12715 82d9 CC01     		.uleb128 0xcc
 12716 82db 4D53475F 		.ascii "MSG_1394_DP 0x04\0"
 12716      31333934 
 12716      5F445020 
 12716      30783034 
 12716      00
 12717 82ec 01       		.byte	0x1
 12718 82ed D301     		.uleb128 0xd3
 12719 82ef 4D53475F 		.ascii "MSG_USB_DP 0x05\0"
 12719      5553425F 
 12719      44502030 
 12719      78303500 
 12720 82ff 01       		.byte	0x1
 12721 8300 DE01     		.uleb128 0xde
 12722 8302 4D53475F 		.ascii "MSG_SATA_DP 18\0"
 12722      53415441 
 12722      5F445020 
 12722      313800
 12723 8311 01       		.byte	0x1
 12724 8312 EA01     		.uleb128 0xea
 12725 8314 4D53475F 		.ascii "MSG_USB_WWID_DP 16\0"
 12725      5553425F 
 12725      57574944 
 12725      5F445020 
 12725      313600
 12726 8327 01       		.byte	0x1
 12727 8328 F701     		.uleb128 0xf7
 12728 832a 4D53475F 		.ascii "MSG_DEVICE_LOGICAL_UNIT_DP 17\0"
 12728      44455649 
 12728      43455F4C 
 12728      4F474943 
 12728      414C5F55 
 12729 8348 01       		.byte	0x1
 12730 8349 FD01     		.uleb128 0xfd
 12731 834b 4D53475F 		.ascii "MSG_USB_CLASS_DP 0x0F\0"
 12731      5553425F 
 12731      434C4153 
 12731      535F4450 
 12731      20307830 
 12732 8361 01       		.byte	0x1
 12733 8362 8702     		.uleb128 0x107
 12734 8364 4D53475F 		.ascii "MSG_I2O_DP 0x06\0"
 12734      49324F5F 
 12734      44502030 
 12734      78303600 
 12735 8374 01       		.byte	0x1
 12736 8375 8D02     		.uleb128 0x10d
 12737 8377 4D53475F 		.ascii "MSG_MAC_ADDR_DP 0x0b\0"
 12737      4D41435F 
 12737      41444452 
 12737      5F445020 
 12737      30783062 
 12738 838c 01       		.byte	0x1
 12739 838d 9402     		.uleb128 0x114
 12740 838f 4D53475F 		.ascii "MSG_IPv4_DP 0x0c\0"
 12740      49507634 
 12740      5F445020 
 12740      30783063 
 12740      00
 12741 83a0 01       		.byte	0x1
 12742 83a1 A202     		.uleb128 0x122
 12743 83a3 4D53475F 		.ascii "MSG_IPv6_DP 0x0d\0"
 12743      49507636 
 12743      5F445020 
 12743      30783064 
 12743      00
 12744 83b4 01       		.byte	0x1
 12745 83b5 B502     		.uleb128 0x135
 12746 83b7 4D53475F 		.ascii "MSG_URI_DP 24\0"
 12746      5552495F 
 12746      44502032 
 12746      3400
 12747 83c5 01       		.byte	0x1
 12748 83c6 BF02     		.uleb128 0x13f
 12749 83c8 4D53475F 		.ascii "MSG_VLAN_DP 20\0"
 12749      564C414E 
 12749      5F445020 
 12749      323000
 12750 83d7 01       		.byte	0x1
 12751 83d8 C502     		.uleb128 0x145
 12752 83da 4D53475F 		.ascii "MSG_INFINIBAND_DP 0x09\0"
 12752      494E4649 
 12752      4E494241 
 12752      4E445F44 
 12752      50203078 
 12753 83f1 01       		.byte	0x1
 12754 83f2 CF02     		.uleb128 0x14f
 12755 83f4 4D53475F 		.ascii "MSG_UART_DP 0x0e\0"
 12755      55415254 
 12755      5F445020 
 12755      30783065 
 12755      00
 12756 8405 01       		.byte	0x1
 12757 8406 D902     		.uleb128 0x159
 12758 8408 4D53475F 		.ascii "MSG_VENDOR_DP 0x0A\0"
 12758      56454E44 
 12758      4F525F44 
 12758      50203078 
 12758      304100
 12759 841b 01       		.byte	0x1
 12760 841c DC02     		.uleb128 0x15c
 12761 841e 4546495F 		.ascii "EFI_PC_ANSI_GUID { 0xe0c14753, 0xf9be, 0x11d2, {0x9a, 0x0c, 0x00, 0x90, 0x27, 0x3f, 0xc1, 
 12761      50435F41 
 12761      4E53495F 
 12761      47554944 
 12761      207B2030 
 12762 8480 01       		.byte	0x1
 12763 8481 DE02     		.uleb128 0x15e
 12764 8483 44455649 		.ascii "DEVICE_PATH_MESSAGING_PC_ANSI EFI_PC_ANSI_GUID\0"
 12764      43455F50 
 12764      4154485F 
 12764      4D455353 
 12764      4147494E 
 12765 84b2 01       		.byte	0x1
 12766 84b3 E002     		.uleb128 0x160
 12767 84b5 4546495F 		.ascii "EFI_VT_100_GUID { 0xdfa66065, 0xb419, 0x11d3, {0x9a, 0x2d, 0x00, 0x90, 0x27, 0x3f, 0xc1, 0
 12767      56545F31 
 12767      30305F47 
 12767      55494420 
 12767      7B203078 
 12768 8516 01       		.byte	0x1
 12769 8517 E202     		.uleb128 0x162
 12770 8519 44455649 		.ascii "DEVICE_PATH_MESSAGING_VT_100 EFI_VT_100_GUID\0"
 12770      43455F50 
 12770      4154485F 
 12770      4D455353 
 12770      4147494E 
 12771 8546 01       		.byte	0x1
 12772 8547 E402     		.uleb128 0x164
 12773 8549 4546495F 		.ascii "EFI_VT_100_PLUS_GUID { 0x7baec70b, 0x57e0, 0x4c76, {0x8e, 0x87, 0x2f, 0x9e, 0x28, 0x08, 0x
 12773      56545F31 
 12773      30305F50 
 12773      4C55535F 
 12773      47554944 
 12774 85af 01       		.byte	0x1
 12775 85b0 E602     		.uleb128 0x166
 12776 85b2 44455649 		.ascii "DEVICE_PATH_MESSAGING_VT_100_PLUS EFI_VT_100_PLUS_GUID\0"
 12776      43455F50 
 12776      4154485F 
 12776      4D455353 
 12776      4147494E 
 12777 85e9 01       		.byte	0x1
 12778 85ea E802     		.uleb128 0x168
 12779 85ec 4546495F 		.ascii "EFI_VT_UTF8_GUID { 0xad15a0d6, 0x8bec, 0x4acf, {0xa0, 0x73, 0xd0, 0x1d, 0xe7, 0x7e, 0x2d, 
 12779      56545F55 
 12779      5446385F 
 12779      47554944 
 12779      207B2030 
 12780 864e 01       		.byte	0x1
 12781 864f EA02     		.uleb128 0x16a
 12782 8651 44455649 		.ascii "DEVICE_PATH_MESSAGING_VT_UTF8 EFI_VT_UTF8_GUID\0"
 12782      43455F50 
 12782      4154485F 
 12782      4D455353 
 12782      4147494E 
 12783 8680 01       		.byte	0x1
 12784 8681 F002     		.uleb128 0x170
 12785 8683 4D454449 		.ascii "MEDIA_DEVICE_PATH 0x04\0"
 12785      415F4445 
 12785      56494345 
 12785      5F504154 
 12785      48203078 
 12786 869a 01       		.byte	0x1
 12787 869b F202     		.uleb128 0x172
 12788 869d 4D454449 		.ascii "MEDIA_HARDDRIVE_DP 0x01\0"
 12788      415F4841 
 12788      52444452 
 12788      4956455F 
 12788      44502030 
 12789 86b5 01       		.byte	0x1
 12790 86b6 FD02     		.uleb128 0x17d
 12791 86b8 4D42525F 		.ascii "MBR_TYPE_PCAT 0x01\0"
 12791      54595045 
 12791      5F504341 
 12791      54203078 
 12791      303100
 12792 86cb 01       		.byte	0x1
 12793 86cc FE02     		.uleb128 0x17e
 12794 86ce 4D42525F 		.ascii "MBR_TYPE_EFI_PARTITION_TABLE_HEADER 0x02\0"
 12794      54595045 
 12794      5F454649 
 12794      5F504152 
 12794      54495449 
 12795 86f7 01       		.byte	0x1
 12796 86f8 8003     		.uleb128 0x180
 12797 86fa 5349474E 		.ascii "SIGNATURE_TYPE_MBR 0x01\0"
 12797      41545552 
 12797      455F5459 
 12797      50455F4D 
 12797      42522030 
 12798 8712 01       		.byte	0x1
 12799 8713 8103     		.uleb128 0x181
 12800 8715 5349474E 		.ascii "SIGNATURE_TYPE_GUID 0x02\0"
 12800      41545552 
 12800      455F5459 
 12800      50455F47 
 12800      55494420 
 12801 872e 01       		.byte	0x1
 12802 872f 8303     		.uleb128 0x183
 12803 8731 4D454449 		.ascii "MEDIA_CDROM_DP 0x02\0"
 12803      415F4344 
 12803      524F4D5F 
 12803      44502030 
 12803      78303200 
 12804 8745 01       		.byte	0x1
 12805 8746 8B03     		.uleb128 0x18b
 12806 8748 4D454449 		.ascii "MEDIA_VENDOR_DP 0x03\0"
 12806      415F5645 
 12806      4E444F52 
 12806      5F445020 
 12806      30783033 
 12807 875d 01       		.byte	0x1
 12808 875e 8E03     		.uleb128 0x18e
 12809 8760 4D454449 		.ascii "MEDIA_FILEPATH_DP 0x04\0"
 12809      415F4649 
 12809      4C455041 
 12809      54485F44 
 12809      50203078 
 12810 8777 01       		.byte	0x1
 12811 8778 9403     		.uleb128 0x194
 12812 877a 53495A45 		.ascii "SIZE_OF_FILEPATH_DEVICE_PATH EFI_FIELD_OFFSET(FILEPATH_DEVICE_PATH,PathName)\0"
 12812      5F4F465F 
 12812      46494C45 
 12812      50415448 
 12812      5F444556 
 12813 87c7 01       		.byte	0x1
 12814 87c8 9603     		.uleb128 0x196
 12815 87ca 4D454449 		.ascii "MEDIA_PROTOCOL_DP 0x05\0"
 12815      415F5052 
 12815      4F544F43 
 12815      4F4C5F44 
 12815      50203078 
 12816 87e1 01       		.byte	0x1
 12817 87e2 A003     		.uleb128 0x1a0
 12818 87e4 4D454449 		.ascii "MEDIA_PIWG_FW_FILE_DP 6\0"
 12818      415F5049 
 12818      57475F46 
 12818      575F4649 
 12818      4C455F44 
 12819 87fc 01       		.byte	0x1
 12820 87fd AA03     		.uleb128 0x1aa
 12821 87ff 4D454449 		.ascii "MEDIA_PIWG_FW_VOL_DP 7\0"
 12821      415F5049 
 12821      57475F46 
 12821      575F564F 
 12821      4C5F4450 
 12822 8816 01       		.byte	0x1
 12823 8817 B403     		.uleb128 0x1b4
 12824 8819 4D454449 		.ascii "MEDIA_RELATIVE_OFFSET_RANGE_DP 8\0"
 12824      415F5245 
 12824      4C415449 
 12824      56455F4F 
 12824      46465345 
 12825 883a 01       		.byte	0x1
 12826 883b C003     		.uleb128 0x1c0
 12827 883d 4242535F 		.ascii "BBS_DEVICE_PATH 0x05\0"
 12827      44455649 
 12827      43455F50 
 12827      41544820 
 12827      30783035 
 12828 8852 01       		.byte	0x1
 12829 8853 C203     		.uleb128 0x1c2
 12830 8855 4242535F 		.ascii "BBS_BBS_DP 0x01\0"
 12830      4242535F 
 12830      44502030 
 12830      78303100 
 12831 8865 01       		.byte	0x1
 12832 8866 CB03     		.uleb128 0x1cb
 12833 8868 4242535F 		.ascii "BBS_TYPE_FLOPPY 0x01\0"
 12833      54595045 
 12833      5F464C4F 
 12833      50505920 
 12833      30783031 
 12834 887d 01       		.byte	0x1
 12835 887e CC03     		.uleb128 0x1cc
 12836 8880 4242535F 		.ascii "BBS_TYPE_HARDDRIVE 0x02\0"
 12836      54595045 
 12836      5F484152 
 12836      44445249 
 12836      56452030 
 12837 8898 01       		.byte	0x1
 12838 8899 CD03     		.uleb128 0x1cd
 12839 889b 4242535F 		.ascii "BBS_TYPE_CDROM 0x03\0"
 12839      54595045 
 12839      5F434452 
 12839      4F4D2030 
 12839      78303300 
 12840 88af 01       		.byte	0x1
 12841 88b0 CE03     		.uleb128 0x1ce
 12842 88b2 4242535F 		.ascii "BBS_TYPE_PCMCIA 0x04\0"
 12842      54595045 
 12842      5F50434D 
 12842      43494120 
 12842      30783034 
 12843 88c7 01       		.byte	0x1
 12844 88c8 CF03     		.uleb128 0x1cf
 12845 88ca 4242535F 		.ascii "BBS_TYPE_USB 0x05\0"
 12845      54595045 
 12845      5F555342 
 12845      20307830 
 12845      3500
 12846 88dc 01       		.byte	0x1
 12847 88dd D003     		.uleb128 0x1d0
 12848 88df 4242535F 		.ascii "BBS_TYPE_EMBEDDED_NETWORK 0x06\0"
 12848      54595045 
 12848      5F454D42 
 12848      45444445 
 12848      445F4E45 
 12849 88fe 01       		.byte	0x1
 12850 88ff D103     		.uleb128 0x1d1
 12851 8901 4242535F 		.ascii "BBS_TYPE_DEV 0x80\0"
 12851      54595045 
 12851      5F444556 
 12851      20307838 
 12851      3000
 12852 8913 01       		.byte	0x1
 12853 8914 D203     		.uleb128 0x1d2
 12854 8916 4242535F 		.ascii "BBS_TYPE_UNKNOWN 0xFF\0"
 12854      54595045 
 12854      5F554E4B 
 12854      4E4F574E 
 12854      20307846 
 12855 892c 01       		.byte	0x1
 12856 892d 9A04     		.uleb128 0x21a
 12857 892f 4546495F 		.ascii "EFI_DEVICE_PATH_TO_TEXT_PROTOCOL_GUID { 0x8b843e20, 0x8132, 0x4852, {0x90, 0xcc, 0x55, 0x1
 12857      44455649 
 12857      43455F50 
 12857      4154485F 
 12857      544F5F54 
 12858 89a6 01       		.byte	0x1
 12859 89a7 B204     		.uleb128 0x232
 12860 89a9 4546495F 		.ascii "EFI_DEVICE_PATH_FROM_TEXT_PROTOCOL_GUID { 0x5c99a21, 0xc70f, 0x4ad2, {0x8a, 0x5f, 0x35, 0x
 12860      44455649 
 12860      43455F50 
 12860      4154485F 
 12860      46524F4D 
 12861 8a21 01       		.byte	0x1
 12862 8a22 C604     		.uleb128 0x246
 12863 8a24 4546495F 		.ascii "EFI_DEVICE_PATH_UTILITIES_PROTOCOL_GUID { 0x379be4e, 0xd706, 0x437d, {0xb0, 0x37, 0xed, 0x
 12863      44455649 
 12863      43455F50 
 12863      4154485F 
 12863      5554494C 
 12864 8a9c 04       		.byte	0x4
 12865              		.file 26 "gnu-efi-3.0.18/inc/efipciio.h"
 12866 8a9d 03       		.byte	0x3
 12867 8a9e 44       		.uleb128 0x44
 12868 8a9f 1A       		.uleb128 0x1a
 12869 8aa0 01       		.byte	0x1
 12870 8aa1 02       		.uleb128 0x2
 12871 8aa2 5F454649 		.ascii "_EFI_PCI_IO_H \0"
 12871      5F504349 
 12871      5F494F5F 
 12871      482000
 12872 8ab1 01       		.byte	0x1
 12873 8ab2 04       		.uleb128 0x4
 12874 8ab3 4546495F 		.ascii "EFI_PCI_IO_PROTOCOL_GUID { 0x4cf5b200, 0x68b8, 0x4ca5, {0x9e, 0xec, 0xb2, 0x3e, 0x3f, 0x50
 12874      5043495F 
 12874      494F5F50 
 12874      524F544F 
 12874      434F4C5F 
 12875 8b1d 01       		.byte	0x1
 12876 8b1e 07       		.uleb128 0x7
 12877 8b1f 4546495F 		.ascii "EFI_PCI_ROOT_BRIDGE_IO_PROTOCOL_GUID { 0x2f707ebb, 0x4a1a, 0x11d4, {0x9a, 0x38, 0x00, 0x90
 12877      5043495F 
 12877      524F4F54 
 12877      5F425249 
 12877      4447455F 
 12878 8b95 01       		.byte	0x1
 12879 8b96 1D       		.uleb128 0x1d
 12880 8b97 4546495F 		.ascii "EFI_PCI_IO_PASS_THROUGH_BAR 0xff\0"
 12880      5043495F 
 12880      494F5F50 
 12880      4153535F 
 12880      5448524F 
 12881 8bb8 01       		.byte	0x1
 12882 8bb9 F401     		.uleb128 0xf4
 12883 8bbb 4546495F 		.ascii "EFI_PCI_ATTRIBUTE_ISA_MOTHERBOARD_IO 0x0001\0"
 12883      5043495F 
 12883      41545452 
 12883      49425554 
 12883      455F4953 
 12884 8be7 01       		.byte	0x1
 12885 8be8 F501     		.uleb128 0xf5
 12886 8bea 4546495F 		.ascii "EFI_PCI_ATTRIBUTE_ISA_IO 0x0002\0"
 12886      5043495F 
 12886      41545452 
 12886      49425554 
 12886      455F4953 
 12887 8c0a 01       		.byte	0x1
 12888 8c0b F601     		.uleb128 0xf6
 12889 8c0d 4546495F 		.ascii "EFI_PCI_ATTRIBUTE_VGA_PALETTE_IO 0x0004\0"
 12889      5043495F 
 12889      41545452 
 12889      49425554 
 12889      455F5647 
 12890 8c35 01       		.byte	0x1
 12891 8c36 F701     		.uleb128 0xf7
 12892 8c38 4546495F 		.ascii "EFI_PCI_ATTRIBUTE_VGA_MEMORY 0x0008\0"
 12892      5043495F 
 12892      41545452 
 12892      49425554 
 12892      455F5647 
 12893 8c5c 01       		.byte	0x1
 12894 8c5d F801     		.uleb128 0xf8
 12895 8c5f 4546495F 		.ascii "EFI_PCI_ATTRIBUTE_VGA_IO 0x0010\0"
 12895      5043495F 
 12895      41545452 
 12895      49425554 
 12895      455F5647 
 12896 8c7f 01       		.byte	0x1
 12897 8c80 F901     		.uleb128 0xf9
 12898 8c82 4546495F 		.ascii "EFI_PCI_ATTRIBUTE_IDE_PRIMARY_IO 0x0020\0"
 12898      5043495F 
 12898      41545452 
 12898      49425554 
 12898      455F4944 
 12899 8caa 01       		.byte	0x1
 12900 8cab FA01     		.uleb128 0xfa
 12901 8cad 4546495F 		.ascii "EFI_PCI_ATTRIBUTE_IDE_SECONDARY_IO 0x0040\0"
 12901      5043495F 
 12901      41545452 
 12901      49425554 
 12901      455F4944 
 12902 8cd7 01       		.byte	0x1
 12903 8cd8 FB01     		.uleb128 0xfb
 12904 8cda 4546495F 		.ascii "EFI_PCI_ATTRIBUTE_MEMORY_WRITE_COMBINE 0x0080\0"
 12904      5043495F 
 12904      41545452 
 12904      49425554 
 12904      455F4D45 
 12905 8d08 01       		.byte	0x1
 12906 8d09 FC01     		.uleb128 0xfc
 12907 8d0b 4546495F 		.ascii "EFI_PCI_ATTRIBUTE_IO 0x0100\0"
 12907      5043495F 
 12907      41545452 
 12907      49425554 
 12907      455F494F 
 12908 8d27 01       		.byte	0x1
 12909 8d28 FD01     		.uleb128 0xfd
 12910 8d2a 4546495F 		.ascii "EFI_PCI_ATTRIBUTE_MEMORY 0x0200\0"
 12910      5043495F 
 12910      41545452 
 12910      49425554 
 12910      455F4D45 
 12911 8d4a 01       		.byte	0x1
 12912 8d4b FE01     		.uleb128 0xfe
 12913 8d4d 4546495F 		.ascii "EFI_PCI_ATTRIBUTE_BUS_MASTER 0x0400\0"
 12913      5043495F 
 12913      41545452 
 12913      49425554 
 12913      455F4255 
 12914 8d71 01       		.byte	0x1
 12915 8d72 FF01     		.uleb128 0xff
 12916 8d74 4546495F 		.ascii "EFI_PCI_ATTRIBUTE_MEMORY_CACHED 0x0800\0"
 12916      5043495F 
 12916      41545452 
 12916      49425554 
 12916      455F4D45 
 12917 8d9b 01       		.byte	0x1
 12918 8d9c 8002     		.uleb128 0x100
 12919 8d9e 4546495F 		.ascii "EFI_PCI_ATTRIBUTE_MEMORY_DISABLE 0x1000\0"
 12919      5043495F 
 12919      41545452 
 12919      49425554 
 12919      455F4D45 
 12920 8dc6 01       		.byte	0x1
 12921 8dc7 8102     		.uleb128 0x101
 12922 8dc9 4546495F 		.ascii "EFI_PCI_ATTRIBUTE_EMBEDDED_DEVICE 0x2000\0"
 12922      5043495F 
 12922      41545452 
 12922      49425554 
 12922      455F454D 
 12923 8df2 01       		.byte	0x1
 12924 8df3 8202     		.uleb128 0x102
 12925 8df5 4546495F 		.ascii "EFI_PCI_ATTRIBUTE_EMBEDDED_ROM 0x4000\0"
 12925      5043495F 
 12925      41545452 
 12925      49425554 
 12925      455F454D 
 12926 8e1b 01       		.byte	0x1
 12927 8e1c 8302     		.uleb128 0x103
 12928 8e1e 4546495F 		.ascii "EFI_PCI_ATTRIBUTE_DUAL_ADDRESS_CYCLE 0x8000\0"
 12928      5043495F 
 12928      41545452 
 12928      49425554 
 12928      455F4455 
 12929 8e4a 01       		.byte	0x1
 12930 8e4b 8402     		.uleb128 0x104
 12931 8e4d 4546495F 		.ascii "EFI_PCI_ATTRIBUTE_ISA_IO_16 0x10000\0"
 12931      5043495F 
 12931      41545452 
 12931      49425554 
 12931      455F4953 
 12932 8e71 01       		.byte	0x1
 12933 8e72 8502     		.uleb128 0x105
 12934 8e74 4546495F 		.ascii "EFI_PCI_ATTRIBUTE_VGA_PALETTE_IO_16 0x20000\0"
 12934      5043495F 
 12934      41545452 
 12934      49425554 
 12934      455F5647 
 12935 8ea0 01       		.byte	0x1
 12936 8ea1 8602     		.uleb128 0x106
 12937 8ea3 4546495F 		.ascii "EFI_PCI_ATTRIBUTE_VGA_IO_16 0x40000\0"
 12937      5043495F 
 12937      41545452 
 12937      49425554 
 12937      455F5647 
 12938 8ec7 01       		.byte	0x1
 12939 8ec8 8802     		.uleb128 0x108
 12940 8eca 4546495F 		.ascii "EFI_PCI_IO_ATTRIBUTE_ISA_MOTHERBOARD_IO EFI_PCI_ATTRIBUTE_ISA_MOTHERBOARD_IO\0"
 12940      5043495F 
 12940      494F5F41 
 12940      54545249 
 12940      42555445 
 12941 8f17 01       		.byte	0x1
 12942 8f18 8902     		.uleb128 0x109
 12943 8f1a 4546495F 		.ascii "EFI_PCI_IO_ATTRIBUTE_ISA_IO EFI_PCI_ATTRIBUTE_ISA_IO\0"
 12943      5043495F 
 12943      494F5F41 
 12943      54545249 
 12943      42555445 
 12944 8f4f 01       		.byte	0x1
 12945 8f50 8A02     		.uleb128 0x10a
 12946 8f52 4546495F 		.ascii "EFI_PCI_IO_ATTRIBUTE_VGA_PALETTE_IO EFI_PCI_ATTRIBUTE_VGA_PALETTE_IO\0"
 12946      5043495F 
 12946      494F5F41 
 12946      54545249 
 12946      42555445 
 12947 8f97 01       		.byte	0x1
 12948 8f98 8B02     		.uleb128 0x10b
 12949 8f9a 4546495F 		.ascii "EFI_PCI_IO_ATTRIBUTE_VGA_MEMORY EFI_PCI_ATTRIBUTE_VGA_MEMORY\0"
 12949      5043495F 
 12949      494F5F41 
 12949      54545249 
 12949      42555445 
 12950 8fd7 01       		.byte	0x1
 12951 8fd8 8C02     		.uleb128 0x10c
 12952 8fda 4546495F 		.ascii "EFI_PCI_IO_ATTRIBUTE_VGA_IO EFI_PCI_ATTRIBUTE_VGA_IO\0"
 12952      5043495F 
 12952      494F5F41 
 12952      54545249 
 12952      42555445 
 12953 900f 01       		.byte	0x1
 12954 9010 8D02     		.uleb128 0x10d
 12955 9012 4546495F 		.ascii "EFI_PCI_IO_ATTRIBUTE_IDE_PRIMARY_IO EFI_PCI_ATTRIBUTE_IDE_PRIMARY_IO\0"
 12955      5043495F 
 12955      494F5F41 
 12955      54545249 
 12955      42555445 
 12956 9057 01       		.byte	0x1
 12957 9058 8E02     		.uleb128 0x10e
 12958 905a 4546495F 		.ascii "EFI_PCI_IO_ATTRIBUTE_IDE_SECONDARY_IO EFI_PCI_ATTRIBUTE_IDE_SECONDARY_IO\0"
 12958      5043495F 
 12958      494F5F41 
 12958      54545249 
 12958      42555445 
 12959 90a3 01       		.byte	0x1
 12960 90a4 8F02     		.uleb128 0x10f
 12961 90a6 4546495F 		.ascii "EFI_PCI_IO_ATTRIBUTE_MEMORY_WRITE_COMBINE EFI_PCI_ATTRIBUTE_MEMORY_WRITE_COMBINE\0"
 12961      5043495F 
 12961      494F5F41 
 12961      54545249 
 12961      42555445 
 12962 90f7 01       		.byte	0x1
 12963 90f8 9002     		.uleb128 0x110
 12964 90fa 4546495F 		.ascii "EFI_PCI_IO_ATTRIBUTE_IO EFI_PCI_ATTRIBUTE_IO\0"
 12964      5043495F 
 12964      494F5F41 
 12964      54545249 
 12964      42555445 
 12965 9127 01       		.byte	0x1
 12966 9128 9102     		.uleb128 0x111
 12967 912a 4546495F 		.ascii "EFI_PCI_IO_ATTRIBUTE_MEMORY EFI_PCI_ATTRIBUTE_MEMORY\0"
 12967      5043495F 
 12967      494F5F41 
 12967      54545249 
 12967      42555445 
 12968 915f 01       		.byte	0x1
 12969 9160 9202     		.uleb128 0x112
 12970 9162 4546495F 		.ascii "EFI_PCI_IO_ATTRIBUTE_BUS_MASTER EFI_PCI_ATTRIBUTE_BUS_MASTER\0"
 12970      5043495F 
 12970      494F5F41 
 12970      54545249 
 12970      42555445 
 12971 919f 01       		.byte	0x1
 12972 91a0 9302     		.uleb128 0x113
 12973 91a2 4546495F 		.ascii "EFI_PCI_IO_ATTRIBUTE_MEMORY_CACHED EFI_PCI_ATTRIBUTE_MEMORY_CACHED\0"
 12973      5043495F 
 12973      494F5F41 
 12973      54545249 
 12973      42555445 
 12974 91e5 01       		.byte	0x1
 12975 91e6 9402     		.uleb128 0x114
 12976 91e8 4546495F 		.ascii "EFI_PCI_IO_ATTRIBUTE_MEMORY_DISABLE EFI_PCI_ATTRIBUTE_MEMORY_DISABLE\0"
 12976      5043495F 
 12976      494F5F41 
 12976      54545249 
 12976      42555445 
 12977 922d 01       		.byte	0x1
 12978 922e 9502     		.uleb128 0x115
 12979 9230 4546495F 		.ascii "EFI_PCI_IO_ATTRIBUTE_EMBEDDED_DEVICE EFI_PCI_ATTRIBUTE_EMBEDDED_DEVICE\0"
 12979      5043495F 
 12979      494F5F41 
 12979      54545249 
 12979      42555445 
 12980 9277 01       		.byte	0x1
 12981 9278 9602     		.uleb128 0x116
 12982 927a 4546495F 		.ascii "EFI_PCI_IO_ATTRIBUTE_EMBEDDED_ROM EFI_PCI_ATTRIBUTE_EMBEDDED_ROM\0"
 12982      5043495F 
 12982      494F5F41 
 12982      54545249 
 12982      42555445 
 12983 92bb 01       		.byte	0x1
 12984 92bc 9702     		.uleb128 0x117
 12985 92be 4546495F 		.ascii "EFI_PCI_IO_ATTRIBUTE_DUAL_ADDRESS_CYCLE EFI_PCI_ATTRIBUTE_DUAL_ADDRESS_CYCLE\0"
 12985      5043495F 
 12985      494F5F41 
 12985      54545249 
 12985      42555445 
 12986 930b 01       		.byte	0x1
 12987 930c 9802     		.uleb128 0x118
 12988 930e 4546495F 		.ascii "EFI_PCI_IO_ATTRIBUTE_ISA_IO_16 EFI_PCI_ATTRIBUTE_ISA_IO_16\0"
 12988      5043495F 
 12988      494F5F41 
 12988      54545249 
 12988      42555445 
 12989 9349 01       		.byte	0x1
 12990 934a 9902     		.uleb128 0x119
 12991 934c 4546495F 		.ascii "EFI_PCI_IO_ATTRIBUTE_VGA_PALETTE_IO_16 EFI_PCI_ATTRIBUTE_VGA_PALETTE_IO_16\0"
 12991      5043495F 
 12991      494F5F41 
 12991      54545249 
 12991      42555445 
 12992 9397 01       		.byte	0x1
 12993 9398 9A02     		.uleb128 0x11a
 12994 939a 4546495F 		.ascii "EFI_PCI_IO_ATTRIBUTE_VGA_IO_16 EFI_PCI_ATTRIBUTE_VGA_IO_16\0"
 12994      5043495F 
 12994      494F5F41 
 12994      54545249 
 12994      42555445 
 12995 93d5 01       		.byte	0x1
 12996 93d6 9C02     		.uleb128 0x11c
 12997 93d8 4546495F 		.ascii "EFI_PCI_ATTRIBUTE_VALID_FOR_ALLOCATE_BUFFER (EFI_PCI_ATTRIBUTE_MEMORY_WRITE_COMBINE | EFI_
 12997      5043495F 
 12997      41545452 
 12997      49425554 
 12997      455F5641 
 12998 9476 01       		.byte	0x1
 12999 9477 9F02     		.uleb128 0x11f
 13000 9479 4546495F 		.ascii "EFI_PCI_ATTRIBUTE_INVALID_FOR_ALLOCATE_BUFFER (~EFI_PCI_ATTRIBUTE_VALID_FOR_ALLOCATE_BUFFE
 13000      5043495F 
 13000      41545452 
 13000      49425554 
 13000      455F494E 
 13001 94d6 04       		.byte	0x4
 13002 94d7 03       		.byte	0x3
 13003 94d8 45       		.uleb128 0x45
 13004 94d9 07       		.uleb128 0x7
 13005 94da 01       		.byte	0x1
 13006 94db 02       		.uleb128 0x2
 13007 94dc 5F454649 		.ascii "_EFI_PROT_H \0"
 13007      5F50524F 
 13007      545F4820 
 13007      00
 13008 94e9 01       		.byte	0x1
 13009 94ea 19       		.uleb128 0x19
 13010 94eb 4546495F 		.ascii "EFI_FPSWA_PROTOCOL_GUID { 0xc41b6531, 0x97b9, 0x11d3, {0x9a, 0x29, 0x0, 0x90, 0x27, 0x3f, 
 13010      46505357 
 13010      415F5052 
 13010      4F544F43 
 13010      4F4C5F47 
 13011 9553 01       		.byte	0x1
 13012 9554 1B       		.uleb128 0x1b
 13013 9555 46505357 		.ascii "FPSWA_PROTOCOL EFI_FPSWA_PROTOCOL_GUID\0"
 13013      415F5052 
 13013      4F544F43 
 13013      4F4C2045 
 13013      46495F46 
 13014 957c 01       		.byte	0x1
 13015 957d 21       		.uleb128 0x21
 13016 957e 4546495F 		.ascii "EFI_DEVICE_PATH_PROTOCOL_GUID { 0x9576e91, 0x6d3f, 0x11d2, {0x8e, 0x39, 0x0, 0xa0, 0xc9, 0
 13016      44455649 
 13016      43455F50 
 13016      4154485F 
 13016      50524F54 
 13017 95eb 01       		.byte	0x1
 13018 95ec 23       		.uleb128 0x23
 13019 95ed 44455649 		.ascii "DEVICE_PATH_PROTOCOL EFI_DEVICE_PATH_PROTOCOL_GUID\0"
 13019      43455F50 
 13019      4154485F 
 13019      50524F54 
 13019      4F434F4C 
 13020 9620 01       		.byte	0x1
 13021 9621 2A       		.uleb128 0x2a
 13022 9622 4546495F 		.ascii "EFI_BLOCK_IO_PROTOCOL_GUID { 0x964e5b21, 0x6459, 0x11d2, {0x8e, 0x39, 0x0, 0xa0, 0xc9, 0x6
 13022      424C4F43 
 13022      4B5F494F 
 13022      5F50524F 
 13022      544F434F 
 13023 968d 01       		.byte	0x1
 13024 968e 2C       		.uleb128 0x2c
 13025 968f 424C4F43 		.ascii "BLOCK_IO_PROTOCOL EFI_BLOCK_IO_PROTOCOL_GUID\0"
 13025      4B5F494F 
 13025      5F50524F 
 13025      544F434F 
 13025      4C204546 
 13026 96bc 01       		.byte	0x1
 13027 96bd 2E       		.uleb128 0x2e
 13028 96be 4546495F 		.ascii "EFI_BLOCK_IO_PROTOCOL_REVISION 0x00010000\0"
 13028      424C4F43 
 13028      4B5F494F 
 13028      5F50524F 
 13028      544F434F 
 13029 96e8 01       		.byte	0x1
 13030 96e9 2F       		.uleb128 0x2f
 13031 96ea 4546495F 		.ascii "EFI_BLOCK_IO_PROTOCOL_REVISION2 0x00020001\0"
 13031      424C4F43 
 13031      4B5F494F 
 13031      5F50524F 
 13031      544F434F 
 13032 9715 01       		.byte	0x1
 13033 9716 30       		.uleb128 0x30
 13034 9717 4546495F 		.ascii "EFI_BLOCK_IO_PROTOCOL_REVISION3 ((2<<16) | 31)\0"
 13034      424C4F43 
 13034      4B5F494F 
 13034      5F50524F 
 13034      544F434F 
 13035 9746 01       		.byte	0x1
 13036 9747 31       		.uleb128 0x31
 13037 9748 4546495F 		.ascii "EFI_BLOCK_IO_INTERFACE_REVISION EFI_BLOCK_IO_PROTOCOL_REVISION\0"
 13037      424C4F43 
 13037      4B5F494F 
 13037      5F494E54 
 13037      45524641 
 13038 9787 01       		.byte	0x1
 13039 9788 32       		.uleb128 0x32
 13040 9789 4546495F 		.ascii "EFI_BLOCK_IO_INTERFACE_REVISION2 EFI_BLOCK_IO_PROTOCOL_REVISION2\0"
 13040      424C4F43 
 13040      4B5F494F 
 13040      5F494E54 
 13040      45524641 
 13041 97ca 01       		.byte	0x1
 13042 97cb 33       		.uleb128 0x33
 13043 97cc 4546495F 		.ascii "EFI_BLOCK_IO_INTERFACE_REVISION3 EFI_BLOCK_IO_PROTOCOL_REVISION3\0"
 13043      424C4F43 
 13043      4B5F494F 
 13043      5F494E54 
 13043      45524641 
 13044 980d 01       		.byte	0x1
 13045 980e 8001     		.uleb128 0x80
 13046 9810 4546495F 		.ascii "EFI_BLOCK_IO2_PROTOCOL_GUID { 0xa77b2472, 0xe282, 0x4e9f, {0xa2, 0x45, 0xc2, 0xc0, 0xe2, 0
 13046      424C4F43 
 13046      4B5F494F 
 13046      325F5052 
 13046      4F544F43 
 13047 987d 01       		.byte	0x1
 13048 987e BA01     		.uleb128 0xba
 13049 9880 4546495F 		.ascii "EFI_DISK_IO_PROTOCOL_GUID { 0xce345171, 0xba0b, 0x11d2, {0x8e, 0x4f, 0x0, 0xa0, 0xc9, 0x69
 13049      4449534B 
 13049      5F494F5F 
 13049      50524F54 
 13049      4F434F4C 
 13050 98ea 01       		.byte	0x1
 13051 98eb BC01     		.uleb128 0xbc
 13052 98ed 4449534B 		.ascii "DISK_IO_PROTOCOL EFI_DISK_IO_PROTOCOL_GUID\0"
 13052      5F494F5F 
 13052      50524F54 
 13052      4F434F4C 
 13052      20454649 
 13053 9918 01       		.byte	0x1
 13054 9919 BE01     		.uleb128 0xbe
 13055 991b 4546495F 		.ascii "EFI_DISK_IO_PROTOCOL_REVISION 0x00010000\0"
 13055      4449534B 
 13055      5F494F5F 
 13055      50524F54 
 13055      4F434F4C 
 13056 9944 01       		.byte	0x1
 13057 9945 BF01     		.uleb128 0xbf
 13058 9947 4546495F 		.ascii "EFI_DISK_IO_INTERFACE_REVISION EFI_DISK_IO_PROTOCOL_REVISION\0"
 13058      4449534B 
 13058      5F494F5F 
 13058      494E5445 
 13058      52464143 
 13059 9984 01       		.byte	0x1
 13060 9985 E301     		.uleb128 0xe3
 13061 9987 4546495F 		.ascii "EFI_DISK_IO2_PROTOCOL_GUID { 0x151c8eae, 0x7f2c, 0x472c, {0x9e, 0x54, 0x98, 0x28, 0x19, 0x
 13061      4449534B 
 13061      5F494F32 
 13061      5F50524F 
 13061      544F434F 
 13062 99f3 01       		.byte	0x1
 13063 99f4 E601     		.uleb128 0xe6
 13064 99f6 4546495F 		.ascii "EFI_DISK_IO2_PROTOCOL_REVISION 0x00020000\0"
 13064      4449534B 
 13064      5F494F32 
 13064      5F50524F 
 13064      544F434F 
 13065 9a20 01       		.byte	0x1
 13066 9a21 9E02     		.uleb128 0x11e
 13067 9a23 4546495F 		.ascii "EFI_SIMPLE_FILE_SYSTEM_PROTOCOL_GUID { 0x964e5b22, 0x6459, 0x11d2, {0x8e, 0x39, 0x0, 0xa0,
 13067      53494D50 
 13067      4C455F46 
 13067      494C455F 
 13067      53595354 
 13068 9a98 01       		.byte	0x1
 13069 9a99 A002     		.uleb128 0x120
 13070 9a9b 53494D50 		.ascii "SIMPLE_FILE_SYSTEM_PROTOCOL EFI_SIMPLE_FILE_SYSTEM_PROTOCOL_GUID\0"
 13070      4C455F46 
 13070      494C455F 
 13070      53595354 
 13070      454D5F50 
 13071 9adc 01       		.byte	0x1
 13072 9add AC02     		.uleb128 0x12c
 13073 9adf 4546495F 		.ascii "EFI_SIMPLE_FILE_SYSTEM_PROTOCOL_REVISION 0x00010000\0"
 13073      53494D50 
 13073      4C455F46 
 13073      494C455F 
 13073      53595354 
 13074 9b13 01       		.byte	0x1
 13075 9b14 AD02     		.uleb128 0x12d
 13076 9b16 4546495F 		.ascii "EFI_FILE_IO_INTERFACE_REVISION EFI_SIMPLE_FILE_SYSTEM_PROTOCOL_REVISION\0"
 13076      46494C45 
 13076      5F494F5F 
 13076      494E5445 
 13076      52464143 
 13077 9b5e 01       		.byte	0x1
 13078 9b5f C602     		.uleb128 0x146
 13079 9b61 4546495F 		.ascii "EFI_FILE_MODE_READ 0x0000000000000001\0"
 13079      46494C45 
 13079      5F4D4F44 
 13079      455F5245 
 13079      41442030 
 13080 9b87 01       		.byte	0x1
 13081 9b88 C702     		.uleb128 0x147
 13082 9b8a 4546495F 		.ascii "EFI_FILE_MODE_WRITE 0x0000000000000002\0"
 13082      46494C45 
 13082      5F4D4F44 
 13082      455F5752 
 13082      49544520 
 13083 9bb1 01       		.byte	0x1
 13084 9bb2 C802     		.uleb128 0x148
 13085 9bb4 4546495F 		.ascii "EFI_FILE_MODE_CREATE 0x8000000000000000\0"
 13085      46494C45 
 13085      5F4D4F44 
 13085      455F4352 
 13085      45415445 
 13086 9bdc 01       		.byte	0x1
 13087 9bdd CB02     		.uleb128 0x14b
 13088 9bdf 4546495F 		.ascii "EFI_FILE_READ_ONLY 0x0000000000000001\0"
 13088      46494C45 
 13088      5F524541 
 13088      445F4F4E 
 13088      4C592030 
 13089 9c05 01       		.byte	0x1
 13090 9c06 CC02     		.uleb128 0x14c
 13091 9c08 4546495F 		.ascii "EFI_FILE_HIDDEN 0x0000000000000002\0"
 13091      46494C45 
 13091      5F484944 
 13091      44454E20 
 13091      30783030 
 13092 9c2b 01       		.byte	0x1
 13093 9c2c CD02     		.uleb128 0x14d
 13094 9c2e 4546495F 		.ascii "EFI_FILE_SYSTEM 0x0000000000000004\0"
 13094      46494C45 
 13094      5F535953 
 13094      54454D20 
 13094      30783030 
 13095 9c51 01       		.byte	0x1
 13096 9c52 CE02     		.uleb128 0x14e
 13097 9c54 4546495F 		.ascii "EFI_FILE_RESERVIED 0x0000000000000008\0"
 13097      46494C45 
 13097      5F524553 
 13097      45525649 
 13097      45442030 
 13098 9c7a 01       		.byte	0x1
 13099 9c7b CF02     		.uleb128 0x14f
 13100 9c7d 4546495F 		.ascii "EFI_FILE_DIRECTORY 0x0000000000000010\0"
 13100      46494C45 
 13100      5F444952 
 13100      4543544F 
 13100      52592030 
 13101 9ca3 01       		.byte	0x1
 13102 9ca4 D002     		.uleb128 0x150
 13103 9ca6 4546495F 		.ascii "EFI_FILE_ARCHIVE 0x0000000000000020\0"
 13103      46494C45 
 13103      5F415243 
 13103      48495645 
 13103      20307830 
 13104 9cca 01       		.byte	0x1
 13105 9ccb D102     		.uleb128 0x151
 13106 9ccd 4546495F 		.ascii "EFI_FILE_VALID_ATTR 0x0000000000000037\0"
 13106      46494C45 
 13106      5F56414C 
 13106      49445F41 
 13106      54545220 
 13107 9cf4 01       		.byte	0x1
 13108 9cf5 BC03     		.uleb128 0x1bc
 13109 9cf7 4546495F 		.ascii "EFI_FILE_PROTOCOL_REVISION 0x00010000\0"
 13109      46494C45 
 13109      5F50524F 
 13109      544F434F 
 13109      4C5F5245 
 13110 9d1d 01       		.byte	0x1
 13111 9d1e BD03     		.uleb128 0x1bd
 13112 9d20 4546495F 		.ascii "EFI_FILE_PROTOCOL_REVISION2 0x00020000\0"
 13112      46494C45 
 13112      5F50524F 
 13112      544F434F 
 13112      4C5F5245 
 13113 9d47 01       		.byte	0x1
 13114 9d48 BE03     		.uleb128 0x1be
 13115 9d4a 4546495F 		.ascii "EFI_FILE_PROTOCOL_LATEST_REVISION EFI_FILE_PROTOCOL_REVISION2\0"
 13115      46494C45 
 13115      5F50524F 
 13115      544F434F 
 13115      4C5F4C41 
 13116 9d88 01       		.byte	0x1
 13117 9d89 BF03     		.uleb128 0x1bf
 13118 9d8b 4546495F 		.ascii "EFI_FILE_HANDLE_REVISION EFI_FILE_PROTOCOL_REVISION\0"
 13118      46494C45 
 13118      5F48414E 
 13118      444C455F 
 13118      52455649 
 13119 9dbf 01       		.byte	0x1
 13120 9dc0 DA03     		.uleb128 0x1da
 13121 9dc2 4546495F 		.ascii "EFI_FILE_INFO_ID { 0x9576e92, 0x6d3f, 0x11d2, {0x8e, 0x39, 0x0, 0xa0, 0xc9, 0x69, 0x72, 0x
 13121      46494C45 
 13121      5F494E46 
 13121      4F5F4944 
 13121      207B2030 
 13122 9e22 01       		.byte	0x1
 13123 9e23 F003     		.uleb128 0x1f0
 13124 9e25 53495A45 		.ascii "SIZE_OF_EFI_FILE_INFO EFI_FIELD_OFFSET(EFI_FILE_INFO,FileName)\0"
 13124      5F4F465F 
 13124      4546495F 
 13124      46494C45 
 13124      5F494E46 
 13125 9e64 01       		.byte	0x1
 13126 9e65 F203     		.uleb128 0x1f2
 13127 9e67 4546495F 		.ascii "EFI_FILE_SYSTEM_INFO_ID { 0x9576e93, 0x6d3f, 0x11d2, {0x8e, 0x39, 0x0, 0xa0, 0xc9, 0x69, 0
 13127      46494C45 
 13127      5F535953 
 13127      54454D5F 
 13127      494E464F 
 13128 9ece 01       		.byte	0x1
 13129 9ecf 8604     		.uleb128 0x206
 13130 9ed1 53495A45 		.ascii "SIZE_OF_EFI_FILE_SYSTEM_INFO EFI_FIELD_OFFSET(EFI_FILE_SYSTEM_INFO,VolumeLabel)\0"
 13130      5F4F465F 
 13130      4546495F 
 13130      46494C45 
 13130      5F535953 
 13131 9f21 01       		.byte	0x1
 13132 9f22 8804     		.uleb128 0x208
 13133 9f24 4546495F 		.ascii "EFI_FILE_SYSTEM_VOLUME_LABEL_ID { 0xDB47D7D3,0xFE81, 0x11d3, {0x9A, 0x35, 0x00, 0x90, 0x27
 13133      46494C45 
 13133      5F535953 
 13133      54454D5F 
 13133      564F4C55 
 13134 9f94 01       		.byte	0x1
 13135 9f95 8F04     		.uleb128 0x20f
 13136 9f97 53495A45 		.ascii "SIZE_OF_EFI_FILE_SYSTEM_VOLUME_LABEL_INFO EFI_FIELD_OFFSET(EFI_FILE_SYSTEM_VOLUME_LABEL,Vo
 13136      5F4F465F 
 13136      4546495F 
 13136      46494C45 
 13136      5F535953 
 13137 9ffc 01       		.byte	0x1
 13138 9ffd 9404     		.uleb128 0x214
 13139 9fff 4546495F 		.ascii "EFI_FILE_SYSTEM_VOLUME_LABEL_INFO_ID EFI_FILE_SYSTEM_VOLUME_LABEL_ID\0"
 13139      46494C45 
 13139      5F535953 
 13139      54454D5F 
 13139      564F4C55 
 13140 a044 01       		.byte	0x1
 13141 a045 9504     		.uleb128 0x215
 13142 a047 4546495F 		.ascii "EFI_FILE_SYSTEM_VOLUME_LABEL_INFO EFI_FILE_SYSTEM_VOLUME_LABEL\0"
 13142      46494C45 
 13142      5F535953 
 13142      54454D5F 
 13142      564F4C55 
 13143 a086 01       		.byte	0x1
 13144 a087 9C04     		.uleb128 0x21c
 13145 a089 4546495F 		.ascii "EFI_LOAD_FILE_PROTOCOL_GUID { 0x56EC3091, 0x954C, 0x11d2, {0x8E, 0x3F, 0x00, 0xA0, 0xC9, 0
 13145      4C4F4144 
 13145      5F46494C 
 13145      455F5052 
 13145      4F544F43 
 13146 a0f6 01       		.byte	0x1
 13147 a0f7 9E04     		.uleb128 0x21e
 13148 a0f9 4C4F4144 		.ascii "LOAD_FILE_PROTOCOL EFI_LOAD_FILE_PROTOCOL_GUID\0"
 13148      5F46494C 
 13148      455F5052 
 13148      4F544F43 
 13148      4F4C2045 
 13149 a128 01       		.byte	0x1
 13150 a129 B704     		.uleb128 0x237
 13151 a12b 4546495F 		.ascii "EFI_DEVICE_IO_PROTOCOL_GUID { 0xaf6ac311, 0x84c3, 0x11d2, {0x8e, 0x3c, 0x00, 0xa0, 0xc9, 0
 13151      44455649 
 13151      43455F49 
 13151      4F5F5052 
 13151      4F544F43 
 13152 a198 01       		.byte	0x1
 13153 a199 B904     		.uleb128 0x239
 13154 a19b 44455649 		.ascii "DEVICE_IO_PROTOCOL EFI_DEVICE_IO_PROTOCOL_GUID\0"
 13154      43455F49 
 13154      4F5F5052 
 13154      4F544F43 
 13154      4F4C2045 
 13155 a1ca 01       		.byte	0x1
 13156 a1cb CB04     		.uleb128 0x24b
 13157 a1cd 4546495F 		.ascii "EFI_PCI_ADDRESS(_bus,_dev,_func) ( (UINT64) ( (((UINTN)_bus) << 24) + (((UINTN)_dev) << 16
 13157      5043495F 
 13157      41444452 
 13157      45535328 
 13157      5F627573 
 13158 a245 01       		.byte	0x1
 13159 a246 A905     		.uleb128 0x2a9
 13160 a248 4546495F 		.ascii "EFI_UNICODE_COLLATION_PROTOCOL_GUID { 0x1d85cd7f, 0xf43d, 0x11d2, {0x9a, 0xc, 0x0, 0x90, 0
 13160      554E4943 
 13160      4F44455F 
 13160      434F4C4C 
 13160      4154494F 
 13161 a2bb 01       		.byte	0x1
 13162 a2bc AB05     		.uleb128 0x2ab
 13163 a2be 554E4943 		.ascii "UNICODE_COLLATION_PROTOCOL EFI_UNICODE_COLLATION_PROTOCOL_GUID\0"
 13163      4F44455F 
 13163      434F4C4C 
 13163      4154494F 
 13163      4E5F5052 
 13164 a2fd 01       		.byte	0x1
 13165 a2fe AD05     		.uleb128 0x2ad
 13166 a300 4546495F 		.ascii "EFI_UNICODE_BYTE_ORDER_MARK (CHAR16)(0xfeff)\0"
 13166      554E4943 
 13166      4F44455F 
 13166      42595445 
 13166      5F4F5244 
 13167 a32d 01       		.byte	0x1
 13168 a32e AE05     		.uleb128 0x2ae
 13169 a330 554E4943 		.ascii "UNICODE_BYTE_ORDER_MARK EFI_UNICODE_BYTE_ORDER_MARK\0"
 13169      4F44455F 
 13169      42595445 
 13169      5F4F5244 
 13169      45525F4D 
 13170 a364 01       		.byte	0x1
 13171 a365 E505     		.uleb128 0x2e5
 13172 a367 4546495F 		.ascii "EFI_HASH_PROTOCOL_GUID { 0xC5184932, 0xDBA5, 0x46DB, { 0xA5, 0xBA, 0xCC, 0x0B, 0xDA, 0x9C,
 13172      48415348 
 13172      5F50524F 
 13172      544F434F 
 13172      4C5F4755 
 13173 a3d1 01       		.byte	0x1
 13174 a3d2 E705     		.uleb128 0x2e7
 13175 a3d4 48415348 		.ascii "HASH_PROTOCOL EFI_HASH_PROTOCOL_GUID\0"
 13175      5F50524F 
 13175      544F434F 
 13175      4C204546 
 13175      495F4841 
 13176 a3f9 01       		.byte	0x1
 13177 a3fa E905     		.uleb128 0x2e9
 13178 a3fc 4546495F 		.ascii "EFI_HASH_ALGORITHM_SHA1_GUID { 0x2AE9D80F, 0x3FB2, 0x4095, { 0xB7, 0xB1, 0xE9, 0x31, 0x57,
 13178      48415348 
 13178      5F414C47 
 13178      4F524954 
 13178      484D5F53 
 13179 a46c 01       		.byte	0x1
 13180 a46d EB05     		.uleb128 0x2eb
 13181 a46f 4546495F 		.ascii "EFI_HASH_ALGORITHM_SHA1 EFI_HASH_ALGORITHM_SHA1_GUID\0"
 13181      48415348 
 13181      5F414C47 
 13181      4F524954 
 13181      484D5F53 
 13182 a4a4 01       		.byte	0x1
 13183 a4a5 ED05     		.uleb128 0x2ed
 13184 a4a7 4546495F 		.ascii "EFI_HASH_ALGORITHM_SHA224_GUID { 0x8DF01A06, 0x9BD5, 0x4BF7, { 0xB0, 0x21, 0xDB, 0x4F, 0xD
 13184      48415348 
 13184      5F414C47 
 13184      4F524954 
 13184      484D5F53 
 13185 a519 01       		.byte	0x1
 13186 a51a EF05     		.uleb128 0x2ef
 13187 a51c 4546495F 		.ascii "EFI_HASH_ALGORITHM_SHA224 EFI_HASH_ALGORITHM_SHA224_GUID\0"
 13187      48415348 
 13187      5F414C47 
 13187      4F524954 
 13187      484D5F53 
 13188 a555 01       		.byte	0x1
 13189 a556 F105     		.uleb128 0x2f1
 13190 a558 4546495F 		.ascii "EFI_HASH_ALGORITHM_SHA256_GUID { 0x51AA59DE, 0xFDF2, 0x4EA3, { 0xBC, 0x63, 0x87, 0x5F, 0xB
 13190      48415348 
 13190      5F414C47 
 13190      4F524954 
 13190      484D5F53 
 13191 a5ca 01       		.byte	0x1
 13192 a5cb F305     		.uleb128 0x2f3
 13193 a5cd 4546495F 		.ascii "EFI_HASH_ALGORITHM_SHA256 EFI_HASH_ALGORITHM_SHA256_GUID\0"
 13193      48415348 
 13193      5F414C47 
 13193      4F524954 
 13193      484D5F53 
 13194 a606 01       		.byte	0x1
 13195 a607 F505     		.uleb128 0x2f5
 13196 a609 4546495F 		.ascii "EFI_HASH_ALGORITHM_SHA384_GUID { 0xEFA96432, 0xDE33, 0x4DD2, { 0xAE, 0xE6, 0x32, 0x8C, 0x3
 13196      48415348 
 13196      5F414C47 
 13196      4F524954 
 13196      484D5F53 
 13197 a67b 01       		.byte	0x1
 13198 a67c F705     		.uleb128 0x2f7
 13199 a67e 4546495F 		.ascii "EFI_HASH_ALGORITHM_SHA384 EFI_HASH_ALGORITHM_SHA384_GUID\0"
 13199      48415348 
 13199      5F414C47 
 13199      4F524954 
 13199      484D5F53 
 13200 a6b7 01       		.byte	0x1
 13201 a6b8 F905     		.uleb128 0x2f9
 13202 a6ba 4546495F 		.ascii "EFI_HASH_ALGORITHM_SHA512_GUID { 0xCAA4381E, 0x750C, 0x4770, { 0xB8, 0x70, 0x7A, 0x23, 0xB
 13202      48415348 
 13202      5F414C47 
 13202      4F524954 
 13202      484D5F53 
 13203 a72c 01       		.byte	0x1
 13204 a72d FB05     		.uleb128 0x2fb
 13205 a72f 4546495F 		.ascii "EFI_HASH_ALGORITHM_SHA512 EFI_HASH_ALGORITHM_SHA512_GUID\0"
 13205      48415348 
 13205      5F414C47 
 13205      4F524954 
 13205      484D5F53 
 13206 a768 01       		.byte	0x1
 13207 a769 FD05     		.uleb128 0x2fd
 13208 a76b 4546495F 		.ascii "EFI_HASH_ALGORITHM_MD5_GUID { 0x0AF7C79C, 0x65B5, 0x4319, { 0xB0, 0xAE, 0x44, 0xEC, 0x48, 
 13208      48415348 
 13208      5F414C47 
 13208      4F524954 
 13208      484D5F4D 
 13209 a7da 01       		.byte	0x1
 13210 a7db FF05     		.uleb128 0x2ff
 13211 a7dd 4546495F 		.ascii "EFI_HASH_ALGORITHM_MD5 EFI_HASH_ALGORITHM_MD5_GUID\0"
 13211      48415348 
 13211      5F414C47 
 13211      4F524954 
 13211      484D5F4D 
 13212 a810 01       		.byte	0x1
 13213 a811 8106     		.uleb128 0x301
 13214 a813 4546495F 		.ascii "EFI_HASH_ALGORITHM_SHA1_NOPAD_GUID { 0x24C5DC2F, 0x53E2, 0x40CA, { 0x9E, 0xD6, 0xA5, 0xD9,
 13214      48415348 
 13214      5F414C47 
 13214      4F524954 
 13214      484D5F53 
 13215 a889 01       		.byte	0x1
 13216 a88a 8306     		.uleb128 0x303
 13217 a88c 4546495F 		.ascii "EFI_HASH_ALGORITHM_SHA1_NOPAD EFI_HASH_ALGORITHM_SHA1_NOPAD_GUID\0"
 13217      48415348 
 13217      5F414C47 
 13217      4F524954 
 13217      484D5F53 
 13218 a8cd 01       		.byte	0x1
 13219 a8ce 8506     		.uleb128 0x305
 13220 a8d0 4546495F 		.ascii "EFI_HASH_ALGORITHM_SHA256_NOPAD_GUID { 0x8628752A, 0x6CB7, 0x4814, { 0x96, 0xFC, 0x24, 0xA
 13220      48415348 
 13220      5F414C47 
 13220      4F524954 
 13220      484D5F53 
 13221 a948 01       		.byte	0x1
 13222 a949 8706     		.uleb128 0x307
 13223 a94b 4546495F 		.ascii "EFI_HASH_ALGORITHM_SHA256_NOPAD EFI_HASH_ALGORITHM_SHA256_NOPAD_GUID\0"
 13223      48415348 
 13223      5F414C47 
 13223      4F524954 
 13223      484D5F53 
 13224 a990 01       		.byte	0x1
 13225 a991 C706     		.uleb128 0x347
 13226 a993 4546495F 		.ascii "EFI_GRAPHICS_OUTPUT_PROTOCOL_GUID { 0x9042a9de, 0x23dc, 0x4a38, {0x96, 0xfb, 0x7a, 0xde, 0
 13226      47524150 
 13226      48494353 
 13226      5F4F5554 
 13226      5055545F 
 13227 aa07 01       		.byte	0x1
 13228 aa08 F307     		.uleb128 0x3f3
 13229 aa0a 4546495F 		.ascii "EFI_EDID_DISCOVERED_PROTOCOL_GUID { 0x1C0C34F6, 0xD380, 0x41FA, { 0xA0, 0x49, 0x8a, 0xD0, 
 13229      45444944 
 13229      5F444953 
 13229      434F5645 
 13229      5245445F 
 13230 aa7e 01       		.byte	0x1
 13231 aa7f 8108     		.uleb128 0x401
 13232 aa81 4546495F 		.ascii "EFI_EDID_ACTIVE_PROTOCOL_GUID { 0xBD8C1056, 0x9F36, 0x44EC, { 0x92, 0xA8, 0xA6, 0x33, 0x7F
 13232      45444944 
 13232      5F414354 
 13232      4956455F 
 13232      50524F54 
 13233 aaf1 01       		.byte	0x1
 13234 aaf2 8F08     		.uleb128 0x40f
 13235 aaf4 4546495F 		.ascii "EFI_EDID_OVERRIDE_PROTOCOL_GUID { 0x48ECB431, 0xFB72, 0x45C0, { 0xA9, 0x22, 0xF4, 0x58, 0x
 13235      45444944 
 13235      5F4F5645 
 13235      52524944 
 13235      455F5052 
 13236 ab66 01       		.byte	0x1
 13237 ab67 BE08     		.uleb128 0x43e
 13238 ab69 4546495F 		.ascii "EFI_DRIVER_BINDING_PROTOCOL_GUID { 0x18A031AB, 0xB443, 0x4D1A, { 0xA5, 0xC0, 0x0C, 0x09, 0
 13238      44524956 
 13238      45525F42 
 13238      494E4449 
 13238      4E475F50 
 13239 abdc 01       		.byte	0x1
 13240 abdd C008     		.uleb128 0x440
 13241 abdf 44524956 		.ascii "DRIVER_BINDING_PROTOCOL EFI_DRIVER_BINDING_PROTOCOL_GUID\0"
 13241      45525F42 
 13241      494E4449 
 13241      4E475F50 
 13241      524F544F 
 13242 ac18 01       		.byte	0x1
 13243 ac19 EA08     		.uleb128 0x46a
 13244 ac1b 4546495F 		.ascii "EFI_DRIVER_SUPPORTED EFI_DRIVER_BINDING_PROTOCOL_SUPPORTED\0"
 13244      44524956 
 13244      45525F53 
 13244      5550504F 
 13244      52544544 
 13245 ac56 01       		.byte	0x1
 13246 ac57 EB08     		.uleb128 0x46b
 13247 ac59 4546495F 		.ascii "EFI_DRIVER_START EFI_DRIVER_BINDING_PROTOCOL_START\0"
 13247      44524956 
 13247      45525F53 
 13247      54415254 
 13247      20454649 
 13248 ac8c 01       		.byte	0x1
 13249 ac8d EC08     		.uleb128 0x46c
 13250 ac8f 4546495F 		.ascii "EFI_DRIVER_STOP EFI_DRIVER_BINDING_PROTOCOL_STOP\0"
 13250      44524956 
 13250      45525F53 
 13250      544F5020 
 13250      4546495F 
 13251 acc0 01       		.byte	0x1
 13252 acc1 F408     		.uleb128 0x474
 13253 acc3 4546495F 		.ascii "EFI_COMPONENT_NAME_PROTOCOL_GUID {0x107A772C, 0xD5E1, 0x11D4, { 0x9A, 0x46, 0x00, 0x90, 0x
 13253      434F4D50 
 13253      4F4E454E 
 13253      545F4E41 
 13253      4D455F50 
 13254 ad35 01       		.byte	0x1
 13255 ad36 F608     		.uleb128 0x476
 13256 ad38 434F4D50 		.ascii "COMPONENT_NAME_PROTOCOL EFI_COMPONENT_NAME_PROTOCOL_GUID\0"
 13256      4F4E454E 
 13256      545F4E41 
 13256      4D455F50 
 13256      524F544F 
 13257 ad71 01       		.byte	0x1
 13258 ad72 9809     		.uleb128 0x498
 13259 ad74 4546495F 		.ascii "EFI_COMPONENT_NAME2_PROTOCOL_GUID {0x6A7A5CFF, 0xE8D9, 0x4F70, { 0xBA, 0xDA, 0x75, 0xAB, 0
 13259      434F4D50 
 13259      4F4E454E 
 13259      545F4E41 
 13259      4D45325F 
 13260 ade7 01       		.byte	0x1
 13261 ade8 9A09     		.uleb128 0x49a
 13262 adea 434F4D50 		.ascii "COMPONENT_NAME2_PROTOCOL EFI_COMPONENT_NAME2_PROTOCOL_GUID\0"
 13262      4F4E454E 
 13262      545F4E41 
 13262      4D45325F 
 13262      50524F54 
 13263 ae25 01       		.byte	0x1
 13264 ae26 BD09     		.uleb128 0x4bd
 13265 ae28 4546495F 		.ascii "EFI_LOADED_IMAGE_PROTOCOL_GUID { 0x5B1B31A1, 0x9562, 0x11d2, {0x8E, 0x3F, 0x00, 0xA0, 0xC9
 13265      4C4F4144 
 13265      45445F49 
 13265      4D414745 
 13265      5F50524F 
 13266 ae98 01       		.byte	0x1
 13267 ae99 BF09     		.uleb128 0x4bf
 13268 ae9b 4C4F4144 		.ascii "LOADED_IMAGE_PROTOCOL EFI_LOADED_IMAGE_PROTOCOL_GUID\0"
 13268      45445F49 
 13268      4D414745 
 13268      5F50524F 
 13268      544F434F 
 13269 aed0 01       		.byte	0x1
 13270 aed1 C109     		.uleb128 0x4c1
 13271 aed3 4546495F 		.ascii "EFI_LOADED_IMAGE_PROTOCOL_REVISION 0x1000\0"
 13271      4C4F4144 
 13271      45445F49 
 13271      4D414745 
 13271      5F50524F 
 13272 aefd 01       		.byte	0x1
 13273 aefe C209     		.uleb128 0x4c2
 13274 af00 4546495F 		.ascii "EFI_IMAGE_INFORMATION_REVISION EFI_LOADED_IMAGE_PROTOCOL_REVISION\0"
 13274      494D4147 
 13274      455F494E 
 13274      464F524D 
 13274      4154494F 
 13275 af42 01       		.byte	0x1
 13276 af43 E409     		.uleb128 0x4e4
 13277 af45 4546495F 		.ascii "EFI_LOADED_IMAGE_DEVICE_PATH_PROTOCOL_GUID {0xbc62157e, 0x3e33, 0x4fec, {0x99, 0x20, 0x2d,
 13277      4C4F4144 
 13277      45445F49 
 13277      4D414745 
 13277      5F444556 
 13278 afc0 01       		.byte	0x1
 13279 afc1 EB09     		.uleb128 0x4eb
 13280 afc3 4546495F 		.ascii "EFI_RNG_PROTOCOL_GUID { 0x3152bca5, 0xeade, 0x433d, {0x86, 0x2e, 0xc0, 0x1c, 0xdc, 0x29, 0
 13280      524E475F 
 13280      50524F54 
 13280      4F434F4C 
 13280      5F475549 
 13281 b02a 01       		.byte	0x1
 13282 b02b F009     		.uleb128 0x4f0
 13283 b02d 4546495F 		.ascii "EFI_RNG_ALGORITHM_SP800_90_HASH_256_GUID {0xa7af67cb, 0x603b, 0x4d42, {0xba, 0x21, 0x70, 0
 13283      524E475F 
 13283      414C474F 
 13283      52495448 
 13283      4D5F5350 
 13284 b0a6 01       		.byte	0x1
 13285 b0a7 F309     		.uleb128 0x4f3
 13286 b0a9 4546495F 		.ascii "EFI_RNG_ALGORITHM_SP800_90_HMAC_256_GUID {0xc5149b43, 0xae85, 0x4f53, {0x99, 0x82, 0xb9, 0
 13286      524E475F 
 13286      414C474F 
 13286      52495448 
 13286      4D5F5350 
 13287 b122 01       		.byte	0x1
 13288 b123 F609     		.uleb128 0x4f6
 13289 b125 4546495F 		.ascii "EFI_RNG_ALGORITHM_SP800_90_CTR_256_GUID {0x44f0de6e, 0x4d8c, 0x4045, {0xa8, 0xc7, 0x4d, 0x
 13289      524E475F 
 13289      414C474F 
 13289      52495448 
 13289      4D5F5350 
 13290 b19d 01       		.byte	0x1
 13291 b19e F909     		.uleb128 0x4f9
 13292 b1a0 4546495F 		.ascii "EFI_RNG_ALGORITHM_X9_31_3DES_GUID {0x63c4785a, 0xca34, 0x4012, {0xa3, 0xc8, 0x0b, 0x6a, 0x
 13292      524E475F 
 13292      414C474F 
 13292      52495448 
 13292      4D5F5839 
 13293 b212 01       		.byte	0x1
 13294 b213 FC09     		.uleb128 0x4fc
 13295 b215 4546495F 		.ascii "EFI_RNG_ALGORITHM_X9_31_AES_GUID {0xacd03321, 0x777e, 0x4d3d, {0xb1, 0xc8, 0x20, 0xcf, 0xd
 13295      524E475F 
 13295      414C474F 
 13295      52495448 
 13295      4D5F5839 
 13296 b286 01       		.byte	0x1
 13297 b287 FF09     		.uleb128 0x4ff
 13298 b289 4546495F 		.ascii "EFI_RNG_ALGORITHM_RAW {0xe43176d7, 0xb6e8, 0x4827, {0xb7, 0x84, 0x7f, 0xfd, 0xc4, 0xb6, 0x
 13298      524E475F 
 13298      414C474F 
 13298      52495448 
 13298      4D5F5241 
 13299 b2ef 01       		.byte	0x1
 13300 b2f0 9F0A     		.uleb128 0x51f
 13301 b2f2 4546495F 		.ascii "EFI_PLATFORM_DRIVER_OVERRIDE_PROTOCOL_GUID { 0x6b30c738, 0xa391, 0x11d4, {0x9a, 0x3b, 0x00
 13301      504C4154 
 13301      464F524D 
 13301      5F445249 
 13301      5645525F 
 13302 b36e 01       		.byte	0x1
 13303 b36f C40A     		.uleb128 0x544
 13304 b371 4546495F 		.ascii "EFI_BUS_SPECIFIC_DRIVER_OVERRIDE_PROTOCOL_GUID { 0x3bc1b285, 0x8a15, 0x4a82, {0xaa, 0xbf, 
 13304      4255535F 
 13304      53504543 
 13304      49464943 
 13304      5F445249 
 13305 b3f1 01       		.byte	0x1
 13306 b3f2 D70A     		.uleb128 0x557
 13307 b3f4 4546495F 		.ascii "EFI_DRIVER_FAMILY_OVERRIDE_PROTOCOL_GUID { 0xb1ee129e, 0xda36, 0x4181, {0x91, 0xf8, 0x04, 
 13307      44524956 
 13307      45525F46 
 13307      414D494C 
 13307      595F4F56 
 13308 b46e 01       		.byte	0x1
 13309 b46f E90A     		.uleb128 0x569
 13310 b471 4546495F 		.ascii "EFI_EBC_INTERPRETER_PROTOCOL_GUID {0x13ac6dd1, 0x73d0, 0x11d4, {0xb0, 0x6b, 0x00, 0xaa, 0x
 13310      4542435F 
 13310      494E5445 
 13310      52505245 
 13310      5445525F 
 13311 b4e3 01       		.byte	0x1
 13312 b4e4 EC0A     		.uleb128 0x56c
 13313 b4e6 4546495F 		.ascii "EFI_EBC_PROTOCOL_GUID EFI_EBC_INTERPRETER_PROTOCOL_GUID\0"
 13313      4542435F 
 13313      50524F54 
 13313      4F434F4C 
 13313      5F475549 
 13314 b51e 04       		.byte	0x4
 13315 b51f 03       		.byte	0x3
 13316 b520 46       		.uleb128 0x46
 13317 b521 09       		.uleb128 0x9
 13318 b522 01       		.byte	0x1
 13319 b523 02       		.uleb128 0x2
 13320 b524 5F454649 		.ascii "_EFI_CON_H \0"
 13320      5F434F4E 
 13320      5F482000 
 13321 b530 01       		.byte	0x1
 13322 b531 1A       		.uleb128 0x1a
 13323 b532 4546495F 		.ascii "EFI_SIMPLE_TEXT_OUTPUT_PROTOCOL_GUID { 0x387477c2, 0x69c7, 0x11d2, {0x8e, 0x39, 0x0, 0xa0,
 13323      53494D50 
 13323      4C455F54 
 13323      4558545F 
 13323      4F555450 
 13324 b5a7 01       		.byte	0x1
 13325 b5a8 1C       		.uleb128 0x1c
 13326 b5a9 53494D50 		.ascii "SIMPLE_TEXT_OUTPUT_PROTOCOL EFI_SIMPLE_TEXT_OUTPUT_PROTOCOL_GUID\0"
 13326      4C455F54 
 13326      4558545F 
 13326      4F555450 
 13326      55545F50 
 13327 b5ea 01       		.byte	0x1
 13328 b5eb 4C       		.uleb128 0x4c
 13329 b5ec 4546495F 		.ascii "EFI_BLACK 0x00\0"
 13329      424C4143 
 13329      4B203078 
 13329      303000
 13330 b5fb 01       		.byte	0x1
 13331 b5fc 4D       		.uleb128 0x4d
 13332 b5fd 4546495F 		.ascii "EFI_BLUE 0x01\0"
 13332      424C5545 
 13332      20307830 
 13332      3100
 13333 b60b 01       		.byte	0x1
 13334 b60c 4E       		.uleb128 0x4e
 13335 b60d 4546495F 		.ascii "EFI_GREEN 0x02\0"
 13335      47524545 
 13335      4E203078 
 13335      303200
 13336 b61c 01       		.byte	0x1
 13337 b61d 4F       		.uleb128 0x4f
 13338 b61e 4546495F 		.ascii "EFI_CYAN (EFI_BLUE | EFI_GREEN)\0"
 13338      4359414E 
 13338      20284546 
 13338      495F424C 
 13338      5545207C 
 13339 b63e 01       		.byte	0x1
 13340 b63f 50       		.uleb128 0x50
 13341 b640 4546495F 		.ascii "EFI_RED 0x04\0"
 13341      52454420 
 13341      30783034 
 13341      00
 13342 b64d 01       		.byte	0x1
 13343 b64e 51       		.uleb128 0x51
 13344 b64f 4546495F 		.ascii "EFI_MAGENTA (EFI_BLUE | EFI_RED)\0"
 13344      4D414745 
 13344      4E544120 
 13344      28454649 
 13344      5F424C55 
 13345 b670 01       		.byte	0x1
 13346 b671 52       		.uleb128 0x52
 13347 b672 4546495F 		.ascii "EFI_BROWN (EFI_GREEN | EFI_RED)\0"
 13347      42524F57 
 13347      4E202845 
 13347      46495F47 
 13347      5245454E 
 13348 b692 01       		.byte	0x1
 13349 b693 53       		.uleb128 0x53
 13350 b694 4546495F 		.ascii "EFI_LIGHTGRAY (EFI_BLUE | EFI_GREEN | EFI_RED)\0"
 13350      4C494748 
 13350      54475241 
 13350      59202845 
 13350      46495F42 
 13351 b6c3 01       		.byte	0x1
 13352 b6c4 54       		.uleb128 0x54
 13353 b6c5 4546495F 		.ascii "EFI_BRIGHT 0x08\0"
 13353      42524947 
 13353      48542030 
 13353      78303800 
 13354 b6d5 01       		.byte	0x1
 13355 b6d6 55       		.uleb128 0x55
 13356 b6d7 4546495F 		.ascii "EFI_DARKGRAY (EFI_BRIGHT)\0"
 13356      4441524B 
 13356      47524159 
 13356      20284546 
 13356      495F4252 
 13357 b6f1 01       		.byte	0x1
 13358 b6f2 56       		.uleb128 0x56
 13359 b6f3 4546495F 		.ascii "EFI_LIGHTBLUE (EFI_BLUE | EFI_BRIGHT)\0"
 13359      4C494748 
 13359      54424C55 
 13359      45202845 
 13359      46495F42 
 13360 b719 01       		.byte	0x1
 13361 b71a 57       		.uleb128 0x57
 13362 b71b 4546495F 		.ascii "EFI_LIGHTGREEN (EFI_GREEN | EFI_BRIGHT)\0"
 13362      4C494748 
 13362      54475245 
 13362      454E2028 
 13362      4546495F 
 13363 b743 01       		.byte	0x1
 13364 b744 58       		.uleb128 0x58
 13365 b745 4546495F 		.ascii "EFI_LIGHTCYAN (EFI_CYAN | EFI_BRIGHT)\0"
 13365      4C494748 
 13365      54435941 
 13365      4E202845 
 13365      46495F43 
 13366 b76b 01       		.byte	0x1
 13367 b76c 59       		.uleb128 0x59
 13368 b76d 4546495F 		.ascii "EFI_LIGHTRED (EFI_RED | EFI_BRIGHT)\0"
 13368      4C494748 
 13368      54524544 
 13368      20284546 
 13368      495F5245 
 13369 b791 01       		.byte	0x1
 13370 b792 5A       		.uleb128 0x5a
 13371 b793 4546495F 		.ascii "EFI_LIGHTMAGENTA (EFI_MAGENTA | EFI_BRIGHT)\0"
 13371      4C494748 
 13371      544D4147 
 13371      454E5441 
 13371      20284546 
 13372 b7bf 01       		.byte	0x1
 13373 b7c0 5B       		.uleb128 0x5b
 13374 b7c1 4546495F 		.ascii "EFI_YELLOW (EFI_BROWN | EFI_BRIGHT)\0"
 13374      59454C4C 
 13374      4F572028 
 13374      4546495F 
 13374      42524F57 
 13375 b7e5 01       		.byte	0x1
 13376 b7e6 5C       		.uleb128 0x5c
 13377 b7e7 4546495F 		.ascii "EFI_WHITE (EFI_BLUE | EFI_GREEN | EFI_RED | EFI_BRIGHT)\0"
 13377      57484954 
 13377      45202845 
 13377      46495F42 
 13377      4C554520 
 13378 b81f 01       		.byte	0x1
 13379 b820 5E       		.uleb128 0x5e
 13380 b821 4546495F 		.ascii "EFI_TEXT_ATTR(f,b) ((f) | ((b) << 4))\0"
 13380      54455854 
 13380      5F415454 
 13380      5228662C 
 13380      62292028 
 13381 b847 01       		.byte	0x1
 13382 b848 60       		.uleb128 0x60
 13383 b849 4546495F 		.ascii "EFI_BACKGROUND_BLACK 0x00\0"
 13383      4241434B 
 13383      47524F55 
 13383      4E445F42 
 13383      4C41434B 
 13384 b863 01       		.byte	0x1
 13385 b864 61       		.uleb128 0x61
 13386 b865 4546495F 		.ascii "EFI_BACKGROUND_BLUE 0x10\0"
 13386      4241434B 
 13386      47524F55 
 13386      4E445F42 
 13386      4C554520 
 13387 b87e 01       		.byte	0x1
 13388 b87f 62       		.uleb128 0x62
 13389 b880 4546495F 		.ascii "EFI_BACKGROUND_GREEN 0x20\0"
 13389      4241434B 
 13389      47524F55 
 13389      4E445F47 
 13389      5245454E 
 13390 b89a 01       		.byte	0x1
 13391 b89b 63       		.uleb128 0x63
 13392 b89c 4546495F 		.ascii "EFI_BACKGROUND_CYAN (EFI_BACKGROUND_BLUE | EFI_BACKGROUND_GREEN)\0"
 13392      4241434B 
 13392      47524F55 
 13392      4E445F43 
 13392      59414E20 
 13393 b8dd 01       		.byte	0x1
 13394 b8de 64       		.uleb128 0x64
 13395 b8df 4546495F 		.ascii "EFI_BACKGROUND_RED 0x40\0"
 13395      4241434B 
 13395      47524F55 
 13395      4E445F52 
 13395      45442030 
 13396 b8f7 01       		.byte	0x1
 13397 b8f8 65       		.uleb128 0x65
 13398 b8f9 4546495F 		.ascii "EFI_BACKGROUND_MAGENTA (EFI_BACKGROUND_BLUE | EFI_BACKGROUND_RED)\0"
 13398      4241434B 
 13398      47524F55 
 13398      4E445F4D 
 13398      4147454E 
 13399 b93b 01       		.byte	0x1
 13400 b93c 66       		.uleb128 0x66
 13401 b93d 4546495F 		.ascii "EFI_BACKGROUND_BROWN (EFI_BACKGROUND_GREEN | EFI_BACKGROUND_RED)\0"
 13401      4241434B 
 13401      47524F55 
 13401      4E445F42 
 13401      524F574E 
 13402 b97e 01       		.byte	0x1
 13403 b97f 67       		.uleb128 0x67
 13404 b980 4546495F 		.ascii "EFI_BACKGROUND_LIGHTGRAY (EFI_BACKGROUND_BLUE | EFI_BACKGROUND_GREEN | EFI_BACKGROUND_RED)
 13404      4241434B 
 13404      47524F55 
 13404      4E445F4C 
 13404      49474854 
 13405 b9db 01       		.byte	0x1
 13406 b9dc 9F01     		.uleb128 0x9f
 13407 b9de 424F5844 		.ascii "BOXDRAW_HORIZONTAL 0x2500\0"
 13407      5241575F 
 13407      484F5249 
 13407      5A4F4E54 
 13407      414C2030 
 13408 b9f8 01       		.byte	0x1
 13409 b9f9 A001     		.uleb128 0xa0
 13410 b9fb 424F5844 		.ascii "BOXDRAW_VERTICAL 0x2502\0"
 13410      5241575F 
 13410      56455254 
 13410      4943414C 
 13410      20307832 
 13411 ba13 01       		.byte	0x1
 13412 ba14 A101     		.uleb128 0xa1
 13413 ba16 424F5844 		.ascii "BOXDRAW_DOWN_RIGHT 0x250c\0"
 13413      5241575F 
 13413      444F574E 
 13413      5F524947 
 13413      48542030 
 13414 ba30 01       		.byte	0x1
 13415 ba31 A201     		.uleb128 0xa2
 13416 ba33 424F5844 		.ascii "BOXDRAW_DOWN_LEFT 0x2510\0"
 13416      5241575F 
 13416      444F574E 
 13416      5F4C4546 
 13416      54203078 
 13417 ba4c 01       		.byte	0x1
 13418 ba4d A301     		.uleb128 0xa3
 13419 ba4f 424F5844 		.ascii "BOXDRAW_UP_RIGHT 0x2514\0"
 13419      5241575F 
 13419      55505F52 
 13419      49474854 
 13419      20307832 
 13420 ba67 01       		.byte	0x1
 13421 ba68 A401     		.uleb128 0xa4
 13422 ba6a 424F5844 		.ascii "BOXDRAW_UP_LEFT 0x2518\0"
 13422      5241575F 
 13422      55505F4C 
 13422      45465420 
 13422      30783235 
 13423 ba81 01       		.byte	0x1
 13424 ba82 A501     		.uleb128 0xa5
 13425 ba84 424F5844 		.ascii "BOXDRAW_VERTICAL_RIGHT 0x251c\0"
 13425      5241575F 
 13425      56455254 
 13425      4943414C 
 13425      5F524947 
 13426 baa2 01       		.byte	0x1
 13427 baa3 A601     		.uleb128 0xa6
 13428 baa5 424F5844 		.ascii "BOXDRAW_VERTICAL_LEFT 0x2524\0"
 13428      5241575F 
 13428      56455254 
 13428      4943414C 
 13428      5F4C4546 
 13429 bac2 01       		.byte	0x1
 13430 bac3 A701     		.uleb128 0xa7
 13431 bac5 424F5844 		.ascii "BOXDRAW_DOWN_HORIZONTAL 0x252c\0"
 13431      5241575F 
 13431      444F574E 
 13431      5F484F52 
 13431      495A4F4E 
 13432 bae4 01       		.byte	0x1
 13433 bae5 A801     		.uleb128 0xa8
 13434 bae7 424F5844 		.ascii "BOXDRAW_UP_HORIZONTAL 0x2534\0"
 13434      5241575F 
 13434      55505F48 
 13434      4F52495A 
 13434      4F4E5441 
 13435 bb04 01       		.byte	0x1
 13436 bb05 A901     		.uleb128 0xa9
 13437 bb07 424F5844 		.ascii "BOXDRAW_VERTICAL_HORIZONTAL 0x253c\0"
 13437      5241575F 
 13437      56455254 
 13437      4943414C 
 13437      5F484F52 
 13438 bb2a 01       		.byte	0x1
 13439 bb2b AB01     		.uleb128 0xab
 13440 bb2d 424F5844 		.ascii "BOXDRAW_DOUBLE_HORIZONTAL 0x2550\0"
 13440      5241575F 
 13440      444F5542 
 13440      4C455F48 
 13440      4F52495A 
 13441 bb4e 01       		.byte	0x1
 13442 bb4f AC01     		.uleb128 0xac
 13443 bb51 424F5844 		.ascii "BOXDRAW_DOUBLE_VERTICAL 0x2551\0"
 13443      5241575F 
 13443      444F5542 
 13443      4C455F56 
 13443      45525449 
 13444 bb70 01       		.byte	0x1
 13445 bb71 AD01     		.uleb128 0xad
 13446 bb73 424F5844 		.ascii "BOXDRAW_DOWN_RIGHT_DOUBLE 0x2552\0"
 13446      5241575F 
 13446      444F574E 
 13446      5F524947 
 13446      48545F44 
 13447 bb94 01       		.byte	0x1
 13448 bb95 AE01     		.uleb128 0xae
 13449 bb97 424F5844 		.ascii "BOXDRAW_DOWN_DOUBLE_RIGHT 0x2553\0"
 13449      5241575F 
 13449      444F574E 
 13449      5F444F55 
 13449      424C455F 
 13450 bbb8 01       		.byte	0x1
 13451 bbb9 AF01     		.uleb128 0xaf
 13452 bbbb 424F5844 		.ascii "BOXDRAW_DOUBLE_DOWN_RIGHT 0x2554\0"
 13452      5241575F 
 13452      444F5542 
 13452      4C455F44 
 13452      4F574E5F 
 13453 bbdc 01       		.byte	0x1
 13454 bbdd B101     		.uleb128 0xb1
 13455 bbdf 424F5844 		.ascii "BOXDRAW_DOWN_LEFT_DOUBLE 0x2555\0"
 13455      5241575F 
 13455      444F574E 
 13455      5F4C4546 
 13455      545F444F 
 13456 bbff 01       		.byte	0x1
 13457 bc00 B201     		.uleb128 0xb2
 13458 bc02 424F5844 		.ascii "BOXDRAW_DOWN_DOUBLE_LEFT 0x2556\0"
 13458      5241575F 
 13458      444F574E 
 13458      5F444F55 
 13458      424C455F 
 13459 bc22 01       		.byte	0x1
 13460 bc23 B301     		.uleb128 0xb3
 13461 bc25 424F5844 		.ascii "BOXDRAW_DOUBLE_DOWN_LEFT 0x2557\0"
 13461      5241575F 
 13461      444F5542 
 13461      4C455F44 
 13461      4F574E5F 
 13462 bc45 01       		.byte	0x1
 13463 bc46 B501     		.uleb128 0xb5
 13464 bc48 424F5844 		.ascii "BOXDRAW_UP_RIGHT_DOUBLE 0x2558\0"
 13464      5241575F 
 13464      55505F52 
 13464      49474854 
 13464      5F444F55 
 13465 bc67 01       		.byte	0x1
 13466 bc68 B601     		.uleb128 0xb6
 13467 bc6a 424F5844 		.ascii "BOXDRAW_UP_DOUBLE_RIGHT 0x2559\0"
 13467      5241575F 
 13467      55505F44 
 13467      4F55424C 
 13467      455F5249 
 13468 bc89 01       		.byte	0x1
 13469 bc8a B701     		.uleb128 0xb7
 13470 bc8c 424F5844 		.ascii "BOXDRAW_DOUBLE_UP_RIGHT 0x255a\0"
 13470      5241575F 
 13470      444F5542 
 13470      4C455F55 
 13470      505F5249 
 13471 bcab 01       		.byte	0x1
 13472 bcac B901     		.uleb128 0xb9
 13473 bcae 424F5844 		.ascii "BOXDRAW_UP_LEFT_DOUBLE 0x255b\0"
 13473      5241575F 
 13473      55505F4C 
 13473      4546545F 
 13473      444F5542 
 13474 bccc 01       		.byte	0x1
 13475 bccd BA01     		.uleb128 0xba
 13476 bccf 424F5844 		.ascii "BOXDRAW_UP_DOUBLE_LEFT 0x255c\0"
 13476      5241575F 
 13476      55505F44 
 13476      4F55424C 
 13476      455F4C45 
 13477 bced 01       		.byte	0x1
 13478 bcee BB01     		.uleb128 0xbb
 13479 bcf0 424F5844 		.ascii "BOXDRAW_DOUBLE_UP_LEFT 0x255d\0"
 13479      5241575F 
 13479      444F5542 
 13479      4C455F55 
 13479      505F4C45 
 13480 bd0e 01       		.byte	0x1
 13481 bd0f BD01     		.uleb128 0xbd
 13482 bd11 424F5844 		.ascii "BOXDRAW_VERTICAL_RIGHT_DOUBLE 0x255e\0"
 13482      5241575F 
 13482      56455254 
 13482      4943414C 
 13482      5F524947 
 13483 bd36 01       		.byte	0x1
 13484 bd37 BE01     		.uleb128 0xbe
 13485 bd39 424F5844 		.ascii "BOXDRAW_VERTICAL_DOUBLE_RIGHT 0x255f\0"
 13485      5241575F 
 13485      56455254 
 13485      4943414C 
 13485      5F444F55 
 13486 bd5e 01       		.byte	0x1
 13487 bd5f BF01     		.uleb128 0xbf
 13488 bd61 424F5844 		.ascii "BOXDRAW_DOUBLE_VERTICAL_RIGHT 0x2560\0"
 13488      5241575F 
 13488      444F5542 
 13488      4C455F56 
 13488      45525449 
 13489 bd86 01       		.byte	0x1
 13490 bd87 C101     		.uleb128 0xc1
 13491 bd89 424F5844 		.ascii "BOXDRAW_VERTICAL_LEFT_DOUBLE 0x2561\0"
 13491      5241575F 
 13491      56455254 
 13491      4943414C 
 13491      5F4C4546 
 13492 bdad 01       		.byte	0x1
 13493 bdae C201     		.uleb128 0xc2
 13494 bdb0 424F5844 		.ascii "BOXDRAW_VERTICAL_DOUBLE_LEFT 0x2562\0"
 13494      5241575F 
 13494      56455254 
 13494      4943414C 
 13494      5F444F55 
 13495 bdd4 01       		.byte	0x1
 13496 bdd5 C301     		.uleb128 0xc3
 13497 bdd7 424F5844 		.ascii "BOXDRAW_DOUBLE_VERTICAL_LEFT 0x2563\0"
 13497      5241575F 
 13497      444F5542 
 13497      4C455F56 
 13497      45525449 
 13498 bdfb 01       		.byte	0x1
 13499 bdfc C501     		.uleb128 0xc5
 13500 bdfe 424F5844 		.ascii "BOXDRAW_DOWN_HORIZONTAL_DOUBLE 0x2564\0"
 13500      5241575F 
 13500      444F574E 
 13500      5F484F52 
 13500      495A4F4E 
 13501 be24 01       		.byte	0x1
 13502 be25 C601     		.uleb128 0xc6
 13503 be27 424F5844 		.ascii "BOXDRAW_DOWN_DOUBLE_HORIZONTAL 0x2565\0"
 13503      5241575F 
 13503      444F574E 
 13503      5F444F55 
 13503      424C455F 
 13504 be4d 01       		.byte	0x1
 13505 be4e C701     		.uleb128 0xc7
 13506 be50 424F5844 		.ascii "BOXDRAW_DOUBLE_DOWN_HORIZONTAL 0x2566\0"
 13506      5241575F 
 13506      444F5542 
 13506      4C455F44 
 13506      4F574E5F 
 13507 be76 01       		.byte	0x1
 13508 be77 C901     		.uleb128 0xc9
 13509 be79 424F5844 		.ascii "BOXDRAW_UP_HORIZONTAL_DOUBLE 0x2567\0"
 13509      5241575F 
 13509      55505F48 
 13509      4F52495A 
 13509      4F4E5441 
 13510 be9d 01       		.byte	0x1
 13511 be9e CA01     		.uleb128 0xca
 13512 bea0 424F5844 		.ascii "BOXDRAW_UP_DOUBLE_HORIZONTAL 0x2568\0"
 13512      5241575F 
 13512      55505F44 
 13512      4F55424C 
 13512      455F484F 
 13513 bec4 01       		.byte	0x1
 13514 bec5 CB01     		.uleb128 0xcb
 13515 bec7 424F5844 		.ascii "BOXDRAW_DOUBLE_UP_HORIZONTAL 0x2569\0"
 13515      5241575F 
 13515      444F5542 
 13515      4C455F55 
 13515      505F484F 
 13516 beeb 01       		.byte	0x1
 13517 beec CD01     		.uleb128 0xcd
 13518 beee 424F5844 		.ascii "BOXDRAW_VERTICAL_HORIZONTAL_DOUBLE 0x256a\0"
 13518      5241575F 
 13518      56455254 
 13518      4943414C 
 13518      5F484F52 
 13519 bf18 01       		.byte	0x1
 13520 bf19 CE01     		.uleb128 0xce
 13521 bf1b 424F5844 		.ascii "BOXDRAW_VERTICAL_DOUBLE_HORIZONTAL 0x256b\0"
 13521      5241575F 
 13521      56455254 
 13521      4943414C 
 13521      5F444F55 
 13522 bf45 01       		.byte	0x1
 13523 bf46 CF01     		.uleb128 0xcf
 13524 bf48 424F5844 		.ascii "BOXDRAW_DOUBLE_VERTICAL_HORIZONTAL 0x256c\0"
 13524      5241575F 
 13524      444F5542 
 13524      4C455F56 
 13524      45525449 
 13525 bf72 01       		.byte	0x1
 13526 bf73 D501     		.uleb128 0xd5
 13527 bf75 424C4F43 		.ascii "BLOCKELEMENT_FULL_BLOCK 0x2588\0"
 13527      4B454C45 
 13527      4D454E54 
 13527      5F46554C 
 13527      4C5F424C 
 13528 bf94 01       		.byte	0x1
 13529 bf95 D601     		.uleb128 0xd6
 13530 bf97 424C4F43 		.ascii "BLOCKELEMENT_LIGHT_SHADE 0x2591\0"
 13530      4B454C45 
 13530      4D454E54 
 13530      5F4C4947 
 13530      48545F53 
 13531 bfb7 01       		.byte	0x1
 13532 bfb8 DB01     		.uleb128 0xdb
 13533 bfba 47454F4D 		.ascii "GEOMETRICSHAPE_UP_TRIANGLE 0x25b2\0"
 13533      45545249 
 13533      43534841 
 13533      50455F55 
 13533      505F5452 
 13534 bfdc 01       		.byte	0x1
 13535 bfdd DC01     		.uleb128 0xdc
 13536 bfdf 47454F4D 		.ascii "GEOMETRICSHAPE_RIGHT_TRIANGLE 0x25ba\0"
 13536      45545249 
 13536      43534841 
 13536      50455F52 
 13536      49474854 
 13537 c004 01       		.byte	0x1
 13538 c005 DD01     		.uleb128 0xdd
 13539 c007 47454F4D 		.ascii "GEOMETRICSHAPE_DOWN_TRIANGLE 0x25bc\0"
 13539      45545249 
 13539      43534841 
 13539      50455F44 
 13539      4F574E5F 
 13540 c02b 01       		.byte	0x1
 13541 c02c DE01     		.uleb128 0xde
 13542 c02e 47454F4D 		.ascii "GEOMETRICSHAPE_LEFT_TRIANGLE 0x25c4\0"
 13542      45545249 
 13542      43534841 
 13542      50455F4C 
 13542      4546545F 
 13543 c052 01       		.byte	0x1
 13544 c053 E401     		.uleb128 0xe4
 13545 c055 4152524F 		.ascii "ARROW_UP 0x2191\0"
 13545      575F5550 
 13545      20307832 
 13545      31393100 
 13546 c065 01       		.byte	0x1
 13547 c066 E501     		.uleb128 0xe5
 13548 c068 4152524F 		.ascii "ARROW_DOWN 0x2193\0"
 13548      575F444F 
 13548      574E2030 
 13548      78323139 
 13548      3300
 13549 c07a 01       		.byte	0x1
 13550 c07b EB01     		.uleb128 0xeb
 13551 c07d 4546495F 		.ascii "EFI_SIMPLE_TEXT_INPUT_PROTOCOL_GUID { 0x387477c1, 0x69c7, 0x11d2, {0x8e, 0x39, 0x0, 0xa0, 
 13551      53494D50 
 13551      4C455F54 
 13551      4558545F 
 13551      494E5055 
 13552 c0f1 01       		.byte	0x1
 13553 c0f2 ED01     		.uleb128 0xed
 13554 c0f4 53494D50 		.ascii "SIMPLE_TEXT_INPUT_PROTOCOL EFI_SIMPLE_TEXT_INPUT_PROTOCOL_GUID\0"
 13554      4C455F54 
 13554      4558545F 
 13554      494E5055 
 13554      545F5052 
 13555 c133 01       		.byte	0x1
 13556 c134 FA01     		.uleb128 0xfa
 13557 c136 43484152 		.ascii "CHAR_NULL 0x0000\0"
 13557      5F4E554C 
 13557      4C203078 
 13557      30303030 
 13557      00
 13558 c147 01       		.byte	0x1
 13559 c148 FB01     		.uleb128 0xfb
 13560 c14a 43484152 		.ascii "CHAR_BACKSPACE 0x0008\0"
 13560      5F424143 
 13560      4B535041 
 13560      43452030 
 13560      78303030 
 13561 c160 01       		.byte	0x1
 13562 c161 FC01     		.uleb128 0xfc
 13563 c163 43484152 		.ascii "CHAR_TAB 0x0009\0"
 13563      5F544142 
 13563      20307830 
 13563      30303900 
 13564 c173 01       		.byte	0x1
 13565 c174 FD01     		.uleb128 0xfd
 13566 c176 43484152 		.ascii "CHAR_LINEFEED 0x000A\0"
 13566      5F4C494E 
 13566      45464545 
 13566      44203078 
 13566      30303041 
 13567 c18b 01       		.byte	0x1
 13568 c18c FE01     		.uleb128 0xfe
 13569 c18e 43484152 		.ascii "CHAR_CARRIAGE_RETURN 0x000D\0"
 13569      5F434152 
 13569      52494147 
 13569      455F5245 
 13569      5455524E 
 13570 c1aa 01       		.byte	0x1
 13571 c1ab 8402     		.uleb128 0x104
 13572 c1ad 5343414E 		.ascii "SCAN_NULL 0x0000\0"
 13572      5F4E554C 
 13572      4C203078 
 13572      30303030 
 13572      00
 13573 c1be 01       		.byte	0x1
 13574 c1bf 8502     		.uleb128 0x105
 13575 c1c1 5343414E 		.ascii "SCAN_UP 0x0001\0"
 13575      5F555020 
 13575      30783030 
 13575      303100
 13576 c1d0 01       		.byte	0x1
 13577 c1d1 8602     		.uleb128 0x106
 13578 c1d3 5343414E 		.ascii "SCAN_DOWN 0x0002\0"
 13578      5F444F57 
 13578      4E203078 
 13578      30303032 
 13578      00
 13579 c1e4 01       		.byte	0x1
 13580 c1e5 8702     		.uleb128 0x107
 13581 c1e7 5343414E 		.ascii "SCAN_RIGHT 0x0003\0"
 13581      5F524947 
 13581      48542030 
 13581      78303030 
 13581      3300
 13582 c1f9 01       		.byte	0x1
 13583 c1fa 8802     		.uleb128 0x108
 13584 c1fc 5343414E 		.ascii "SCAN_LEFT 0x0004\0"
 13584      5F4C4546 
 13584      54203078 
 13584      30303034 
 13584      00
 13585 c20d 01       		.byte	0x1
 13586 c20e 8902     		.uleb128 0x109
 13587 c210 5343414E 		.ascii "SCAN_HOME 0x0005\0"
 13587      5F484F4D 
 13587      45203078 
 13587      30303035 
 13587      00
 13588 c221 01       		.byte	0x1
 13589 c222 8A02     		.uleb128 0x10a
 13590 c224 5343414E 		.ascii "SCAN_END 0x0006\0"
 13590      5F454E44 
 13590      20307830 
 13590      30303600 
 13591 c234 01       		.byte	0x1
 13592 c235 8B02     		.uleb128 0x10b
 13593 c237 5343414E 		.ascii "SCAN_INSERT 0x0007\0"
 13593      5F494E53 
 13593      45525420 
 13593      30783030 
 13593      303700
 13594 c24a 01       		.byte	0x1
 13595 c24b 8C02     		.uleb128 0x10c
 13596 c24d 5343414E 		.ascii "SCAN_DELETE 0x0008\0"
 13596      5F44454C 
 13596      45544520 
 13596      30783030 
 13596      303800
 13597 c260 01       		.byte	0x1
 13598 c261 8D02     		.uleb128 0x10d
 13599 c263 5343414E 		.ascii "SCAN_PAGE_UP 0x0009\0"
 13599      5F504147 
 13599      455F5550 
 13599      20307830 
 13599      30303900 
 13600 c277 01       		.byte	0x1
 13601 c278 8E02     		.uleb128 0x10e
 13602 c27a 5343414E 		.ascii "SCAN_PAGE_DOWN 0x000A\0"
 13602      5F504147 
 13602      455F444F 
 13602      574E2030 
 13602      78303030 
 13603 c290 01       		.byte	0x1
 13604 c291 8F02     		.uleb128 0x10f
 13605 c293 5343414E 		.ascii "SCAN_F1 0x000B\0"
 13605      5F463120 
 13605      30783030 
 13605      304200
 13606 c2a2 01       		.byte	0x1
 13607 c2a3 9002     		.uleb128 0x110
 13608 c2a5 5343414E 		.ascii "SCAN_F2 0x000C\0"
 13608      5F463220 
 13608      30783030 
 13608      304300
 13609 c2b4 01       		.byte	0x1
 13610 c2b5 9102     		.uleb128 0x111
 13611 c2b7 5343414E 		.ascii "SCAN_F3 0x000D\0"
 13611      5F463320 
 13611      30783030 
 13611      304400
 13612 c2c6 01       		.byte	0x1
 13613 c2c7 9202     		.uleb128 0x112
 13614 c2c9 5343414E 		.ascii "SCAN_F4 0x000E\0"
 13614      5F463420 
 13614      30783030 
 13614      304500
 13615 c2d8 01       		.byte	0x1
 13616 c2d9 9302     		.uleb128 0x113
 13617 c2db 5343414E 		.ascii "SCAN_F5 0x000F\0"
 13617      5F463520 
 13617      30783030 
 13617      304600
 13618 c2ea 01       		.byte	0x1
 13619 c2eb 9402     		.uleb128 0x114
 13620 c2ed 5343414E 		.ascii "SCAN_F6 0x0010\0"
 13620      5F463620 
 13620      30783030 
 13620      313000
 13621 c2fc 01       		.byte	0x1
 13622 c2fd 9502     		.uleb128 0x115
 13623 c2ff 5343414E 		.ascii "SCAN_F7 0x0011\0"
 13623      5F463720 
 13623      30783030 
 13623      313100
 13624 c30e 01       		.byte	0x1
 13625 c30f 9602     		.uleb128 0x116
 13626 c311 5343414E 		.ascii "SCAN_F8 0x0012\0"
 13626      5F463820 
 13626      30783030 
 13626      313200
 13627 c320 01       		.byte	0x1
 13628 c321 9702     		.uleb128 0x117
 13629 c323 5343414E 		.ascii "SCAN_F9 0x0013\0"
 13629      5F463920 
 13629      30783030 
 13629      313300
 13630 c332 01       		.byte	0x1
 13631 c333 9802     		.uleb128 0x118
 13632 c335 5343414E 		.ascii "SCAN_F10 0x0014\0"
 13632      5F463130 
 13632      20307830 
 13632      30313400 
 13633 c345 01       		.byte	0x1
 13634 c346 9902     		.uleb128 0x119
 13635 c348 5343414E 		.ascii "SCAN_F11 0x0015\0"
 13635      5F463131 
 13635      20307830 
 13635      30313500 
 13636 c358 01       		.byte	0x1
 13637 c359 9A02     		.uleb128 0x11a
 13638 c35b 5343414E 		.ascii "SCAN_F12 0x0016\0"
 13638      5F463132 
 13638      20307830 
 13638      30313600 
 13639 c36b 01       		.byte	0x1
 13640 c36c 9B02     		.uleb128 0x11b
 13641 c36e 5343414E 		.ascii "SCAN_ESC 0x0017\0"
 13641      5F455343 
 13641      20307830 
 13641      30313700 
 13642 c37e 04       		.byte	0x4
 13643              		.file 27 "gnu-efi-3.0.18/inc/eficonex.h"
 13644 c37f 03       		.byte	0x3
 13645 c380 47       		.uleb128 0x47
 13646 c381 1B       		.uleb128 0x1b
 13647 c382 01       		.byte	0x1
 13648 c383 02       		.uleb128 0x2
 13649 c384 5F454649 		.ascii "_EFI_CONEX_H \0"
 13649      5F434F4E 
 13649      45585F48 
 13649      2000
 13650 c392 01       		.byte	0x1
 13651 c393 16       		.uleb128 0x16
 13652 c394 4546495F 		.ascii "EFI_SIMPLE_TEXT_INPUT_EX_PROTOCOL_GUID { 0xdd9e7534, 0x7762, 0x4698, {0x8c, 0x14, 0xf5, 0x
 13652      53494D50 
 13652      4C455F54 
 13652      4558545F 
 13652      494E5055 
 13653 c40c 01       		.byte	0x1
 13654 c40d 28       		.uleb128 0x28
 13655 c40e 4546495F 		.ascii "EFI_SHIFT_STATE_VALID 0x80000000\0"
 13655      53484946 
 13655      545F5354 
 13655      4154455F 
 13655      56414C49 
 13656 c42f 01       		.byte	0x1
 13657 c430 29       		.uleb128 0x29
 13658 c431 4546495F 		.ascii "EFI_RIGHT_SHIFT_PRESSED 0x00000001\0"
 13658      52494748 
 13658      545F5348 
 13658      4946545F 
 13658      50524553 
 13659 c454 01       		.byte	0x1
 13660 c455 2A       		.uleb128 0x2a
 13661 c456 4546495F 		.ascii "EFI_LEFT_SHIFT_PRESSED 0x00000002\0"
 13661      4C454654 
 13661      5F534849 
 13661      46545F50 
 13661      52455353 
 13662 c478 01       		.byte	0x1
 13663 c479 2B       		.uleb128 0x2b
 13664 c47a 4546495F 		.ascii "EFI_RIGHT_CONTROL_PRESSED 0x00000004\0"
 13664      52494748 
 13664      545F434F 
 13664      4E54524F 
 13664      4C5F5052 
 13665 c49f 01       		.byte	0x1
 13666 c4a0 2C       		.uleb128 0x2c
 13667 c4a1 4546495F 		.ascii "EFI_LEFT_CONTROL_PRESSED 0x00000008\0"
 13667      4C454654 
 13667      5F434F4E 
 13667      54524F4C 
 13667      5F505245 
 13668 c4c5 01       		.byte	0x1
 13669 c4c6 2D       		.uleb128 0x2d
 13670 c4c7 4546495F 		.ascii "EFI_RIGHT_ALT_PRESSED 0x00000010\0"
 13670      52494748 
 13670      545F414C 
 13670      545F5052 
 13670      45535345 
 13671 c4e8 01       		.byte	0x1
 13672 c4e9 2E       		.uleb128 0x2e
 13673 c4ea 4546495F 		.ascii "EFI_LEFT_ALT_PRESSED 0x00000020\0"
 13673      4C454654 
 13673      5F414C54 
 13673      5F505245 
 13673      53534544 
 13674 c50a 01       		.byte	0x1
 13675 c50b 2F       		.uleb128 0x2f
 13676 c50c 4546495F 		.ascii "EFI_RIGHT_LOGO_PRESSED 0x00000040\0"
 13676      52494748 
 13676      545F4C4F 
 13676      474F5F50 
 13676      52455353 
 13677 c52e 01       		.byte	0x1
 13678 c52f 30       		.uleb128 0x30
 13679 c530 4546495F 		.ascii "EFI_LEFT_LOGO_PRESSED 0x00000080\0"
 13679      4C454654 
 13679      5F4C4F47 
 13679      4F5F5052 
 13679      45535345 
 13680 c551 01       		.byte	0x1
 13681 c552 31       		.uleb128 0x31
 13682 c553 4546495F 		.ascii "EFI_MENU_KEY_PRESSED 0x00000100\0"
 13682      4D454E55 
 13682      5F4B4559 
 13682      5F505245 
 13682      53534544 
 13683 c573 01       		.byte	0x1
 13684 c574 32       		.uleb128 0x32
 13685 c575 4546495F 		.ascii "EFI_SYS_REQ_PRESSED 0x00000200\0"
 13685      5359535F 
 13685      5245515F 
 13685      50524553 
 13685      53454420 
 13686 c594 01       		.byte	0x1
 13687 c595 35       		.uleb128 0x35
 13688 c596 4546495F 		.ascii "EFI_TOGGLE_STATE_VALID 0x80\0"
 13688      544F4747 
 13688      4C455F53 
 13688      54415445 
 13688      5F56414C 
 13689 c5b2 01       		.byte	0x1
 13690 c5b3 36       		.uleb128 0x36
 13691 c5b4 4546495F 		.ascii "EFI_KEY_STATE_EXPOSED 0x40\0"
 13691      4B45595F 
 13691      53544154 
 13691      455F4558 
 13691      504F5345 
 13692 c5cf 01       		.byte	0x1
 13693 c5d0 37       		.uleb128 0x37
 13694 c5d1 4546495F 		.ascii "EFI_SCROLL_LOCK_ACTIVE 0x01\0"
 13694      5343524F 
 13694      4C4C5F4C 
 13694      4F434B5F 
 13694      41435449 
 13695 c5ed 01       		.byte	0x1
 13696 c5ee 38       		.uleb128 0x38
 13697 c5ef 4546495F 		.ascii "EFI_NUM_LOCK_ACTIVE 0x02\0"
 13697      4E554D5F 
 13697      4C4F434B 
 13697      5F414354 
 13697      49564520 
 13698 c608 01       		.byte	0x1
 13699 c609 39       		.uleb128 0x39
 13700 c60a 4546495F 		.ascii "EFI_CAPS_LOCK_ACTIVE 0x04\0"
 13700      43415053 
 13700      5F4C4F43 
 13700      4B5F4143 
 13700      54495645 
 13701 c624 04       		.byte	0x4
 13702              		.file 28 "gnu-efi-3.0.18/inc/efiser.h"
 13703 c625 03       		.byte	0x3
 13704 c626 48       		.uleb128 0x48
 13705 c627 1C       		.uleb128 0x1c
 13706 c628 01       		.byte	0x1
 13707 c629 02       		.uleb128 0x2
 13708 c62a 5F454649 		.ascii "_EFI_SER_H \0"
 13708      5F534552 
 13708      5F482000 
 13709 c636 01       		.byte	0x1
 13710 c637 18       		.uleb128 0x18
 13711 c638 4546495F 		.ascii "EFI_SERIAL_IO_PROTOCOL_GUID { 0xBB25CF6F, 0xF1D4, 0x11D2, {0x9A, 0x0C, 0x00, 0x90, 0x27, 0
 13711      53455249 
 13711      414C5F49 
 13711      4F5F5052 
 13711      4F544F43 
 13712 c6a5 01       		.byte	0x1
 13713 c6a6 1A       		.uleb128 0x1a
 13714 c6a7 53455249 		.ascii "SERIAL_IO_PROTOCOL EFI_SERIAL_IO_PROTOCOL_GUID\0"
 13714      414C5F49 
 13714      4F5F5052 
 13714      4F544F43 
 13714      4F4C2045 
 13715 c6d6 01       		.byte	0x1
 13716 c6d7 2E       		.uleb128 0x2e
 13717 c6d8 4546495F 		.ascii "EFI_SERIAL_CLEAR_TO_SEND 0x0010\0"
 13717      53455249 
 13717      414C5F43 
 13717      4C454152 
 13717      5F544F5F 
 13718 c6f8 01       		.byte	0x1
 13719 c6f9 2F       		.uleb128 0x2f
 13720 c6fa 4546495F 		.ascii "EFI_SERIAL_DATA_SET_READY 0x0020\0"
 13720      53455249 
 13720      414C5F44 
 13720      4154415F 
 13720      5345545F 
 13721 c71b 01       		.byte	0x1
 13722 c71c 30       		.uleb128 0x30
 13723 c71d 4546495F 		.ascii "EFI_SERIAL_RING_INDICATE 0x0040\0"
 13723      53455249 
 13723      414C5F52 
 13723      494E475F 
 13723      494E4449 
 13724 c73d 01       		.byte	0x1
 13725 c73e 31       		.uleb128 0x31
 13726 c73f 4546495F 		.ascii "EFI_SERIAL_CARRIER_DETECT 0x0080\0"
 13726      53455249 
 13726      414C5F43 
 13726      41525249 
 13726      45525F44 
 13727 c760 01       		.byte	0x1
 13728 c761 32       		.uleb128 0x32
 13729 c762 4546495F 		.ascii "EFI_SERIAL_REQUEST_TO_SEND 0x0002\0"
 13729      53455249 
 13729      414C5F52 
 13729      45515545 
 13729      53545F54 
 13730 c784 01       		.byte	0x1
 13731 c785 33       		.uleb128 0x33
 13732 c786 4546495F 		.ascii "EFI_SERIAL_DATA_TERMINAL_READY 0x0001\0"
 13732      53455249 
 13732      414C5F44 
 13732      4154415F 
 13732      5445524D 
 13733 c7ac 01       		.byte	0x1
 13734 c7ad 34       		.uleb128 0x34
 13735 c7ae 4546495F 		.ascii "EFI_SERIAL_INPUT_BUFFER_EMPTY 0x0100\0"
 13735      53455249 
 13735      414C5F49 
 13735      4E505554 
 13735      5F425546 
 13736 c7d3 01       		.byte	0x1
 13737 c7d4 35       		.uleb128 0x35
 13738 c7d5 4546495F 		.ascii "EFI_SERIAL_OUTPUT_BUFFER_EMPTY 0x0200\0"
 13738      53455249 
 13738      414C5F4F 
 13738      55545055 
 13738      545F4255 
 13739 c7fb 01       		.byte	0x1
 13740 c7fc 36       		.uleb128 0x36
 13741 c7fd 4546495F 		.ascii "EFI_SERIAL_HARDWARE_LOOPBACK_ENABLE 0x1000\0"
 13741      53455249 
 13741      414C5F48 
 13741      41524457 
 13741      4152455F 
 13742 c828 01       		.byte	0x1
 13743 c829 37       		.uleb128 0x37
 13744 c82a 4546495F 		.ascii "EFI_SERIAL_SOFTWARE_LOOPBACK_ENABLE 0x2000\0"
 13744      53455249 
 13744      414C5F53 
 13744      4F465457 
 13744      4152455F 
 13745 c855 01       		.byte	0x1
 13746 c856 38       		.uleb128 0x38
 13747 c857 4546495F 		.ascii "EFI_SERIAL_HARDWARE_FLOW_CONTROL_ENABLE 0x4000\0"
 13747      53455249 
 13747      414C5F48 
 13747      41524457 
 13747      4152455F 
 13748 c886 01       		.byte	0x1
 13749 c887 76       		.uleb128 0x76
 13750 c888 53455249 		.ascii "SERIAL_IO_INTERFACE_REVISION 0x00010000\0"
 13750      414C5F49 
 13750      4F5F494E 
 13750      54455246 
 13750      4143455F 
 13751 c8b0 04       		.byte	0x4
 13752              		.file 29 "gnu-efi-3.0.18/inc/efi_nii.h"
 13753 c8b1 03       		.byte	0x3
 13754 c8b2 49       		.uleb128 0x49
 13755 c8b3 1D       		.uleb128 0x1d
 13756 c8b4 01       		.byte	0x1
 13757 c8b5 02       		.uleb128 0x2
 13758 c8b6 5F454649 		.ascii "_EFI_NII_H \0"
 13758      5F4E4949 
 13758      5F482000 
 13759 c8c2 01       		.byte	0x1
 13760 c8c3 14       		.uleb128 0x14
 13761 c8c4 4546495F 		.ascii "EFI_NETWORK_INTERFACE_IDENTIFIER_PROTOCOL_GUID { 0xE18541CD, 0xF755, 0x4f73, {0x92, 0x8D, 
 13761      4E455457 
 13761      4F524B5F 
 13761      494E5445 
 13761      52464143 
 13762 c944 01       		.byte	0x1
 13763 c945 17       		.uleb128 0x17
 13764 c946 4546495F 		.ascii "EFI_NETWORK_INTERFACE_IDENTIFIER_PROTOCOL_REVISION 0x00010000\0"
 13764      4E455457 
 13764      4F524B5F 
 13764      494E5445 
 13764      52464143 
 13765 c984 01       		.byte	0x1
 13766 c985 18       		.uleb128 0x18
 13767 c986 4546495F 		.ascii "EFI_NETWORK_INTERFACE_IDENTIFIER_INTERFACE_REVISION EFI_NETWORK_INTERFACE_IDENTIFIER_PROTO
 13767      4E455457 
 13767      4F524B5F 
 13767      494E5445 
 13767      52464143 
 13768 c9ed 04       		.byte	0x4
 13769              		.file 30 "gnu-efi-3.0.18/inc/efipxebc.h"
 13770 c9ee 03       		.byte	0x3
 13771 c9ef 4A       		.uleb128 0x4a
 13772 c9f0 1E       		.uleb128 0x1e
 13773 c9f1 01       		.byte	0x1
 13774 c9f2 02       		.uleb128 0x2
 13775 c9f3 5F454649 		.ascii "_EFIPXEBC_H \0"
 13775      50584542 
 13775      435F4820 
 13775      00
 13776 ca00 01       		.byte	0x1
 13777 ca01 1A       		.uleb128 0x1a
 13778 ca02 4546495F 		.ascii "EFI_PXE_BASE_CODE_PROTOCOL_GUID { 0x03c4e603, 0xac28, 0x11d3, {0x9a, 0x2d, 0x00, 0x90, 0x2
 13778      5058455F 
 13778      42415345 
 13778      5F434F44 
 13778      455F5052 
 13779 ca73 01       		.byte	0x1
 13780 ca74 1F       		.uleb128 0x1f
 13781 ca75 44454641 		.ascii "DEFAULT_TTL 4\0"
 13781      554C545F 
 13781      54544C20 
 13781      3400
 13782 ca83 01       		.byte	0x1
 13783 ca84 20       		.uleb128 0x20
 13784 ca85 44454641 		.ascii "DEFAULT_ToS 0\0"
 13784      554C545F 
 13784      546F5320 
 13784      3000
 13785 ca93 01       		.byte	0x1
 13786 ca94 68       		.uleb128 0x68
 13787 ca95 4546495F 		.ascii "EFI_PXE_BASE_CODE_MAX_IPCNT 8\0"
 13787      5058455F 
 13787      42415345 
 13787      5F434F44 
 13787      455F4D41 
 13788 cab3 01       		.byte	0x1
 13789 cab4 70       		.uleb128 0x70
 13790 cab5 4546495F 		.ascii "EFI_PXE_BASE_CODE_IP_FILTER_STATION_IP 0x0001\0"
 13790      5058455F 
 13790      42415345 
 13790      5F434F44 
 13790      455F4950 
 13791 cae3 01       		.byte	0x1
 13792 cae4 71       		.uleb128 0x71
 13793 cae5 4546495F 		.ascii "EFI_PXE_BASE_CODE_IP_FILTER_BROADCAST 0x0002\0"
 13793      5058455F 
 13793      42415345 
 13793      5F434F44 
 13793      455F4950 
 13794 cb12 01       		.byte	0x1
 13795 cb13 72       		.uleb128 0x72
 13796 cb14 4546495F 		.ascii "EFI_PXE_BASE_CODE_IP_FILTER_PROMISCUOUS 0x0004\0"
 13796      5058455F 
 13796      42415345 
 13796      5F434F44 
 13796      455F4950 
 13797 cb43 01       		.byte	0x1
 13798 cb44 73       		.uleb128 0x73
 13799 cb45 4546495F 		.ascii "EFI_PXE_BASE_CODE_IP_FILTER_PROMISCUOUS_MULTICAST 0x0008\0"
 13799      5058455F 
 13799      42415345 
 13799      5F434F44 
 13799      455F4950 
 13800 cb7e 01       		.byte	0x1
 13801 cb7f 8801     		.uleb128 0x88
 13802 cb81 4546495F 		.ascii "EFI_PXE_BASE_CODE_UDP_OPFLAGS_ANY_SRC_IP 0x0001\0"
 13802      5058455F 
 13802      42415345 
 13802      5F434F44 
 13802      455F5544 
 13803 cbb1 01       		.byte	0x1
 13804 cbb2 8901     		.uleb128 0x89
 13805 cbb4 4546495F 		.ascii "EFI_PXE_BASE_CODE_UDP_OPFLAGS_ANY_SRC_PORT 0x0002\0"
 13805      5058455F 
 13805      42415345 
 13805      5F434F44 
 13805      455F5544 
 13806 cbe6 01       		.byte	0x1
 13807 cbe7 8A01     		.uleb128 0x8a
 13808 cbe9 4546495F 		.ascii "EFI_PXE_BASE_CODE_UDP_OPFLAGS_ANY_DEST_IP 0x0004\0"
 13808      5058455F 
 13808      42415345 
 13808      5F434F44 
 13808      455F5544 
 13809 cc1a 01       		.byte	0x1
 13810 cc1b 8B01     		.uleb128 0x8b
 13811 cc1d 4546495F 		.ascii "EFI_PXE_BASE_CODE_UDP_OPFLAGS_ANY_DEST_PORT 0x0008\0"
 13811      5058455F 
 13811      42415345 
 13811      5F434F44 
 13811      455F5544 
 13812 cc50 01       		.byte	0x1
 13813 cc51 8C01     		.uleb128 0x8c
 13814 cc53 4546495F 		.ascii "EFI_PXE_BASE_CODE_UDP_OPFLAGS_USE_FILTER 0x0010\0"
 13814      5058455F 
 13814      42415345 
 13814      5F434F44 
 13814      455F5544 
 13815 cc83 01       		.byte	0x1
 13816 cc84 8D01     		.uleb128 0x8d
 13817 cc86 4546495F 		.ascii "EFI_PXE_BASE_CODE_UDP_OPFLAGS_MAY_FRAGMENT 0x0020\0"
 13817      5058455F 
 13817      42415345 
 13817      5F434F44 
 13817      455F5544 
 13818 ccb8 01       		.byte	0x1
 13819 ccb9 9301     		.uleb128 0x93
 13820 ccbb 4546495F 		.ascii "EFI_PXE_BASE_CODE_BOOT_TYPE_BOOTSTRAP 0\0"
 13820      5058455F 
 13820      42415345 
 13820      5F434F44 
 13820      455F424F 
 13821 cce3 01       		.byte	0x1
 13822 cce4 9401     		.uleb128 0x94
 13823 cce6 4546495F 		.ascii "EFI_PXE_BASE_CODE_BOOT_TYPE_MS_WINNT_RIS 1\0"
 13823      5058455F 
 13823      42415345 
 13823      5F434F44 
 13823      455F424F 
 13824 cd11 01       		.byte	0x1
 13825 cd12 9501     		.uleb128 0x95
 13826 cd14 4546495F 		.ascii "EFI_PXE_BASE_CODE_BOOT_TYPE_INTEL_LCM 2\0"
 13826      5058455F 
 13826      42415345 
 13826      5F434F44 
 13826      455F424F 
 13827 cd3c 01       		.byte	0x1
 13828 cd3d 9601     		.uleb128 0x96
 13829 cd3f 4546495F 		.ascii "EFI_PXE_BASE_CODE_BOOT_TYPE_DOSUNDI 3\0"
 13829      5058455F 
 13829      42415345 
 13829      5F434F44 
 13829      455F424F 
 13830 cd65 01       		.byte	0x1
 13831 cd66 9701     		.uleb128 0x97
 13832 cd68 4546495F 		.ascii "EFI_PXE_BASE_CODE_BOOT_TYPE_NEC_ESMPRO 4\0"
 13832      5058455F 
 13832      42415345 
 13832      5F434F44 
 13832      455F424F 
 13833 cd91 01       		.byte	0x1
 13834 cd92 9801     		.uleb128 0x98
 13835 cd94 4546495F 		.ascii "EFI_PXE_BASE_CODE_BOOT_TYPE_IBM_WSoD 5\0"
 13835      5058455F 
 13835      42415345 
 13835      5F434F44 
 13835      455F424F 
 13836 cdbb 01       		.byte	0x1
 13837 cdbc 9901     		.uleb128 0x99
 13838 cdbe 4546495F 		.ascii "EFI_PXE_BASE_CODE_BOOT_TYPE_IBM_LCCM 6\0"
 13838      5058455F 
 13838      42415345 
 13838      5F434F44 
 13838      455F424F 
 13839 cde5 01       		.byte	0x1
 13840 cde6 9A01     		.uleb128 0x9a
 13841 cde8 4546495F 		.ascii "EFI_PXE_BASE_CODE_BOOT_TYPE_CA_UNICENTER_TNG 7\0"
 13841      5058455F 
 13841      42415345 
 13841      5F434F44 
 13841      455F424F 
 13842 ce17 01       		.byte	0x1
 13843 ce18 9B01     		.uleb128 0x9b
 13844 ce1a 4546495F 		.ascii "EFI_PXE_BASE_CODE_BOOT_TYPE_HP_OPENVIEW 8\0"
 13844      5058455F 
 13844      42415345 
 13844      5F434F44 
 13844      455F424F 
 13845 ce44 01       		.byte	0x1
 13846 ce45 9C01     		.uleb128 0x9c
 13847 ce47 4546495F 		.ascii "EFI_PXE_BASE_CODE_BOOT_TYPE_ALTIRIS_9 9\0"
 13847      5058455F 
 13847      42415345 
 13847      5F434F44 
 13847      455F424F 
 13848 ce6f 01       		.byte	0x1
 13849 ce70 9D01     		.uleb128 0x9d
 13850 ce72 4546495F 		.ascii "EFI_PXE_BASE_CODE_BOOT_TYPE_ALTIRIS_10 10\0"
 13850      5058455F 
 13850      42415345 
 13850      5F434F44 
 13850      455F424F 
 13851 ce9c 01       		.byte	0x1
 13852 ce9d 9E01     		.uleb128 0x9e
 13853 ce9f 4546495F 		.ascii "EFI_PXE_BASE_CODE_BOOT_TYPE_ALTIRIS_11 11\0"
 13853      5058455F 
 13853      42415345 
 13853      5F434F44 
 13853      455F424F 
 13854 cec9 01       		.byte	0x1
 13855 ceca 9F01     		.uleb128 0x9f
 13856 cecc 4546495F 		.ascii "EFI_PXE_BASE_CODE_BOOT_TYPE_NOT_USED_12 12\0"
 13856      5058455F 
 13856      42415345 
 13856      5F434F44 
 13856      455F424F 
 13857 cef7 01       		.byte	0x1
 13858 cef8 A001     		.uleb128 0xa0
 13859 cefa 4546495F 		.ascii "EFI_PXE_BASE_CODE_BOOT_TYPE_REDHAT_INSTALL 13\0"
 13859      5058455F 
 13859      42415345 
 13859      5F434F44 
 13859      455F424F 
 13860 cf28 01       		.byte	0x1
 13861 cf29 A101     		.uleb128 0xa1
 13862 cf2b 4546495F 		.ascii "EFI_PXE_BASE_CODE_BOOT_TYPE_REDHAT_BOOT 14\0"
 13862      5058455F 
 13862      42415345 
 13862      5F434F44 
 13862      455F424F 
 13863 cf56 01       		.byte	0x1
 13864 cf57 A201     		.uleb128 0xa2
 13865 cf59 4546495F 		.ascii "EFI_PXE_BASE_CODE_BOOT_TYPE_REMBO 15\0"
 13865      5058455F 
 13865      42415345 
 13865      5F434F44 
 13865      455F424F 
 13866 cf7e 01       		.byte	0x1
 13867 cf7f A301     		.uleb128 0xa3
 13868 cf81 4546495F 		.ascii "EFI_PXE_BASE_CODE_BOOT_TYPE_BEOBOOT 16\0"
 13868      5058455F 
 13868      42415345 
 13868      5F434F44 
 13868      455F424F 
 13869 cfa8 01       		.byte	0x1
 13870 cfa9 A901     		.uleb128 0xa9
 13871 cfab 4546495F 		.ascii "EFI_PXE_BASE_CODE_BOOT_TYPE_PXETEST 65535\0"
 13871      5058455F 
 13871      42415345 
 13871      5F434F44 
 13871      455F424F 
 13872 cfd5 01       		.byte	0x1
 13873 cfd6 AB01     		.uleb128 0xab
 13874 cfd8 4546495F 		.ascii "EFI_PXE_BASE_CODE_BOOT_LAYER_MASK 0x7FFF\0"
 13874      5058455F 
 13874      42415345 
 13874      5F434F44 
 13874      455F424F 
 13875 d001 01       		.byte	0x1
 13876 d002 AC01     		.uleb128 0xac
 13877 d004 4546495F 		.ascii "EFI_PXE_BASE_CODE_BOOT_LAYER_INITIAL 0x0000\0"
 13877      5058455F 
 13877      42415345 
 13877      5F434F44 
 13877      455F424F 
 13878 d030 01       		.byte	0x1
 13879 d031 DC01     		.uleb128 0xdc
 13880 d033 4546495F 		.ascii "EFI_PXE_BASE_CODE_MAX_ARP_ENTRIES 8\0"
 13880      5058455F 
 13880      42415345 
 13880      5F434F44 
 13880      455F4D41 
 13881 d057 01       		.byte	0x1
 13882 d058 DD01     		.uleb128 0xdd
 13883 d05a 4546495F 		.ascii "EFI_PXE_BASE_CODE_MAX_ROUTE_ENTRIES 8\0"
 13883      5058455F 
 13883      42415345 
 13883      5F434F44 
 13883      455F4D41 
 13884 d080 01       		.byte	0x1
 13885 d081 8C03     		.uleb128 0x18c
 13886 d083 4546495F 		.ascii "EFI_PXE_BASE_CODE_PROTOCOL_REVISION 0x00010000\0"
 13886      5058455F 
 13886      42415345 
 13886      5F434F44 
 13886      455F5052 
 13887 d0b2 01       		.byte	0x1
 13888 d0b3 8D03     		.uleb128 0x18d
 13889 d0b5 4546495F 		.ascii "EFI_PXE_BASE_CODE_INTERFACE_REVISION EFI_PXE_BASE_CODE_PROTOCOL_REVISION\0"
 13889      5058455F 
 13889      42415345 
 13889      5F434F44 
 13889      455F494E 
 13890 d0fe 01       		.byte	0x1
 13891 d0ff AC03     		.uleb128 0x1ac
 13892 d101 4546495F 		.ascii "EFI_PXE_BASE_CODE_CALLBACK_PROTOCOL_GUID { 0x245dca21, 0xfb7b, 0x11d3, {0x8f, 0x01, 0x00, 
 13892      5058455F 
 13892      42415345 
 13892      5F434F44 
 13892      455F4341 
 13893 d17b 01       		.byte	0x1
 13894 d17c B303     		.uleb128 0x1b3
 13895 d17e 4546495F 		.ascii "EFI_PXE_BASE_CODE_CALLBACK_PROTOCOL_REVISION 0x00010000\0"
 13895      5058455F 
 13895      42415345 
 13895      5F434F44 
 13895      455F4341 
 13896 d1b6 01       		.byte	0x1
 13897 d1b7 B403     		.uleb128 0x1b4
 13898 d1b9 4546495F 		.ascii "EFI_PXE_BASE_CODE_CALLBACK_INTERFACE_REVISION EFI_PXE_BASE_CODE_CALLBACK_PROTOCOL_REVISION
 13898      5058455F 
 13898      42415345 
 13898      5F434F44 
 13898      455F4341 
 13899 d214 04       		.byte	0x4
 13900              		.file 31 "gnu-efi-3.0.18/inc/efinet.h"
 13901 d215 03       		.byte	0x3
 13902 d216 4B       		.uleb128 0x4b
 13903 d217 1F       		.uleb128 0x1f
 13904 d218 01       		.byte	0x1
 13905 d219 02       		.uleb128 0x2
 13906 d21a 5F454649 		.ascii "_EFINET_H \0"
 13906      4E45545F 
 13906      482000
 13907 d225 01       		.byte	0x1
 13908 d226 17       		.uleb128 0x17
 13909 d227 4546495F 		.ascii "EFI_SIMPLE_NETWORK_PROTOCOL_GUID { 0xA19832B9, 0xAC25, 0x11D3, {0x9A, 0x2D, 0x00, 0x90, 0x
 13909      53494D50 
 13909      4C455F4E 
 13909      4554574F 
 13909      524B5F50 
 13910 d299 01       		.byte	0x1
 13911 d29a 7D       		.uleb128 0x7d
 13912 d29b 4546495F 		.ascii "EFI_SIMPLE_NETWORK_RECEIVE_UNICAST 0x01\0"
 13912      53494D50 
 13912      4C455F4E 
 13912      4554574F 
 13912      524B5F52 
 13913 d2c3 01       		.byte	0x1
 13914 d2c4 7E       		.uleb128 0x7e
 13915 d2c5 4546495F 		.ascii "EFI_SIMPLE_NETWORK_RECEIVE_MULTICAST 0x02\0"
 13915      53494D50 
 13915      4C455F4E 
 13915      4554574F 
 13915      524B5F52 
 13916 d2ef 01       		.byte	0x1
 13917 d2f0 7F       		.uleb128 0x7f
 13918 d2f1 4546495F 		.ascii "EFI_SIMPLE_NETWORK_RECEIVE_BROADCAST 0x04\0"
 13918      53494D50 
 13918      4C455F4E 
 13918      4554574F 
 13918      524B5F52 
 13919 d31b 01       		.byte	0x1
 13920 d31c 8001     		.uleb128 0x80
 13921 d31e 4546495F 		.ascii "EFI_SIMPLE_NETWORK_RECEIVE_PROMISCUOUS 0x08\0"
 13921      53494D50 
 13921      4C455F4E 
 13921      4554574F 
 13921      524B5F52 
 13922 d34a 01       		.byte	0x1
 13923 d34b 8101     		.uleb128 0x81
 13924 d34d 4546495F 		.ascii "EFI_SIMPLE_NETWORK_RECEIVE_PROMISCUOUS_MULTICAST 0x10\0"
 13924      53494D50 
 13924      4C455F4E 
 13924      4554574F 
 13924      524B5F52 
 13925 d383 01       		.byte	0x1
 13926 d384 8601     		.uleb128 0x86
 13927 d386 4546495F 		.ascii "EFI_SIMPLE_NETWORK_RECEIVE_INTERRUPT 0x01\0"
 13927      53494D50 
 13927      4C455F4E 
 13927      4554574F 
 13927      524B5F52 
 13928 d3b0 01       		.byte	0x1
 13929 d3b1 8701     		.uleb128 0x87
 13930 d3b3 4546495F 		.ascii "EFI_SIMPLE_NETWORK_TRANSMIT_INTERRUPT 0x02\0"
 13930      53494D50 
 13930      4C455F4E 
 13930      4554574F 
 13930      524B5F54 
 13931 d3de 01       		.byte	0x1
 13932 d3df 8801     		.uleb128 0x88
 13933 d3e1 4546495F 		.ascii "EFI_SIMPLE_NETWORK_COMMAND_INTERRUPT 0x04\0"
 13933      53494D50 
 13933      4C455F4E 
 13933      4554574F 
 13933      524B5F43 
 13934 d40b 01       		.byte	0x1
 13935 d40c 8901     		.uleb128 0x89
 13936 d40e 4546495F 		.ascii "EFI_SIMPLE_NETWORK_SOFTWARE_INTERRUPT 0x08\0"
 13936      53494D50 
 13936      4C455F4E 
 13936      4554574F 
 13936      524B5F53 
 13937 d439 01       		.byte	0x1
 13938 d43a 8D01     		.uleb128 0x8d
 13939 d43c 4D41585F 		.ascii "MAX_MCAST_FILTER_CNT 16\0"
 13939      4D434153 
 13939      545F4649 
 13939      4C544552 
 13939      5F434E54 
 13940 d454 01       		.byte	0x1
 13941 d455 BE02     		.uleb128 0x13e
 13942 d457 4546495F 		.ascii "EFI_SIMPLE_NETWORK_PROTOCOL_REVISION 0x00010000\0"
 13942      53494D50 
 13942      4C455F4E 
 13942      4554574F 
 13942      524B5F50 
 13943 d487 01       		.byte	0x1
 13944 d488 BF02     		.uleb128 0x13f
 13945 d48a 4546495F 		.ascii "EFI_SIMPLE_NETWORK_INTERFACE_REVISION EFI_SIMPLE_NETWORK_PROTOCOL_REVISION\0"
 13945      53494D50 
 13945      4C455F4E 
 13945      4554574F 
 13945      524B5F49 
 13946 d4d5 04       		.byte	0x4
 13947 d4d6 03       		.byte	0x3
 13948 d4d7 4C       		.uleb128 0x4c
 13949 d4d8 08       		.uleb128 0x8
 13950 d4d9 01       		.byte	0x1
 13951 d4da 02       		.uleb128 0x2
 13952 d4db 5F454649 		.ascii "_EFI_API_H \0"
 13952      5F415049 
 13952      5F482000 
 13953 d4e7 01       		.byte	0x1
 13954 d4e8 1B       		.uleb128 0x1b
 13955 d4e9 4546495F 		.ascii "EFI_SPECIFICATION_REVISION_MAJORMINOR(major,minor) ((major<<16) | (minor))\0"
 13955      53504543 
 13955      49464943 
 13955      4154494F 
 13955      4E5F5245 
 13956 d534 01       		.byte	0x1
 13957 d535 1C       		.uleb128 0x1c
 13958 d536 4546495F 		.ascii "EFI_SPECIFICATION_MAJOR_REVISION 1\0"
 13958      53504543 
 13958      49464943 
 13958      4154494F 
 13958      4E5F4D41 
 13959 d559 01       		.byte	0x1
 13960 d55a 1D       		.uleb128 0x1d
 13961 d55b 4546495F 		.ascii "EFI_SPECIFICATION_MINOR_REVISION 02\0"
 13961      53504543 
 13961      49464943 
 13961      4154494F 
 13961      4E5F4D49 
 13962 d57f 01       		.byte	0x1
 13963 d580 1E       		.uleb128 0x1e
 13964 d581 4546495F 		.ascii "EFI_SPECIFICATION_VERSION EFI_SPECIFICATION_REVISION_MAJORMINOR(EFI_SPECIFICATION_MAJOR_RE
 13964      53504543 
 13964      49464943 
 13964      4154494F 
 13964      4E5F5645 
 13965 d605 01       		.byte	0x1
 13966 d606 44       		.uleb128 0x44
 13967 d607 4E657874 		.ascii "NextMemoryDescriptor(Ptr,Size) ((EFI_MEMORY_DESCRIPTOR *) (((UINT8 *) Ptr) + Size))\0"
 13967      4D656D6F 
 13967      72794465 
 13967      73637269 
 13967      70746F72 
 13968 d65b 01       		.byte	0x1
 13969 d65c 5F       		.uleb128 0x5f
 13970 d65d 4546495F 		.ascii "EFI_OPTIONAL_PTR 0x00000001\0"
 13970      4F505449 
 13970      4F4E414C 
 13970      5F505452 
 13970      20307830 
 13971 d679 01       		.byte	0x1
 13972 d67a 60       		.uleb128 0x60
 13973 d67b 4546495F 		.ascii "EFI_INTERNAL_FNC 0x00000002\0"
 13973      494E5445 
 13973      524E414C 
 13973      5F464E43 
 13973      20307830 
 13974 d697 01       		.byte	0x1
 13975 d698 61       		.uleb128 0x61
 13976 d699 4546495F 		.ascii "EFI_INTERNAL_PTR 0x00000004\0"
 13976      494E5445 
 13976      524E414C 
 13976      5F505452 
 13976      20307830 
 13977 d6b5 01       		.byte	0x1
 13978 d6b6 70       		.uleb128 0x70
 13979 d6b7 4556545F 		.ascii "EVT_TIMER 0x80000000\0"
 13979      54494D45 
 13979      52203078 
 13979      38303030 
 13979      30303030 
 13980 d6cc 01       		.byte	0x1
 13981 d6cd 71       		.uleb128 0x71
 13982 d6ce 4556545F 		.ascii "EVT_RUNTIME 0x40000000\0"
 13982      52554E54 
 13982      494D4520 
 13982      30783430 
 13982      30303030 
 13983 d6e5 01       		.byte	0x1
 13984 d6e6 72       		.uleb128 0x72
 13985 d6e7 4556545F 		.ascii "EVT_RUNTIME_CONTEXT 0x20000000\0"
 13985      52554E54 
 13985      494D455F 
 13985      434F4E54 
 13985      45585420 
 13986 d706 01       		.byte	0x1
 13987 d707 74       		.uleb128 0x74
 13988 d708 4556545F 		.ascii "EVT_NOTIFY_WAIT 0x00000100\0"
 13988      4E4F5449 
 13988      46595F57 
 13988      41495420 
 13988      30783030 
 13989 d723 01       		.byte	0x1
 13990 d724 75       		.uleb128 0x75
 13991 d725 4556545F 		.ascii "EVT_NOTIFY_SIGNAL 0x00000200\0"
 13991      4E4F5449 
 13991      46595F53 
 13991      49474E41 
 13991      4C203078 
 13992 d742 01       		.byte	0x1
 13993 d743 77       		.uleb128 0x77
 13994 d744 4556545F 		.ascii "EVT_SIGNAL_EXIT_BOOT_SERVICES 0x00000201\0"
 13994      5349474E 
 13994      414C5F45 
 13994      5849545F 
 13994      424F4F54 
 13995 d76d 01       		.byte	0x1
 13996 d76e 78       		.uleb128 0x78
 13997 d76f 4556545F 		.ascii "EVT_SIGNAL_VIRTUAL_ADDRESS_CHANGE 0x60000202\0"
 13997      5349474E 
 13997      414C5F56 
 13997      49525455 
 13997      414C5F41 
 13998 d79c 01       		.byte	0x1
 13999 d79d 7A       		.uleb128 0x7a
 14000 d79e 4556545F 		.ascii "EVT_EFI_SIGNAL_MASK 0x000000FF\0"
 14000      4546495F 
 14000      5349474E 
 14000      414C5F4D 
 14000      41534B20 
 14001 d7bd 01       		.byte	0x1
 14002 d7be 7B       		.uleb128 0x7b
 14003 d7bf 4556545F 		.ascii "EVT_EFI_SIGNAL_MAX 4\0"
 14003      4546495F 
 14003      5349474E 
 14003      414C5F4D 
 14003      41582034 
 14004 d7d4 01       		.byte	0x1
 14005 d7d5 7D       		.uleb128 0x7d
 14006 d7d6 4546495F 		.ascii "EFI_EVENT_TIMER EVT_TIMER\0"
 14006      4556454E 
 14006      545F5449 
 14006      4D455220 
 14006      4556545F 
 14007 d7f0 01       		.byte	0x1
 14008 d7f1 7E       		.uleb128 0x7e
 14009 d7f2 4546495F 		.ascii "EFI_EVENT_RUNTIME EVT_RUNTIME\0"
 14009      4556454E 
 14009      545F5255 
 14009      4E54494D 
 14009      45204556 
 14010 d810 01       		.byte	0x1
 14011 d811 7F       		.uleb128 0x7f
 14012 d812 4546495F 		.ascii "EFI_EVENT_RUNTIME_CONTEXT EVT_RUNTIME_CONTEXT\0"
 14012      4556454E 
 14012      545F5255 
 14012      4E54494D 
 14012      455F434F 
 14013 d840 01       		.byte	0x1
 14014 d841 8001     		.uleb128 0x80
 14015 d843 4546495F 		.ascii "EFI_EVENT_NOTIFY_WAIT EVT_NOTIFY_WAIT\0"
 14015      4556454E 
 14015      545F4E4F 
 14015      54494659 
 14015      5F574149 
 14016 d869 01       		.byte	0x1
 14017 d86a 8101     		.uleb128 0x81
 14018 d86c 4546495F 		.ascii "EFI_EVENT_NOTIFY_SIGNAL EVT_NOTIFY_SIGNAL\0"
 14018      4556454E 
 14018      545F4E4F 
 14018      54494659 
 14018      5F534947 
 14019 d896 01       		.byte	0x1
 14020 d897 8201     		.uleb128 0x82
 14021 d899 4546495F 		.ascii "EFI_EVENT_SIGNAL_EXIT_BOOT_SERVICES EVT_SIGNAL_EXIT_BOOT_SERVICES\0"
 14021      4556454E 
 14021      545F5349 
 14021      474E414C 
 14021      5F455849 
 14022 d8db 01       		.byte	0x1
 14023 d8dc 8301     		.uleb128 0x83
 14024 d8de 4546495F 		.ascii "EFI_EVENT_SIGNAL_VIRTUAL_ADDRESS_CHANGE EVT_SIGNAL_VIRTUAL_ADDRESS_CHANGE\0"
 14024      4556454E 
 14024      545F5349 
 14024      474E414C 
 14024      5F564952 
 14025 d928 01       		.byte	0x1
 14026 d929 8401     		.uleb128 0x84
 14027 d92b 4546495F 		.ascii "EFI_EVENT_EFI_SIGNAL_MASK EVT_EFI_SIGNAL_MASK\0"
 14027      4556454E 
 14027      545F4546 
 14027      495F5349 
 14027      474E414C 
 14028 d959 01       		.byte	0x1
 14029 d95a 8501     		.uleb128 0x85
 14030 d95c 4546495F 		.ascii "EFI_EVENT_EFI_SIGNAL_MAX EVT_EFI_SIGNAL_MAX\0"
 14030      4556454E 
 14030      545F4546 
 14030      495F5349 
 14030      474E414C 
 14031 d988 01       		.byte	0x1
 14032 d989 C601     		.uleb128 0xc6
 14033 d98b 54504C5F 		.ascii "TPL_APPLICATION 4\0"
 14033      4150504C 
 14033      49434154 
 14033      494F4E20 
 14033      3400
 14034 d99d 01       		.byte	0x1
 14035 d99e C701     		.uleb128 0xc7
 14036 d9a0 54504C5F 		.ascii "TPL_CALLBACK 8\0"
 14036      43414C4C 
 14036      4241434B 
 14036      203800
 14037 d9af 01       		.byte	0x1
 14038 d9b0 C801     		.uleb128 0xc8
 14039 d9b2 54504C5F 		.ascii "TPL_NOTIFY 16\0"
 14039      4E4F5449 
 14039      46592031 
 14039      3600
 14040 d9c0 01       		.byte	0x1
 14041 d9c1 C901     		.uleb128 0xc9
 14042 d9c3 54504C5F 		.ascii "TPL_HIGH_LEVEL 31\0"
 14042      48494748 
 14042      5F4C4556 
 14042      454C2033 
 14042      3100
 14043 d9d5 01       		.byte	0x1
 14044 d9d6 CA01     		.uleb128 0xca
 14045 d9d8 4546495F 		.ascii "EFI_TPL_APPLICATION TPL_APPLICATION\0"
 14045      54504C5F 
 14045      4150504C 
 14045      49434154 
 14045      494F4E20 
 14046 d9fc 01       		.byte	0x1
 14047 d9fd CB01     		.uleb128 0xcb
 14048 d9ff 4546495F 		.ascii "EFI_TPL_CALLBACK TPL_CALLBACK\0"
 14048      54504C5F 
 14048      43414C4C 
 14048      4241434B 
 14048      2054504C 
 14049 da1d 01       		.byte	0x1
 14050 da1e CC01     		.uleb128 0xcc
 14051 da20 4546495F 		.ascii "EFI_TPL_NOTIFY TPL_NOTIFY\0"
 14051      54504C5F 
 14051      4E4F5449 
 14051      46592054 
 14051      504C5F4E 
 14052 da3a 01       		.byte	0x1
 14053 da3b CD01     		.uleb128 0xcd
 14054 da3d 4546495F 		.ascii "EFI_TPL_HIGH_LEVEL TPL_HIGH_LEVEL\0"
 14054      54504C5F 
 14054      48494748 
 14054      5F4C4556 
 14054      454C2054 
 14055 da5f 01       		.byte	0x1
 14056 da60 DF01     		.uleb128 0xdf
 14057 da62 4546495F 		.ascii "EFI_GLOBAL_VARIABLE { 0x8BE4DF61, 0x93CA, 0x11d2, {0xAA, 0x0D, 0x00, 0xE0, 0x98, 0x03, 0x2
 14057      474C4F42 
 14057      414C5F56 
 14057      41524941 
 14057      424C4520 
 14058 dac7 01       		.byte	0x1
 14059 dac8 E301     		.uleb128 0xe3
 14060 daca 4546495F 		.ascii "EFI_VARIABLE_NON_VOLATILE 0x00000001\0"
 14060      56415249 
 14060      41424C45 
 14060      5F4E4F4E 
 14060      5F564F4C 
 14061 daef 01       		.byte	0x1
 14062 daf0 E401     		.uleb128 0xe4
 14063 daf2 4546495F 		.ascii "EFI_VARIABLE_BOOTSERVICE_ACCESS 0x00000002\0"
 14063      56415249 
 14063      41424C45 
 14063      5F424F4F 
 14063      54534552 
 14064 db1d 01       		.byte	0x1
 14065 db1e E501     		.uleb128 0xe5
 14066 db20 4546495F 		.ascii "EFI_VARIABLE_RUNTIME_ACCESS 0x00000004\0"
 14066      56415249 
 14066      41424C45 
 14066      5F52554E 
 14066      54494D45 
 14067 db47 01       		.byte	0x1
 14068 db48 E601     		.uleb128 0xe6
 14069 db4a 4546495F 		.ascii "EFI_VARIABLE_HARDWARE_ERROR_RECORD 0x00000008\0"
 14069      56415249 
 14069      41424C45 
 14069      5F484152 
 14069      44574152 
 14070 db78 01       		.byte	0x1
 14071 db79 E701     		.uleb128 0xe7
 14072 db7b 4546495F 		.ascii "EFI_VARIABLE_AUTHENTICATED_WRITE_ACCESS 0x00000010\0"
 14072      56415249 
 14072      41424C45 
 14072      5F415554 
 14072      48454E54 
 14073 dbae 01       		.byte	0x1
 14074 dbaf E801     		.uleb128 0xe8
 14075 dbb1 4546495F 		.ascii "EFI_VARIABLE_TIME_BASED_AUTHENTICATED_WRITE_ACCESS 0x00000020\0"
 14075      56415249 
 14075      41424C45 
 14075      5F54494D 
 14075      455F4241 
 14076 dbef 01       		.byte	0x1
 14077 dbf0 E901     		.uleb128 0xe9
 14078 dbf2 4546495F 		.ascii "EFI_VARIABLE_APPEND_WRITE 0x00000040\0"
 14078      56415249 
 14078      41424C45 
 14078      5F415050 
 14078      454E445F 
 14079 dc17 01       		.byte	0x1
 14080 dc18 EA01     		.uleb128 0xea
 14081 dc1a 4546495F 		.ascii "EFI_VARIABLE_ENHANCED_AUTHENTICATED_ACCESS 0x00000080\0"
 14081      56415249 
 14081      41424C45 
 14081      5F454E48 
 14081      414E4345 
 14082 dc50 01       		.byte	0x1
 14083 dc51 ED01     		.uleb128 0xed
 14084 dc53 4546495F 		.ascii "EFI_MAXIMUM_VARIABLE_SIZE 1024\0"
 14084      4D415849 
 14084      4D554D5F 
 14084      56415249 
 14084      41424C45 
 14085 dc72 01       		.byte	0x1
 14086 dc73 BD02     		.uleb128 0x13d
 14087 dc75 494D4147 		.ascii "IMAGE_SUBSYSTEM_EFI_APPLICATION 10\0"
 14087      455F5355 
 14087      42535953 
 14087      54454D5F 
 14087      4546495F 
 14088 dc98 01       		.byte	0x1
 14089 dc99 BE02     		.uleb128 0x13e
 14090 dc9b 494D4147 		.ascii "IMAGE_SUBSYSTEM_EFI_BOOT_SERVICE_DRIVER 11\0"
 14090      455F5355 
 14090      42535953 
 14090      54454D5F 
 14090      4546495F 
 14091 dcc6 01       		.byte	0x1
 14092 dcc7 BF02     		.uleb128 0x13f
 14093 dcc9 494D4147 		.ascii "IMAGE_SUBSYSTEM_EFI_RUNTIME_DRIVER 12\0"
 14093      455F5355 
 14093      42535953 
 14093      54454D5F 
 14093      4546495F 
 14094 dcef 01       		.byte	0x1
 14095 dcf0 C502     		.uleb128 0x145
 14096 dcf2 4546495F 		.ascii "EFI_IMAGE_MACHINE_IA32 0x014c\0"
 14096      494D4147 
 14096      455F4D41 
 14096      4348494E 
 14096      455F4941 
 14097 dd10 01       		.byte	0x1
 14098 dd11 C902     		.uleb128 0x149
 14099 dd13 4546495F 		.ascii "EFI_IMAGE_MACHINE_IA64 0x0200\0"
 14099      494D4147 
 14099      455F4D41 
 14099      4348494E 
 14099      455F4941 
 14100 dd31 01       		.byte	0x1
 14101 dd32 CD02     		.uleb128 0x14d
 14102 dd34 4546495F 		.ascii "EFI_IMAGE_MACHINE_EBC 0x0EBC\0"
 14102      494D4147 
 14102      455F4D41 
 14102      4348494E 
 14102      455F4542 
 14103 dd51 01       		.byte	0x1
 14104 dd52 D102     		.uleb128 0x151
 14105 dd54 4546495F 		.ascii "EFI_IMAGE_MACHINE_X64 0x8664\0"
 14105      494D4147 
 14105      455F4D41 
 14105      4348494E 
 14105      455F5836 
 14106 dd71 01       		.byte	0x1
 14107 dd72 D502     		.uleb128 0x155
 14108 dd74 4546495F 		.ascii "EFI_IMAGE_MACHINE_ARMTHUMB_MIXED 0x01C2\0"
 14108      494D4147 
 14108      455F4D41 
 14108      4348494E 
 14108      455F4152 
 14109 dd9c 01       		.byte	0x1
 14110 dd9d D902     		.uleb128 0x159
 14111 dd9f 4546495F 		.ascii "EFI_IMAGE_MACHINE_AARCH64 0xAA64\0"
 14111      494D4147 
 14111      455F4D41 
 14111      4348494E 
 14111      455F4141 
 14112 ddc0 01       		.byte	0x1
 14113 ddc1 DD02     		.uleb128 0x15d
 14114 ddc3 4546495F 		.ascii "EFI_IMAGE_MACHINE_RISCV32 0x5032\0"
 14114      494D4147 
 14114      455F4D41 
 14114      4348494E 
 14114      455F5249 
 14115 dde4 01       		.byte	0x1
 14116 dde5 E102     		.uleb128 0x161
 14117 dde7 4546495F 		.ascii "EFI_IMAGE_MACHINE_RISCV64 0x5064\0"
 14117      494D4147 
 14117      455F4D41 
 14117      4348494E 
 14117      455F5249 
 14118 de08 01       		.byte	0x1
 14119 de09 E502     		.uleb128 0x165
 14120 de0b 4546495F 		.ascii "EFI_IMAGE_MACHINE_RISCV128 0x5128\0"
 14120      494D4147 
 14120      455F4D41 
 14120      4348494E 
 14120      455F5249 
 14121 de2d 01       		.byte	0x1
 14122 de2e E902     		.uleb128 0x169
 14123 de30 4546495F 		.ascii "EFI_IMAGE_MACHINE_LOONGARCH32 0x6232\0"
 14123      494D4147 
 14123      455F4D41 
 14123      4348494E 
 14123      455F4C4F 
 14124 de55 01       		.byte	0x1
 14125 de56 ED02     		.uleb128 0x16d
 14126 de58 4546495F 		.ascii "EFI_IMAGE_MACHINE_LOONGARCH64 0x6264\0"
 14126      494D4147 
 14126      455F4D41 
 14126      4348494E 
 14126      455F4C4F 
 14127 de7d 01       		.byte	0x1
 14128 de7e E103     		.uleb128 0x1e1
 14129 de80 4546495F 		.ascii "EFI_OPEN_PROTOCOL_BY_HANDLE_PROTOCOL 0x00000001\0"
 14129      4F50454E 
 14129      5F50524F 
 14129      544F434F 
 14129      4C5F4259 
 14130 deb0 01       		.byte	0x1
 14131 deb1 E203     		.uleb128 0x1e2
 14132 deb3 4546495F 		.ascii "EFI_OPEN_PROTOCOL_GET_PROTOCOL 0x00000002\0"
 14132      4F50454E 
 14132      5F50524F 
 14132      544F434F 
 14132      4C5F4745 
 14133 dedd 01       		.byte	0x1
 14134 dede E303     		.uleb128 0x1e3
 14135 dee0 4546495F 		.ascii "EFI_OPEN_PROTOCOL_TEST_PROTOCOL 0x00000004\0"
 14135      4F50454E 
 14135      5F50524F 
 14135      544F434F 
 14135      4C5F5445 
 14136 df0b 01       		.byte	0x1
 14137 df0c E403     		.uleb128 0x1e4
 14138 df0e 4546495F 		.ascii "EFI_OPEN_PROTOCOL_BY_CHILD_CONTROLLER 0x00000008\0"
 14138      4F50454E 
 14138      5F50524F 
 14138      544F434F 
 14138      4C5F4259 
 14139 df3f 01       		.byte	0x1
 14140 df40 E503     		.uleb128 0x1e5
 14141 df42 4546495F 		.ascii "EFI_OPEN_PROTOCOL_BY_DRIVER 0x00000010\0"
 14141      4F50454E 
 14141      5F50524F 
 14141      544F434F 
 14141      4C5F4259 
 14142 df69 01       		.byte	0x1
 14143 df6a E603     		.uleb128 0x1e6
 14144 df6c 4546495F 		.ascii "EFI_OPEN_PROTOCOL_EXCLUSIVE 0x00000020\0"
 14144      4F50454E 
 14144      5F50524F 
 14144      544F434F 
 14144      4C5F4558 
 14145 df93 01       		.byte	0x1
 14146 df94 8805     		.uleb128 0x288
 14147 df96 43415053 		.ascii "CAPSULE_FLAGS_PERSIST_ACROSS_RESET 0x00010000\0"
 14147      554C455F 
 14147      464C4147 
 14147      535F5045 
 14147      52534953 
 14148 dfc4 01       		.byte	0x1
 14149 dfc5 8905     		.uleb128 0x289
 14150 dfc7 43415053 		.ascii "CAPSULE_FLAGS_POPULATE_SYSTEM_TABLE 0x00020000\0"
 14150      554C455F 
 14150      464C4147 
 14150      535F504F 
 14150      50554C41 
 14151 dff6 01       		.byte	0x1
 14152 dff7 8A05     		.uleb128 0x28a
 14153 dff9 43415053 		.ascii "CAPSULE_FLAGS_INITIATE_RESET 0x00040000\0"
 14153      554C455F 
 14153      464C4147 
 14153      535F494E 
 14153      49544941 
 14154 e021 01       		.byte	0x1
 14155 e022 8806     		.uleb128 0x308
 14156 e024 4546495F 		.ascii "EFI_RUNTIME_SERVICES_SIGNATURE 0x56524553544e5552\0"
 14156      52554E54 
 14156      494D455F 
 14156      53455256 
 14156      49434553 
 14157 e056 01       		.byte	0x1
 14158 e057 8906     		.uleb128 0x309
 14159 e059 4546495F 		.ascii "EFI_1_02_RUNTIME_SERVICES_REVISION EFI_SPECIFICATION_REVISION_MAJORMINOR(1, 02)\0"
 14159      315F3032 
 14159      5F52554E 
 14159      54494D45 
 14159      5F534552 
 14160 e0a9 01       		.byte	0x1
 14161 e0aa 8A06     		.uleb128 0x30a
 14162 e0ac 4546495F 		.ascii "EFI_1_10_RUNTIME_SERVICES_REVISION EFI_SPECIFICATION_REVISION_MAJORMINOR(1, 10)\0"
 14162      315F3130 
 14162      5F52554E 
 14162      54494D45 
 14162      5F534552 
 14163 e0fc 01       		.byte	0x1
 14164 e0fd 8B06     		.uleb128 0x30b
 14165 e0ff 4546495F 		.ascii "EFI_2_00_RUNTIME_SERVICES_REVISION EFI_SPECIFICATION_REVISION_MAJORMINOR(2, 00)\0"
 14165      325F3030 
 14165      5F52554E 
 14165      54494D45 
 14165      5F534552 
 14166 e14f 01       		.byte	0x1
 14167 e150 8C06     		.uleb128 0x30c
 14168 e152 4546495F 		.ascii "EFI_2_10_RUNTIME_SERVICES_REVISION EFI_SPECIFICATION_REVISION_MAJORMINOR(2, 10)\0"
 14168      325F3130 
 14168      5F52554E 
 14168      54494D45 
 14168      5F534552 
 14169 e1a2 01       		.byte	0x1
 14170 e1a3 8D06     		.uleb128 0x30d
 14171 e1a5 4546495F 		.ascii "EFI_2_20_RUNTIME_SERVICES_REVISION EFI_SPECIFICATION_REVISION_MAJORMINOR(2, 20)\0"
 14171      325F3230 
 14171      5F52554E 
 14171      54494D45 
 14171      5F534552 
 14172 e1f5 01       		.byte	0x1
 14173 e1f6 8E06     		.uleb128 0x30e
 14174 e1f8 4546495F 		.ascii "EFI_2_30_RUNTIME_SERVICES_REVISION EFI_SPECIFICATION_REVISION_MAJORMINOR(2, 30)\0"
 14174      325F3330 
 14174      5F52554E 
 14174      54494D45 
 14174      5F534552 
 14175 e248 01       		.byte	0x1
 14176 e249 8F06     		.uleb128 0x30f
 14177 e24b 4546495F 		.ascii "EFI_2_31_RUNTIME_SERVICES_REVISION EFI_SPECIFICATION_REVISION_MAJORMINOR(2, 31)\0"
 14177      325F3331 
 14177      5F52554E 
 14177      54494D45 
 14177      5F534552 
 14178 e29b 01       		.byte	0x1
 14179 e29c 9006     		.uleb128 0x310
 14180 e29e 4546495F 		.ascii "EFI_2_40_RUNTIME_SERVICES_REVISION EFI_SPECIFICATION_REVISION_MAJORMINOR(2, 40)\0"
 14180      325F3430 
 14180      5F52554E 
 14180      54494D45 
 14180      5F534552 
 14181 e2ee 01       		.byte	0x1
 14182 e2ef 9106     		.uleb128 0x311
 14183 e2f1 4546495F 		.ascii "EFI_2_50_RUNTIME_SERVICES_REVISION EFI_SPECIFICATION_REVISION_MAJORMINOR(2, 50)\0"
 14183      325F3530 
 14183      5F52554E 
 14183      54494D45 
 14183      5F534552 
 14184 e341 01       		.byte	0x1
 14185 e342 9206     		.uleb128 0x312
 14186 e344 4546495F 		.ascii "EFI_2_60_RUNTIME_SERVICES_REVISION EFI_SPECIFICATION_REVISION_MAJORMINOR(2, 60)\0"
 14186      325F3630 
 14186      5F52554E 
 14186      54494D45 
 14186      5F534552 
 14187 e394 01       		.byte	0x1
 14188 e395 9306     		.uleb128 0x313
 14189 e397 4546495F 		.ascii "EFI_2_70_RUNTIME_SERVICES_REVISION EFI_SPECIFICATION_REVISION_MAJORMINOR(2, 70)\0"
 14189      325F3730 
 14189      5F52554E 
 14189      54494D45 
 14189      5F534552 
 14190 e3e7 01       		.byte	0x1
 14191 e3e8 9406     		.uleb128 0x314
 14192 e3ea 4546495F 		.ascii "EFI_2_80_RUNTIME_SERVICES_REVISION EFI_SPECIFICATION_REVISION_MAJORMINOR(2, 80)\0"
 14192      325F3830 
 14192      5F52554E 
 14192      54494D45 
 14192      5F534552 
 14193 e43a 01       		.byte	0x1
 14194 e43b 9506     		.uleb128 0x315
 14195 e43d 4546495F 		.ascii "EFI_2_90_RUNTIME_SERVICES_REVISION EFI_SPECIFICATION_REVISION_MAJORMINOR(2, 90)\0"
 14195      325F3930 
 14195      5F52554E 
 14195      54494D45 
 14195      5F534552 
 14196 e48d 01       		.byte	0x1
 14197 e48e 9606     		.uleb128 0x316
 14198 e490 4546495F 		.ascii "EFI_2_100_RUNTIME_SERVICES_REVISION EFI_SPECIFICATION_REVISION_MAJORMINOR(2, 100)\0"
 14198      325F3130 
 14198      305F5255 
 14198      4E54494D 
 14198      455F5345 
 14199 e4e2 01       		.byte	0x1
 14200 e4e3 9706     		.uleb128 0x317
 14201 e4e5 4546495F 		.ascii "EFI_RUNTIME_SERVICES_REVISION EFI_SPECIFICATION_VERSION\0"
 14201      52554E54 
 14201      494D455F 
 14201      53455256 
 14201      49434553 
 14202 e51d 01       		.byte	0x1
 14203 e51e C506     		.uleb128 0x345
 14204 e520 4546495F 		.ascii "EFI_BOOT_SERVICES_SIGNATURE 0x56524553544f4f42\0"
 14204      424F4F54 
 14204      5F534552 
 14204      56494345 
 14204      535F5349 
 14205 e54f 01       		.byte	0x1
 14206 e550 C606     		.uleb128 0x346
 14207 e552 4546495F 		.ascii "EFI_1_02_BOOT_SERVICES_REVISION EFI_SPECIFICATION_REVISION_MAJORMINOR(1, 02)\0"
 14207      315F3032 
 14207      5F424F4F 
 14207      545F5345 
 14207      52564943 
 14208 e59f 01       		.byte	0x1
 14209 e5a0 C706     		.uleb128 0x347
 14210 e5a2 4546495F 		.ascii "EFI_1_10_BOOT_SERVICES_REVISION EFI_SPECIFICATION_REVISION_MAJORMINOR(1, 10)\0"
 14210      315F3130 
 14210      5F424F4F 
 14210      545F5345 
 14210      52564943 
 14211 e5ef 01       		.byte	0x1
 14212 e5f0 C806     		.uleb128 0x348
 14213 e5f2 4546495F 		.ascii "EFI_2_00_BOOT_SERVICES_REVISION EFI_SPECIFICATION_REVISION_MAJORMINOR(2, 00)\0"
 14213      325F3030 
 14213      5F424F4F 
 14213      545F5345 
 14213      52564943 
 14214 e63f 01       		.byte	0x1
 14215 e640 C906     		.uleb128 0x349
 14216 e642 4546495F 		.ascii "EFI_2_10_BOOT_SERVICES_REVISION EFI_SPECIFICATION_REVISION_MAJORMINOR(2, 10)\0"
 14216      325F3130 
 14216      5F424F4F 
 14216      545F5345 
 14216      52564943 
 14217 e68f 01       		.byte	0x1
 14218 e690 CA06     		.uleb128 0x34a
 14219 e692 4546495F 		.ascii "EFI_2_20_BOOT_SERVICES_REVISION EFI_SPECIFICATION_REVISION_MAJORMINOR(2, 20)\0"
 14219      325F3230 
 14219      5F424F4F 
 14219      545F5345 
 14219      52564943 
 14220 e6df 01       		.byte	0x1
 14221 e6e0 CB06     		.uleb128 0x34b
 14222 e6e2 4546495F 		.ascii "EFI_2_30_BOOT_SERVICES_REVISION EFI_SPECIFICATION_REVISION_MAJORMINOR(2, 30)\0"
 14222      325F3330 
 14222      5F424F4F 
 14222      545F5345 
 14222      52564943 
 14223 e72f 01       		.byte	0x1
 14224 e730 CC06     		.uleb128 0x34c
 14225 e732 4546495F 		.ascii "EFI_2_31_BOOT_SERVICES_REVISION EFI_SPECIFICATION_REVISION_MAJORMINOR(2, 31)\0"
 14225      325F3331 
 14225      5F424F4F 
 14225      545F5345 
 14225      52564943 
 14226 e77f 01       		.byte	0x1
 14227 e780 CD06     		.uleb128 0x34d
 14228 e782 4546495F 		.ascii "EFI_2_40_BOOT_SERVICES_REVISION EFI_SPECIFICATION_REVISION_MAJORMINOR(2, 40)\0"
 14228      325F3430 
 14228      5F424F4F 
 14228      545F5345 
 14228      52564943 
 14229 e7cf 01       		.byte	0x1
 14230 e7d0 CE06     		.uleb128 0x34e
 14231 e7d2 4546495F 		.ascii "EFI_2_50_BOOT_SERVICES_REVISION EFI_SPECIFICATION_REVISION_MAJORMINOR(2, 50)\0"
 14231      325F3530 
 14231      5F424F4F 
 14231      545F5345 
 14231      52564943 
 14232 e81f 01       		.byte	0x1
 14233 e820 CF06     		.uleb128 0x34f
 14234 e822 4546495F 		.ascii "EFI_2_60_BOOT_SERVICES_REVISION EFI_SPECIFICATION_REVISION_MAJORMINOR(2, 60)\0"
 14234      325F3630 
 14234      5F424F4F 
 14234      545F5345 
 14234      52564943 
 14235 e86f 01       		.byte	0x1
 14236 e870 D006     		.uleb128 0x350
 14237 e872 4546495F 		.ascii "EFI_2_70_BOOT_SERVICES_REVISION EFI_SPECIFICATION_REVISION_MAJORMINOR(2, 70)\0"
 14237      325F3730 
 14237      5F424F4F 
 14237      545F5345 
 14237      52564943 
 14238 e8bf 01       		.byte	0x1
 14239 e8c0 D106     		.uleb128 0x351
 14240 e8c2 4546495F 		.ascii "EFI_2_80_BOOT_SERVICES_REVISION EFI_SPECIFICATION_REVISION_MAJORMINOR(2, 80)\0"
 14240      325F3830 
 14240      5F424F4F 
 14240      545F5345 
 14240      52564943 
 14241 e90f 01       		.byte	0x1
 14242 e910 D206     		.uleb128 0x352
 14243 e912 4546495F 		.ascii "EFI_2_90_BOOT_SERVICES_REVISION EFI_SPECIFICATION_REVISION_MAJORMINOR(2, 90)\0"
 14243      325F3930 
 14243      5F424F4F 
 14243      545F5345 
 14243      52564943 
 14244 e95f 01       		.byte	0x1
 14245 e960 D306     		.uleb128 0x353
 14246 e962 4546495F 		.ascii "EFI_2_100_BOOT_SERVICES_REVISION EFI_SPECIFICATION_REVISION_MAJORMINOR(2, 100)\0"
 14246      325F3130 
 14246      305F424F 
 14246      4F545F53 
 14246      45525649 
 14247 e9b1 01       		.byte	0x1
 14248 e9b2 D406     		.uleb128 0x354
 14249 e9b4 4546495F 		.ascii "EFI_BOOT_SERVICES_REVISION EFI_SPECIFICATION_VERSION\0"
 14249      424F4F54 
 14249      5F534552 
 14249      56494345 
 14249      535F5245 
 14250 e9e9 01       		.byte	0x1
 14251 e9ea BF07     		.uleb128 0x3bf
 14252 e9ec 4D50535F 		.ascii "MPS_TABLE_GUID { 0xeb9d2d2f, 0x2d88, 0x11d3, {0x9a, 0x16, 0x0, 0x90, 0x27, 0x3f, 0xc1, 0x4
 14252      5441424C 
 14252      455F4755 
 14252      4944207B 
 14252      20307865 
 14253 ea4b 01       		.byte	0x1
 14254 ea4c C207     		.uleb128 0x3c2
 14255 ea4e 41435049 		.ascii "ACPI_TABLE_GUID { 0xeb9d2d30, 0x2d88, 0x11d3, {0x9a, 0x16, 0x0, 0x90, 0x27, 0x3f, 0xc1, 0x
 14255      5F544142 
 14255      4C455F47 
 14255      55494420 
 14255      7B203078 
 14256 eaae 01       		.byte	0x1
 14257 eaaf C507     		.uleb128 0x3c5
 14258 eab1 41435049 		.ascii "ACPI_20_TABLE_GUID { 0x8868e871, 0xe4f1, 0x11d3, {0xbc, 0x22, 0x0, 0x80, 0xc7, 0x3c, 0x88,
 14258      5F32305F 
 14258      5441424C 
 14258      455F4755 
 14258      4944207B 
 14259 eb14 01       		.byte	0x1
 14260 eb15 C807     		.uleb128 0x3c8
 14261 eb17 534D4249 		.ascii "SMBIOS_TABLE_GUID { 0xeb9d2d31, 0x2d88, 0x11d3, {0x9a, 0x16, 0x0, 0x90, 0x27, 0x3f, 0xc1, 
 14261      4F535F54 
 14261      41424C45 
 14261      5F475549 
 14261      44207B20 
 14262 eb79 01       		.byte	0x1
 14263 eb7a CB07     		.uleb128 0x3cb
 14264 eb7c 534D4249 		.ascii "SMBIOS3_TABLE_GUID { 0xf2fd1544, 0x9794, 0x4a2c, {0x99, 0x2e, 0xe5, 0xbb, 0xcf, 0x20, 0xe3
 14264      4F53335F 
 14264      5441424C 
 14264      455F4755 
 14264      4944207B 
 14265 ebe0 01       		.byte	0x1
 14266 ebe1 CE07     		.uleb128 0x3ce
 14267 ebe3 53414C5F 		.ascii "SAL_SYSTEM_TABLE_GUID { 0xeb9d2d32, 0x2d88, 0x11d3, {0x9a, 0x16, 0x0, 0x90, 0x27, 0x3f, 0x
 14267      53595354 
 14267      454D5F54 
 14267      41424C45 
 14267      5F475549 
 14268 ec49 01       		.byte	0x1
 14269 ec4a D107     		.uleb128 0x3d1
 14270 ec4c 4546495F 		.ascii "EFI_DTB_TABLE_GUID { 0xb1b621d5, 0xf19c, 0x41a5, {0x83, 0x0b, 0xd9, 0x15, 0x2c, 0x69, 0xaa
 14270      4454425F 
 14270      5441424C 
 14270      455F4755 
 14270      4944207B 
 14271 ecb0 01       		.byte	0x1
 14272 ecb1 E107     		.uleb128 0x3e1
 14273 ecb3 4546495F 		.ascii "EFI_SYSTEM_TABLE_SIGNATURE 0x5453595320494249\0"
 14273      53595354 
 14273      454D5F54 
 14273      41424C45 
 14273      5F534947 
 14274 ece1 01       		.byte	0x1
 14275 ece2 E207     		.uleb128 0x3e2
 14276 ece4 4546495F 		.ascii "EFI_1_02_SYSTEM_TABLE_REVISION EFI_SPECIFICATION_REVISION_MAJORMINOR(1, 02)\0"
 14276      315F3032 
 14276      5F535953 
 14276      54454D5F 
 14276      5441424C 
 14277 ed30 01       		.byte	0x1
 14278 ed31 E307     		.uleb128 0x3e3
 14279 ed33 4546495F 		.ascii "EFI_1_10_SYSTEM_TABLE_REVISION EFI_SPECIFICATION_REVISION_MAJORMINOR(1, 10)\0"
 14279      315F3130 
 14279      5F535953 
 14279      54454D5F 
 14279      5441424C 
 14280 ed7f 01       		.byte	0x1
 14281 ed80 E407     		.uleb128 0x3e4
 14282 ed82 4546495F 		.ascii "EFI_2_00_SYSTEM_TABLE_REVISION EFI_SPECIFICATION_REVISION_MAJORMINOR(2, 00)\0"
 14282      325F3030 
 14282      5F535953 
 14282      54454D5F 
 14282      5441424C 
 14283 edce 01       		.byte	0x1
 14284 edcf E507     		.uleb128 0x3e5
 14285 edd1 4546495F 		.ascii "EFI_2_10_SYSTEM_TABLE_REVISION EFI_SPECIFICATION_REVISION_MAJORMINOR(2, 10)\0"
 14285      325F3130 
 14285      5F535953 
 14285      54454D5F 
 14285      5441424C 
 14286 ee1d 01       		.byte	0x1
 14287 ee1e E607     		.uleb128 0x3e6
 14288 ee20 4546495F 		.ascii "EFI_2_20_SYSTEM_TABLE_REVISION EFI_SPECIFICATION_REVISION_MAJORMINOR(2, 20)\0"
 14288      325F3230 
 14288      5F535953 
 14288      54454D5F 
 14288      5441424C 
 14289 ee6c 01       		.byte	0x1
 14290 ee6d E707     		.uleb128 0x3e7
 14291 ee6f 4546495F 		.ascii "EFI_2_30_SYSTEM_TABLE_REVISION EFI_SPECIFICATION_REVISION_MAJORMINOR(2, 30)\0"
 14291      325F3330 
 14291      5F535953 
 14291      54454D5F 
 14291      5441424C 
 14292 eebb 01       		.byte	0x1
 14293 eebc E807     		.uleb128 0x3e8
 14294 eebe 4546495F 		.ascii "EFI_2_31_SYSTEM_TABLE_REVISION EFI_SPECIFICATION_REVISION_MAJORMINOR(2, 31)\0"
 14294      325F3331 
 14294      5F535953 
 14294      54454D5F 
 14294      5441424C 
 14295 ef0a 01       		.byte	0x1
 14296 ef0b E907     		.uleb128 0x3e9
 14297 ef0d 4546495F 		.ascii "EFI_2_40_SYSTEM_TABLE_REVISION EFI_SPECIFICATION_REVISION_MAJORMINOR(2, 40)\0"
 14297      325F3430 
 14297      5F535953 
 14297      54454D5F 
 14297      5441424C 
 14298 ef59 01       		.byte	0x1
 14299 ef5a EA07     		.uleb128 0x3ea
 14300 ef5c 4546495F 		.ascii "EFI_2_50_SYSTEM_TABLE_REVISION EFI_SPECIFICATION_REVISION_MAJORMINOR(2, 50)\0"
 14300      325F3530 
 14300      5F535953 
 14300      54454D5F 
 14300      5441424C 
 14301 efa8 01       		.byte	0x1
 14302 efa9 EB07     		.uleb128 0x3eb
 14303 efab 4546495F 		.ascii "EFI_2_60_SYSTEM_TABLE_REVISION EFI_SPECIFICATION_REVISION_MAJORMINOR(2, 60)\0"
 14303      325F3630 
 14303      5F535953 
 14303      54454D5F 
 14303      5441424C 
 14304 eff7 01       		.byte	0x1
 14305 eff8 EC07     		.uleb128 0x3ec
 14306 effa 4546495F 		.ascii "EFI_2_70_SYSTEM_TABLE_REVISION EFI_SPECIFICATION_REVISION_MAJORMINOR(2, 70)\0"
 14306      325F3730 
 14306      5F535953 
 14306      54454D5F 
 14306      5441424C 
 14307 f046 01       		.byte	0x1
 14308 f047 ED07     		.uleb128 0x3ed
 14309 f049 4546495F 		.ascii "EFI_2_80_SYSTEM_TABLE_REVISION EFI_SPECIFICATION_REVISION_MAJORMINOR(2, 80)\0"
 14309      325F3830 
 14309      5F535953 
 14309      54454D5F 
 14309      5441424C 
 14310 f095 01       		.byte	0x1
 14311 f096 EE07     		.uleb128 0x3ee
 14312 f098 4546495F 		.ascii "EFI_2_90_SYSTEM_TABLE_REVISION EFI_SPECIFICATION_REVISION_MAJORMINOR(2, 90)\0"
 14312      325F3930 
 14312      5F535953 
 14312      54454D5F 
 14312      5441424C 
 14313 f0e4 01       		.byte	0x1
 14314 f0e5 EF07     		.uleb128 0x3ef
 14315 f0e7 4546495F 		.ascii "EFI_2_100_SYSTEM_TABLE_REVISION EFI_SPECIFICATION_REVISION_MAJORMINOR(2, 100)\0"
 14315      325F3130 
 14315      305F5359 
 14315      5354454D 
 14315      5F544142 
 14316 f135 01       		.byte	0x1
 14317 f136 F007     		.uleb128 0x3f0
 14318 f138 4546495F 		.ascii "EFI_SYSTEM_TABLE_REVISION EFI_SPECIFICATION_VERSION\0"
 14318      53595354 
 14318      454D5F54 
 14318      41424C45 
 14318      5F524556 
 14319 f16c 04       		.byte	0x4
 14320              		.file 32 "gnu-efi-3.0.18/inc/efifs.h"
 14321 f16d 03       		.byte	0x3
 14322 f16e 4D       		.uleb128 0x4d
 14323 f16f 20       		.uleb128 0x20
 14324 f170 01       		.byte	0x1
 14325 f171 02       		.uleb128 0x2
 14326 f172 5F454649 		.ascii "_EFI_FS_H \0"
 14326      5F46535F 
 14326      482000
 14327 f17d 01       		.byte	0x1
 14328 f17e 1B       		.uleb128 0x1b
 14329 f17f 4546495F 		.ascii "EFI_PARTITION_SIGNATURE 0x5053595320494249\0"
 14329      50415254 
 14329      4954494F 
 14329      4E5F5349 
 14329      474E4154 
 14330 f1aa 01       		.byte	0x1
 14331 f1ab 1C       		.uleb128 0x1c
 14332 f1ac 4546495F 		.ascii "EFI_PARTITION_REVISION 0x00010001\0"
 14332      50415254 
 14332      4954494F 
 14332      4E5F5245 
 14332      56495349 
 14333 f1ce 01       		.byte	0x1
 14334 f1cf 1D       		.uleb128 0x1d
 14335 f1d0 4D494E5F 		.ascii "MIN_EFI_PARTITION_BLOCK_SIZE 512\0"
 14335      4546495F 
 14335      50415254 
 14335      4954494F 
 14335      4E5F424C 
 14336 f1f1 01       		.byte	0x1
 14337 f1f2 1E       		.uleb128 0x1e
 14338 f1f3 4546495F 		.ascii "EFI_PARTITION_LBA 1\0"
 14338      50415254 
 14338      4954494F 
 14338      4E5F4C42 
 14338      41203100 
 14339 f207 01       		.byte	0x1
 14340 f208 31       		.uleb128 0x31
 14341 f209 4546495F 		.ascii "EFI_FILE_HEADER_SIGNATURE 0x454c494620494249\0"
 14341      46494C45 
 14341      5F484541 
 14341      4445525F 
 14341      5349474E 
 14342 f236 01       		.byte	0x1
 14343 f237 32       		.uleb128 0x32
 14344 f238 4546495F 		.ascii "EFI_FILE_HEADER_REVISION 0x00010000\0"
 14344      46494C45 
 14344      5F484541 
 14344      4445525F 
 14344      52455649 
 14345 f25c 01       		.byte	0x1
 14346 f25d 33       		.uleb128 0x33
 14347 f25e 4546495F 		.ascii "EFI_FILE_STRING_SIZE 260\0"
 14347      46494C45 
 14347      5F535452 
 14347      494E475F 
 14347      53495A45 
 14348 f277 01       		.byte	0x1
 14349 f278 48       		.uleb128 0x48
 14350 f279 4546495F 		.ascii "EFI_FILE_LBAL(a) ((EFI_LBAL *) (((CHAR8 *) (a)) + (a)->LBALOffset))\0"
 14350      46494C45 
 14350      5F4C4241 
 14350      4C286129 
 14350      20282845 
 14351 f2bd 01       		.byte	0x1
 14352 f2be 4A       		.uleb128 0x4a
 14353 f2bf 4546495F 		.ascii "EFI_FILE_CLASS_FREE_SPACE 1\0"
 14353      46494C45 
 14353      5F434C41 
 14353      53535F46 
 14353      5245455F 
 14354 f2db 01       		.byte	0x1
 14355 f2dc 4B       		.uleb128 0x4b
 14356 f2dd 4546495F 		.ascii "EFI_FILE_CLASS_EMPTY 2\0"
 14356      46494C45 
 14356      5F434C41 
 14356      53535F45 
 14356      4D505459 
 14357 f2f4 01       		.byte	0x1
 14358 f2f5 4C       		.uleb128 0x4c
 14359 f2f6 4546495F 		.ascii "EFI_FILE_CLASS_NORMAL 3\0"
 14359      46494C45 
 14359      5F434C41 
 14359      53535F4E 
 14359      4F524D41 
 14360 f30e 01       		.byte	0x1
 14361 f30f 54       		.uleb128 0x54
 14362 f310 4546495F 		.ascii "EFI_LBAL_SIGNATURE 0x4c41424c20494249\0"
 14362      4C42414C 
 14362      5F534947 
 14362      4E415455 
 14362      52452030 
 14363 f336 01       		.byte	0x1
 14364 f337 55       		.uleb128 0x55
 14365 f338 4546495F 		.ascii "EFI_LBAL_REVISION 0x00010000\0"
 14365      4C42414C 
 14365      5F524556 
 14365      4953494F 
 14365      4E203078 
 14366 f355 01       		.byte	0x1
 14367 f356 61       		.uleb128 0x61
 14368 f357 4546495F 		.ascii "EFI_LBAL_ARRAY_SIZE(lbal,offs,blks) (((blks) - (offs) - (lbal)->Hdr.HeaderSize) / sizeof(E
 14368      4C42414C 
 14368      5F415252 
 14368      41595F53 
 14368      495A4528 
 14369 f3b9 01       		.byte	0x1
 14370 f3ba 71       		.uleb128 0x71
 14371 f3bb 4546495F 		.ascii "EFI_LBAL_RL(a) ((EFI_RL*) (((CHAR8 *) (a)) + (a)->Hdr.HeaderSize))\0"
 14371      4C42414C 
 14371      5F524C28 
 14371      61292028 
 14371      28454649 
 14372 f3fe 04       		.byte	0x4
 14373              		.file 33 "gnu-efi-3.0.18/inc/efierr.h"
 14374 f3ff 03       		.byte	0x3
 14375 f400 4E       		.uleb128 0x4e
 14376 f401 21       		.uleb128 0x21
 14377 f402 01       		.byte	0x1
 14378 f403 02       		.uleb128 0x2
 14379 f404 5F454649 		.ascii "_EFI_ERR_H \0"
 14379      5F455252 
 14379      5F482000 
 14380 f410 01       		.byte	0x1
 14381 f411 18       		.uleb128 0x18
 14382 f412 45464957 		.ascii "EFIWARN(a) (a)\0"
 14382      41524E28 
 14382      61292028 
 14382      612900
 14383 f421 01       		.byte	0x1
 14384 f422 19       		.uleb128 0x19
 14385 f423 4546495F 		.ascii "EFI_ERROR(a) (((INTN) a) < 0)\0"
 14385      4552524F 
 14385      52286129 
 14385      20282828 
 14385      494E544E 
 14386 f441 01       		.byte	0x1
 14387 f442 1C       		.uleb128 0x1c
 14388 f443 4546495F 		.ascii "EFI_SUCCESS 0\0"
 14388      53554343 
 14388      45535320 
 14388      3000
 14389 f451 01       		.byte	0x1
 14390 f452 1D       		.uleb128 0x1d
 14391 f453 4546495F 		.ascii "EFI_LOAD_ERROR EFIERR(1)\0"
 14391      4C4F4144 
 14391      5F455252 
 14391      4F522045 
 14391      46494552 
 14392 f46c 01       		.byte	0x1
 14393 f46d 1E       		.uleb128 0x1e
 14394 f46e 4546495F 		.ascii "EFI_INVALID_PARAMETER EFIERR(2)\0"
 14394      494E5641 
 14394      4C49445F 
 14394      50415241 
 14394      4D455445 
 14395 f48e 01       		.byte	0x1
 14396 f48f 1F       		.uleb128 0x1f
 14397 f490 4546495F 		.ascii "EFI_UNSUPPORTED EFIERR(3)\0"
 14397      554E5355 
 14397      50504F52 
 14397      54454420 
 14397      45464945 
 14398 f4aa 01       		.byte	0x1
 14399 f4ab 20       		.uleb128 0x20
 14400 f4ac 4546495F 		.ascii "EFI_BAD_BUFFER_SIZE EFIERR(4)\0"
 14400      4241445F 
 14400      42554646 
 14400      45525F53 
 14400      495A4520 
 14401 f4ca 01       		.byte	0x1
 14402 f4cb 21       		.uleb128 0x21
 14403 f4cc 4546495F 		.ascii "EFI_BUFFER_TOO_SMALL EFIERR(5)\0"
 14403      42554646 
 14403      45525F54 
 14403      4F4F5F53 
 14403      4D414C4C 
 14404 f4eb 01       		.byte	0x1
 14405 f4ec 22       		.uleb128 0x22
 14406 f4ed 4546495F 		.ascii "EFI_NOT_READY EFIERR(6)\0"
 14406      4E4F545F 
 14406      52454144 
 14406      59204546 
 14406      49455252 
 14407 f505 01       		.byte	0x1
 14408 f506 23       		.uleb128 0x23
 14409 f507 4546495F 		.ascii "EFI_DEVICE_ERROR EFIERR(7)\0"
 14409      44455649 
 14409      43455F45 
 14409      52524F52 
 14409      20454649 
 14410 f522 01       		.byte	0x1
 14411 f523 24       		.uleb128 0x24
 14412 f524 4546495F 		.ascii "EFI_WRITE_PROTECTED EFIERR(8)\0"
 14412      57524954 
 14412      455F5052 
 14412      4F544543 
 14412      54454420 
 14413 f542 01       		.byte	0x1
 14414 f543 25       		.uleb128 0x25
 14415 f544 4546495F 		.ascii "EFI_OUT_OF_RESOURCES EFIERR(9)\0"
 14415      4F55545F 
 14415      4F465F52 
 14415      45534F55 
 14415      52434553 
 14416 f563 01       		.byte	0x1
 14417 f564 26       		.uleb128 0x26
 14418 f565 4546495F 		.ascii "EFI_VOLUME_CORRUPTED EFIERR(10)\0"
 14418      564F4C55 
 14418      4D455F43 
 14418      4F525255 
 14418      50544544 
 14419 f585 01       		.byte	0x1
 14420 f586 27       		.uleb128 0x27
 14421 f587 4546495F 		.ascii "EFI_VOLUME_FULL EFIERR(11)\0"
 14421      564F4C55 
 14421      4D455F46 
 14421      554C4C20 
 14421      45464945 
 14422 f5a2 01       		.byte	0x1
 14423 f5a3 28       		.uleb128 0x28
 14424 f5a4 4546495F 		.ascii "EFI_NO_MEDIA EFIERR(12)\0"
 14424      4E4F5F4D 
 14424      45444941 
 14424      20454649 
 14424      45525228 
 14425 f5bc 01       		.byte	0x1
 14426 f5bd 29       		.uleb128 0x29
 14427 f5be 4546495F 		.ascii "EFI_MEDIA_CHANGED EFIERR(13)\0"
 14427      4D454449 
 14427      415F4348 
 14427      414E4745 
 14427      44204546 
 14428 f5db 01       		.byte	0x1
 14429 f5dc 2A       		.uleb128 0x2a
 14430 f5dd 4546495F 		.ascii "EFI_NOT_FOUND EFIERR(14)\0"
 14430      4E4F545F 
 14430      464F554E 
 14430      44204546 
 14430      49455252 
 14431 f5f6 01       		.byte	0x1
 14432 f5f7 2B       		.uleb128 0x2b
 14433 f5f8 4546495F 		.ascii "EFI_ACCESS_DENIED EFIERR(15)\0"
 14433      41434345 
 14433      53535F44 
 14433      454E4945 
 14433      44204546 
 14434 f615 01       		.byte	0x1
 14435 f616 2C       		.uleb128 0x2c
 14436 f617 4546495F 		.ascii "EFI_NO_RESPONSE EFIERR(16)\0"
 14436      4E4F5F52 
 14436      4553504F 
 14436      4E534520 
 14436      45464945 
 14437 f632 01       		.byte	0x1
 14438 f633 2D       		.uleb128 0x2d
 14439 f634 4546495F 		.ascii "EFI_NO_MAPPING EFIERR(17)\0"
 14439      4E4F5F4D 
 14439      41505049 
 14439      4E472045 
 14439      46494552 
 14440 f64e 01       		.byte	0x1
 14441 f64f 2E       		.uleb128 0x2e
 14442 f650 4546495F 		.ascii "EFI_TIMEOUT EFIERR(18)\0"
 14442      54494D45 
 14442      4F555420 
 14442      45464945 
 14442      52522831 
 14443 f667 01       		.byte	0x1
 14444 f668 2F       		.uleb128 0x2f
 14445 f669 4546495F 		.ascii "EFI_NOT_STARTED EFIERR(19)\0"
 14445      4E4F545F 
 14445      53544152 
 14445      54454420 
 14445      45464945 
 14446 f684 01       		.byte	0x1
 14447 f685 30       		.uleb128 0x30
 14448 f686 4546495F 		.ascii "EFI_ALREADY_STARTED EFIERR(20)\0"
 14448      414C5245 
 14448      4144595F 
 14448      53544152 
 14448      54454420 
 14449 f6a5 01       		.byte	0x1
 14450 f6a6 31       		.uleb128 0x31
 14451 f6a7 4546495F 		.ascii "EFI_ABORTED EFIERR(21)\0"
 14451      41424F52 
 14451      54454420 
 14451      45464945 
 14451      52522832 
 14452 f6be 01       		.byte	0x1
 14453 f6bf 32       		.uleb128 0x32
 14454 f6c0 4546495F 		.ascii "EFI_ICMP_ERROR EFIERR(22)\0"
 14454      49434D50 
 14454      5F455252 
 14454      4F522045 
 14454      46494552 
 14455 f6da 01       		.byte	0x1
 14456 f6db 33       		.uleb128 0x33
 14457 f6dc 4546495F 		.ascii "EFI_TFTP_ERROR EFIERR(23)\0"
 14457      54465450 
 14457      5F455252 
 14457      4F522045 
 14457      46494552 
 14458 f6f6 01       		.byte	0x1
 14459 f6f7 34       		.uleb128 0x34
 14460 f6f8 4546495F 		.ascii "EFI_PROTOCOL_ERROR EFIERR(24)\0"
 14460      50524F54 
 14460      4F434F4C 
 14460      5F455252 
 14460      4F522045 
 14461 f716 01       		.byte	0x1
 14462 f717 35       		.uleb128 0x35
 14463 f718 4546495F 		.ascii "EFI_INCOMPATIBLE_VERSION EFIERR(25)\0"
 14463      494E434F 
 14463      4D504154 
 14463      49424C45 
 14463      5F564552 
 14464 f73c 01       		.byte	0x1
 14465 f73d 36       		.uleb128 0x36
 14466 f73e 4546495F 		.ascii "EFI_SECURITY_VIOLATION EFIERR(26)\0"
 14466      53454355 
 14466      52495459 
 14466      5F56494F 
 14466      4C415449 
 14467 f760 01       		.byte	0x1
 14468 f761 37       		.uleb128 0x37
 14469 f762 4546495F 		.ascii "EFI_CRC_ERROR EFIERR(27)\0"
 14469      4352435F 
 14469      4552524F 
 14469      52204546 
 14469      49455252 
 14470 f77b 01       		.byte	0x1
 14471 f77c 38       		.uleb128 0x38
 14472 f77d 4546495F 		.ascii "EFI_END_OF_MEDIA EFIERR(28)\0"
 14472      454E445F 
 14472      4F465F4D 
 14472      45444941 
 14472      20454649 
 14473 f799 01       		.byte	0x1
 14474 f79a 39       		.uleb128 0x39
 14475 f79b 4546495F 		.ascii "EFI_END_OF_FILE EFIERR(31)\0"
 14475      454E445F 
 14475      4F465F46 
 14475      494C4520 
 14475      45464945 
 14476 f7b6 01       		.byte	0x1
 14477 f7b7 3A       		.uleb128 0x3a
 14478 f7b8 4546495F 		.ascii "EFI_INVALID_LANGUAGE EFIERR(32)\0"
 14478      494E5641 
 14478      4C49445F 
 14478      4C414E47 
 14478      55414745 
 14479 f7d8 01       		.byte	0x1
 14480 f7d9 3B       		.uleb128 0x3b
 14481 f7da 4546495F 		.ascii "EFI_COMPROMISED_DATA EFIERR(33)\0"
 14481      434F4D50 
 14481      524F4D49 
 14481      5345445F 
 14481      44415441 
 14482 f7fa 01       		.byte	0x1
 14483 f7fb 3C       		.uleb128 0x3c
 14484 f7fc 4546495F 		.ascii "EFI_IP_ADDRESS_CONFLICT EFIERR(34)\0"
 14484      49505F41 
 14484      44445245 
 14484      53535F43 
 14484      4F4E464C 
 14485 f81f 01       		.byte	0x1
 14486 f820 3D       		.uleb128 0x3d
 14487 f821 4546495F 		.ascii "EFI_HTTP_ERROR EFIERR(35)\0"
 14487      48545450 
 14487      5F455252 
 14487      4F522045 
 14487      46494552 
 14488 f83b 01       		.byte	0x1
 14489 f83c 3F       		.uleb128 0x3f
 14490 f83d 4546495F 		.ascii "EFI_WARN_UNKOWN_GLYPH EFIWARN(1)\0"
 14490      5741524E 
 14490      5F554E4B 
 14490      4F574E5F 
 14490      474C5950 
 14491 f85e 01       		.byte	0x1
 14492 f85f 40       		.uleb128 0x40
 14493 f860 4546495F 		.ascii "EFI_WARN_UNKNOWN_GLYPH EFIWARN(1)\0"
 14493      5741524E 
 14493      5F554E4B 
 14493      4E4F574E 
 14493      5F474C59 
 14494 f882 01       		.byte	0x1
 14495 f883 41       		.uleb128 0x41
 14496 f884 4546495F 		.ascii "EFI_WARN_DELETE_FAILURE EFIWARN(2)\0"
 14496      5741524E 
 14496      5F44454C 
 14496      4554455F 
 14496      4641494C 
 14497 f8a7 01       		.byte	0x1
 14498 f8a8 42       		.uleb128 0x42
 14499 f8a9 4546495F 		.ascii "EFI_WARN_WRITE_FAILURE EFIWARN(3)\0"
 14499      5741524E 
 14499      5F575249 
 14499      54455F46 
 14499      41494C55 
 14500 f8cb 01       		.byte	0x1
 14501 f8cc 43       		.uleb128 0x43
 14502 f8cd 4546495F 		.ascii "EFI_WARN_BUFFER_TOO_SMALL EFIWARN(4)\0"
 14502      5741524E 
 14502      5F425546 
 14502      4645525F 
 14502      544F4F5F 
 14503 f8f2 01       		.byte	0x1
 14504 f8f3 44       		.uleb128 0x44
 14505 f8f4 4546495F 		.ascii "EFI_WARN_STALE_DATA EFIWARN(5)\0"
 14505      5741524E 
 14505      5F535441 
 14505      4C455F44 
 14505      41544120 
 14506 f913 01       		.byte	0x1
 14507 f914 45       		.uleb128 0x45
 14508 f915 4546495F 		.ascii "EFI_WARN_FILE_SYSTEM EFIWARN(6)\0"
 14508      5741524E 
 14508      5F46494C 
 14508      455F5359 
 14508      5354454D 
 14509 f935 01       		.byte	0x1
 14510 f936 46       		.uleb128 0x46
 14511 f937 4546495F 		.ascii "EFI_WARN_RESET_REQUIRED EFIWARN(7)\0"
 14511      5741524E 
 14511      5F524553 
 14511      45545F52 
 14511      45515549 
 14512 f95a 04       		.byte	0x4
 14513 f95b 03       		.byte	0x3
 14514 f95c 4F       		.uleb128 0x4f
 14515 f95d 0A       		.uleb128 0xa
 14516 f95e 01       		.byte	0x1
 14517 f95f 02       		.uleb128 0x2
 14518 f960 5F454649 		.ascii "_EFI_UI_H \0"
 14518      5F55495F 
 14518      482000
 14519 f96b 01       		.byte	0x1
 14520 f96c 1F       		.uleb128 0x1f
 14521 f96d 4546495F 		.ascii "EFI_UI_INTERFACE_PROTOCOL_GUID { 0x32dd7981, 0x2d27, 0x11d4, {0xbc, 0x8b, 0x0, 0x80, 0xc7,
 14521      55495F49 
 14521      4E544552 
 14521      46414345 
 14521      5F50524F 
 14522 f9dc 01       		.byte	0x1
 14523 f9dd 21       		.uleb128 0x21
 14524 f9de 4546495F 		.ascii "EFI_UI_PROTOCOL EFI_UI_INTERFACE_PROTOCOL_GUID\0"
 14524      55495F50 
 14524      524F544F 
 14524      434F4C20 
 14524      4546495F 
 14525 fa0d 01       		.byte	0x1
 14526 fa0e 2F       		.uleb128 0x2f
 14527 fa0f 4546495F 		.ascii "EFI_UI_INTERFACE_PROTOCOL_VERSION 0x00010000\0"
 14527      55495F49 
 14527      4E544552 
 14527      46414345 
 14527      5F50524F 
 14528 fa3c 01       		.byte	0x1
 14529 fa3d 30       		.uleb128 0x30
 14530 fa3e 4546495F 		.ascii "EFI_UI_VERSION EFI_UI_INTERFACE_PROTOCOL_VERSION\0"
 14530      55495F56 
 14530      45525349 
 14530      4F4E2045 
 14530      46495F55 
 14531 fa6f 04       		.byte	0x4
 14532              		.file 34 "gnu-efi-3.0.18/inc/efiip.h"
 14533 fa70 03       		.byte	0x3
 14534 fa71 50       		.uleb128 0x50
 14535 fa72 22       		.uleb128 0x22
 14536 fa73 01       		.byte	0x1
 14537 fa74 02       		.uleb128 0x2
 14538 fa75 5F454649 		.ascii "_EFI_IP_H \0"
 14538      5F49505F 
 14538      482000
 14539 fa80 01       		.byte	0x1
 14540 fa81 09       		.uleb128 0x9
 14541 fa82 4546495F 		.ascii "EFI_IP4_SERVICE_BINDING_PROTOCOL {0xc51711e7,0xb4bf,0x404a,{0xbf,0xb8,0x0a,0x04, 0x8e,0xf1
 14541      4950345F 
 14541      53455256 
 14541      4943455F 
 14541      42494E44 
 14542 fae9 01       		.byte	0x1
 14543 faea 0C       		.uleb128 0xc
 14544 faeb 4546495F 		.ascii "EFI_IP4_PROTOCOL {0x41d94cd2,0x35b6,0x455a,{0x82,0x58,0xd4,0xe5,0x13,0x34,0xaa,0xdd}}\0"
 14544      4950345F 
 14544      50524F54 
 14544      4F434F4C 
 14544      207B3078 
 14545 fb41 01       		.byte	0x1
 14546 fb42 0F       		.uleb128 0xf
 14547 fb43 4546495F 		.ascii "EFI_IP6_SERVICE_BINDING_PROTOCOL {0xec835dd3,0xfe0f,0x617b,{0xa6,0x21,0xb3,0x50,0xc3,0xe1,
 14547      4950365F 
 14547      53455256 
 14547      4943455F 
 14547      42494E44 
 14548 fba9 01       		.byte	0x1
 14549 fbaa 12       		.uleb128 0x12
 14550 fbab 4546495F 		.ascii "EFI_IP6_PROTOCOL {0x2c8759d5,0x5c2d,0x66ef,{0x92,0x5f,0xb6,0x6c,0x10,0x19,0x57,0xe2}}\0"
 14550      4950365F 
 14550      50524F54 
 14550      4F434F4C 
 14550      207B3078 
 14551 fc01 01       		.byte	0x1
 14552 fc02 8102     		.uleb128 0x101
 14553 fc04 49434D50 		.ascii "ICMP_V6_DEST_UNREACHABLE 0x1\0"
 14553      5F56365F 
 14553      44455354 
 14553      5F554E52 
 14553      45414348 
 14554 fc21 01       		.byte	0x1
 14555 fc22 8202     		.uleb128 0x102
 14556 fc24 49434D50 		.ascii "ICMP_V6_PACKET_TOO_BIG 0x2\0"
 14556      5F56365F 
 14556      5041434B 
 14556      45545F54 
 14556      4F4F5F42 
 14557 fc3f 01       		.byte	0x1
 14558 fc40 8302     		.uleb128 0x103
 14559 fc42 49434D50 		.ascii "ICMP_V6_TIME_EXCEEDED 0x3\0"
 14559      5F56365F 
 14559      54494D45 
 14559      5F455843 
 14559      45454445 
 14560 fc5c 01       		.byte	0x1
 14561 fc5d 8402     		.uleb128 0x104
 14562 fc5f 49434D50 		.ascii "ICMP_V6_PARAMETER_PROBLEM 0x4\0"
 14562      5F56365F 
 14562      50415241 
 14562      4D455445 
 14562      525F5052 
 14563 fc7d 01       		.byte	0x1
 14564 fc7e 8902     		.uleb128 0x109
 14565 fc80 49434D50 		.ascii "ICMP_V6_ECHO_REQUEST 0x80\0"
 14565      5F56365F 
 14565      4543484F 
 14565      5F524551 
 14565      55455354 
 14566 fc9a 01       		.byte	0x1
 14567 fc9b 8A02     		.uleb128 0x10a
 14568 fc9d 49434D50 		.ascii "ICMP_V6_ECHO_REPLY 0x81\0"
 14568      5F56365F 
 14568      4543484F 
 14568      5F524550 
 14568      4C592030 
 14569 fcb5 01       		.byte	0x1
 14570 fcb6 8B02     		.uleb128 0x10b
 14571 fcb8 49434D50 		.ascii "ICMP_V6_LISTENER_QUERY 0x82\0"
 14571      5F56365F 
 14571      4C495354 
 14571      454E4552 
 14571      5F515545 
 14572 fcd4 01       		.byte	0x1
 14573 fcd5 8C02     		.uleb128 0x10c
 14574 fcd7 49434D50 		.ascii "ICMP_V6_LISTENER_REPORT 0x83\0"
 14574      5F56365F 
 14574      4C495354 
 14574      454E4552 
 14574      5F524550 
 14575 fcf4 01       		.byte	0x1
 14576 fcf5 8D02     		.uleb128 0x10d
 14577 fcf7 49434D50 		.ascii "ICMP_V6_LISTENER_DONE 0x84\0"
 14577      5F56365F 
 14577      4C495354 
 14577      454E4552 
 14577      5F444F4E 
 14578 fd12 01       		.byte	0x1
 14579 fd13 8E02     		.uleb128 0x10e
 14580 fd15 49434D50 		.ascii "ICMP_V6_ROUTER_SOLICIT 0x85\0"
 14580      5F56365F 
 14580      524F5554 
 14580      45525F53 
 14580      4F4C4943 
 14581 fd31 01       		.byte	0x1
 14582 fd32 8F02     		.uleb128 0x10f
 14583 fd34 49434D50 		.ascii "ICMP_V6_ROUTER_ADVERTISE 0x86\0"
 14583      5F56365F 
 14583      524F5554 
 14583      45525F41 
 14583      44564552 
 14584 fd52 01       		.byte	0x1
 14585 fd53 9002     		.uleb128 0x110
 14586 fd55 49434D50 		.ascii "ICMP_V6_NEIGHBOR_SOLICIT 0x87\0"
 14586      5F56365F 
 14586      4E454947 
 14586      48424F52 
 14586      5F534F4C 
 14587 fd73 01       		.byte	0x1
 14588 fd74 9102     		.uleb128 0x111
 14589 fd76 49434D50 		.ascii "ICMP_V6_NEIGHBOR_ADVERTISE 0x88\0"
 14589      5F56365F 
 14589      4E454947 
 14589      48424F52 
 14589      5F414456 
 14590 fd96 01       		.byte	0x1
 14591 fd97 9202     		.uleb128 0x112
 14592 fd99 49434D50 		.ascii "ICMP_V6_REDIRECT 0x89\0"
 14592      5F56365F 
 14592      52454449 
 14592      52454354 
 14592      20307838 
 14593 fdaf 01       		.byte	0x1
 14594 fdb0 9302     		.uleb128 0x113
 14595 fdb2 49434D50 		.ascii "ICMP_V6_LISTENER_REPORT_2 0x8F\0"
 14595      5F56365F 
 14595      4C495354 
 14595      454E4552 
 14595      5F524550 
 14596 fdd1 01       		.byte	0x1
 14597 fdd2 9802     		.uleb128 0x118
 14598 fdd4 49434D50 		.ascii "ICMP_V6_NO_ROUTE_TO_DEST 0x0\0"
 14598      5F56365F 
 14598      4E4F5F52 
 14598      4F555445 
 14598      5F544F5F 
 14599 fdf1 01       		.byte	0x1
 14600 fdf2 9902     		.uleb128 0x119
 14601 fdf4 49434D50 		.ascii "ICMP_V6_COMM_PROHIBITED 0x1\0"
 14601      5F56365F 
 14601      434F4D4D 
 14601      5F50524F 
 14601      48494249 
 14602 fe10 01       		.byte	0x1
 14603 fe11 9A02     		.uleb128 0x11a
 14604 fe13 49434D50 		.ascii "ICMP_V6_BEYOND_SCOPE 0x2\0"
 14604      5F56365F 
 14604      4245594F 
 14604      4E445F53 
 14604      434F5045 
 14605 fe2c 01       		.byte	0x1
 14606 fe2d 9B02     		.uleb128 0x11b
 14607 fe2f 49434D50 		.ascii "ICMP_V6_ADDR_UNREACHABLE 0x3\0"
 14607      5F56365F 
 14607      41444452 
 14607      5F554E52 
 14607      45414348 
 14608 fe4c 01       		.byte	0x1
 14609 fe4d 9C02     		.uleb128 0x11c
 14610 fe4f 49434D50 		.ascii "ICMP_V6_PORT_UNREACHABLE 0x4\0"
 14610      5F56365F 
 14610      504F5254 
 14610      5F554E52 
 14610      45414348 
 14611 fe6c 01       		.byte	0x1
 14612 fe6d 9D02     		.uleb128 0x11d
 14613 fe6f 49434D50 		.ascii "ICMP_V6_SOURCE_ADDR_FAILED 0x5\0"
 14613      5F56365F 
 14613      534F5552 
 14613      43455F41 
 14613      4444525F 
 14614 fe8e 01       		.byte	0x1
 14615 fe8f 9E02     		.uleb128 0x11e
 14616 fe91 49434D50 		.ascii "ICMP_V6_ROUTE_REJECTED 0x6\0"
 14616      5F56365F 
 14616      524F5554 
 14616      455F5245 
 14616      4A454354 
 14617 feac 01       		.byte	0x1
 14618 fead A302     		.uleb128 0x123
 14619 feaf 49434D50 		.ascii "ICMP_V6_TIMEOUT_HOP_LIMIT 0x0\0"
 14619      5F56365F 
 14619      54494D45 
 14619      4F55545F 
 14619      484F505F 
 14620 fecd 01       		.byte	0x1
 14621 fece A402     		.uleb128 0x124
 14622 fed0 49434D50 		.ascii "ICMP_V6_TIMEOUT_REASSEMBLE 0x1\0"
 14622      5F56365F 
 14622      54494D45 
 14622      4F55545F 
 14622      52454153 
 14623 feef 01       		.byte	0x1
 14624 fef0 A902     		.uleb128 0x129
 14625 fef2 49434D50 		.ascii "ICMP_V6_ERRONEOUS_HEADER 0x0\0"
 14625      5F56365F 
 14625      4552524F 
 14625      4E454F55 
 14625      535F4845 
 14626 ff0f 01       		.byte	0x1
 14627 ff10 AA02     		.uleb128 0x12a
 14628 ff12 49434D50 		.ascii "ICMP_V6_UNRECOGNIZE_NEXT_HDR 0x1\0"
 14628      5F56365F 
 14628      554E5245 
 14628      434F474E 
 14628      495A455F 
 14629 ff33 01       		.byte	0x1
 14630 ff34 AB02     		.uleb128 0x12b
 14631 ff36 49434D50 		.ascii "ICMP_V6_UNRECOGNIZE_OPTION 0x2\0"
 14631      5F56365F 
 14631      554E5245 
 14631      434F474E 
 14631      495A455F 
 14632 ff55 04       		.byte	0x4
 14633              		.file 35 "gnu-efi-3.0.18/inc/efiudp.h"
 14634 ff56 03       		.byte	0x3
 14635 ff57 51       		.uleb128 0x51
 14636 ff58 23       		.uleb128 0x23
 14637 ff59 01       		.byte	0x1
 14638 ff5a 02       		.uleb128 0x2
 14639 ff5b 5F454649 		.ascii "_EFI_UDP_H \0"
 14639      5F554450 
 14639      5F482000 
 14640 ff67 01       		.byte	0x1
 14641 ff68 0A       		.uleb128 0xa
 14642 ff69 4546495F 		.ascii "EFI_UDP4_SERVICE_BINDING_PROTOCOL { 0x83f01464, 0x99bd, 0x45e5, {0xb3, 0x83, 0xaf, 0x63, 0
 14642      55445034 
 14642      5F534552 
 14642      56494345 
 14642      5F42494E 
 14643 ffdc 01       		.byte	0x1
 14644 ffdd 0D       		.uleb128 0xd
 14645 ffde 4546495F 		.ascii "EFI_UDP4_PROTOCOL { 0x3ad9df29, 0x4501, 0x478d, {0xb1, 0xf8, 0x7f, 0x7f, 0xe7, 0x0e, 0x50,
 14645      55445034 
 14645      5F50524F 
 14645      544F434F 
 14645      4C207B20 
 14646 10041 01       		.byte	0x1
 14647 10042 10       		.uleb128 0x10
 14648 10043 4546495F 		.ascii "EFI_UDP6_SERVICE_BINDING_PROTOCOL { 0x66ed4721, 0x3c98, 0x4d3e, {0x81, 0xe3, 0xd0, 0x3d, 0
 14648      55445036 
 14648      5F534552 
 14648      56494345 
 14648      5F42494E 
 14649 100b6 01       		.byte	0x1
 14650 100b7 13       		.uleb128 0x13
 14651 100b8 4546495F 		.ascii "EFI_UDP6_PROTOCOL { 0x4f948815, 0xb4b9, 0x43cb, {0x8a, 0x33, 0x90, 0xe0, 0x60, 0xb3,0x49, 
 14651      55445036 
 14651      5F50524F 
 14651      544F434F 
 14651      4C207B20 
 14652 1011a 01       		.byte	0x1
 14653 1011b 4E       		.uleb128 0x4e
 14654 1011c 4546495F 		.ascii "EFI_NETWORK_UNREACHABLE EFIERR(100)\0"
 14654      4E455457 
 14654      4F524B5F 
 14654      554E5245 
 14654      41434841 
 14655 10140 01       		.byte	0x1
 14656 10141 4F       		.uleb128 0x4f
 14657 10142 4546495F 		.ascii "EFI_HOST_UNREACHABLE EFIERR(101)\0"
 14657      484F5354 
 14657      5F554E52 
 14657      45414348 
 14657      41424C45 
 14658 10163 01       		.byte	0x1
 14659 10164 50       		.uleb128 0x50
 14660 10165 4546495F 		.ascii "EFI_PROTOCOL_UNREACHABLE EFIERR(102)\0"
 14660      50524F54 
 14660      4F434F4C 
 14660      5F554E52 
 14660      45414348 
 14661 1018a 01       		.byte	0x1
 14662 1018b 51       		.uleb128 0x51
 14663 1018c 4546495F 		.ascii "EFI_PORT_UNREACHABLE EFIERR(103)\0"
 14663      504F5254 
 14663      5F554E52 
 14663      45414348 
 14663      41424C45 
 14664 101ad 04       		.byte	0x4
 14665              		.file 36 "gnu-efi-3.0.18/inc/efitcp.h"
 14666 101ae 03       		.byte	0x3
 14667 101af 52       		.uleb128 0x52
 14668 101b0 24       		.uleb128 0x24
 14669 101b1 01       		.byte	0x1
 14670 101b2 02       		.uleb128 0x2
 14671 101b3 5F454649 		.ascii "_EFI_TCP_H \0"
 14671      5F544350 
 14671      5F482000 
 14672 101bf 01       		.byte	0x1
 14673 101c0 09       		.uleb128 0x9
 14674 101c1 4546495F 		.ascii "EFI_TCP4_SERVICE_BINDING_PROTOCOL { 0x00720665, 0x67eb, 0x4a99, {0xba, 0xf7, 0xd3, 0xc3, 0
 14674      54435034 
 14674      5F534552 
 14674      56494345 
 14674      5F42494E 
 14675 10232 01       		.byte	0x1
 14676 10233 0C       		.uleb128 0xc
 14677 10234 4546495F 		.ascii "EFI_TCP4_PROTOCOL { 0x65530bc7, 0xa359, 0x410f, {0xb0, 0x10, 0x5a, 0xad, 0xc7, 0xec, 0x2b,
 14677      54435034 
 14677      5F50524F 
 14677      544F434F 
 14677      4C207B20 
 14678 10296 01       		.byte	0x1
 14679 10297 0F       		.uleb128 0xf
 14680 10298 4546495F 		.ascii "EFI_TCP6_SERVICE_BINDING_PROTOCOL { 0xec20eb79, 0x6c1a, 0x4664, {0x9a, 0xd, 0xd2, 0xe4, 0x
 14680      54435036 
 14680      5F534552 
 14680      56494345 
 14680      5F42494E 
 14681 10309 01       		.byte	0x1
 14682 1030a 12       		.uleb128 0x12
 14683 1030b 4546495F 		.ascii "EFI_TCP6_PROTOCOL { 0x46e44855, 0xbd60, 0x4ab7, {0xab, 0xd, 0xa6, 0x79, 0xb9, 0x44, 0x7d, 
 14683      54435036 
 14683      5F50524F 
 14683      544F434F 
 14683      4C207B20 
 14684 1036c 01       		.byte	0x1
 14685 1036d 8701     		.uleb128 0x87
 14686 1036f 4546495F 		.ascii "EFI_CONNECTION_FIN EFIERR(104)\0"
 14686      434F4E4E 
 14686      45435449 
 14686      4F4E5F46 
 14686      494E2045 
 14687 1038e 01       		.byte	0x1
 14688 1038f 8801     		.uleb128 0x88
 14689 10391 4546495F 		.ascii "EFI_CONNECTION_RESET EFIERR(105)\0"
 14689      434F4E4E 
 14689      45435449 
 14689      4F4E5F52 
 14689      45534554 
 14690 103b2 01       		.byte	0x1
 14691 103b3 8901     		.uleb128 0x89
 14692 103b5 4546495F 		.ascii "EFI_CONNECTION_REFUSED EFIERR(106)\0"
 14692      434F4E4E 
 14692      45435449 
 14692      4F4E5F52 
 14692      45465553 
 14693 103d8 04       		.byte	0x4
 14694              		.file 37 "gnu-efi-3.0.18/inc/efipoint.h"
 14695 103d9 03       		.byte	0x3
 14696 103da 53       		.uleb128 0x53
 14697 103db 25       		.uleb128 0x25
 14698 103dc 01       		.byte	0x1
 14699 103dd 17       		.uleb128 0x17
 14700 103de 5F454649 		.ascii "_EFI_POINT_H \0"
 14700      5F504F49 
 14700      4E545F48 
 14700      2000
 14701 103ec 01       		.byte	0x1
 14702 103ed 19       		.uleb128 0x19
 14703 103ee 4546495F 		.ascii "EFI_SIMPLE_POINTER_PROTOCOL_GUID { 0x31878c87, 0xb75, 0x11d5, { 0x9a, 0x4f, 0x0, 0x90, 0x2
 14703      53494D50 
 14703      4C455F50 
 14703      4F494E54 
 14703      45525F50 
 14704 10460 01       		.byte	0x1
 14705 10461 43       		.uleb128 0x43
 14706 10462 4546495F 		.ascii "EFI_ABSOLUTE_POINTER_PROTOCOL_GUID { 0x8D59D32B, 0xC655, 0x4AE9, { 0x9B, 0x15, 0xF2, 0x59,
 14706      4142534F 
 14706      4C555445 
 14706      5F504F49 
 14706      4E544552 
 14707 104d8 01       		.byte	0x1
 14708 104d9 59       		.uleb128 0x59
 14709 104da 4546495F 		.ascii "EFI_ABSP_SupportsAltActive 0x00000001\0"
 14709      41425350 
 14709      5F537570 
 14709      706F7274 
 14709      73416C74 
 14710 10500 01       		.byte	0x1
 14711 10501 5A       		.uleb128 0x5a
 14712 10502 4546495F 		.ascii "EFI_ABSP_SupportsPressureAsZ 0x00000002\0"
 14712      41425350 
 14712      5F537570 
 14712      706F7274 
 14712      73507265 
 14713 1052a 01       		.byte	0x1
 14714 1052b 5B       		.uleb128 0x5b
 14715 1052c 4546495F 		.ascii "EFI_ABSP_TouchActive 0x00000001\0"
 14715      41425350 
 14715      5F546F75 
 14715      63684163 
 14715      74697665 
 14716 1054c 01       		.byte	0x1
 14717 1054d 5C       		.uleb128 0x5c
 14718 1054e 4546495F 		.ascii "EFI_ABS_AltActive 0x00000002\0"
 14718      4142535F 
 14718      416C7441 
 14718      63746976 
 14718      65203078 
 14719 1056b 04       		.byte	0x4
 14720              		.file 38 "gnu-efi-3.0.18/inc/efishell.h"
 14721 1056c 03       		.byte	0x3
 14722 1056d 54       		.uleb128 0x54
 14723 1056e 26       		.uleb128 0x26
 14724 1056f 01       		.byte	0x1
 14725 10570 0D       		.uleb128 0xd
 14726 10571 5F454649 		.ascii "_EFI_SHELL_H \0"
 14726      5F534845 
 14726      4C4C5F48 
 14726      2000
 14727              		.file 39 "gnu-efi-3.0.18/inc/efilink.h"
 14728 1057f 03       		.byte	0x3
 14729 10580 0F       		.uleb128 0xf
 14730 10581 27       		.uleb128 0x27
 14731 10582 01       		.byte	0x1
 14732 10583 02       		.uleb128 0x2
 14733 10584 5F454649 		.ascii "_EFI_LINK_H \0"
 14733      5F4C494E 
 14733      4B5F4820 
 14733      00
 14734 10591 01       		.byte	0x1
 14735 10592 2B       		.uleb128 0x2b
 14736 10593 496E6974 		.ascii "InitializeListHead(ListHead) (ListHead)->Flink = ListHead; (ListHead)->Blink = ListHead;\0
 14736      69616C69 
 14736      7A654C69 
 14736      73744865 
 14736      6164284C 
 14737 105ec 01       		.byte	0x1
 14738 105ed 36       		.uleb128 0x36
 14739 105ee 49734C69 		.ascii "IsListEmpty(ListHead) ((ListHead)->Flink == (ListHead))\0"
 14739      7374456D 
 14739      70747928 
 14739      4C697374 
 14739      48656164 
 14740 10626 01       		.byte	0x1
 14741 10627 40       		.uleb128 0x40
 14742 10628 5F52656D 		.ascii "_RemoveEntryList(Entry) { LIST_ENTRY *_Blink, *_Flink; _Flink = (Entry)->Flink; _Blink = (
 14742      6F766545 
 14742      6E747279 
 14742      4C697374 
 14742      28456E74 
 14743 106c3 01       		.byte	0x1
 14744 106c4 4E       		.uleb128 0x4e
 14745 106c5 52656D6F 		.ascii "RemoveEntryList(Entry) _RemoveEntryList(Entry);\0"
 14745      7665456E 
 14745      7472794C 
 14745      69737428 
 14745      456E7472 
 14746 106f5 01       		.byte	0x1
 14747 106f6 5A       		.uleb128 0x5a
 14748 106f7 496E7365 		.ascii "InsertTailList(ListHead,Entry) { LIST_ENTRY *_ListHead, *_Blink; _ListHead = (ListHead); _
 14748      72745461 
 14748      696C4C69 
 14748      7374284C 
 14748      69737448 
 14749 107d7 01       		.byte	0x1
 14750 107d8 6C       		.uleb128 0x6c
 14751 107d9 496E7365 		.ascii "InsertHeadList(ListHead,Entry) { LIST_ENTRY *_ListHead, *_Flink; _ListHead = (ListHead); _
 14751      72744865 
 14751      61644C69 
 14751      7374284C 
 14751      69737448 
 14752 108b9 01       		.byte	0x1
 14753 108ba 7E       		.uleb128 0x7e
 14754 108bb 53776170 		.ascii "SwapListEntries(Entry1,Entry2) { LIST_ENTRY *Entry1Flink, *Entry1Blink; LIST_ENTRY *Entry2
 14754      4C697374 
 14754      456E7472 
 14754      69657328 
 14754      456E7472 
 14755 10a60 01       		.byte	0x1
 14756 10a61 9101     		.uleb128 0x91
 14757 10a63 4546495F 		.ascii "EFI_FIELD_OFFSET(TYPE,Field) ((UINTN)(intptr_t)(&(((TYPE *) 0)->Field)))\0"
 14757      4649454C 
 14757      445F4F46 
 14757      46534554 
 14757      28545950 
 14758 10aac 01       		.byte	0x1
 14759 10aad 9801     		.uleb128 0x98
 14760 10aaf 5F435228 		.ascii "_CR(Record,TYPE,Field) ((TYPE *) ( (CHAR8 *)(Record) - (CHAR8 *) &(((TYPE *) 0)->Field)))\
 14760      5265636F 
 14760      72642C54 
 14760      5950452C 
 14760      4669656C 
 14761 10b09 01       		.byte	0x1
 14762 10b0a 9E01     		.uleb128 0x9e
 14763 10b0c 42415345 		.ascii "BASE_CR _CR\0"
 14763      5F435220 
 14763      5F435200 
 14764 10b18 01       		.byte	0x1
 14765 10b19 A601     		.uleb128 0xa6
 14766 10b1b 43522852 		.ascii "CR(Record,TYPE,Field,Signature) _CR(Record, TYPE, Field)\0"
 14766      65636F72 
 14766      642C5459 
 14766      50452C46 
 14766      69656C64 
 14767 10b54 04       		.byte	0x4
 14768 10b55 01       		.byte	0x1
 14769 10b56 11       		.uleb128 0x11
 14770 10b57 4546495F 		.ascii "EFI_SHELL_PROTOCOL_GUID { 0x6302d008, 0x7f9b, 0x4f30, { 0x87, 0xac, 0x60, 0xc9, 0xfe, 0xf5
 14770      5348454C 
 14770      4C5F5052 
 14770      4F544F43 
 14770      4F4C5F47 
 14771 10bc2 01       		.byte	0x1
 14772 10bc3 9801     		.uleb128 0x98
 14773 10bc5 4546495F 		.ascii "EFI_DEVICE_NAME_USE_COMPONENT_NAME 0x00000001\0"
 14773      44455649 
 14773      43455F4E 
 14773      414D455F 
 14773      5553455F 
 14774 10bf3 01       		.byte	0x1
 14775 10bf4 9901     		.uleb128 0x99
 14776 10bf6 4546495F 		.ascii "EFI_DEVICE_NAME_USE_DEVICE_PATH 0x00000002\0"
 14776      44455649 
 14776      43455F4E 
 14776      414D455F 
 14776      5553455F 
 14777 10c21 01       		.byte	0x1
 14778 10c22 9903     		.uleb128 0x199
 14779 10c24 4546495F 		.ascii "EFI_SHELL_PARAMETERS_PROTOCOL_GUID { 0x752f3136, 0x4e16, 0x4fdc, { 0xa2, 0x2a, 0xe5, 0xf4,
 14779      5348454C 
 14779      4C5F5041 
 14779      52414D45 
 14779      54455253 
 14780 10c9a 01       		.byte	0x1
 14781 10c9b A603     		.uleb128 0x1a6
 14782 10c9d 4546495F 		.ascii "EFI_SHELL_DYNAMIC_COMMAND_PROTOCOL_GUID { 0x3c7200e9, 0x005f, 0x4ea4, { 0x87, 0xde, 0xa3, 
 14782      5348454C 
 14782      4C5F4459 
 14782      4E414D49 
 14782      435F434F 
 14783 10d18 04       		.byte	0x4
 14784 10d19 04       		.byte	0x4
 14785 10d1a 03       		.byte	0x3
 14786 10d1b 18       		.uleb128 0x18
 14787 10d1c 0C       		.uleb128 0xc
 14788 10d1d 01       		.byte	0x1
 14789 10d1e 02       		.uleb128 0x2
 14790 10d1f 5F454649 		.ascii "_EFILIB_INCLUDE_ \0"
 14790      4C49425F 
 14790      494E434C 
 14790      5544455F 
 14790      2000
 14791              		.file 40 "gnu-efi-3.0.18/inc/efidebug.h"
 14792 10d31 03       		.byte	0x3
 14793 10d32 1A       		.uleb128 0x1a
 14794 10d33 28       		.uleb128 0x28
 14795 10d34 01       		.byte	0x1
 14796 10d35 02       		.uleb128 0x2
 14797 10d36 5F454649 		.ascii "_EFI_DEBUG_H \0"
 14797      5F444542 
 14797      55475F48 
 14797      2000
 14798 10d44 01       		.byte	0x1
 14799 10d45 1F       		.uleb128 0x1f
 14800 10d46 44424741 		.ascii "DBGASSERT(a) \0"
 14800      53534552 
 14800      54286129 
 14800      2000
 14801 10d54 01       		.byte	0x1
 14802 10d55 20       		.uleb128 0x20
 14803 10d56 44454255 		.ascii "DEBUG(a) \0"
 14803      47286129 
 14803      2000
 14804 10d60 01       		.byte	0x1
 14805 10d61 2A       		.uleb128 0x2a
 14806 10d62 44424753 		.ascii "DBGSETMEM(a,l) \0"
 14806      45544D45 
 14806      4D28612C 
 14806      6C292000 
 14807 10d72 01       		.byte	0x1
 14808 10d73 2E       		.uleb128 0x2e
 14809 10d74 445F494E 		.ascii "D_INIT 0x00000001\0"
 14809      49542030 
 14809      78303030 
 14809      30303030 
 14809      3100
 14810 10d86 01       		.byte	0x1
 14811 10d87 2F       		.uleb128 0x2f
 14812 10d88 445F5741 		.ascii "D_WARN 0x00000002\0"
 14812      524E2030 
 14812      78303030 
 14812      30303030 
 14812      3200
 14813 10d9a 01       		.byte	0x1
 14814 10d9b 30       		.uleb128 0x30
 14815 10d9c 445F4C4F 		.ascii "D_LOAD 0x00000004\0"
 14815      41442030 
 14815      78303030 
 14815      30303030 
 14815      3400
 14816 10dae 01       		.byte	0x1
 14817 10daf 31       		.uleb128 0x31
 14818 10db0 445F4653 		.ascii "D_FS 0x00000008\0"
 14818      20307830 
 14818      30303030 
 14818      30303800 
 14819 10dc0 01       		.byte	0x1
 14820 10dc1 32       		.uleb128 0x32
 14821 10dc2 445F504F 		.ascii "D_POOL 0x00000010\0"
 14821      4F4C2030 
 14821      78303030 
 14821      30303031 
 14821      3000
 14822 10dd4 01       		.byte	0x1
 14823 10dd5 33       		.uleb128 0x33
 14824 10dd6 445F5041 		.ascii "D_PAGE 0x00000020\0"
 14824      47452030 
 14824      78303030 
 14824      30303032 
 14824      3000
 14825 10de8 01       		.byte	0x1
 14826 10de9 34       		.uleb128 0x34
 14827 10dea 445F494E 		.ascii "D_INFO 0x00000040\0"
 14827      464F2030 
 14827      78303030 
 14827      30303034 
 14827      3000
 14828 10dfc 01       		.byte	0x1
 14829 10dfd 35       		.uleb128 0x35
 14830 10dfe 445F5641 		.ascii "D_VAR 0x00000100\0"
 14830      52203078 
 14830      30303030 
 14830      30313030 
 14830      00
 14831 10e0f 01       		.byte	0x1
 14832 10e10 36       		.uleb128 0x36
 14833 10e11 445F5041 		.ascii "D_PARSE 0x00000200\0"
 14833      52534520 
 14833      30783030 
 14833      30303032 
 14833      303000
 14834 10e24 01       		.byte	0x1
 14835 10e25 37       		.uleb128 0x37
 14836 10e26 445F424D 		.ascii "D_BM 0x00000400\0"
 14836      20307830 
 14836      30303030 
 14836      34303000 
 14837 10e36 01       		.byte	0x1
 14838 10e37 38       		.uleb128 0x38
 14839 10e38 445F424C 		.ascii "D_BLKIO 0x00001000\0"
 14839      4B494F20 
 14839      30783030 
 14839      30303130 
 14839      303000
 14840 10e4b 01       		.byte	0x1
 14841 10e4c 39       		.uleb128 0x39
 14842 10e4d 445F424C 		.ascii "D_BLKIO_ULTRA 0x00002000\0"
 14842      4B494F5F 
 14842      554C5452 
 14842      41203078 
 14842      30303030 
 14843 10e66 01       		.byte	0x1
 14844 10e67 3A       		.uleb128 0x3a
 14845 10e68 445F4E45 		.ascii "D_NET 0x00004000\0"
 14845      54203078 
 14845      30303030 
 14845      34303030 
 14845      00
 14846 10e79 01       		.byte	0x1
 14847 10e7a 3B       		.uleb128 0x3b
 14848 10e7b 445F4E45 		.ascii "D_NET_ULTRA 0x00008000\0"
 14848      545F554C 
 14848      54524120 
 14848      30783030 
 14848      30303830 
 14849 10e92 01       		.byte	0x1
 14850 10e93 3C       		.uleb128 0x3c
 14851 10e94 445F5458 		.ascii "D_TXTIN 0x00010000\0"
 14851      54494E20 
 14851      30783030 
 14851      30313030 
 14851      303000
 14852 10ea7 01       		.byte	0x1
 14853 10ea8 3D       		.uleb128 0x3d
 14854 10ea9 445F5458 		.ascii "D_TXTOUT 0x00020000\0"
 14854      544F5554 
 14854      20307830 
 14854      30303230 
 14854      30303000 
 14855 10ebd 01       		.byte	0x1
 14856 10ebe 3E       		.uleb128 0x3e
 14857 10ebf 445F4552 		.ascii "D_ERROR_ATA 0x00040000\0"
 14857      524F525F 
 14857      41544120 
 14857      30783030 
 14857      30343030 
 14858 10ed6 01       		.byte	0x1
 14859 10ed7 3F       		.uleb128 0x3f
 14860 10ed8 445F4552 		.ascii "D_ERROR 0x80000000\0"
 14860      524F5220 
 14860      30783830 
 14860      30303030 
 14860      303000
 14861 10eeb 01       		.byte	0x1
 14862 10eec 41       		.uleb128 0x41
 14863 10eed 445F5245 		.ascii "D_RESERVED 0x7fffC880\0"
 14863      53455256 
 14863      45442030 
 14863      78376666 
 14863      66433838 
 14864 10f03 01       		.byte	0x1
 14865 10f04 47       		.uleb128 0x47
 14866 10f05 4546495F 		.ascii "EFI_DBUG_MASK (D_ERROR)\0"
 14866      44425547 
 14866      5F4D4153 
 14866      4B202844 
 14866      5F455252 
 14867 10f1d 01       		.byte	0x1
 14868 10f1e 55       		.uleb128 0x55
 14869 10f1f 41535345 		.ascii "ASSERT(a) \0"
 14869      52542861 
 14869      292000
 14870 10f2a 01       		.byte	0x1
 14871 10f2b 56       		.uleb128 0x56
 14872 10f2c 41535345 		.ascii "ASSERT_LOCKED(l) \0"
 14872      52545F4C 
 14872      4F434B45 
 14872      44286C29 
 14872      2000
 14873 10f3e 01       		.byte	0x1
 14874 10f3f 57       		.uleb128 0x57
 14875 10f40 41535345 		.ascii "ASSERT_STRUCT(p,t) \0"
 14875      52545F53 
 14875      54525543 
 14875      5428702C 
 14875      74292000 
 14876 10f54 01       		.byte	0x1
 14877 10f55 74       		.uleb128 0x74
 14878 10f56 45584345 		.ascii "EXCEPT_IA32_DIVIDE_ERROR 0\0"
 14878      50545F49 
 14878      4133325F 
 14878      44495649 
 14878      44455F45 
 14879 10f71 01       		.byte	0x1
 14880 10f72 75       		.uleb128 0x75
 14881 10f73 45584345 		.ascii "EXCEPT_IA32_DEBUG 1\0"
 14881      50545F49 
 14881      4133325F 
 14881      44454255 
 14881      47203100 
 14882 10f87 01       		.byte	0x1
 14883 10f88 76       		.uleb128 0x76
 14884 10f89 45584345 		.ascii "EXCEPT_IA32_NMI 2\0"
 14884      50545F49 
 14884      4133325F 
 14884      4E4D4920 
 14884      3200
 14885 10f9b 01       		.byte	0x1
 14886 10f9c 77       		.uleb128 0x77
 14887 10f9d 45584345 		.ascii "EXCEPT_IA32_BREAKPOINT 3\0"
 14887      50545F49 
 14887      4133325F 
 14887      42524541 
 14887      4B504F49 
 14888 10fb6 01       		.byte	0x1
 14889 10fb7 78       		.uleb128 0x78
 14890 10fb8 45584345 		.ascii "EXCEPT_IA32_OVERFLOW 4\0"
 14890      50545F49 
 14890      4133325F 
 14890      4F564552 
 14890      464C4F57 
 14891 10fcf 01       		.byte	0x1
 14892 10fd0 79       		.uleb128 0x79
 14893 10fd1 45584345 		.ascii "EXCEPT_IA32_BOUND 5\0"
 14893      50545F49 
 14893      4133325F 
 14893      424F554E 
 14893      44203500 
 14894 10fe5 01       		.byte	0x1
 14895 10fe6 7A       		.uleb128 0x7a
 14896 10fe7 45584345 		.ascii "EXCEPT_IA32_INVALID_OPCODE 6\0"
 14896      50545F49 
 14896      4133325F 
 14896      494E5641 
 14896      4C49445F 
 14897 11004 01       		.byte	0x1
 14898 11005 7B       		.uleb128 0x7b
 14899 11006 45584345 		.ascii "EXCEPT_IA32_DOUBLE_FAULT 8\0"
 14899      50545F49 
 14899      4133325F 
 14899      444F5542 
 14899      4C455F46 
 14900 11021 01       		.byte	0x1
 14901 11022 7C       		.uleb128 0x7c
 14902 11023 45584345 		.ascii "EXCEPT_IA32_INVALID_TSS 10\0"
 14902      50545F49 
 14902      4133325F 
 14902      494E5641 
 14902      4C49445F 
 14903 1103e 01       		.byte	0x1
 14904 1103f 7D       		.uleb128 0x7d
 14905 11040 45584345 		.ascii "EXCEPT_IA32_SEG_NOT_PRESENT 11\0"
 14905      50545F49 
 14905      4133325F 
 14905      5345475F 
 14905      4E4F545F 
 14906 1105f 01       		.byte	0x1
 14907 11060 7E       		.uleb128 0x7e
 14908 11061 45584345 		.ascii "EXCEPT_IA32_STACK_FAULT 12\0"
 14908      50545F49 
 14908      4133325F 
 14908      53544143 
 14908      4B5F4641 
 14909 1107c 01       		.byte	0x1
 14910 1107d 7F       		.uleb128 0x7f
 14911 1107e 45584345 		.ascii "EXCEPT_IA32_GP_FAULT 13\0"
 14911      50545F49 
 14911      4133325F 
 14911      47505F46 
 14911      41554C54 
 14912 11096 01       		.byte	0x1
 14913 11097 8001     		.uleb128 0x80
 14914 11099 45584345 		.ascii "EXCEPT_IA32_PAGE_FAULT 14\0"
 14914      50545F49 
 14914      4133325F 
 14914      50414745 
 14914      5F464155 
 14915 110b3 01       		.byte	0x1
 14916 110b4 8101     		.uleb128 0x81
 14917 110b6 45584345 		.ascii "EXCEPT_IA32_FP_ERROR 16\0"
 14917      50545F49 
 14917      4133325F 
 14917      46505F45 
 14917      52524F52 
 14918 110ce 01       		.byte	0x1
 14919 110cf 8201     		.uleb128 0x82
 14920 110d1 45584345 		.ascii "EXCEPT_IA32_ALIGNMENT_CHECK 17\0"
 14920      50545F49 
 14920      4133325F 
 14920      414C4947 
 14920      4E4D454E 
 14921 110f0 01       		.byte	0x1
 14922 110f1 8301     		.uleb128 0x83
 14923 110f3 45584345 		.ascii "EXCEPT_IA32_MACHINE_CHECK 18\0"
 14923      50545F49 
 14923      4133325F 
 14923      4D414348 
 14923      494E455F 
 14924 11110 01       		.byte	0x1
 14925 11111 8401     		.uleb128 0x84
 14926 11113 45584345 		.ascii "EXCEPT_IA32_SIMD 19\0"
 14926      50545F49 
 14926      4133325F 
 14926      53494D44 
 14926      20313900 
 14927 11127 01       		.byte	0x1
 14928 11128 C901     		.uleb128 0xc9
 14929 1112a 45584345 		.ascii "EXCEPT_X64_DIVIDE_ERROR 0\0"
 14929      50545F58 
 14929      36345F44 
 14929      49564944 
 14929      455F4552 
 14930 11144 01       		.byte	0x1
 14931 11145 CA01     		.uleb128 0xca
 14932 11147 45584345 		.ascii "EXCEPT_X64_DEBUG 1\0"
 14932      50545F58 
 14932      36345F44 
 14932      45425547 
 14932      203100
 14933 1115a 01       		.byte	0x1
 14934 1115b CB01     		.uleb128 0xcb
 14935 1115d 45584345 		.ascii "EXCEPT_X64_NMI 2\0"
 14935      50545F58 
 14935      36345F4E 
 14935      4D492032 
 14935      00
 14936 1116e 01       		.byte	0x1
 14937 1116f CC01     		.uleb128 0xcc
 14938 11171 45584345 		.ascii "EXCEPT_X64_BREAKPOINT 3\0"
 14938      50545F58 
 14938      36345F42 
 14938      5245414B 
 14938      504F494E 
 14939 11189 01       		.byte	0x1
 14940 1118a CD01     		.uleb128 0xcd
 14941 1118c 45584345 		.ascii "EXCEPT_X64_OVERFLOW 4\0"
 14941      50545F58 
 14941      36345F4F 
 14941      56455246 
 14941      4C4F5720 
 14942 111a2 01       		.byte	0x1
 14943 111a3 CE01     		.uleb128 0xce
 14944 111a5 45584345 		.ascii "EXCEPT_X64_BOUND 5\0"
 14944      50545F58 
 14944      36345F42 
 14944      4F554E44 
 14944      203500
 14945 111b8 01       		.byte	0x1
 14946 111b9 CF01     		.uleb128 0xcf
 14947 111bb 45584345 		.ascii "EXCEPT_X64_INVALID_OPCODE 6\0"
 14947      50545F58 
 14947      36345F49 
 14947      4E56414C 
 14947      49445F4F 
 14948 111d7 01       		.byte	0x1
 14949 111d8 D001     		.uleb128 0xd0
 14950 111da 45584345 		.ascii "EXCEPT_X64_DOUBLE_FAULT 8\0"
 14950      50545F58 
 14950      36345F44 
 14950      4F55424C 
 14950      455F4641 
 14951 111f4 01       		.byte	0x1
 14952 111f5 D101     		.uleb128 0xd1
 14953 111f7 45584345 		.ascii "EXCEPT_X64_INVALID_TSS 10\0"
 14953      50545F58 
 14953      36345F49 
 14953      4E56414C 
 14953      49445F54 
 14954 11211 01       		.byte	0x1
 14955 11212 D201     		.uleb128 0xd2
 14956 11214 45584345 		.ascii "EXCEPT_X64_SEG_NOT_PRESENT 11\0"
 14956      50545F58 
 14956      36345F53 
 14956      45475F4E 
 14956      4F545F50 
 14957 11232 01       		.byte	0x1
 14958 11233 D301     		.uleb128 0xd3
 14959 11235 45584345 		.ascii "EXCEPT_X64_STACK_FAULT 12\0"
 14959      50545F58 
 14959      36345F53 
 14959      5441434B 
 14959      5F464155 
 14960 1124f 01       		.byte	0x1
 14961 11250 D401     		.uleb128 0xd4
 14962 11252 45584345 		.ascii "EXCEPT_X64_GP_FAULT 13\0"
 14962      50545F58 
 14962      36345F47 
 14962      505F4641 
 14962      554C5420 
 14963 11269 01       		.byte	0x1
 14964 1126a D501     		.uleb128 0xd5
 14965 1126c 45584345 		.ascii "EXCEPT_X64_PAGE_FAULT 14\0"
 14965      50545F58 
 14965      36345F50 
 14965      4147455F 
 14965      4641554C 
 14966 11285 01       		.byte	0x1
 14967 11286 D601     		.uleb128 0xd6
 14968 11288 45584345 		.ascii "EXCEPT_X64_FP_ERROR 16\0"
 14968      50545F58 
 14968      36345F46 
 14968      505F4552 
 14968      524F5220 
 14969 1129f 01       		.byte	0x1
 14970 112a0 D701     		.uleb128 0xd7
 14971 112a2 45584345 		.ascii "EXCEPT_X64_ALIGNMENT_CHECK 17\0"
 14971      50545F58 
 14971      36345F41 
 14971      4C49474E 
 14971      4D454E54 
 14972 112c0 01       		.byte	0x1
 14973 112c1 D801     		.uleb128 0xd8
 14974 112c3 45584345 		.ascii "EXCEPT_X64_MACHINE_CHECK 18\0"
 14974      50545F58 
 14974      36345F4D 
 14974      41434849 
 14974      4E455F43 
 14975 112df 01       		.byte	0x1
 14976 112e0 D901     		.uleb128 0xd9
 14977 112e2 45584345 		.ascii "EXCEPT_X64_SIMD 19\0"
 14977      50545F58 
 14977      36345F53 
 14977      494D4420 
 14977      313900
 14978 112f5 01       		.byte	0x1
 14979 112f6 A402     		.uleb128 0x124
 14980 112f8 45584345 		.ascii "EXCEPT_IPF_VHTP_TRANSLATION 0\0"
 14980      50545F49 
 14980      50465F56 
 14980      4854505F 
 14980      5452414E 
 14981 11316 01       		.byte	0x1
 14982 11317 A502     		.uleb128 0x125
 14983 11319 45584345 		.ascii "EXCEPT_IPF_INSTRUCTION_TLB 1\0"
 14983      50545F49 
 14983      50465F49 
 14983      4E535452 
 14983      55435449 
 14984 11336 01       		.byte	0x1
 14985 11337 A602     		.uleb128 0x126
 14986 11339 45584345 		.ascii "EXCEPT_IPF_DATA_TLB 2\0"
 14986      50545F49 
 14986      50465F44 
 14986      4154415F 
 14986      544C4220 
 14987 1134f 01       		.byte	0x1
 14988 11350 A702     		.uleb128 0x127
 14989 11352 45584345 		.ascii "EXCEPT_IPF_ALT_INSTRUCTION_TLB 3\0"
 14989      50545F49 
 14989      50465F41 
 14989      4C545F49 
 14989      4E535452 
 14990 11373 01       		.byte	0x1
 14991 11374 A802     		.uleb128 0x128
 14992 11376 45584345 		.ascii "EXCEPT_IPF_ALT_DATA_TLB 4\0"
 14992      50545F49 
 14992      50465F41 
 14992      4C545F44 
 14992      4154415F 
 14993 11390 01       		.byte	0x1
 14994 11391 A902     		.uleb128 0x129
 14995 11393 45584345 		.ascii "EXCEPT_IPF_DATA_NESTED_TLB 5\0"
 14995      50545F49 
 14995      50465F44 
 14995      4154415F 
 14995      4E455354 
 14996 113b0 01       		.byte	0x1
 14997 113b1 AA02     		.uleb128 0x12a
 14998 113b3 45584345 		.ascii "EXCEPT_IPF_INSTRUCTION_KEY_MISSED 6\0"
 14998      50545F49 
 14998      50465F49 
 14998      4E535452 
 14998      55435449 
 14999 113d7 01       		.byte	0x1
 15000 113d8 AB02     		.uleb128 0x12b
 15001 113da 45584345 		.ascii "EXCEPT_IPF_DATA_KEY_MISSED 7\0"
 15001      50545F49 
 15001      50465F44 
 15001      4154415F 
 15001      4B45595F 
 15002 113f7 01       		.byte	0x1
 15003 113f8 AC02     		.uleb128 0x12c
 15004 113fa 45584345 		.ascii "EXCEPT_IPF_DIRTY_BIT 8\0"
 15004      50545F49 
 15004      50465F44 
 15004      49525459 
 15004      5F424954 
 15005 11411 01       		.byte	0x1
 15006 11412 AD02     		.uleb128 0x12d
 15007 11414 45584345 		.ascii "EXCEPT_IPF_INSTRUCTION_ACCESS_BIT 9\0"
 15007      50545F49 
 15007      50465F49 
 15007      4E535452 
 15007      55435449 
 15008 11438 01       		.byte	0x1
 15009 11439 AE02     		.uleb128 0x12e
 15010 1143b 45584345 		.ascii "EXCEPT_IPF_DATA_ACCESS_BIT 10\0"
 15010      50545F49 
 15010      50465F44 
 15010      4154415F 
 15010      41434345 
 15011 11459 01       		.byte	0x1
 15012 1145a AF02     		.uleb128 0x12f
 15013 1145c 45584345 		.ascii "EXCEPT_IPF_BREAKPOINT 11\0"
 15013      50545F49 
 15013      50465F42 
 15013      5245414B 
 15013      504F494E 
 15014 11475 01       		.byte	0x1
 15015 11476 B002     		.uleb128 0x130
 15016 11478 45584345 		.ascii "EXCEPT_IPF_EXTERNAL_INTERRUPT 12\0"
 15016      50545F49 
 15016      50465F45 
 15016      58544552 
 15016      4E414C5F 
 15017 11499 01       		.byte	0x1
 15018 1149a B102     		.uleb128 0x131
 15019 1149c 45584345 		.ascii "EXCEPT_IPF_PAGE_NOT_PRESENT 20\0"
 15019      50545F49 
 15019      50465F50 
 15019      4147455F 
 15019      4E4F545F 
 15020 114bb 01       		.byte	0x1
 15021 114bc B202     		.uleb128 0x132
 15022 114be 45584345 		.ascii "EXCEPT_IPF_KEY_PERMISSION 21\0"
 15022      50545F49 
 15022      50465F4B 
 15022      45595F50 
 15022      45524D49 
 15023 114db 01       		.byte	0x1
 15024 114dc B302     		.uleb128 0x133
 15025 114de 45584345 		.ascii "EXCEPT_IPF_INSTRUCTION_ACCESS_RIGHTS 22\0"
 15025      50545F49 
 15025      50465F49 
 15025      4E535452 
 15025      55435449 
 15026 11506 01       		.byte	0x1
 15027 11507 B402     		.uleb128 0x134
 15028 11509 45584345 		.ascii "EXCEPT_IPF_DATA_ACCESS_RIGHTS 23\0"
 15028      50545F49 
 15028      50465F44 
 15028      4154415F 
 15028      41434345 
 15029 1152a 01       		.byte	0x1
 15030 1152b B502     		.uleb128 0x135
 15031 1152d 45584345 		.ascii "EXCEPT_IPF_GENERAL_EXCEPTION 24\0"
 15031      50545F49 
 15031      50465F47 
 15031      454E4552 
 15031      414C5F45 
 15032 1154d 01       		.byte	0x1
 15033 1154e B602     		.uleb128 0x136
 15034 11550 45584345 		.ascii "EXCEPT_IPF_DISABLED_FP_REGISTER 25\0"
 15034      50545F49 
 15034      50465F44 
 15034      49534142 
 15034      4C45445F 
 15035 11573 01       		.byte	0x1
 15036 11574 B702     		.uleb128 0x137
 15037 11576 45584345 		.ascii "EXCEPT_IPF_NAT_CONSUMPTION 26\0"
 15037      50545F49 
 15037      50465F4E 
 15037      41545F43 
 15037      4F4E5355 
 15038 11594 01       		.byte	0x1
 15039 11595 B802     		.uleb128 0x138
 15040 11597 45584345 		.ascii "EXCEPT_IPF_SPECULATION 27\0"
 15040      50545F49 
 15040      50465F53 
 15040      50454355 
 15040      4C415449 
 15041 115b1 01       		.byte	0x1
 15042 115b2 B902     		.uleb128 0x139
 15043 115b4 45584345 		.ascii "EXCEPT_IPF_DEBUG 29\0"
 15043      50545F49 
 15043      50465F44 
 15043      45425547 
 15043      20323900 
 15044 115c8 01       		.byte	0x1
 15045 115c9 BA02     		.uleb128 0x13a
 15046 115cb 45584345 		.ascii "EXCEPT_IPF_UNALIGNED_REFERENCE 30\0"
 15046      50545F49 
 15046      50465F55 
 15046      4E414C49 
 15046      474E4544 
 15047 115ed 01       		.byte	0x1
 15048 115ee BB02     		.uleb128 0x13b
 15049 115f0 45584345 		.ascii "EXCEPT_IPF_UNSUPPORTED_DATA_REFERENCE 31\0"
 15049      50545F49 
 15049      50465F55 
 15049      4E535550 
 15049      504F5254 
 15050 11619 01       		.byte	0x1
 15051 1161a BC02     		.uleb128 0x13c
 15052 1161c 45584345 		.ascii "EXCEPT_IPF_FP_FAULT 32\0"
 15052      50545F49 
 15052      50465F46 
 15052      505F4641 
 15052      554C5420 
 15053 11633 01       		.byte	0x1
 15054 11634 BD02     		.uleb128 0x13d
 15055 11636 45584345 		.ascii "EXCEPT_IPF_FP_TRAP 33\0"
 15055      50545F49 
 15055      50465F46 
 15055      505F5452 
 15055      41502033 
 15056 1164c 01       		.byte	0x1
 15057 1164d BE02     		.uleb128 0x13e
 15058 1164f 45584345 		.ascii "EXCEPT_IPF_LOWER_PRIVILEGE_TRANSFER_TRAP 34\0"
 15058      50545F49 
 15058      50465F4C 
 15058      4F574552 
 15058      5F505249 
 15059 1167b 01       		.byte	0x1
 15060 1167c BF02     		.uleb128 0x13f
 15061 1167e 45584345 		.ascii "EXCEPT_IPF_TAKEN_BRANCH 35\0"
 15061      50545F49 
 15061      50465F54 
 15061      414B454E 
 15061      5F425241 
 15062 11699 01       		.byte	0x1
 15063 1169a C002     		.uleb128 0x140
 15064 1169c 45584345 		.ascii "EXCEPT_IPF_SINGLE_STEP 36\0"
 15064      50545F49 
 15064      50465F53 
 15064      494E474C 
 15064      455F5354 
 15065 116b6 01       		.byte	0x1
 15066 116b7 C102     		.uleb128 0x141
 15067 116b9 45584345 		.ascii "EXCEPT_IPF_IA32_EXCEPTION 45\0"
 15067      50545F49 
 15067      50465F49 
 15067      4133325F 
 15067      45584345 
 15068 116d6 01       		.byte	0x1
 15069 116d7 C202     		.uleb128 0x142
 15070 116d9 45584345 		.ascii "EXCEPT_IPF_IA32_INTERCEPT 46\0"
 15070      50545F49 
 15070      50465F49 
 15070      4133325F 
 15070      494E5445 
 15071 116f6 01       		.byte	0x1
 15072 116f7 C302     		.uleb128 0x143
 15073 116f9 45584345 		.ascii "EXCEPT_IPF_IA32_INTERRUPT 47\0"
 15073      50545F49 
 15073      50465F49 
 15073      4133325F 
 15073      494E5445 
 15074 11716 01       		.byte	0x1
 15075 11717 C003     		.uleb128 0x1c0
 15076 11719 45584345 		.ascii "EXCEPT_EBC_UNDEFINED 0\0"
 15076      50545F45 
 15076      42435F55 
 15076      4E444546 
 15076      494E4544 
 15077 11730 01       		.byte	0x1
 15078 11731 C103     		.uleb128 0x1c1
 15079 11733 45584345 		.ascii "EXCEPT_EBC_DIVIDE_ERROR 1\0"
 15079      50545F45 
 15079      42435F44 
 15079      49564944 
 15079      455F4552 
 15080 1174d 01       		.byte	0x1
 15081 1174e C203     		.uleb128 0x1c2
 15082 11750 45584345 		.ascii "EXCEPT_EBC_DEBUG 2\0"
 15082      50545F45 
 15082      42435F44 
 15082      45425547 
 15082      203200
 15083 11763 01       		.byte	0x1
 15084 11764 C303     		.uleb128 0x1c3
 15085 11766 45584345 		.ascii "EXCEPT_EBC_BREAKPOINT 3\0"
 15085      50545F45 
 15085      42435F42 
 15085      5245414B 
 15085      504F494E 
 15086 1177e 01       		.byte	0x1
 15087 1177f C403     		.uleb128 0x1c4
 15088 11781 45584345 		.ascii "EXCEPT_EBC_OVERFLOW 4\0"
 15088      50545F45 
 15088      42435F4F 
 15088      56455246 
 15088      4C4F5720 
 15089 11797 01       		.byte	0x1
 15090 11798 C503     		.uleb128 0x1c5
 15091 1179a 45584345 		.ascii "EXCEPT_EBC_INVALID_OPCODE 5\0"
 15091      50545F45 
 15091      42435F49 
 15091      4E56414C 
 15091      49445F4F 
 15092 117b6 01       		.byte	0x1
 15093 117b7 C603     		.uleb128 0x1c6
 15094 117b9 45584345 		.ascii "EXCEPT_EBC_STACK_FAULT 6\0"
 15094      50545F45 
 15094      42435F53 
 15094      5441434B 
 15094      5F464155 
 15095 117d2 01       		.byte	0x1
 15096 117d3 C703     		.uleb128 0x1c7
 15097 117d5 45584345 		.ascii "EXCEPT_EBC_ALIGNMENT_CHECK 7\0"
 15097      50545F45 
 15097      42435F41 
 15097      4C49474E 
 15097      4D454E54 
 15098 117f2 01       		.byte	0x1
 15099 117f3 C803     		.uleb128 0x1c8
 15100 117f5 45584345 		.ascii "EXCEPT_EBC_INSTRUCTION_ENCODING 8\0"
 15100      50545F45 
 15100      42435F49 
 15100      4E535452 
 15100      55435449 
 15101 11817 01       		.byte	0x1
 15102 11818 C903     		.uleb128 0x1c9
 15103 1181a 45584345 		.ascii "EXCEPT_EBC_BAD_BREAK 9\0"
 15103      50545F45 
 15103      42435F42 
 15103      41445F42 
 15103      5245414B 
 15104 11831 01       		.byte	0x1
 15105 11832 CA03     		.uleb128 0x1ca
 15106 11834 45584345 		.ascii "EXCEPT_EBC_STEP 10\0"
 15106      50545F45 
 15106      42435F53 
 15106      54455020 
 15106      313000
 15107 11847 01       		.byte	0x1
 15108 11848 CB03     		.uleb128 0x1cb
 15109 1184a 4D41585F 		.ascii "MAX_EBC_EXCEPTION EXCEPT_EBC_STEP\0"
 15109      4542435F 
 15109      45584345 
 15109      5054494F 
 15109      4E204558 
 15110 1186c 01       		.byte	0x1
 15111 1186d DC03     		.uleb128 0x1dc
 15112 1186f 45584345 		.ascii "EXCEPT_ARM_RESET 0\0"
 15112      50545F41 
 15112      524D5F52 
 15112      45534554 
 15112      203000
 15113 11882 01       		.byte	0x1
 15114 11883 DD03     		.uleb128 0x1dd
 15115 11885 45584345 		.ascii "EXCEPT_ARM_UNDEFINED_INSTRUCTION 1\0"
 15115      50545F41 
 15115      524D5F55 
 15115      4E444546 
 15115      494E4544 
 15116 118a8 01       		.byte	0x1
 15117 118a9 DE03     		.uleb128 0x1de
 15118 118ab 45584345 		.ascii "EXCEPT_ARM_SOFTWARE_INTERRUPT 2\0"
 15118      50545F41 
 15118      524D5F53 
 15118      4F465457 
 15118      4152455F 
 15119 118cb 01       		.byte	0x1
 15120 118cc DF03     		.uleb128 0x1df
 15121 118ce 45584345 		.ascii "EXCEPT_ARM_PREFETCH_ABORT 3\0"
 15121      50545F41 
 15121      524D5F50 
 15121      52454645 
 15121      5443485F 
 15122 118ea 01       		.byte	0x1
 15123 118eb E003     		.uleb128 0x1e0
 15124 118ed 45584345 		.ascii "EXCEPT_ARM_DATA_ABORT 4\0"
 15124      50545F41 
 15124      524D5F44 
 15124      4154415F 
 15124      41424F52 
 15125 11905 01       		.byte	0x1
 15126 11906 E103     		.uleb128 0x1e1
 15127 11908 45584345 		.ascii "EXCEPT_ARM_RESERVED 5\0"
 15127      50545F41 
 15127      524D5F52 
 15127      45534552 
 15127      56454420 
 15128 1191e 01       		.byte	0x1
 15129 1191f E203     		.uleb128 0x1e2
 15130 11921 45584345 		.ascii "EXCEPT_ARM_IRQ 6\0"
 15130      50545F41 
 15130      524D5F49 
 15130      52512036 
 15130      00
 15131 11932 01       		.byte	0x1
 15132 11933 E303     		.uleb128 0x1e3
 15133 11935 45584345 		.ascii "EXCEPT_ARM_FIQ 7\0"
 15133      50545F41 
 15133      524D5F46 
 15133      49512037 
 15133      00
 15134 11946 01       		.byte	0x1
 15135 11947 E403     		.uleb128 0x1e4
 15136 11949 4D41585F 		.ascii "MAX_ARM_EXCEPTION EXCEPT_ARM_FIQ\0"
 15136      41524D5F 
 15136      45584345 
 15136      5054494F 
 15136      4E204558 
 15137 1196a 01       		.byte	0x1
 15138 1196b 9F04     		.uleb128 0x21f
 15139 1196d 4546495F 		.ascii "EFI_DEBUG_IMAGE_INFO_TABLE_GUID { 0x49152e77, 0x1ada, 0x4764, {0xb7, 0xa2, 0x7a, 0xfe, 0xf
 15139      44454255 
 15139      475F494D 
 15139      4147455F 
 15139      494E464F 
 15140 119de 01       		.byte	0x1
 15141 119df A204     		.uleb128 0x222
 15142 119e1 4546495F 		.ascii "EFI_DEBUG_IMAGE_INFO_UPDATE_IN_PROGRESS 0x01\0"
 15142      44454255 
 15142      475F494D 
 15142      4147455F 
 15142      494E464F 
 15143 11a0e 01       		.byte	0x1
 15144 11a0f A304     		.uleb128 0x223
 15145 11a11 4546495F 		.ascii "EFI_DEBUG_IMAGE_INFO_TABLE_MODIFIED 0x02\0"
 15145      44454255 
 15145      475F494D 
 15145      4147455F 
 15145      494E464F 
 15146 11a3a 01       		.byte	0x1
 15147 11a3b A404     		.uleb128 0x224
 15148 11a3d 4546495F 		.ascii "EFI_DEBUG_IMAGE_INFO_INITIAL_SIZE (EFI_PAGE_SIZE / sizeof (UINTN))\0"
 15148      44454255 
 15148      475F494D 
 15148      4147455F 
 15148      494E464F 
 15149 11a80 01       		.byte	0x1
 15150 11a81 A504     		.uleb128 0x225
 15151 11a83 4546495F 		.ascii "EFI_DEBUG_IMAGE_INFO_TYPE_NORMAL 0x01\0"
 15151      44454255 
 15151      475F494D 
 15151      4147455F 
 15151      494E464F 
 15152 11aa9 01       		.byte	0x1
 15153 11aaa C204     		.uleb128 0x242
 15154 11aac 4546495F 		.ascii "EFI_DEBUG_SUPPORT_PROTOCOL_GUID { 0x2755590c, 0x6f3c, 0x42fa, {0x9e, 0xa4, 0xa3, 0xba, 0x5
 15154      44454255 
 15154      475F5355 
 15154      50504F52 
 15154      545F5052 
 15155 11b1d 04       		.byte	0x4
 15156 11b1e 03       		.byte	0x3
 15157 11b1f 1B       		.uleb128 0x1b
 15158 11b20 0B       		.uleb128 0xb
 15159 11b21 01       		.byte	0x1
 15160 11b22 02       		.uleb128 0x2
 15161 11b23 5F454649 		.ascii "_EFI_PART_H \0"
 15161      5F504152 
 15161      545F4820 
 15161      00
 15162 11b30 01       		.byte	0x1
 15163 11b31 1A       		.uleb128 0x1a
 15164 11b32 4546495F 		.ascii "EFI_PARTITION 0xef\0"
 15164      50415254 
 15164      4954494F 
 15164      4E203078 
 15164      656600
 15165 11b45 01       		.byte	0x1
 15166 11b46 1B       		.uleb128 0x1b
 15167 11b47 4D42525F 		.ascii "MBR_SIZE 512\0"
 15167      53495A45 
 15167      20353132 
 15167      00
 15168 11b54 01       		.byte	0x1
 15169 11b55 2C       		.uleb128 0x2c
 15170 11b56 45585452 		.ascii "EXTRACT_UINT32(D) (UINT32)(D[0] | (D[1] << 8) | (D[2] << 16) | (D[3] << 24))\0"
 15170      4143545F 
 15170      55494E54 
 15170      33322844 
 15170      29202855 
 15171 11ba3 01       		.byte	0x1
 15172 11ba4 2E       		.uleb128 0x2e
 15173 11ba5 4D42525F 		.ascii "MBR_SIGNATURE 0xaa55\0"
 15173      5349474E 
 15173      41545552 
 15173      45203078 
 15173      61613535 
 15174 11bba 01       		.byte	0x1
 15175 11bbb 2F       		.uleb128 0x2f
 15176 11bbc 4D494E5F 		.ascii "MIN_MBR_DEVICE_SIZE 0x80000\0"
 15176      4D42525F 
 15176      44455649 
 15176      43455F53 
 15176      495A4520 
 15177 11bd8 01       		.byte	0x1
 15178 11bd9 30       		.uleb128 0x30
 15179 11bda 4D42525F 		.ascii "MBR_ERRATA_PAD 0x40000\0"
 15179      45525241 
 15179      54415F50 
 15179      41442030 
 15179      78343030 
 15180 11bf1 01       		.byte	0x1
 15181 11bf2 32       		.uleb128 0x32
 15182 11bf3 4D41585F 		.ascii "MAX_MBR_PARTITIONS 4\0"
 15182      4D42525F 
 15182      50415254 
 15182      4954494F 
 15182      4E532034 
 15183 11c08 04       		.byte	0x4
 15184              		.file 41 "gnu-efi-3.0.18/inc/x86_64/efilibplat.h"
 15185 11c09 03       		.byte	0x3
 15186 11c0a 1D       		.uleb128 0x1d
 15187 11c0b 29       		.uleb128 0x29
 15188 11c0c 04       		.byte	0x4
 15189 11c0d 03       		.byte	0x3
 15190 11c0e 2E       		.uleb128 0x2e
 15191 11c0f 0D       		.uleb128 0xd
 15192 11c10 01       		.byte	0x1
 15193 11c11 02       		.uleb128 0x2
 15194 11c12 5F454649 		.ascii "_EFI_RT_LIB_INCLUDE_ \0"
 15194      5F52545F 
 15194      4C49425F 
 15194      494E434C 
 15194      5544455F 
 15195 11c28 03       		.byte	0x3
 15196 11c29 18       		.uleb128 0x18
 15197 11c2a 29       		.uleb128 0x29
 15198 11c2b 04       		.byte	0x4
 15199 11c2c 04       		.byte	0x4
 15200              		.file 42 "gnu-efi-3.0.18/inc/efistdarg.h"
 15201 11c2d 03       		.byte	0x3
 15202 11c2e 2F       		.uleb128 0x2f
 15203 11c2f 2A       		.uleb128 0x2a
 15204 11c30 01       		.byte	0x1
 15205 11c31 02       		.uleb128 0x2
 15206 11c32 5F454649 		.ascii "_EFISTDARG_H_ \0"
 15206      53544441 
 15206      52475F48 
 15206      5F2000
 15207 11c41 01       		.byte	0x1
 15208 11c42 19       		.uleb128 0x19
 15209 11c43 76615F73 		.ascii "va_start(v,l) __builtin_va_start(v,l)\0"
 15209      74617274 
 15209      28762C6C 
 15209      29205F5F 
 15209      6275696C 
 15210 11c69 01       		.byte	0x1
 15211 11c6a 1A       		.uleb128 0x1a
 15212 11c6b 76615F65 		.ascii "va_end(v) __builtin_va_end(v)\0"
 15212      6E642876 
 15212      29205F5F 
 15212      6275696C 
 15212      74696E5F 
 15213 11c89 01       		.byte	0x1
 15214 11c8a 1B       		.uleb128 0x1b
 15215 11c8b 76615F61 		.ascii "va_arg(v,l) __builtin_va_arg(v,l)\0"
 15215      72672876 
 15215      2C6C2920 
 15215      5F5F6275 
 15215      696C7469 
 15216 11cad 01       		.byte	0x1
 15217 11cae 1C       		.uleb128 0x1c
 15218 11caf 76615F63 		.ascii "va_copy(d,s) __builtin_va_copy(d,s)\0"
 15218      6F707928 
 15218      642C7329 
 15218      205F5F62 
 15218      75696C74 
 15219 11cd3 04       		.byte	0x4
 15220              		.file 43 "gnu-efi-3.0.18/inc/pci22.h"
 15221 11cd4 03       		.byte	0x3
 15222 11cd5 30       		.uleb128 0x30
 15223 11cd6 2B       		.uleb128 0x2b
 15224 11cd7 01       		.byte	0x1
 15225 11cd8 02       		.uleb128 0x2
 15226 11cd9 5F504349 		.ascii "_PCI22_H \0"
 15226      32325F48 
 15226      2000
 15227 11ce3 01       		.byte	0x1
 15228 11ce4 19       		.uleb128 0x19
 15229 11ce5 5043495F 		.ascii "PCI_MAX_BUS 255\0"
 15229      4D41585F 
 15229      42555320 
 15229      32353500 
 15230 11cf5 01       		.byte	0x1
 15231 11cf6 1C       		.uleb128 0x1c
 15232 11cf7 5043495F 		.ascii "PCI_MAX_DEVICE 31\0"
 15232      4D41585F 
 15232      44455649 
 15232      43452033 
 15232      3100
 15233 11d09 01       		.byte	0x1
 15234 11d0a 1D       		.uleb128 0x1d
 15235 11d0b 5043495F 		.ascii "PCI_MAX_FUNC 7\0"
 15235      4D41585F 
 15235      46554E43 
 15235      203700
 15236 11d1a 01       		.byte	0x1
 15237 11d1b 22       		.uleb128 0x22
 15238 11d1c 5043495F 		.ascii "PCI_VGA_PALETTE_SNOOP_DISABLED 0x20\0"
 15238      5647415F 
 15238      50414C45 
 15238      5454455F 
 15238      534E4F4F 
 15239 11d40 01       		.byte	0x1
 15240 11d41 5C       		.uleb128 0x5c
 15241 11d42 5043495F 		.ascii "PCI_CLASS_DISPLAY_CTRL 0x03\0"
 15241      434C4153 
 15241      535F4449 
 15241      53504C41 
 15241      595F4354 
 15242 11d5e 01       		.byte	0x1
 15243 11d5f 5D       		.uleb128 0x5d
 15244 11d60 5043495F 		.ascii "PCI_CLASS_VGA 0x00\0"
 15244      434C4153 
 15244      535F5647 
 15244      41203078 
 15244      303000
 15245 11d73 01       		.byte	0x1
 15246 11d74 5F       		.uleb128 0x5f
 15247 11d75 5043495F 		.ascii "PCI_CLASS_BRIDGE 0x06\0"
 15247      434C4153 
 15247      535F4252 
 15247      49444745 
 15247      20307830 
 15248 11d8b 01       		.byte	0x1
 15249 11d8c 60       		.uleb128 0x60
 15250 11d8d 5043495F 		.ascii "PCI_CLASS_ISA 0x01\0"
 15250      434C4153 
 15250      535F4953 
 15250      41203078 
 15250      303100
 15251 11da0 01       		.byte	0x1
 15252 11da1 61       		.uleb128 0x61
 15253 11da2 5043495F 		.ascii "PCI_CLASS_ISA_POSITIVE_DECODE 0x80\0"
 15253      434C4153 
 15253      535F4953 
 15253      415F504F 
 15253      53495449 
 15254 11dc5 01       		.byte	0x1
 15255 11dc6 63       		.uleb128 0x63
 15256 11dc7 5043495F 		.ascii "PCI_CLASS_NETWORK 0x02\0"
 15256      434C4153 
 15256      535F4E45 
 15256      54574F52 
 15256      4B203078 
 15257 11dde 01       		.byte	0x1
 15258 11ddf 64       		.uleb128 0x64
 15259 11de0 5043495F 		.ascii "PCI_CLASS_ETHERNET 0x00\0"
 15259      434C4153 
 15259      535F4554 
 15259      4845524E 
 15259      45542030 
 15260 11df8 01       		.byte	0x1
 15261 11df9 66       		.uleb128 0x66
 15262 11dfa 48454144 		.ascii "HEADER_TYPE_DEVICE 0x00\0"
 15262      45525F54 
 15262      5950455F 
 15262      44455649 
 15262      43452030 
 15263 11e12 01       		.byte	0x1
 15264 11e13 67       		.uleb128 0x67
 15265 11e14 48454144 		.ascii "HEADER_TYPE_PCI_TO_PCI_BRIDGE 0x01\0"
 15265      45525F54 
 15265      5950455F 
 15265      5043495F 
 15265      544F5F50 
 15266 11e37 01       		.byte	0x1
 15267 11e38 68       		.uleb128 0x68
 15268 11e39 48454144 		.ascii "HEADER_TYPE_MULTI_FUNCTION 0x80\0"
 15268      45525F54 
 15268      5950455F 
 15268      4D554C54 
 15268      495F4655 
 15269 11e59 01       		.byte	0x1
 15270 11e5a 69       		.uleb128 0x69
 15271 11e5b 48454144 		.ascii "HEADER_LAYOUT_CODE 0x7f\0"
 15271      45525F4C 
 15271      41594F55 
 15271      545F434F 
 15271      44452030 
 15272 11e73 01       		.byte	0x1
 15273 11e74 6B       		.uleb128 0x6b
 15274 11e75 49535F50 		.ascii "IS_PCI_BRIDGE(_p) ((((_p)->Hdr.HeaderType) & HEADER_LAYOUT_CODE) == HEADER_TYPE_PCI_TO_PCI
 15274      43495F42 
 15274      52494447 
 15274      45285F70 
 15274      29202828 
 15275 11ed8 01       		.byte	0x1
 15276 11ed9 6C       		.uleb128 0x6c
 15277 11eda 49535F50 		.ascii "IS_PCI_MULTI_FUNC(_p) (((_p)->Hdr.HeaderType) & HEADER_TYPE_MULTI_FUNCTION)\0"
 15277      43495F4D 
 15277      554C5449 
 15277      5F46554E 
 15277      43285F70 
 15278 11f26 01       		.byte	0x1
 15279 11f27 8601     		.uleb128 0x86
 15280 11f29 4546495F 		.ascii "EFI_ROOT_BRIDGE_LIST 'eprb'\0"
 15280      524F4F54 
 15280      5F425249 
 15280      4447455F 
 15280      4C495354 
 15281 11f45 01       		.byte	0x1
 15282 11f46 9401     		.uleb128 0x94
 15283 11f48 5043495F 		.ascii "PCI_EXPANSION_ROM_HEADER_SIGNATURE 0xaa55\0"
 15283      45585041 
 15283      4E53494F 
 15283      4E5F524F 
 15283      4D5F4845 
 15284 11f72 01       		.byte	0x1
 15285 11f73 9501     		.uleb128 0x95
 15286 11f75 4546495F 		.ascii "EFI_PCI_EXPANSION_ROM_HEADER_EFISIGNATURE 0x0EF1\0"
 15286      5043495F 
 15286      45585041 
 15286      4E53494F 
 15286      4E5F524F 
 15287 11fa6 01       		.byte	0x1
 15288 11fa7 9601     		.uleb128 0x96
 15289 11fa9 5043495F 		.ascii "PCI_DATA_STRUCTURE_SIGNATURE EFI_SIGNATURE_32('P','C','I','R')\0"
 15289      44415441 
 15289      5F535452 
 15289      55435455 
 15289      52455F53 
 15290 11fe8 04       		.byte	0x4
 15291              		.file 44 "gnu-efi-3.0.18/inc/libsmbios.h"
 15292 11fe9 03       		.byte	0x3
 15293 11fea 31       		.uleb128 0x31
 15294 11feb 2C       		.uleb128 0x2c
 15295 11fec 01       		.byte	0x1
 15296 11fed 02       		.uleb128 0x2
 15297 11fee 5F4C4942 		.ascii "_LIB_SMBIOS_H \0"
 15297      5F534D42 
 15297      494F535F 
 15297      482000
 15298 11ffd 04       		.byte	0x4
 15299 11ffe 01       		.byte	0x1
 15300 11fff 38       		.uleb128 0x38
 15301 12000 67535420 		.ascii "gST ST\0"
 15301      535400
 15302 12007 01       		.byte	0x1
 15303 12008 3A       		.uleb128 0x3a
 15304 12009 67425320 		.ascii "gBS BS\0"
 15304      425300
 15305 12010 01       		.byte	0x1
 15306 12011 3C       		.uleb128 0x3c
 15307 12012 67525420 		.ascii "gRT RT\0"
 15307      525400
 15308 12019 01       		.byte	0x1
 15309 1201a 3F       		.uleb128 0x3f
 15310 1201b 44657669 		.ascii "DevicePathProtocol gEfiDevicePathProtocolGuid\0"
 15310      63655061 
 15310      74685072 
 15310      6F746F63 
 15310      6F6C2067 
 15311 12049 01       		.byte	0x1
 15312 1204a 41       		.uleb128 0x41
 15313 1204b 44657669 		.ascii "DevicePathToTextProtocol gEfiDevicePathToTextProtocolGuid\0"
 15313      63655061 
 15313      7468546F 
 15313      54657874 
 15313      50726F74 
 15314 12085 01       		.byte	0x1
 15315 12086 43       		.uleb128 0x43
 15316 12087 44657669 		.ascii "DevicePathFromTextProtocol gEfiDevicePathFromTextProtocolGuid\0"
 15316      63655061 
 15316      74684672 
 15316      6F6D5465 
 15316      78745072 
 15317 120c5 01       		.byte	0x1
 15318 120c6 45       		.uleb128 0x45
 15319 120c7 44657669 		.ascii "DevicePathUtilitiesProtocol gEfiDevicePathUtilitiesProtocolGuid\0"
 15319      63655061 
 15319      74685574 
 15319      696C6974 
 15319      69657350 
 15320 12107 01       		.byte	0x1
 15321 12108 47       		.uleb128 0x47
 15322 12109 4C6F6164 		.ascii "LoadedImageProtocol gEfiLoadedImageProtocolGuid\0"
 15322      6564496D 
 15322      61676550 
 15322      726F746F 
 15322      636F6C20 
 15323 12139 01       		.byte	0x1
 15324 1213a 49       		.uleb128 0x49
 15325 1213b 54657874 		.ascii "TextInProtocol gEfiSimpleTextInProtocolGuid\0"
 15325      496E5072 
 15325      6F746F63 
 15325      6F6C2067 
 15325      45666953 
 15326 12167 01       		.byte	0x1
 15327 12168 4B       		.uleb128 0x4b
 15328 12169 54657874 		.ascii "TextOutProtocol gEfiSimpleTextOutProtocolGuid\0"
 15328      4F757450 
 15328      726F746F 
 15328      636F6C20 
 15328      67456669 
 15329 12197 01       		.byte	0x1
 15330 12198 4D       		.uleb128 0x4d
 15331 12199 47726170 		.ascii "GraphicsOutputProtocol gEfiGraphicsOutputProtocolGuid\0"
 15331      68696373 
 15331      4F757470 
 15331      75745072 
 15331      6F746F63 
 15332 121cf 01       		.byte	0x1
 15333 121d0 4F       		.uleb128 0x4f
 15334 121d1 45646964 		.ascii "EdidDiscoveredProtocol gEfiEdidDiscoveredProtocolGuid\0"
 15334      44697363 
 15334      6F766572 
 15334      65645072 
 15334      6F746F63 
 15335 12207 01       		.byte	0x1
 15336 12208 51       		.uleb128 0x51
 15337 12209 45646964 		.ascii "EdidActiveProtocol gEfiEdidActiveProtocolGuid\0"
 15337      41637469 
 15337      76655072 
 15337      6F746F63 
 15337      6F6C2067 
 15338 12237 01       		.byte	0x1
 15339 12238 53       		.uleb128 0x53
 15340 12239 45646964 		.ascii "EdidOverrideProtocol gEfiEdidOverrideProtocolGuid\0"
 15340      4F766572 
 15340      72696465 
 15340      50726F74 
 15340      6F636F6C 
 15341 1226b 01       		.byte	0x1
 15342 1226c 55       		.uleb128 0x55
 15343 1226d 426C6F63 		.ascii "BlockIoProtocol gEfiBlockIoProtocolGuid\0"
 15343      6B496F50 
 15343      726F746F 
 15343      636F6C20 
 15343      67456669 
 15344 12295 01       		.byte	0x1
 15345 12296 57       		.uleb128 0x57
 15346 12297 426C6F63 		.ascii "BlockIo2Protocol gEfiBlockIo2ProtocolGuid\0"
 15346      6B496F32 
 15346      50726F74 
 15346      6F636F6C 
 15346      20674566 
 15347 122c1 01       		.byte	0x1
 15348 122c2 59       		.uleb128 0x59
 15349 122c3 4469736B 		.ascii "DiskIoProtocol gEfiDiskIoProtocolGuid\0"
 15349      496F5072 
 15349      6F746F63 
 15349      6F6C2067 
 15349      45666944 
 15350 122e9 01       		.byte	0x1
 15351 122ea 5B       		.uleb128 0x5b
 15352 122eb 4469736B 		.ascii "DiskIo2Protocol gEfiDiskIo2ProtocolGuid\0"
 15352      496F3250 
 15352      726F746F 
 15352      636F6C20 
 15352      67456669 
 15353 12313 01       		.byte	0x1
 15354 12314 5D       		.uleb128 0x5d
 15355 12315 46696C65 		.ascii "FileSystemProtocol gEfiSimpleFileSystemProtocolGuid\0"
 15355      53797374 
 15355      656D5072 
 15355      6F746F63 
 15355      6F6C2067 
 15356 12349 01       		.byte	0x1
 15357 1234a 5F       		.uleb128 0x5f
 15358 1234b 4C6F6164 		.ascii "LoadFileProtocol gEfiLoadFileProtocolGuid\0"
 15358      46696C65 
 15358      50726F74 
 15358      6F636F6C 
 15358      20674566 
 15359 12375 01       		.byte	0x1
 15360 12376 61       		.uleb128 0x61
 15361 12377 44657669 		.ascii "DeviceIoProtocol gEfiDeviceIoProtocolGuid\0"
 15361      6365496F 
 15361      50726F74 
 15361      6F636F6C 
 15361      20674566 
 15362 123a1 01       		.byte	0x1
 15363 123a2 65       		.uleb128 0x65
 15364 123a3 556E6963 		.ascii "UnicodeCollationProtocol gEfiUnicodeCollationProtocolGuid\0"
 15364      6F646543 
 15364      6F6C6C61 
 15364      74696F6E 
 15364      50726F74 
 15365 123dd 01       		.byte	0x1
 15366 123de 67       		.uleb128 0x67
 15367 123df 53657269 		.ascii "SerialIoProtocol gEfiSerialIoProtocolGuid\0"
 15367      616C496F 
 15367      50726F74 
 15367      6F636F6C 
 15367      20674566 
 15368 12409 01       		.byte	0x1
 15369 1240a 6D       		.uleb128 0x6d
 15370 1240b 53696D70 		.ascii "SimpleNetworkProtocol gEfiSimpleNetworkProtocolGuid\0"
 15370      6C654E65 
 15370      74776F72 
 15370      6B50726F 
 15370      746F636F 
 15371 1243f 01       		.byte	0x1
 15372 12440 6F       		.uleb128 0x6f
 15373 12441 50786542 		.ascii "PxeBaseCodeProtocol gEfiPxeBaseCodeProtocolGuid\0"
 15373      61736543 
 15373      6F646550 
 15373      726F746F 
 15373      636F6C20 
 15374 12471 01       		.byte	0x1
 15375 12472 71       		.uleb128 0x71
 15376 12473 50786543 		.ascii "PxeCallbackProtocol gEfiPxeBaseCodeCallbackProtocolGuid\0"
 15376      616C6C62 
 15376      61636B50 
 15376      726F746F 
 15376      636F6C20 
 15377 124ab 01       		.byte	0x1
 15378 124ac 73       		.uleb128 0x73
 15379 124ad 4E657477 		.ascii "NetworkInterfaceIdentifierProtocol gEfiNetworkInterfaceIdentifierProtocolGuid\0"
 15379      6F726B49 
 15379      6E746572 
 15379      66616365 
 15379      4964656E 
 15380 124fb 01       		.byte	0x1
 15381 124fc 75       		.uleb128 0x75
 15382 124fd 55695072 		.ascii "UiProtocol gEFiUiInterfaceProtocolGuid\0"
 15382      6F746F63 
 15382      6F6C2067 
 15382      45466955 
 15382      69496E74 
 15383 12524 01       		.byte	0x1
 15384 12525 78       		.uleb128 0x78
 15385 12526 50636949 		.ascii "PciIoProtocol gEfiPciIoProtocolGuid\0"
 15385      6F50726F 
 15385      746F636F 
 15385      6C206745 
 15385      66695063 
 15386 1254a 01       		.byte	0x1
 15387 1254b 7B       		.uleb128 0x7b
 15388 1254c 44726976 		.ascii "DriverBindingProtocol gEfiDriverBindingProtocolGuid\0"
 15388      65724269 
 15388      6E64696E 
 15388      6750726F 
 15388      746F636F 
 15389 12580 01       		.byte	0x1
 15390 12581 7D       		.uleb128 0x7d
 15391 12582 436F6D70 		.ascii "ComponentNameProtocol gEfiComponentNameProtocolGuid\0"
 15391      6F6E656E 
 15391      744E616D 
 15391      6550726F 
 15391      746F636F 
 15392 125b6 01       		.byte	0x1
 15393 125b7 7F       		.uleb128 0x7f
 15394 125b8 436F6D70 		.ascii "ComponentName2Protocol gEfiComponentName2ProtocolGuid\0"
 15394      6F6E656E 
 15394      744E616D 
 15394      65325072 
 15394      6F746F63 
 15395 125ee 01       		.byte	0x1
 15396 125ef 8101     		.uleb128 0x81
 15397 125f1 48617368 		.ascii "HashProtocol gEfiHashProtocolGuid\0"
 15397      50726F74 
 15397      6F636F6C 
 15397      20674566 
 15397      69486173 
 15398 12613 01       		.byte	0x1
 15399 12614 8301     		.uleb128 0x83
 15400 12616 506C6174 		.ascii "PlatformDriverOverrideProtocol gEfiPlatformDriverOverrideProtocolGuid\0"
 15400      666F726D 
 15400      44726976 
 15400      65724F76 
 15400      65727269 
 15401 1265c 01       		.byte	0x1
 15402 1265d 8501     		.uleb128 0x85
 15403 1265f 42757353 		.ascii "BusSpecificDriverOverrideProtocol gEfiBusSpecificDriverOverrideProtocolGuid\0"
 15403      70656369 
 15403      66696344 
 15403      72697665 
 15403      724F7665 
 15404 126ab 01       		.byte	0x1
 15405 126ac 8701     		.uleb128 0x87
 15406 126ae 44726976 		.ascii "DriverFamilyOverrideProtocol gEfiDriverFamilyOverrideProtocolGuid\0"
 15406      65724661 
 15406      6D696C79 
 15406      4F766572 
 15406      72696465 
 15407 126f0 01       		.byte	0x1
 15408 126f1 8B01     		.uleb128 0x8b
 15409 126f3 45666947 		.ascii "EfiGlobalVariable gEfiGlobalVariableGuid\0"
 15409      6C6F6261 
 15409      6C566172 
 15409      6961626C 
 15409      65206745 
 15410 1271c 01       		.byte	0x1
 15411 1271d 8D01     		.uleb128 0x8d
 15412 1271f 47656E65 		.ascii "GenericFileInfo gEfiFileInfoGuid\0"
 15412      72696346 
 15412      696C6549 
 15412      6E666F20 
 15412      67456669 
 15413 12740 01       		.byte	0x1
 15414 12741 8F01     		.uleb128 0x8f
 15415 12743 46696C65 		.ascii "FileSystemInfo gEfiFileSystemInfoGuid\0"
 15415      53797374 
 15415      656D496E 
 15415      666F2067 
 15415      45666946 
 15416 12769 01       		.byte	0x1
 15417 1276a 9101     		.uleb128 0x91
 15418 1276c 46696C65 		.ascii "FileSystemVolumeLabelInfo gEfiFileSystemVolumeLabelInfoIdGuid\0"
 15418      53797374 
 15418      656D566F 
 15418      6C756D65 
 15418      4C616265 
 15419 127aa 01       		.byte	0x1
 15420 127ab 9301     		.uleb128 0x93
 15421 127ad 5063416E 		.ascii "PcAnsiProtocol gEfiPcAnsiGuid\0"
 15421      73695072 
 15421      6F746F63 
 15421      6F6C2067 
 15421      45666950 
 15422 127cb 01       		.byte	0x1
 15423 127cc 9501     		.uleb128 0x95
 15424 127ce 56743130 		.ascii "Vt100Protocol gEfiVT100Guid\0"
 15424      3050726F 
 15424      746F636F 
 15424      6C206745 
 15424      66695654 
 15425 127ea 01       		.byte	0x1
 15426 127eb B501     		.uleb128 0xb5
 15427 127ed 4C4F4144 		.ascii "LOAD_OPTION_ACTIVE 0x00000001\0"
 15427      5F4F5054 
 15427      494F4E5F 
 15427      41435449 
 15427      56452030 
 15428 1280b 01       		.byte	0x1
 15429 1280c B701     		.uleb128 0xb7
 15430 1280e 5661724C 		.ascii "VarLanguageCodes L\"LangCodes\"\0"
 15430      616E6775 
 15430      61676543 
 15430      6F646573 
 15430      204C224C 
 15431 1282c 01       		.byte	0x1
 15432 1282d B801     		.uleb128 0xb8
 15433 1282f 5661724C 		.ascii "VarLanguage L\"Lang\"\0"
 15433      616E6775 
 15433      61676520 
 15433      4C224C61 
 15433      6E672200 
 15434 12843 01       		.byte	0x1
 15435 12844 B901     		.uleb128 0xb9
 15436 12846 56617254 		.ascii "VarTimeout L\"Timeout\"\0"
 15436      696D656F 
 15436      7574204C 
 15436      2254696D 
 15436      656F7574 
 15437 1285c 01       		.byte	0x1
 15438 1285d BA01     		.uleb128 0xba
 15439 1285f 56617243 		.ascii "VarConsoleInp L\"ConIn\"\0"
 15439      6F6E736F 
 15439      6C65496E 
 15439      70204C22 
 15439      436F6E49 
 15440 12876 01       		.byte	0x1
 15441 12877 BB01     		.uleb128 0xbb
 15442 12879 56617243 		.ascii "VarConsoleOut L\"ConOut\"\0"
 15442      6F6E736F 
 15442      6C654F75 
 15442      74204C22 
 15442      436F6E4F 
 15443 12891 01       		.byte	0x1
 15444 12892 BC01     		.uleb128 0xbc
 15445 12894 56617245 		.ascii "VarErrorOut L\"ErrOut\"\0"
 15445      72726F72 
 15445      4F757420 
 15445      4C224572 
 15445      724F7574 
 15446 128aa 01       		.byte	0x1
 15447 128ab BD01     		.uleb128 0xbd
 15448 128ad 56617242 		.ascii "VarBootOption L\"Boot%04x\"\0"
 15448      6F6F744F 
 15448      7074696F 
 15448      6E204C22 
 15448      426F6F74 
 15449 128c7 01       		.byte	0x1
 15450 128c8 BE01     		.uleb128 0xbe
 15451 128ca 56617242 		.ascii "VarBootOrder L\"BootOrder\"\0"
 15451      6F6F744F 
 15451      72646572 
 15451      204C2242 
 15451      6F6F744F 
 15452 128e4 01       		.byte	0x1
 15453 128e5 BF01     		.uleb128 0xbf
 15454 128e7 56617242 		.ascii "VarBootNext L\"BootNext\"\0"
 15454      6F6F744E 
 15454      65787420 
 15454      4C22426F 
 15454      6F744E65 
 15455 128ff 01       		.byte	0x1
 15456 12900 C001     		.uleb128 0xc0
 15457 12902 56617242 		.ascii "VarBootCurrent L\"BootCurrent\"\0"
 15457      6F6F7443 
 15457      75727265 
 15457      6E74204C 
 15457      22426F6F 
 15458 12920 01       		.byte	0x1
 15459 12921 C101     		.uleb128 0xc1
 15460 12923 56617244 		.ascii "VarDriverOption L\"Driver%04x\"\0"
 15460      72697665 
 15460      724F7074 
 15460      696F6E20 
 15460      4C224472 
 15461 12941 01       		.byte	0x1
 15462 12942 C201     		.uleb128 0xc2
 15463 12944 56617244 		.ascii "VarDriverOrder L\"DriverOrder\"\0"
 15463      72697665 
 15463      724F7264 
 15463      6572204C 
 15463      22447269 
 15464 12962 01       		.byte	0x1
 15465 12963 C301     		.uleb128 0xc3
 15466 12965 56617243 		.ascii "VarConsoleInpDev L\"ConInDev\"\0"
 15466      6F6E736F 
 15466      6C65496E 
 15466      70446576 
 15466      204C2243 
 15467 12982 01       		.byte	0x1
 15468 12983 C401     		.uleb128 0xc4
 15469 12985 56617243 		.ascii "VarConsoleOutDev L\"ConOutDev\"\0"
 15469      6F6E736F 
 15469      6C654F75 
 15469      74446576 
 15469      204C2243 
 15470 129a3 01       		.byte	0x1
 15471 129a4 C501     		.uleb128 0xc5
 15472 129a6 56617245 		.ascii "VarErrorOutDev L\"ErrOutDev\"\0"
 15472      72726F72 
 15472      4F757444 
 15472      6576204C 
 15472      22457272 
 15473 129c2 01       		.byte	0x1
 15474 129c3 C701     		.uleb128 0xc7
 15475 129c5 4C616E67 		.ascii "LanguageCodeEnglish \"eng\"\0"
 15475      75616765 
 15475      436F6465 
 15475      456E676C 
 15475      69736820 
 15476 129df 01       		.byte	0x1
 15477 129e0 D901     		.uleb128 0xd9
 15478 129e2 53544154 		.ascii "STATIC \0"
 15478      49432000 
 15479 129ea 01       		.byte	0x1
 15480 129eb DA01     		.uleb128 0xda
 15481 129ed 494E5445 		.ascii "INTERNAL \0"
 15481      524E414C 
 15481      2000
 15482 129f7 01       		.byte	0x1
 15483 129f8 DB01     		.uleb128 0xdb
 15484 129fa 424F4F54 		.ascii "BOOTSERVICE \0"
 15484      53455256 
 15484      49434520 
 15484      00
 15485 12a07 01       		.byte	0x1
 15486 12a08 F204     		.uleb128 0x272
 15487 12a0a 53507269 		.ascii "SPrint UnicodeSPrint\0"
 15487      6E742055 
 15487      6E69636F 
 15487      64655350 
 15487      72696E74 
 15488 12a1f 01       		.byte	0x1
 15489 12a20 F304     		.uleb128 0x273
 15490 12a22 56535072 		.ascii "VSPrint UnicodeVSPrint\0"
 15490      696E7420 
 15490      556E6963 
 15490      6F646556 
 15490      53507269 
 15491 12a39 01       		.byte	0x1
 15492 12a3a F404     		.uleb128 0x274
 15493 12a3c 41507269 		.ascii "APrint AsciiPrint\0"
 15493      6E742041 
 15493      73636969 
 15493      5072696E 
 15493      7400
 15494 12a4e 01       		.byte	0x1
 15495 12a4f AD08     		.uleb128 0x42d
 15496 12a51 6F757470 		.ascii "outp(_Port,_DataByte) (UINT8)WritePort(GlobalIoFncs, IO_UINT8, (UINTN)_Port, (UINTN)_DataB
 15496      285F506F 
 15496      72742C5F 
 15496      44617461 
 15496      42797465 
 15497 12ab0 01       		.byte	0x1
 15498 12ab1 AE08     		.uleb128 0x42e
 15499 12ab3 696E7028 		.ascii "inp(_Port) (UINT8)ReadPort(GlobalIoFncs, IO_UINT8, (UINTN)_Port)\0"
 15499      5F506F72 
 15499      74292028 
 15499      55494E54 
 15499      38295265 
 15500 12af4 01       		.byte	0x1
 15501 12af5 AF08     		.uleb128 0x42f
 15502 12af7 6F757470 		.ascii "outpw(_Port,_DataByte) (UINT16)WritePort(GlobalIoFncs, IO_UINT16, (UINTN)_Port, (UINTN)_Da
 15502      77285F50 
 15502      6F72742C 
 15502      5F446174 
 15502      61427974 
 15503 12b59 01       		.byte	0x1
 15504 12b5a B008     		.uleb128 0x430
 15505 12b5c 696E7077 		.ascii "inpw(_Port) (UINT16)ReadPort(GlobalIoFncs, IO_UINT16, (UINTN)_Port)\0"
 15505      285F506F 
 15505      72742920 
 15505      2855494E 
 15505      54313629 
 15506 12ba0 01       		.byte	0x1
 15507 12ba1 B108     		.uleb128 0x431
 15508 12ba3 6F757470 		.ascii "outpd(_Port,_DataByte) (UINT32)WritePort(GlobalIoFncs, IO_UINT32, (UINTN)_Port, (UINTN)_Da
 15508      64285F50 
 15508      6F72742C 
 15508      5F446174 
 15508      61427974 
 15509 12c05 01       		.byte	0x1
 15510 12c06 B208     		.uleb128 0x432
 15511 12c08 696E7064 		.ascii "inpd(_Port) (UINT32)ReadPort(GlobalIoFncs, IO_UINT32, (UINTN)_Port)\0"
 15511      285F506F 
 15511      72742920 
 15511      2855494E 
 15511      54333229 
 15512 12c4c 01       		.byte	0x1
 15513 12c4d B408     		.uleb128 0x434
 15514 12c4f 77726974 		.ascii "writepci8(_Addr,_DataByte) (UINT8)WritePciConfig(GlobalIoFncs, IO_UINT8, (UINTN)_Addr, (UI
 15514      65706369 
 15514      38285F41 
 15514      6464722C 
 15514      5F446174 
 15515 12cb8 01       		.byte	0x1
 15516 12cb9 B508     		.uleb128 0x435
 15517 12cbb 72656164 		.ascii "readpci8(_Addr) (UINT8)ReadPciConfig(GlobalIoFncs, IO_UINT8, (UINTN)_Addr)\0"
 15517      70636938 
 15517      285F4164 
 15517      64722920 
 15517      2855494E 
 15518 12d06 01       		.byte	0x1
 15519 12d07 B608     		.uleb128 0x436
 15520 12d09 77726974 		.ascii "writepci16(_Addr,_DataByte) (UINT16)WritePciConfig(GlobalIoFncs, IO_UINT16, (UINTN)_Addr, 
 15520      65706369 
 15520      3136285F 
 15520      41646472 
 15520      2C5F4461 
 15521 12d75 01       		.byte	0x1
 15522 12d76 B708     		.uleb128 0x437
 15523 12d78 72656164 		.ascii "readpci16(_Addr) (UINT16)ReadPciConfig(GlobalIoFncs, IO_UINT16, (UINTN)_Addr)\0"
 15523      70636931 
 15523      36285F41 
 15523      64647229 
 15523      20285549 
 15524 12dc6 01       		.byte	0x1
 15525 12dc7 B808     		.uleb128 0x438
 15526 12dc9 77726974 		.ascii "writepci32(_Addr,_DataByte) (UINT32)WritePciConfig(GlobalIoFncs, IO_UINT32, (UINTN)_Addr, 
 15526      65706369 
 15526      3332285F 
 15526      41646472 
 15526      2C5F4461 
 15527 12e35 01       		.byte	0x1
 15528 12e36 B908     		.uleb128 0x439
 15529 12e38 72656164 		.ascii "readpci32(_Addr) (UINT32)ReadPciConfig(GlobalIoFncs, IO_UINT32, (UINTN)_Addr)\0"
 15529      70636933 
 15529      32285F41 
 15529      64647229 
 15529      20285549 
 15530 12e86 01       		.byte	0x1
 15531 12e87 BB08     		.uleb128 0x43b
 15532 12e89 506F7274 		.ascii "Port80(_PostCode) GlobalIoFncs->Io.Write (GlobalIoFncs, IO_UINT16, (UINT64)0x80, 1, &(_Pos
 15532      3830285F 
 15532      506F7374 
 15532      436F6465 
 15532      2920476C 
 15533 12eeb 04       		.byte	0x4
 15534              		.file 45 "gnu-efi-3.0.18/inc/protocol/efivar.h"
 15535 12eec 03       		.byte	0x3
 15536 12eed 1E       		.uleb128 0x1e
 15537 12eee 2D       		.uleb128 0x2d
 15538 12eef 01       		.byte	0x1
 15539 12ef0 1C       		.uleb128 0x1c
 15540 12ef1 56415249 		.ascii "VARIABLE_STORE_PROTOCOL { 0xf088cd91, 0xa046, 0x11d2, {0x8e, 0x42, 0x0, 0xa0, 0xc9, 0x69, 
 15540      41424C45 
 15540      5F53544F 
 15540      52455F50 
 15540      524F544F 
 15541 12f59 04       		.byte	0x4
 15542              		.file 46 "gnu-efi-3.0.18/inc/protocol/legacyboot.h"
 15543 12f5a 03       		.byte	0x3
 15544 12f5b 1F       		.uleb128 0x1f
 15545 12f5c 2E       		.uleb128 0x2e
 15546 12f5d 01       		.byte	0x1
 15547 12f5e 14       		.uleb128 0x14
 15548 12f5f 5F4C4547 		.ascii "_LEGACY_BOOT_INCLUDE_ \0"
 15548      4143595F 
 15548      424F4F54 
 15548      5F494E43 
 15548      4C554445 
 15549 12f76 01       		.byte	0x1
 15550 12f77 16       		.uleb128 0x16
 15551 12f78 4C454741 		.ascii "LEGACY_BOOT_PROTOCOL { 0x376e5eb2, 0x30e4, 0x11d3, { 0xba, 0xe5, 0x0, 0x80, 0xc7, 0x3c, 0x
 15551      43595F42 
 15551      4F4F545F 
 15551      50524F54 
 15551      4F434F4C 
 15552 12fdf 04       		.byte	0x4
 15553              		.file 47 "gnu-efi-3.0.18/inc/protocol/intload.h"
 15554 12fe0 03       		.byte	0x3
 15555 12fe1 20       		.uleb128 0x20
 15556 12fe2 2F       		.uleb128 0x2f
 15557 12fe3 01       		.byte	0x1
 15558 12fe4 14       		.uleb128 0x14
 15559 12fe5 5F494E54 		.ascii "_INTERNAL_LOAD_INCLUDE_ \0"
 15559      45524E41 
 15559      4C5F4C4F 
 15559      41445F49 
 15559      4E434C55 
 15560 12ffe 01       		.byte	0x1
 15561 12fff 17       		.uleb128 0x17
 15562 13000 494E5445 		.ascii "INTERNAL_SHELL_GUID { 0xd65a6b8c, 0x71e5, 0x4df0, {0xa9, 0x09, 0xf0, 0xd2, 0x99, 0x2b, 0x5
 15562      524E414C 
 15562      5F534845 
 15562      4C4C5F47 
 15562      55494420 
 15563 13065 04       		.byte	0x4
 15564              		.file 48 "gnu-efi-3.0.18/inc/protocol/vgaclass.h"
 15565 13066 03       		.byte	0x3
 15566 13067 21       		.uleb128 0x21
 15567 13068 30       		.uleb128 0x30
 15568 13069 01       		.byte	0x1
 15569 1306a 02       		.uleb128 0x2
 15570 1306b 5F564741 		.ascii "_VGA_CLASS_H \0"
 15570      5F434C41 
 15570      53535F48 
 15570      2000
 15571 13079 01       		.byte	0x1
 15572 1307a 1B       		.uleb128 0x1b
 15573 1307b 5647415F 		.ascii "VGA_CLASS_DRIVER_PROTOCOL { 0xe3d6310, 0x6fe4, 0x11d3, {0xbb, 0x81, 0x0, 0x80, 0xc7, 0x3c,
 15573      434C4153 
 15573      535F4452 
 15573      49564552 
 15573      5F50524F 
 15574 130e4 01       		.byte	0x1
 15575 130e5 2A       		.uleb128 0x2a
 15576 130e6 5647415F 		.ascii "VGA_CON_OUT_DEV_SIGNATURE EFI_SIGNATURE_32('c','v','g','a')\0"
 15576      434F4E5F 
 15576      4F55545F 
 15576      4445565F 
 15576      5349474E 
 15577 13122 01       		.byte	0x1
 15578 13123 4C       		.uleb128 0x4c
 15579 13124 5647415F 		.ascii "VGA_CON_OUT_DEV_FROM_THIS(a) CR(a, VGA_CON_OUT_DEV, ConOut, VGA_CON_OUT_DEV_SIGNATURE)\0"
 15579      434F4E5F 
 15579      4F55545F 
 15579      4445565F 
 15579      46524F4D 
 15580 1317b 04       		.byte	0x4
 15581              		.file 49 "gnu-efi-3.0.18/inc/protocol/eficonsplit.h"
 15582 1317c 03       		.byte	0x3
 15583 1317d 22       		.uleb128 0x22
 15584 1317e 31       		.uleb128 0x31
 15585 1317f 01       		.byte	0x1
 15586 13180 02       		.uleb128 0x2
 15587 13181 5F454649 		.ascii "_EFI_CONFORK_H \0"
 15587      5F434F4E 
 15587      464F524B 
 15587      5F482000 
 15588 13191 01       		.byte	0x1
 15589 13192 17       		.uleb128 0x17
 15590 13193 54455854 		.ascii "TEXT_OUT_SPLITER_PROTOCOL { 0x56d830a0, 0x7e7a, 0x11d3, {0xbb, 0xa0, 0x0, 0xa0, 0xc9, 0x69
 15590      5F4F5554 
 15590      5F53504C 
 15590      49544552 
 15590      5F50524F 
 15591 131fd 01       		.byte	0x1
 15592 131fe 1A       		.uleb128 0x1a
 15593 131ff 4552524F 		.ascii "ERROR_OUT_SPLITER_PROTOCOL { 0xf0ba9039, 0x68f1, 0x425e, {0xaa, 0x7f, 0xd9, 0xaa, 0xf9, 0x
 15593      525F4F55 
 15593      545F5350 
 15593      4C495445 
 15593      525F5052 
 15594 1326a 01       		.byte	0x1
 15595 1326b 1D       		.uleb128 0x1d
 15596 1326c 54455854 		.ascii "TEXT_IN_SPLITER_PROTOCOL { 0xf9a3c550, 0x7fb5, 0x11d3, {0xbb, 0xa0, 0x0, 0xa0, 0xc9, 0x69,
 15596      5F494E5F 
 15596      53504C49 
 15596      5445525F 
 15596      50524F54 
 15597 132d5 04       		.byte	0x4
 15598              		.file 50 "gnu-efi-3.0.18/inc/protocol/adapterdebug.h"
 15599 132d6 03       		.byte	0x3
 15600 132d7 23       		.uleb128 0x23
 15601 132d8 32       		.uleb128 0x32
 15602 132d9 01       		.byte	0x1
 15603 132da 02       		.uleb128 0x2
 15604 132db 5F414441 		.ascii "_ADAPTER_DEBUG_H \0"
 15604      50544552 
 15604      5F444542 
 15604      55475F48 
 15604      2000
 15605 132ed 01       		.byte	0x1
 15606 132ee 17       		.uleb128 0x17
 15607 132ef 41444150 		.ascii "ADAPTER_DEBUG_PROTOCOL { 0x82f86881, 0x282b, 0x11d4, {0xbc, 0x7d, 0x0, 0x80, 0xc7, 0x3c, 0
 15607      5445525F 
 15607      44454255 
 15607      475F5052 
 15607      4F544F43 
 15608 13356 04       		.byte	0x4
 15609              		.file 51 "gnu-efi-3.0.18/inc/efigpt.h"
 15610 13357 03       		.byte	0x3
 15611 13358 26       		.uleb128 0x26
 15612 13359 33       		.uleb128 0x33
 15613 1335a 01       		.byte	0x1
 15614 1335b 02       		.uleb128 0x2
 15615 1335c 5F454649 		.ascii "_EFI_GPT_H \0"
 15615      5F475054 
 15615      5F482000 
 15616 13368 01       		.byte	0x1
 15617 13369 14       		.uleb128 0x14
 15618 1336a 5052494D 		.ascii "PRIMARY_PART_HEADER_LBA 1\0"
 15618      4152595F 
 15618      50415254 
 15618      5F484541 
 15618      4445525F 
 15619 13384 01       		.byte	0x1
 15620 13385 23       		.uleb128 0x23
 15621 13386 4546495F 		.ascii "EFI_PTAB_HEADER_ID \"EFI PART\"\0"
 15621      50544142 
 15621      5F484541 
 15621      4445525F 
 15621      49442022 
 15622 133a4 01       		.byte	0x1
 15623 133a5 31       		.uleb128 0x31
 15624 133a6 4546495F 		.ascii "EFI_PART_USED_BY_EFI 0x0000000000000001\0"
 15624      50415254 
 15624      5F555345 
 15624      445F4259 
 15624      5F454649 
 15625 133ce 01       		.byte	0x1
 15626 133cf 32       		.uleb128 0x32
 15627 133d0 4546495F 		.ascii "EFI_PART_REQUIRED_TO_FUNCTION 0x0000000000000002\0"
 15627      50415254 
 15627      5F524551 
 15627      55495245 
 15627      445F544F 
 15628 13401 01       		.byte	0x1
 15629 13402 33       		.uleb128 0x33
 15630 13403 4546495F 		.ascii "EFI_PART_USED_BY_OS 0x0000000000000004\0"
 15630      50415254 
 15630      5F555345 
 15630      445F4259 
 15630      5F4F5320 
 15631 1342a 01       		.byte	0x1
 15632 1342b 34       		.uleb128 0x34
 15633 1342c 4546495F 		.ascii "EFI_PART_REQUIRED_BY_OS 0x0000000000000008\0"
 15633      50415254 
 15633      5F524551 
 15633      55495245 
 15633      445F4259 
 15634 13457 01       		.byte	0x1
 15635 13458 35       		.uleb128 0x35
 15636 13459 4546495F 		.ascii "EFI_PART_BACKUP_REQUIRED 0x0000000000000010\0"
 15636      50415254 
 15636      5F424143 
 15636      4B55505F 
 15636      52455155 
 15637 13485 01       		.byte	0x1
 15638 13486 36       		.uleb128 0x36
 15639 13487 4546495F 		.ascii "EFI_PART_USER_DATA 0x0000000000000020\0"
 15639      50415254 
 15639      5F555345 
 15639      525F4441 
 15639      54412030 
 15640 134ad 01       		.byte	0x1
 15641 134ae 37       		.uleb128 0x37
 15642 134af 4546495F 		.ascii "EFI_PART_CRITICAL_USER_DATA 0x0000000000000040\0"
 15642      50415254 
 15642      5F435249 
 15642      54494341 
 15642      4C5F5553 
 15643 134de 01       		.byte	0x1
 15644 134df 38       		.uleb128 0x38
 15645 134e0 4546495F 		.ascii "EFI_PART_REDUNDANT_PARTITION 0x0000000000000080\0"
 15645      50415254 
 15645      5F524544 
 15645      554E4441 
 15645      4E545F50 
 15646 13510 01       		.byte	0x1
 15647 13511 3A       		.uleb128 0x3a
 15648 13512 4546495F 		.ascii "EFI_PART_TYPE_UNUSED_GUID { 0x00000000, 0x0000, 0x0000, {0x00, 0x00, 0x00, 0x00, 0x00, 0x0
 15648      50415254 
 15648      5F545950 
 15648      455F554E 
 15648      55534544 
 15649 1357d 01       		.byte	0x1
 15650 1357e 3D       		.uleb128 0x3d
 15651 1357f 4546495F 		.ascii "EFI_PART_TYPE_EFI_SYSTEM_PART_GUID { 0xc12a7328, 0xf81f, 0x11d2, {0xba, 0x4b, 0x00, 0xa0, 
 15651      50415254 
 15651      5F545950 
 15651      455F4546 
 15651      495F5359 
 15652 135f3 01       		.byte	0x1
 15653 135f4 40       		.uleb128 0x40
 15654 135f5 4546495F 		.ascii "EFI_PART_TYPE_LEGACY_MBR_GUID { 0x024dee41, 0x33e7, 0x11d3, {0x9d, 0x69, 0x00, 0x08, 0xc7,
 15654      50415254 
 15654      5F545950 
 15654      455F4C45 
 15654      47414359 
 15655 13664 04       		.byte	0x4
 15656 13665 04       		.byte	0x4
 15657 13666 04       		.byte	0x4
 15658 13667 00       		.byte	0
 15659              		.section	.debug_line,"dr"
 15660              	.Ldebug_line0:
 15661 0000 EE070000 		.section	.debug_str,"dr"
 15661      05000800 
 15661      40010000 
 15661      010101FB 
 15661      0E0D0001 
 15662              	.LASF13:
 15663 0000 5661724E 		.ascii "VarName\0"
 15663      616D6500 
 15664              	.LASF16:
 15665 0008 42756666 		.ascii "Buffer\0"
 15665      657200
 15666              	.LASF10:
 15667 000f 53746172 		.ascii "StartingLBA\0"
 15667      74696E67 
 15667      4C424100 
 15668              	.LASF5:
 15669 001b 5369676E 		.ascii "Signature\0"
 15669      61747572 
 15669      6500
 15670              	.LASF2:
 15671 0025 41747472 		.ascii "Attribute\0"
 15671      69627574 
 15671      6500
 15672              	.LASF8:
 15673 002f 56656E64 		.ascii "VendorGuid\0"
 15673      6F724775 
 15673      696400
 15674              	.LASF17:
 15675 003a 42756666 		.ascii "BufferSize\0"
 15675      65725369 
 15675      7A6500
 15676              	.LASF11:
 15677 0045 53746174 		.ascii "Status\0"
 15677      757300
 15678              	.LASF6:
 15679 004c 416C6C6F 		.ascii "AllocatePool\0"
 15679      63617465 
 15679      506F6F6C 
 15679      00
 15680              	.LASF15:
 15681 0059 44617461 		.ascii "DataSize\0"
 15681      53697A65 
 15681      00
 15682              	.LASF7:
 15683 0062 46726565 		.ascii "FreePool\0"
 15683      506F6F6C 
 15683      00
 15684              	.LASF14:
 15685 006b 56617247 		.ascii "VarGuid\0"
 15685      75696400 
 15686              	.LASF12:
 15687 0073 56617253 		.ascii "VarSize\0"
 15687      697A6500 
 15688              	.LASF3:
 15689 007b 52657669 		.ascii "Revision\0"
 15689      73696F6E 
 15689      00
 15690              	.LASF9:
 15691 0084 4C616E67 		.ascii "LangCode\0"
 15691      436F6465 
 15691      00
 15692              	.LASF4:
 15693 008d 48656164 		.ascii "HeaderSize\0"
 15693      65725369 
 15693      7A6500
 15694              		.section	.debug_line_str,"dr"
 15695              	.LASF1:
 15696 0000 433A5C55 		.ascii "C:\\Users\\victim\\source\\repos\\Paranyok\\UEFI\\Backend\0"
 15696      73657273 
 15696      5C766963 
 15696      74696D5C 
 15696      736F7572 
 15697              	.LASF0:
 15698 0033 433A5C55 		.ascii "C:\\Users\\victim\\source\\repos\\Paranyok\\UEFI\\Backend\\gnu-efi-3.0.18\\lib\\misc.c\0"
 15698      73657273 
 15698      5C766963 
 15698      74696D5C 
 15698      736F7572 
 15699              		.ident	"GCC: (Rev1, Built by MSYS2 project) 14.2.0"
 15710 0080 433A2F55 		.section	.rdata$.refptr.gEFiUiInterfaceProtocolGuid, "dr"
 15710      73657273 
 15710      2F766963 
 15710      74696D2F 
 15710      736F7572 
 15711              		.globl	.refptr.gEFiUiInterfaceProtocolGuid
 15712              		.linkonce	discard
 15713              	.refptr.gEFiUiInterfaceProtocolGuid:
 15714 0000 00000000 		.quad	gEFiUiInterfaceProtocolGuid
 15714      00000000 
 15715 0008 00000000 		.section	.rdata$.refptr.ST, "dr"
 15715      00000000 
 15716              		.globl	.refptr.ST
 15717              		.linkonce	discard
 15718              	.refptr.ST:
 15719 0000 00000000 		.quad	ST
 15719      00000000 
 15720 0008 00000000 		.section	.rdata$.refptr.gEfiGlobalVariableGuid, "dr"
 15720      00000000 
 15721              		.globl	.refptr.gEfiGlobalVariableGuid
 15722              		.linkonce	discard
 15723              	.refptr.gEfiGlobalVariableGuid:
 15724 0000 00000000 		.quad	gEfiGlobalVariableGuid
 15724      00000000 
 15725 0008 00000000 		.section	.rdata$.refptr.RT, "dr"
 15725      00000000 
 15726              		.globl	.refptr.RT
 15727              		.linkonce	discard
 15728              	.refptr.RT:
 15729 0000 00000000 		.quad	RT
 15729      00000000 
 15730 0008 00000000 		.section	.rdata$.refptr.PoolAllocationType, "dr"
 15730      00000000 
 15731              		.globl	.refptr.PoolAllocationType
 15732              		.linkonce	discard
 15733              	.refptr.PoolAllocationType:
 15734 0000 00000000 		.quad	PoolAllocationType
 15734      00000000 
 15735 0008 00000000 		.section	.rdata$.refptr.BS, "dr"
 15735      00000000 
 15736              		.globl	.refptr.BS
 15737              		.linkonce	discard
 15738              	.refptr.BS:
 15739 0000 00000000 		.quad	BS
 15739      00000000 
 15739      00000000 
 15739      00000000 
