   1              		.file	"bootmgfw.c"
   2              		.text
   3              	.Ltext0:
   4              		.cfi_sections	.debug_frame
   5              		.file 0 "C:/Users/victim/source/repos/Paranyok/UEFI/Backend" "C:/Users/victim/source/repos/Paranyo
   6              		.globl	fabs
   8              		.seh_proc	fabs
   9              	fabs:
  10              	.LVL0:
  11              	.LFB2:
  12              		.file 1 "C:/Users/victim/source/repos/Paranyok/UEFI/bootmgfw.c"
   1:C:/Users/victim/source/repos/Paranyok/UEFI\bootmgfw.c **** #include <efi.h>
   2:C:/Users/victim/source/repos/Paranyok/UEFI\bootmgfw.c **** #include <efilib.h>
   3:C:/Users/victim/source/repos/Paranyok/UEFI\bootmgfw.c **** 
   4:C:/Users/victim/source/repos/Paranyok/UEFI\bootmgfw.c **** // UEFI color constants
   5:C:/Users/victim/source/repos/Paranyok/UEFI\bootmgfw.c **** #define EFI_BLACK        0x00
   6:C:/Users/victim/source/repos/Paranyok/UEFI\bootmgfw.c **** #define EFI_BLUE         0x01
   7:C:/Users/victim/source/repos/Paranyok/UEFI\bootmgfw.c **** #define EFI_GREEN        0x02
   8:C:/Users/victim/source/repos/Paranyok/UEFI\bootmgfw.c **** #define EFI_RED          0x04
   9:C:/Users/victim/source/repos/Paranyok/UEFI\bootmgfw.c **** #define EFI_BRIGHT       0x08
  10:C:/Users/victim/source/repos/Paranyok/UEFI\bootmgfw.c **** 
  11:C:/Users/victim/source/repos/Paranyok/UEFI\bootmgfw.c **** #ifndef M_PI
  12:C:/Users/victim/source/repos/Paranyok/UEFI\bootmgfw.c **** #define M_PI 3.14159265358979323846
  13:C:/Users/victim/source/repos/Paranyok/UEFI\bootmgfw.c **** #endif
  14:C:/Users/victim/source/repos/Paranyok/UEFI\bootmgfw.c **** 
  15:C:/Users/victim/source/repos/Paranyok/UEFI\bootmgfw.c **** #ifndef DEG_TO_RAD
  16:C:/Users/victim/source/repos/Paranyok/UEFI\bootmgfw.c **** #define DEG_TO_RAD(angle) ((angle) * M_PI / 180.0)
  17:C:/Users/victim/source/repos/Paranyok/UEFI\bootmgfw.c **** #endif
  18:C:/Users/victim/source/repos/Paranyok/UEFI\bootmgfw.c **** 
  19:C:/Users/victim/source/repos/Paranyok/UEFI\bootmgfw.c **** #define SPEAKER_PORT 0x61
  20:C:/Users/victim/source/repos/Paranyok/UEFI\bootmgfw.c **** #define TIMER_COMMAND_PORT 0x43
  21:C:/Users/victim/source/repos/Paranyok/UEFI\bootmgfw.c **** #define TIMER_DATA_PORT 0x42
  22:C:/Users/victim/source/repos/Paranyok/UEFI\bootmgfw.c **** #define PIT_FREQUENCY 1193180
  23:C:/Users/victim/source/repos/Paranyok/UEFI\bootmgfw.c **** 
  24:C:/Users/victim/source/repos/Paranyok/UEFI\bootmgfw.c **** // Custom absolute value function for double
  25:C:/Users/victim/source/repos/Paranyok/UEFI\bootmgfw.c **** double fabs(double x) {
  13              		.loc 1 25 23 view -0
  14              		.cfi_startproc
  15              		.loc 1 25 23 is_stmt 0 view .LVU1
  16              		.seh_endprologue
  26:C:/Users/victim/source/repos/Paranyok/UEFI\bootmgfw.c ****     return (x < 0) ? -x : x;
  17              		.loc 1 26 5 is_stmt 1 view .LVU2
  18              		.loc 1 26 25 is_stmt 0 view .LVU3
  19 0000 660FEFC9 		pxor	%xmm1, %xmm1
  20 0004 660F2FC8 		comisd	%xmm0, %xmm1
  21 0008 7701     		ja	.L5
  22              	.LVL1:
  23              	.L2:
  27:C:/Users/victim/source/repos/Paranyok/UEFI\bootmgfw.c **** }
  24              		.loc 1 27 1 view .LVU4
  25 000a C3       		ret
  26              	.LVL2:
  27              	.L5:
  26:C:/Users/victim/source/repos/Paranyok/UEFI\bootmgfw.c ****     return (x < 0) ? -x : x;
  28              		.loc 1 26 25 discriminator 1 view .LVU5
  29 000b 660F5705 		xorpd	.LC1(%rip), %xmm0
  29      40010000 
  30              	.LVL3:
  26:C:/Users/victim/source/repos/Paranyok/UEFI\bootmgfw.c ****     return (x < 0) ? -x : x;
  31              		.loc 1 26 25 discriminator 1 view .LVU6
  32 0013 EBF5     		jmp	.L2
  33              		.cfi_endproc
  34              	.LFE2:
  35              		.seh_endproc
  36              		.globl	Sin
  38              		.seh_proc	Sin
  39              	Sin:
  40              	.LVL4:
  41              	.LFB5:
  28:C:/Users/victim/source/repos/Paranyok/UEFI\bootmgfw.c **** 
  29:C:/Users/victim/source/repos/Paranyok/UEFI\bootmgfw.c **** static inline void outb(UINT16 port, UINT8 val) {
  30:C:/Users/victim/source/repos/Paranyok/UEFI\bootmgfw.c ****     __asm__ __volatile__ ("outb %0, %1" : : "a"(val), "Nd"(port));
  31:C:/Users/victim/source/repos/Paranyok/UEFI\bootmgfw.c **** }
  32:C:/Users/victim/source/repos/Paranyok/UEFI\bootmgfw.c **** 
  33:C:/Users/victim/source/repos/Paranyok/UEFI\bootmgfw.c **** static inline UINT8 inb(UINT16 port) {
  34:C:/Users/victim/source/repos/Paranyok/UEFI\bootmgfw.c ****     UINT8 ret;
  35:C:/Users/victim/source/repos/Paranyok/UEFI\bootmgfw.c ****     __asm__ __volatile__ ("inb %1, %0" : "=a"(ret) : "Nd"(port));
  36:C:/Users/victim/source/repos/Paranyok/UEFI\bootmgfw.c ****     return ret;
  37:C:/Users/victim/source/repos/Paranyok/UEFI\bootmgfw.c **** }
  38:C:/Users/victim/source/repos/Paranyok/UEFI\bootmgfw.c **** 
  39:C:/Users/victim/source/repos/Paranyok/UEFI\bootmgfw.c **** EFI_STATUS EFIAPI efi_main(EFI_HANDLE ImageHandle, EFI_SYSTEM_TABLE* SystemTable);
  40:C:/Users/victim/source/repos/Paranyok/UEFI\bootmgfw.c **** 
  41:C:/Users/victim/source/repos/Paranyok/UEFI\bootmgfw.c **** INTN Sin(UINTN angle) {
  42              		.loc 1 41 23 is_stmt 1 view -0
  43              		.cfi_startproc
  44              		.loc 1 41 23 is_stmt 0 view .LVU8
  45 0015 53       		pushq	%rbx
  46              		.seh_pushreg	%rbx
  47              		.cfi_def_cfa_offset 16
  48              		.cfi_offset 3, -16
  49 0016 4883EC50 		subq	$80, %rsp
  50              		.seh_stackalloc	80
  51              		.cfi_def_cfa_offset 96
  52 001a 0F117424 		movups	%xmm6, 32(%rsp)
  52      20
  53              		.seh_savexmm	%xmm6, 32
  54 001f 0F117C24 		movups	%xmm7, 48(%rsp)
  54      30
  55              		.seh_savexmm	%xmm7, 48
  56 0024 440F1144 		movups	%xmm8, 64(%rsp)
  56      2440
  57              		.seh_savexmm	%xmm8, 64
  58              		.cfi_offset 23, -64
  59              		.cfi_offset 24, -48
  60              		.cfi_offset 25, -32
  61              		.seh_endprologue
  42:C:/Users/victim/source/repos/Paranyok/UEFI\bootmgfw.c ****     // Convert angle to radians
  43:C:/Users/victim/source/repos/Paranyok/UEFI\bootmgfw.c ****     double rad = DEG_TO_RAD(angle);
  62              		.loc 1 43 5 is_stmt 1 view .LVU9
  63              		.loc 1 43 18 is_stmt 0 view .LVU10
  64 002a 4885C9   		testq	%rcx, %rcx
  65 002d 7829     		js	.L7
  66 002f 660FEFFF 		pxor	%xmm7, %xmm7
  67 0033 F2480F2A 		cvtsi2sdq	%rcx, %xmm7
  67      F9
  68              	.LVL5:
  69              	.L8:
  70              		.loc 1 43 18 view .LVU11
  71 0038 F20F593D 		mulsd	.LC2(%rip), %xmm7
  71      50010000 
  72              		.loc 1 43 12 view .LVU12
  73 0040 F20F5E3D 		divsd	.LC3(%rip), %xmm7
  73      58010000 
  74              	.LVL6:
  44:C:/Users/victim/source/repos/Paranyok/UEFI\bootmgfw.c **** 
  45:C:/Users/victim/source/repos/Paranyok/UEFI\bootmgfw.c ****     // Taylor series approximation for sin(x)
  46:C:/Users/victim/source/repos/Paranyok/UEFI\bootmgfw.c ****     double term = rad;  // first term is x
  75              		.loc 1 46 5 is_stmt 1 view .LVU13
  47:C:/Users/victim/source/repos/Paranyok/UEFI\bootmgfw.c ****     double sum = 0.0;
  76              		.loc 1 47 5 view .LVU14
  48:C:/Users/victim/source/repos/Paranyok/UEFI\bootmgfw.c ****     int n = 1;
  77              		.loc 1 48 5 view .LVU15
  49:C:/Users/victim/source/repos/Paranyok/UEFI\bootmgfw.c **** 
  50:C:/Users/victim/source/repos/Paranyok/UEFI\bootmgfw.c ****     while (fabs(term) > 1e-10) {  // convergence threshold
  78              		.loc 1 50 5 view .LVU16
  46:C:/Users/victim/source/repos/Paranyok/UEFI\bootmgfw.c ****     double sum = 0.0;
  79              		.loc 1 46 12 is_stmt 0 view .LVU17
  80 0048 660F28F7 		movapd	%xmm7, %xmm6
  48:C:/Users/victim/source/repos/Paranyok/UEFI\bootmgfw.c ****     int n = 1;
  81              		.loc 1 48 9 view .LVU18
  82 004c BB010000 		movl	$1, %ebx
  82      00
  47:C:/Users/victim/source/repos/Paranyok/UEFI\bootmgfw.c ****     int n = 1;
  83              		.loc 1 47 12 view .LVU19
  84 0051 66450FEF 		pxor	%xmm8, %xmm8
  84      C0
  85              		.loc 1 50 11 view .LVU20
  86 0056 EB4B     		jmp	.L9
  87              	.LVL7:
  88              	.L7:
  43:C:/Users/victim/source/repos/Paranyok/UEFI\bootmgfw.c **** 
  89              		.loc 1 43 18 view .LVU21
  90 0058 4889C8   		movq	%rcx, %rax
  91 005b 48D1E8   		shrq	%rax
  92 005e 83E101   		andl	$1, %ecx
  93              	.LVL8:
  43:C:/Users/victim/source/repos/Paranyok/UEFI\bootmgfw.c **** 
  94              		.loc 1 43 18 view .LVU22
  95 0061 4809C8   		orq	%rcx, %rax
  96 0064 660FEFFF 		pxor	%xmm7, %xmm7
  97 0068 F2480F2A 		cvtsi2sdq	%rax, %xmm7
  97      F8
  98 006d F20F58FF 		addsd	%xmm7, %xmm7
  99 0071 EBC5     		jmp	.L8
 100              	.LVL9:
 101              	.L10:
  51:C:/Users/victim/source/repos/Paranyok/UEFI\bootmgfw.c ****         sum += term;
 102              		.loc 1 51 9 is_stmt 1 view .LVU23
 103              		.loc 1 51 13 is_stmt 0 view .LVU24
 104 0073 F2440F58 		addsd	%xmm6, %xmm8
 104      C6
 105              	.LVL10:
  52:C:/Users/victim/source/repos/Paranyok/UEFI\bootmgfw.c ****         n += 2;
 106              		.loc 1 52 9 is_stmt 1 view .LVU25
 107              		.loc 1 52 11 is_stmt 0 view .LVU26
 108 0078 8D4302   		leal	2(%rbx), %eax
 109              	.LVL11:
  53:C:/Users/victim/source/repos/Paranyok/UEFI\bootmgfw.c ****         term *= -rad * rad / ((n - 1) * n);
 110              		.loc 1 53 9 is_stmt 1 view .LVU27
 111              		.loc 1 53 17 is_stmt 0 view .LVU28
 112 007b 660F28C7 		movapd	%xmm7, %xmm0
 113 007f 660F5705 		xorpd	.LC1(%rip), %xmm0
 113      40010000 
 114              		.loc 1 53 22 view .LVU29
 115 0087 F20F59C7 		mulsd	%xmm7, %xmm0
 116              		.loc 1 53 34 view .LVU30
 117 008b 83C301   		addl	$1, %ebx
 118              		.loc 1 53 39 view .LVU31
 119 008e 0FAFD8   		imull	%eax, %ebx
 120              		.loc 1 53 28 view .LVU32
 121 0091 660FEFC9 		pxor	%xmm1, %xmm1
 122 0095 F20F2ACB 		cvtsi2sdl	%ebx, %xmm1
 123 0099 F20F5EC1 		divsd	%xmm1, %xmm0
 124              		.loc 1 53 14 view .LVU33
 125 009d F20F59F0 		mulsd	%xmm0, %xmm6
 126              	.LVL12:
  52:C:/Users/victim/source/repos/Paranyok/UEFI\bootmgfw.c ****         n += 2;
 127              		.loc 1 52 11 view .LVU34
 128 00a1 89C3     		movl	%eax, %ebx
 129              	.LVL13:
 130              	.L9:
  50:C:/Users/victim/source/repos/Paranyok/UEFI\bootmgfw.c ****         sum += term;
 131              		.loc 1 50 23 is_stmt 1 view .LVU35
  50:C:/Users/victim/source/repos/Paranyok/UEFI\bootmgfw.c ****         sum += term;
 132              		.loc 1 50 12 is_stmt 0 view .LVU36
 133 00a3 660F28C6 		movapd	%xmm6, %xmm0
 134 00a7 E854FFFF 		call	fabs
 134      FF
 135              	.LVL14:
  50:C:/Users/victim/source/repos/Paranyok/UEFI\bootmgfw.c ****         sum += term;
 136              		.loc 1 50 23 discriminator 1 view .LVU37
 137 00ac 660F2F05 		comisd	.LC4(%rip), %xmm0
 137      60010000 
 138 00b4 77BD     		ja	.L10
  54:C:/Users/victim/source/repos/Paranyok/UEFI\bootmgfw.c ****     }
  55:C:/Users/victim/source/repos/Paranyok/UEFI\bootmgfw.c **** 
  56:C:/Users/victim/source/repos/Paranyok/UEFI\bootmgfw.c ****     return (INTN)(sum * 10);  // scale the amplitude appropriately
 139              		.loc 1 56 5 is_stmt 1 view .LVU38
 140              		.loc 1 56 23 is_stmt 0 view .LVU39
 141 00b6 F2440F59 		mulsd	.LC5(%rip), %xmm8
 141      05680100 
 141      00
 142              	.LVL15:
 143              		.loc 1 56 12 view .LVU40
 144 00bf F2490F2C 		cvttsd2siq	%xmm8, %rax
 144      C0
  57:C:/Users/victim/source/repos/Paranyok/UEFI\bootmgfw.c **** }
 145              		.loc 1 57 1 view .LVU41
 146 00c4 0F107424 		movups	32(%rsp), %xmm6
 146      20
 147              	.LVL16:
 148              		.loc 1 57 1 view .LVU42
 149 00c9 0F107C24 		movups	48(%rsp), %xmm7
 149      30
 150              	.LVL17:
 151              		.loc 1 57 1 view .LVU43
 152 00ce 440F1044 		movups	64(%rsp), %xmm8
 152      2440
 153 00d4 4883C450 		addq	$80, %rsp
 154              		.cfi_restore 25
 155              		.cfi_restore 24
 156              		.cfi_restore 23
 157              		.cfi_def_cfa_offset 16
 158 00d8 5B       		popq	%rbx
 159              		.cfi_restore 3
 160              		.cfi_def_cfa_offset 8
 161              	.LVL18:
 162              		.loc 1 57 1 view .LVU44
 163 00d9 C3       		ret
 164              		.cfi_endproc
 165              	.LFE5:
 166              		.seh_endproc
 167              		.globl	my_rand
 169              		.seh_proc	my_rand
 170              	my_rand:
 171              	.LFB6:
  58:C:/Users/victim/source/repos/Paranyok/UEFI\bootmgfw.c **** 
  59:C:/Users/victim/source/repos/Paranyok/UEFI\bootmgfw.c **** // Custom random number generator
  60:C:/Users/victim/source/repos/Paranyok/UEFI\bootmgfw.c **** static unsigned long seed = 12345;
  61:C:/Users/victim/source/repos/Paranyok/UEFI\bootmgfw.c **** unsigned int my_rand() {
 172              		.loc 1 61 24 is_stmt 1 view -0
 173              		.cfi_startproc
 174              		.seh_endprologue
  62:C:/Users/victim/source/repos/Paranyok/UEFI\bootmgfw.c ****     seed = (seed * 1103515245 + 12345) % (1 << 31);
 175              		.loc 1 62 5 view .LVU46
 176              		.loc 1 62 18 is_stmt 0 view .LVU47
 177 00da 6905FCFF 		imull	$1103515245, seed(%rip), %eax
 177      FFFF6D4E 
 177      C641
 178              		.loc 1 62 31 view .LVU48
 179 00e4 05393000 		addl	$12345, %eax
 179      00
 180              		.loc 1 62 40 view .LVU49
 181 00e9 25FFFFFF 		andl	$2147483647, %eax
 181      7F
 182              		.loc 1 62 10 view .LVU50
 183 00ee 89050000 		movl	%eax, seed(%rip)
 183      0000
  63:C:/Users/victim/source/repos/Paranyok/UEFI\bootmgfw.c ****     return seed;
 184              		.loc 1 63 5 is_stmt 1 view .LVU51
  64:C:/Users/victim/source/repos/Paranyok/UEFI\bootmgfw.c **** }
 185              		.loc 1 64 1 is_stmt 0 view .LVU52
 186 00f4 C3       		ret
 187              		.cfi_endproc
 188              	.LFE6:
 189              		.seh_endproc
 190              		.globl	delay
 192              		.seh_proc	delay
 193              	delay:
 194              	.LVL19:
 195              	.LFB7:
  65:C:/Users/victim/source/repos/Paranyok/UEFI\bootmgfw.c **** 
  66:C:/Users/victim/source/repos/Paranyok/UEFI\bootmgfw.c **** // Function for busy-wait delay
  67:C:/Users/victim/source/repos/Paranyok/UEFI\bootmgfw.c **** void delay(UINTN duration) {
 196              		.loc 1 67 28 is_stmt 1 view -0
 197              		.cfi_startproc
 198              		.loc 1 67 28 is_stmt 0 view .LVU54
 199 00f5 4883EC18 		subq	$24, %rsp
 200              		.seh_stackalloc	24
 201              		.cfi_def_cfa_offset 32
 202              		.seh_endprologue
  68:C:/Users/victim/source/repos/Paranyok/UEFI\bootmgfw.c ****     volatile UINTN i;
 203              		.loc 1 68 5 is_stmt 1 view .LVU55
  69:C:/Users/victim/source/repos/Paranyok/UEFI\bootmgfw.c ****     for (i = 0; i < duration; i++);
 204              		.loc 1 69 5 view .LVU56
 205              		.loc 1 69 12 is_stmt 0 view .LVU57
 206 00f9 48C74424 		movq	$0, 8(%rsp)
 206      08000000 
 206      00
 207              		.loc 1 69 5 view .LVU58
 208 0102 EB2A     		jmp	.L13
 209              		.loc 1 69 5 view .LVU59
 210 0104 66662E0F 		.p2align 5
 210      1F840000 
 210      00000066 
 210      662E0F1F 
 210      84000000 
 211              	.L14:
 212              		.loc 1 69 32 is_stmt 1 discriminator 3 view .LVU60
 213 0120 488B4424 		movq	8(%rsp), %rax
 213      08
 214 0125 4883C001 		addq	$1, %rax
 215 0129 48894424 		movq	%rax, 8(%rsp)
 215      08
 216              	.L13:
 217              		.loc 1 69 19 discriminator 1 view .LVU61
 218 012e 488B4424 		movq	8(%rsp), %rax
 218      08
 219 0133 4839C8   		cmpq	%rcx, %rax
 220 0136 72E8     		jb	.L14
  70:C:/Users/victim/source/repos/Paranyok/UEFI\bootmgfw.c **** }
 221              		.loc 1 70 1 is_stmt 0 view .LVU62
 222 0138 4883C418 		addq	$24, %rsp
 223              		.cfi_def_cfa_offset 8
 224 013c C3       		ret
 225              		.cfi_endproc
 226              	.LFE7:
 227              		.seh_endproc
 228              		.globl	random_color
 230              		.seh_proc	random_color
 231              	random_color:
 232              	.LFB8:
  71:C:/Users/victim/source/repos/Paranyok/UEFI\bootmgfw.c **** 
  72:C:/Users/victim/source/repos/Paranyok/UEFI\bootmgfw.c **** // Function to generate random valid UEFI color (restrict certain combinations)
  73:C:/Users/victim/source/repos/Paranyok/UEFI\bootmgfw.c **** UINTN random_color() {
 233              		.loc 1 73 22 is_stmt 1 view -0
 234              		.cfi_startproc
 235 013d 56       		pushq	%rsi
 236              		.seh_pushreg	%rsi
 237              		.cfi_def_cfa_offset 16
 238              		.cfi_offset 4, -16
 239 013e 53       		pushq	%rbx
 240              		.seh_pushreg	%rbx
 241              		.cfi_def_cfa_offset 24
 242              		.cfi_offset 3, -24
 243 013f 4881ECA8 		subq	$168, %rsp
 243      000000
 244              		.seh_stackalloc	168
 245              		.cfi_def_cfa_offset 192
 246              		.seh_endprologue
  74:C:/Users/victim/source/repos/Paranyok/UEFI\bootmgfw.c ****     // Define color codes manually
  75:C:/Users/victim/source/repos/Paranyok/UEFI\bootmgfw.c ****     UINTN fg_colors[16] = {
 247              		.loc 1 75 5 view .LVU64
 248              		.loc 1 75 11 is_stmt 0 view .LVU65
 249 0146 48C74424 		movq	$0, 32(%rsp)
 249      20000000 
 249      00
 250 014f 48C74424 		movq	$1, 40(%rsp)
 250      28010000 
 250      00
 251 0158 48C74424 		movq	$2, 48(%rsp)
 251      30020000 
 251      00
 252 0161 48C74424 		movq	$4, 56(%rsp)
 252      38040000 
 252      00
 253 016a 48C74424 		movq	$8, 64(%rsp)
 253      40080000 
 253      00
 254 0173 48C74424 		movq	$9, 72(%rsp)
 254      48090000 
 254      00
 255 017c 48C74424 		movq	$10, 80(%rsp)
 255      500A0000 
 255      00
 256 0185 48C74424 		movq	$12, 88(%rsp)
 256      580C0000 
 256      00
 257 018e 48C74424 		movq	$2, 96(%rsp)
 257      60020000 
 257      00
 258 0197 48C74424 		movq	$1, 104(%rsp)
 258      68010000 
 258      00
 259 01a0 48C74424 		movq	$4, 112(%rsp)
 259      70040000 
 259      00
 260 01a9 48C74424 		movq	$14, 120(%rsp)
 260      780E0000 
 260      00
 261 01b2 48C78424 		movq	$5, 128(%rsp)
 261      80000000 
 261      05000000 
 262 01be 48C78424 		movq	$3, 136(%rsp)
 262      88000000 
 262      03000000 
 263 01ca 48C78424 		movq	$15, 144(%rsp)
 263      90000000 
 263      0F000000 
 264 01d6 48C78424 		movq	$15, 152(%rsp)
 264      98000000 
 264      0F000000 
  76:C:/Users/victim/source/repos/Paranyok/UEFI\bootmgfw.c ****         EFI_BLACK, EFI_BLUE, EFI_GREEN, EFI_RED,
  77:C:/Users/victim/source/repos/Paranyok/UEFI\bootmgfw.c ****         EFI_BLACK | EFI_BRIGHT, EFI_BLUE | EFI_BRIGHT, EFI_GREEN | EFI_BRIGHT, EFI_RED | EFI_BRIGHT
  78:C:/Users/victim/source/repos/Paranyok/UEFI\bootmgfw.c ****         EFI_BLACK | EFI_GREEN, EFI_BLACK | EFI_BLUE, EFI_BLACK | EFI_RED, EFI_BLACK | EFI_YELLOW,
  79:C:/Users/victim/source/repos/Paranyok/UEFI\bootmgfw.c ****         EFI_BLACK | EFI_MAGENTA, EFI_BLACK | EFI_CYAN, EFI_BLACK | EFI_WHITE, EFI_WHITE
  80:C:/Users/victim/source/repos/Paranyok/UEFI\bootmgfw.c ****     };
  81:C:/Users/victim/source/repos/Paranyok/UEFI\bootmgfw.c **** 
  82:C:/Users/victim/source/repos/Paranyok/UEFI\bootmgfw.c ****     // Randomly choose a foreground color from 16 colors
  83:C:/Users/victim/source/repos/Paranyok/UEFI\bootmgfw.c ****     UINTN fg_color = fg_colors[my_rand() % 16];
 265              		.loc 1 83 5 is_stmt 1 view .LVU66
 266              		.loc 1 83 32 is_stmt 0 view .LVU67
 267 01e2 E8F3FEFF 		call	my_rand
 267      FF
 268              	.LVL20:
 269              		.loc 1 83 11 discriminator 1 view .LVU68
 270 01e7 83E00F   		andl	$15, %eax
 271 01ea 488B74C4 		movq	32(%rsp,%rax,8), %rsi
 271      20
 272              	.LVL21:
  84:C:/Users/victim/source/repos/Paranyok/UEFI\bootmgfw.c ****     // Randomly choose a background color from 16 colors
  85:C:/Users/victim/source/repos/Paranyok/UEFI\bootmgfw.c ****     UINTN bg_color = fg_colors[my_rand() % 16];
 273              		.loc 1 85 5 is_stmt 1 view .LVU69
 274              		.loc 1 85 32 is_stmt 0 view .LVU70
 275 01ef E8E6FEFF 		call	my_rand
 275      FF
 276              	.LVL22:
 277              		.loc 1 85 11 discriminator 1 view .LVU71
 278 01f4 83E00F   		andl	$15, %eax
 279 01f7 488B5CC4 		movq	32(%rsp,%rax,8), %rbx
 279      20
 280              	.LVL23:
  86:C:/Users/victim/source/repos/Paranyok/UEFI\bootmgfw.c **** 
  87:C:/Users/victim/source/repos/Paranyok/UEFI\bootmgfw.c ****     // Ensure that the foreground and background aren't the same
  88:C:/Users/victim/source/repos/Paranyok/UEFI\bootmgfw.c ****     if (fg_color == bg_color) {
 281              		.loc 1 88 5 is_stmt 1 view .LVU72
 282              		.loc 1 88 8 is_stmt 0 view .LVU73
 283 01fc 4839DE   		cmpq	%rbx, %rsi
 284 01ff 7414     		je	.L17
 285              	.LVL24:
 286              	.L16:
  89:C:/Users/victim/source/repos/Paranyok/UEFI\bootmgfw.c ****         fg_color = fg_colors[(my_rand() % 15) + 1];  // Shift the foreground if they are the same
  90:C:/Users/victim/source/repos/Paranyok/UEFI\bootmgfw.c ****     }
  91:C:/Users/victim/source/repos/Paranyok/UEFI\bootmgfw.c **** 
  92:C:/Users/victim/source/repos/Paranyok/UEFI\bootmgfw.c ****     // Combine background and foreground colors
  93:C:/Users/victim/source/repos/Paranyok/UEFI\bootmgfw.c ****     return (bg_color << 4) | fg_color;
 287              		.loc 1 93 5 is_stmt 1 view .LVU74
 288              		.loc 1 93 22 is_stmt 0 view .LVU75
 289 0201 4889D8   		movq	%rbx, %rax
 290 0204 48C1E004 		salq	$4, %rax
 291              		.loc 1 93 28 view .LVU76
 292 0208 4809F0   		orq	%rsi, %rax
  94:C:/Users/victim/source/repos/Paranyok/UEFI\bootmgfw.c **** }
 293              		.loc 1 94 1 view .LVU77
 294 020b 4881C4A8 		addq	$168, %rsp
 294      000000
 295              		.cfi_remember_state
 296              		.cfi_def_cfa_offset 24
 297 0212 5B       		popq	%rbx
 298              		.cfi_restore 3
 299              		.cfi_def_cfa_offset 16
 300              	.LVL25:
 301              		.loc 1 94 1 view .LVU78
 302 0213 5E       		popq	%rsi
 303              		.cfi_restore 4
 304              		.cfi_def_cfa_offset 8
 305              	.LVL26:
 306              		.loc 1 94 1 view .LVU79
 307 0214 C3       		ret
 308              	.LVL27:
 309              	.L17:
 310              		.cfi_restore_state
  89:C:/Users/victim/source/repos/Paranyok/UEFI\bootmgfw.c ****         fg_color = fg_colors[(my_rand() % 15) + 1];  // Shift the foreground if they are the same
 311              		.loc 1 89 9 is_stmt 1 view .LVU80
  89:C:/Users/victim/source/repos/Paranyok/UEFI\bootmgfw.c ****         fg_color = fg_colors[(my_rand() % 15) + 1];  // Shift the foreground if they are the same
 312              		.loc 1 89 31 is_stmt 0 view .LVU81
 313 0215 E8C0FEFF 		call	my_rand
 313      FF
 314              	.LVL28:
  89:C:/Users/victim/source/repos/Paranyok/UEFI\bootmgfw.c ****         fg_color = fg_colors[(my_rand() % 15) + 1];  // Shift the foreground if they are the same
 315              		.loc 1 89 41 discriminator 1 view .LVU82
 316 021a 89C2     		movl	%eax, %edx
 317 021c B9898888 		movl	$2290649225, %ecx
 317      88
 318 0221 480FAFD1 		imulq	%rcx, %rdx
 319 0225 48C1EA23 		shrq	$35, %rdx
 320 0229 89D1     		movl	%edx, %ecx
 321 022b C1E104   		sall	$4, %ecx
 322 022e 29D1     		subl	%edx, %ecx
 323 0230 29C8     		subl	%ecx, %eax
  89:C:/Users/victim/source/repos/Paranyok/UEFI\bootmgfw.c ****         fg_color = fg_colors[(my_rand() % 15) + 1];  // Shift the foreground if they are the same
 324              		.loc 1 89 18 discriminator 1 view .LVU83
 325 0232 8D4001   		leal	1(%rax), %eax
 326 0235 488B74C4 		movq	32(%rsp,%rax,8), %rsi
 326      20
 327              	.LVL29:
  89:C:/Users/victim/source/repos/Paranyok/UEFI\bootmgfw.c ****         fg_color = fg_colors[(my_rand() % 15) + 1];  // Shift the foreground if they are the same
 328              		.loc 1 89 18 discriminator 1 view .LVU84
 329 023a EBC5     		jmp	.L16
 330              		.cfi_endproc
 331              	.LFE8:
 332              		.seh_endproc
 333              		.section .rdata,"dr"
 334              		.align 8
 335              	.LC6:
 336 0000 45007200 		.ascii "E\0r\0r\0o\0r\0 \0q\0u\0e\0r\0y\0i\0n\0g\0 \0s\0c\0r\0e\0e\0n\0 \0s\0i\0z\0e\0.\0\12\0\0\0
 336      72006F00 
 336      72002000 
 336      71007500 
 336      65007200 
 337              		.align 2
 338              	.LC7:
 339 003a 25006300 		.ascii "%\0c\0\0\0"
 339      0000
 340              		.text
 341              		.globl	rotating_characters_all_colors
 343              		.seh_proc	rotating_characters_all_colors
 344              	rotating_characters_all_colors:
 345              	.LVL30:
 346              	.LFB9:
  95:C:/Users/victim/source/repos/Paranyok/UEFI\bootmgfw.c **** 
  96:C:/Users/victim/source/repos/Paranyok/UEFI\bootmgfw.c **** // Effect 1: Rotating Characters with All Colors
  97:C:/Users/victim/source/repos/Paranyok/UEFI\bootmgfw.c **** void rotating_characters_all_colors(EFI_SYSTEM_TABLE* SystemTable) {
 347              		.loc 1 97 68 is_stmt 1 view -0
 348              		.cfi_startproc
 349              		.loc 1 97 68 is_stmt 0 view .LVU86
 350 023c 4155     		pushq	%r13
 351              		.seh_pushreg	%r13
 352              		.cfi_def_cfa_offset 16
 353              		.cfi_offset 13, -16
 354 023e 4154     		pushq	%r12
 355              		.seh_pushreg	%r12
 356              		.cfi_def_cfa_offset 24
 357              		.cfi_offset 12, -24
 358 0240 55       		pushq	%rbp
 359              		.seh_pushreg	%rbp
 360              		.cfi_def_cfa_offset 32
 361              		.cfi_offset 6, -32
 362 0241 57       		pushq	%rdi
 363              		.seh_pushreg	%rdi
 364              		.cfi_def_cfa_offset 40
 365              		.cfi_offset 5, -40
 366 0242 56       		pushq	%rsi
 367              		.seh_pushreg	%rsi
 368              		.cfi_def_cfa_offset 48
 369              		.cfi_offset 4, -48
 370 0243 53       		pushq	%rbx
 371              		.seh_pushreg	%rbx
 372              		.cfi_def_cfa_offset 56
 373              		.cfi_offset 3, -56
 374 0244 4881ECB8 		subq	$184, %rsp
 374      000000
 375              		.seh_stackalloc	184
 376              		.cfi_def_cfa_offset 240
 377              		.seh_endprologue
  98:C:/Users/victim/source/repos/Paranyok/UEFI\bootmgfw.c ****     EFI_SIMPLE_TEXT_OUT_PROTOCOL* ConOut = SystemTable->ConOut;
 378              		.loc 1 98 5 is_stmt 1 view .LVU87
 379              		.loc 1 98 35 is_stmt 0 view .LVU88
 380 024b 488B7140 		movq	64(%rcx), %rsi
 381              	.LVL31:
  99:C:/Users/victim/source/repos/Paranyok/UEFI\bootmgfw.c ****     UINTN Columns, Rows;
 382              		.loc 1 99 5 is_stmt 1 view .LVU89
 100:C:/Users/victim/source/repos/Paranyok/UEFI\bootmgfw.c ****     EFI_STATUS Status;
 383              		.loc 1 100 5 view .LVU90
 101:C:/Users/victim/source/repos/Paranyok/UEFI\bootmgfw.c **** 
 102:C:/Users/victim/source/repos/Paranyok/UEFI\bootmgfw.c ****     // Get the dimensions of the screen
 103:C:/Users/victim/source/repos/Paranyok/UEFI\bootmgfw.c ****     Status = uefi_call_wrapper(ConOut->QueryMode, 4, ConOut, ConOut->Mode->Mode, &Columns, &Rows);
 384              		.loc 1 103 5 view .LVU91
 385              		.loc 1 103 14 is_stmt 0 view .LVU92
 386 024f 488B4648 		movq	72(%rsi), %rax
 387 0253 48635004 		movslq	4(%rax), %rdx
 388 0257 4C8D8C24 		leaq	160(%rsp), %r9
 388      A0000000 
 389 025f 4C8D8424 		leaq	168(%rsp), %r8
 389      A8000000 
 390 0267 4889F1   		movq	%rsi, %rcx
 391              	.LVL32:
 392              		.loc 1 103 14 view .LVU93
 393 026a FF5618   		call	*24(%rsi)
 394              	.LVL33:
 104:C:/Users/victim/source/repos/Paranyok/UEFI\bootmgfw.c ****     if (EFI_ERROR(Status)) {
 395              		.loc 1 104 5 is_stmt 1 view .LVU94
 396              		.loc 1 104 8 is_stmt 0 view .LVU95
 397 026d 4885C0   		testq	%rax, %rax
 398 0270 0F88A700 		js	.L33
 398      0000
 105:C:/Users/victim/source/repos/Paranyok/UEFI\bootmgfw.c ****         Print(L"Error querying screen size.\n");
 106:C:/Users/victim/source/repos/Paranyok/UEFI\bootmgfw.c ****         return;
 107:C:/Users/victim/source/repos/Paranyok/UEFI\bootmgfw.c ****     }
 108:C:/Users/victim/source/repos/Paranyok/UEFI\bootmgfw.c **** 
 109:C:/Users/victim/source/repos/Paranyok/UEFI\bootmgfw.c ****     CHAR16 rotatingChar;
 399              		.loc 1 109 5 is_stmt 1 view .LVU96
 110:C:/Users/victim/source/repos/Paranyok/UEFI\bootmgfw.c ****     UINTN defaultColor = EFI_LIGHTGRAY;  // Set a default color (light gray in this case)
 400              		.loc 1 110 5 view .LVU97
 401              	.LVL34:
 111:C:/Users/victim/source/repos/Paranyok/UEFI\bootmgfw.c **** 
 112:C:/Users/victim/source/repos/Paranyok/UEFI\bootmgfw.c ****     // List of all available colors
 113:C:/Users/victim/source/repos/Paranyok/UEFI\bootmgfw.c ****     UINTN colors[] = {
 402              		.loc 1 113 5 view .LVU98
 403              		.loc 1 113 11 is_stmt 0 view .LVU99
 404 0276 48C74424 		movq	$0, 32(%rsp)
 404      20000000 
 404      00
 405 027f 48C74424 		movq	$1, 40(%rsp)
 405      28010000 
 405      00
 406 0288 48C74424 		movq	$2, 48(%rsp)
 406      30020000 
 406      00
 407 0291 48C74424 		movq	$3, 56(%rsp)
 407      38030000 
 407      00
 408 029a 48C74424 		movq	$4, 64(%rsp)
 408      40040000 
 408      00
 409 02a3 48C74424 		movq	$5, 72(%rsp)
 409      48050000 
 409      00
 410 02ac 48C74424 		movq	$6, 80(%rsp)
 410      50060000 
 410      00
 411 02b5 48C74424 		movq	$7, 88(%rsp)
 411      58070000 
 411      00
 412 02be 48C74424 		movq	$8, 96(%rsp)
 412      60080000 
 412      00
 413 02c7 48C74424 		movq	$9, 104(%rsp)
 413      68090000 
 413      00
 414 02d0 48C74424 		movq	$10, 112(%rsp)
 414      700A0000 
 414      00
 415 02d9 48C74424 		movq	$11, 120(%rsp)
 415      780B0000 
 415      00
 416 02e2 48C78424 		movq	$12, 128(%rsp)
 416      80000000 
 416      0C000000 
 417 02ee 48C78424 		movq	$13, 136(%rsp)
 417      88000000 
 417      0D000000 
 418 02fa 48C78424 		movq	$14, 144(%rsp)
 418      90000000 
 418      0E000000 
 419 0306 48C78424 		movq	$15, 152(%rsp)
 419      98000000 
 419      0F000000 
 114:C:/Users/victim/source/repos/Paranyok/UEFI\bootmgfw.c ****         EFI_BLACK, EFI_BLUE, EFI_GREEN, EFI_CYAN, EFI_RED, EFI_MAGENTA, 
 115:C:/Users/victim/source/repos/Paranyok/UEFI\bootmgfw.c ****         EFI_BROWN, EFI_LIGHTGRAY, EFI_DARKGRAY, EFI_LIGHTBLUE, EFI_LIGHTGREEN, 
 116:C:/Users/victim/source/repos/Paranyok/UEFI\bootmgfw.c ****         EFI_LIGHTCYAN, EFI_LIGHTRED, EFI_LIGHTMAGENTA, EFI_YELLOW, EFI_WHITE
 117:C:/Users/victim/source/repos/Paranyok/UEFI\bootmgfw.c ****     };
 118:C:/Users/victim/source/repos/Paranyok/UEFI\bootmgfw.c **** 
 119:C:/Users/victim/source/repos/Paranyok/UEFI\bootmgfw.c ****     UINTN totalColors = sizeof(colors) / sizeof(colors[0]);
 420              		.loc 1 119 5 is_stmt 1 view .LVU100
 421              	.LVL35:
 120:C:/Users/victim/source/repos/Paranyok/UEFI\bootmgfw.c **** 
 121:C:/Users/victim/source/repos/Paranyok/UEFI\bootmgfw.c ****     // Loop through all colors once
 122:C:/Users/victim/source/repos/Paranyok/UEFI\bootmgfw.c ****     for (UINTN colorIndex = 0; colorIndex < totalColors; colorIndex++) {
 422              		.loc 1 122 5 view .LVU101
 423              	.LBB16:
 424              		.loc 1 122 10 view .LVU102
 425              		.loc 1 122 16 is_stmt 0 view .LVU103
 426 0312 41BD0000 		movl	$0, %r13d
 426      0000
 427              		.loc 1 122 5 view .LVU104
 428 0318 E9B30000 		jmp	.L21
 428      00
 429              	.LVL36:
 430              	.L33:
 431              		.loc 1 122 5 view .LVU105
 432              	.LBE16:
 105:C:/Users/victim/source/repos/Paranyok/UEFI\bootmgfw.c ****         return;
 433              		.loc 1 105 9 is_stmt 1 view .LVU106
 434 031d 488D0D00 		leaq	.LC6(%rip), %rcx
 434      000000
 435 0324 E8000000 		call	Print
 435      00
 436              	.LVL37:
 106:C:/Users/victim/source/repos/Paranyok/UEFI\bootmgfw.c ****     }
 437              		.loc 1 106 9 view .LVU107
 438 0329 E9C70000 		jmp	.L18
 438      00
 439              	.LVL38:
 440              	.L36:
 441              	.LBB25:
 442              	.LBB17:
 443              	.LBB18:
 123:C:/Users/victim/source/repos/Paranyok/UEFI\bootmgfw.c ****         UINTN color = colors[colorIndex];
 124:C:/Users/victim/source/repos/Paranyok/UEFI\bootmgfw.c ****         uefi_call_wrapper(ConOut->SetAttribute, 1, ConOut, color);
 125:C:/Users/victim/source/repos/Paranyok/UEFI\bootmgfw.c **** 
 126:C:/Users/victim/source/repos/Paranyok/UEFI\bootmgfw.c ****         // Display rotating characters across the entire screen
 127:C:/Users/victim/source/repos/Paranyok/UEFI\bootmgfw.c ****         for (UINTN i = 0; i < 4; i++) {
 128:C:/Users/victim/source/repos/Paranyok/UEFI\bootmgfw.c ****             rotatingChar = (i % 4 == 0) ? L'/' :
 444              		.loc 1 128 26 is_stmt 0 discriminator 5 view .LVU108
 445 032e BD7C0000 		movl	$124, %ebp
 445      00
 446 0333 EB05     		jmp	.L23
 447              	.L29:
 448              		.loc 1 128 26 discriminator 2 view .LVU109
 449 0335 BD2F0000 		movl	$47, %ebp
 449      00
 450              	.L23:
 451              	.LVL39:
 129:C:/Users/victim/source/repos/Paranyok/UEFI\bootmgfw.c ****                            (i % 4 == 1) ? L'-' :
 130:C:/Users/victim/source/repos/Paranyok/UEFI\bootmgfw.c ****                            (i % 4 == 2) ? L'|' : L'\\';
 131:C:/Users/victim/source/repos/Paranyok/UEFI\bootmgfw.c **** 
 132:C:/Users/victim/source/repos/Paranyok/UEFI\bootmgfw.c ****             // Clear the screen before each iteration to avoid character overlap
 133:C:/Users/victim/source/repos/Paranyok/UEFI\bootmgfw.c ****             uefi_call_wrapper(ConOut->ClearScreen, 1, ConOut);
 452              		.loc 1 133 13 is_stmt 1 view .LVU110
 453 033a 4889F1   		movq	%rsi, %rcx
 454 033d FF5630   		call	*48(%rsi)
 455              	.LVL40:
 134:C:/Users/victim/source/repos/Paranyok/UEFI\bootmgfw.c **** 
 135:C:/Users/victim/source/repos/Paranyok/UEFI\bootmgfw.c ****             for (UINTN row = 0; row < Rows; row++) {
 456              		.loc 1 135 13 view .LVU111
 457              	.LBB19:
 458              		.loc 1 135 18 view .LVU112
 459              		.loc 1 135 24 is_stmt 0 view .LVU113
 460 0340 BF000000 		movl	$0, %edi
 460      00
 461              		.loc 1 135 13 view .LVU114
 462 0345 EB34     		jmp	.L24
 463              	.LVL41:
 464              	.L30:
 465              		.loc 1 135 13 view .LVU115
 466              	.LBE19:
 128:C:/Users/victim/source/repos/Paranyok/UEFI\bootmgfw.c ****                            (i % 4 == 1) ? L'-' :
 467              		.loc 1 128 26 discriminator 4 view .LVU116
 468 0347 BD2D0000 		movl	$45, %ebp
 468      00
 469 034c EBEC     		jmp	.L23
 470              	.LVL42:
 471              	.L25:
 472              	.LBB22:
 473              	.LBB20:
 136:C:/Users/victim/source/repos/Paranyok/UEFI\bootmgfw.c ****                 for (UINTN col = 0; col < Columns; col++) {
 137:C:/Users/victim/source/repos/Paranyok/UEFI\bootmgfw.c ****                     uefi_call_wrapper(ConOut->SetCursorPosition, 2, ConOut, col, row);
 474              		.loc 1 137 21 is_stmt 1 view .LVU117
 475 034e 4989F8   		movq	%rdi, %r8
 476 0351 4889DA   		movq	%rbx, %rdx
 477 0354 4889F1   		movq	%rsi, %rcx
 478 0357 FF5638   		call	*56(%rsi)
 479              	.LVL43:
 138:C:/Users/victim/source/repos/Paranyok/UEFI\bootmgfw.c ****                     Print(L"%c", rotatingChar);
 480              		.loc 1 138 21 view .LVU118
 481 035a 0FB7D5   		movzwl	%bp, %edx
 482 035d 488D0D3A 		leaq	.LC7(%rip), %rcx
 482      000000
 483 0364 E8000000 		call	Print
 483      00
 484              	.LVL44:
 136:C:/Users/victim/source/repos/Paranyok/UEFI\bootmgfw.c ****                 for (UINTN col = 0; col < Columns; col++) {
 485              		.loc 1 136 55 discriminator 3 view .LVU119
 486 0369 4883C301 		addq	$1, %rbx
 487              	.LVL45:
 488              	.L26:
 136:C:/Users/victim/source/repos/Paranyok/UEFI\bootmgfw.c ****                 for (UINTN col = 0; col < Columns; col++) {
 489              		.loc 1 136 41 discriminator 1 view .LVU120
 490 036d 483B9C24 		cmpq	168(%rsp), %rbx
 490      A8000000 
 491 0375 72D7     		jb	.L25
 492              	.LBE20:
 135:C:/Users/victim/source/repos/Paranyok/UEFI\bootmgfw.c ****                 for (UINTN col = 0; col < Columns; col++) {
 493              		.loc 1 135 48 discriminator 2 view .LVU121
 494 0377 4883C701 		addq	$1, %rdi
 495              	.LVL46:
 496              	.L24:
 135:C:/Users/victim/source/repos/Paranyok/UEFI\bootmgfw.c ****                 for (UINTN col = 0; col < Columns; col++) {
 497              		.loc 1 135 37 discriminator 1 view .LVU122
 498 037b 483BBC24 		cmpq	160(%rsp), %rdi
 498      A0000000 
 499 0383 7307     		jnb	.L34
 500              	.LBB21:
 136:C:/Users/victim/source/repos/Paranyok/UEFI\bootmgfw.c ****                 for (UINTN col = 0; col < Columns; col++) {
 501              		.loc 1 136 28 is_stmt 0 view .LVU123
 502 0385 BB000000 		movl	$0, %ebx
 502      00
 503 038a EBE1     		jmp	.L26
 504              	.L34:
 505              	.LBE21:
 506              	.LBE22:
 139:C:/Users/victim/source/repos/Paranyok/UEFI\bootmgfw.c ****                 }
 140:C:/Users/victim/source/repos/Paranyok/UEFI\bootmgfw.c ****             }
 141:C:/Users/victim/source/repos/Paranyok/UEFI\bootmgfw.c **** 
 142:C:/Users/victim/source/repos/Paranyok/UEFI\bootmgfw.c ****             // Add delay between rotations to make the effect visible
 143:C:/Users/victim/source/repos/Paranyok/UEFI\bootmgfw.c ****             delay(500000);  // Adjust the delay as needed
 507              		.loc 1 143 13 is_stmt 1 view .LVU124
 508 038c B920A107 		movl	$500000, %ecx
 508      00
 509 0391 E85FFDFF 		call	delay
 509      FF
 510              	.LVL47:
 127:C:/Users/victim/source/repos/Paranyok/UEFI\bootmgfw.c ****             rotatingChar = (i % 4 == 0) ? L'/' :
 511              		.loc 1 127 35 discriminator 2 view .LVU125
 512 0396 4983C401 		addq	$1, %r12
 513              	.LVL48:
 514              	.L22:
 127:C:/Users/victim/source/repos/Paranyok/UEFI\bootmgfw.c ****             rotatingChar = (i % 4 == 0) ? L'/' :
 515              		.loc 1 127 29 discriminator 1 view .LVU126
 516 039a 4983FC03 		cmpq	$3, %r12
 517 039e 7722     		ja	.L35
 128:C:/Users/victim/source/repos/Paranyok/UEFI\bootmgfw.c ****                            (i % 4 == 1) ? L'-' :
 518              		.loc 1 128 13 view .LVU127
 128:C:/Users/victim/source/repos/Paranyok/UEFI\bootmgfw.c ****                            (i % 4 == 1) ? L'-' :
 519              		.loc 1 128 26 is_stmt 0 view .LVU128
 520 03a0 4C89E0   		movq	%r12, %rax
 521 03a3 83E003   		andl	$3, %eax
 522 03a6 748D     		je	.L29
 128:C:/Users/victim/source/repos/Paranyok/UEFI\bootmgfw.c ****                            (i % 4 == 1) ? L'-' :
 523              		.loc 1 128 26 discriminator 1 view .LVU129
 524 03a8 4883F801 		cmpq	$1, %rax
 525 03ac 7499     		je	.L30
 128:C:/Users/victim/source/repos/Paranyok/UEFI\bootmgfw.c ****                            (i % 4 == 1) ? L'-' :
 526              		.loc 1 128 26 discriminator 3 view .LVU130
 527 03ae 4883F802 		cmpq	$2, %rax
 528 03b2 0F8476FF 		je	.L36
 528      FFFF
 128:C:/Users/victim/source/repos/Paranyok/UEFI\bootmgfw.c ****                            (i % 4 == 1) ? L'-' :
 529              		.loc 1 128 26 discriminator 6 view .LVU131
 530 03b8 BD5C0000 		movl	$92, %ebp
 530      00
 531 03bd E978FFFF 		jmp	.L23
 531      FF
 532              	.L35:
 533              	.LBE18:
 144:C:/Users/victim/source/repos/Paranyok/UEFI\bootmgfw.c ****         }
 145:C:/Users/victim/source/repos/Paranyok/UEFI\bootmgfw.c **** 
 146:C:/Users/victim/source/repos/Paranyok/UEFI\bootmgfw.c ****         // Add delay between color changes to make the transition visible
 147:C:/Users/victim/source/repos/Paranyok/UEFI\bootmgfw.c ****         delay(500000);  // Adjust the delay as needed
 534              		.loc 1 147 9 is_stmt 1 view .LVU132
 535 03c2 B920A107 		movl	$500000, %ecx
 535      00
 536 03c7 E829FDFF 		call	delay
 536      FF
 537              	.LVL49:
 538              	.LBE17:
 122:C:/Users/victim/source/repos/Paranyok/UEFI\bootmgfw.c ****         UINTN color = colors[colorIndex];
 539              		.loc 1 122 68 discriminator 2 view .LVU133
 540 03cc 4983C501 		addq	$1, %r13
 541              	.LVL50:
 542              	.L21:
 122:C:/Users/victim/source/repos/Paranyok/UEFI\bootmgfw.c ****         UINTN color = colors[colorIndex];
 543              		.loc 1 122 43 discriminator 1 view .LVU134
 544 03d0 4983FD0F 		cmpq	$15, %r13
 545 03d4 7713     		ja	.L37
 546              	.LBB24:
 123:C:/Users/victim/source/repos/Paranyok/UEFI\bootmgfw.c ****         uefi_call_wrapper(ConOut->SetAttribute, 1, ConOut, color);
 547              		.loc 1 123 9 view .LVU135
 123:C:/Users/victim/source/repos/Paranyok/UEFI\bootmgfw.c ****         uefi_call_wrapper(ConOut->SetAttribute, 1, ConOut, color);
 548              		.loc 1 123 15 is_stmt 0 view .LVU136
 549 03d6 4A8B54EC 		movq	32(%rsp,%r13,8), %rdx
 549      20
 550              	.LVL51:
 124:C:/Users/victim/source/repos/Paranyok/UEFI\bootmgfw.c **** 
 551              		.loc 1 124 9 is_stmt 1 view .LVU137
 552 03db 4889F1   		movq	%rsi, %rcx
 553 03de FF5628   		call	*40(%rsi)
 554              	.LVL52:
 127:C:/Users/victim/source/repos/Paranyok/UEFI\bootmgfw.c ****             rotatingChar = (i % 4 == 0) ? L'/' :
 555              		.loc 1 127 9 view .LVU138
 556              	.LBB23:
 127:C:/Users/victim/source/repos/Paranyok/UEFI\bootmgfw.c ****             rotatingChar = (i % 4 == 0) ? L'/' :
 557              		.loc 1 127 14 view .LVU139
 127:C:/Users/victim/source/repos/Paranyok/UEFI\bootmgfw.c ****             rotatingChar = (i % 4 == 0) ? L'/' :
 558              		.loc 1 127 20 is_stmt 0 view .LVU140
 559 03e1 41BC0000 		movl	$0, %r12d
 559      0000
 127:C:/Users/victim/source/repos/Paranyok/UEFI\bootmgfw.c ****             rotatingChar = (i % 4 == 0) ? L'/' :
 560              		.loc 1 127 9 view .LVU141
 561 03e7 EBB1     		jmp	.L22
 562              	.LVL53:
 563              	.L37:
 127:C:/Users/victim/source/repos/Paranyok/UEFI\bootmgfw.c ****             rotatingChar = (i % 4 == 0) ? L'/' :
 564              		.loc 1 127 9 view .LVU142
 565              	.LBE23:
 566              	.LBE24:
 567              	.LBE25:
 148:C:/Users/victim/source/repos/Paranyok/UEFI\bootmgfw.c ****     }
 149:C:/Users/victim/source/repos/Paranyok/UEFI\bootmgfw.c **** 
 150:C:/Users/victim/source/repos/Paranyok/UEFI\bootmgfw.c ****     // Reset to default color after the effect
 151:C:/Users/victim/source/repos/Paranyok/UEFI\bootmgfw.c ****     uefi_call_wrapper(ConOut->SetAttribute, 1, ConOut, defaultColor);
 568              		.loc 1 151 5 is_stmt 1 view .LVU143
 569 03e9 BA070000 		movl	$7, %edx
 569      00
 570 03ee 4889F1   		movq	%rsi, %rcx
 571 03f1 FF5628   		call	*40(%rsi)
 572 03f4 90       		nop
 573              	.LVL54:
 574              	.L18:
 152:C:/Users/victim/source/repos/Paranyok/UEFI\bootmgfw.c **** }
 575              		.loc 1 152 1 is_stmt 0 view .LVU144
 576 03f5 4881C4B8 		addq	$184, %rsp
 576      000000
 577              		.cfi_def_cfa_offset 56
 578 03fc 5B       		popq	%rbx
 579              		.cfi_restore 3
 580              		.cfi_def_cfa_offset 48
 581 03fd 5E       		popq	%rsi
 582              		.cfi_restore 4
 583              		.cfi_def_cfa_offset 40
 584              	.LVL55:
 585              		.loc 1 152 1 view .LVU145
 586 03fe 5F       		popq	%rdi
 587              		.cfi_restore 5
 588              		.cfi_def_cfa_offset 32
 589 03ff 5D       		popq	%rbp
 590              		.cfi_restore 6
 591              		.cfi_def_cfa_offset 24
 592 0400 415C     		popq	%r12
 593              		.cfi_restore 12
 594              		.cfi_def_cfa_offset 16
 595 0402 415D     		popq	%r13
 596              		.cfi_restore 13
 597              		.cfi_def_cfa_offset 8
 598 0404 C3       		ret
 599              		.cfi_endproc
 600              	.LFE9:
 601              		.seh_endproc
 602              		.globl	complex_blur
 604              		.seh_proc	complex_blur
 605              	complex_blur:
 606              	.LVL56:
 607              	.LFB10:
 153:C:/Users/victim/source/repos/Paranyok/UEFI\bootmgfw.c **** 
 154:C:/Users/victim/source/repos/Paranyok/UEFI\bootmgfw.c **** // Effect 2: Complex Blur
 155:C:/Users/victim/source/repos/Paranyok/UEFI\bootmgfw.c **** void complex_blur(EFI_SYSTEM_TABLE* SystemTable, CHAR16* message, UINTN originalCol, UINTN original
 608              		.loc 1 155 105 is_stmt 1 view -0
 609              		.cfi_startproc
 610              		.loc 1 155 105 is_stmt 0 view .LVU147
 611 0405 4156     		pushq	%r14
 612              		.seh_pushreg	%r14
 613              		.cfi_def_cfa_offset 16
 614              		.cfi_offset 14, -16
 615 0407 4155     		pushq	%r13
 616              		.seh_pushreg	%r13
 617              		.cfi_def_cfa_offset 24
 618              		.cfi_offset 13, -24
 619 0409 4154     		pushq	%r12
 620              		.seh_pushreg	%r12
 621              		.cfi_def_cfa_offset 32
 622              		.cfi_offset 12, -32
 623 040b 55       		pushq	%rbp
 624              		.seh_pushreg	%rbp
 625              		.cfi_def_cfa_offset 40
 626              		.cfi_offset 6, -40
 627 040c 57       		pushq	%rdi
 628              		.seh_pushreg	%rdi
 629              		.cfi_def_cfa_offset 48
 630              		.cfi_offset 5, -48
 631 040d 56       		pushq	%rsi
 632              		.seh_pushreg	%rsi
 633              		.cfi_def_cfa_offset 56
 634              		.cfi_offset 4, -56
 635 040e 53       		pushq	%rbx
 636              		.seh_pushreg	%rbx
 637              		.cfi_def_cfa_offset 64
 638              		.cfi_offset 3, -64
 639 040f 4883EC30 		subq	$48, %rsp
 640              		.seh_stackalloc	48
 641              		.cfi_def_cfa_offset 112
 642              		.seh_endprologue
 643 0413 4889D5   		movq	%rdx, %rbp
 644 0416 4D89C4   		movq	%r8, %r12
 645 0419 4D89CD   		movq	%r9, %r13
 156:C:/Users/victim/source/repos/Paranyok/UEFI\bootmgfw.c ****     EFI_SIMPLE_TEXT_OUT_PROTOCOL* ConOut = SystemTable->ConOut;
 646              		.loc 1 156 5 is_stmt 1 view .LVU148
 647              		.loc 1 156 35 is_stmt 0 view .LVU149
 648 041c 488B7140 		movq	64(%rcx), %rsi
 649              	.LVL57:
 157:C:/Users/victim/source/repos/Paranyok/UEFI\bootmgfw.c ****     UINTN col, row;
 650              		.loc 1 157 5 is_stmt 1 view .LVU150
 158:C:/Users/victim/source/repos/Paranyok/UEFI\bootmgfw.c ****     UINTN Columns, Rows;
 651              		.loc 1 158 5 view .LVU151
 159:C:/Users/victim/source/repos/Paranyok/UEFI\bootmgfw.c ****     int blur_intensity = 6;
 652              		.loc 1 159 5 view .LVU152
 160:C:/Users/victim/source/repos/Paranyok/UEFI\bootmgfw.c ****     EFI_STATUS Status;
 653              		.loc 1 160 5 view .LVU153
 161:C:/Users/victim/source/repos/Paranyok/UEFI\bootmgfw.c **** 
 162:C:/Users/victim/source/repos/Paranyok/UEFI\bootmgfw.c ****     // Get the dimensions of the screen
 163:C:/Users/victim/source/repos/Paranyok/UEFI\bootmgfw.c ****     Status = uefi_call_wrapper(ConOut->QueryMode, 4, ConOut, ConOut->Mode->Mode, &Columns, &Rows);
 654              		.loc 1 163 5 view .LVU154
 655              		.loc 1 163 14 is_stmt 0 view .LVU155
 656 0420 488B4648 		movq	72(%rsi), %rax
 657 0424 48635004 		movslq	4(%rax), %rdx
 658              	.LVL58:
 659              		.loc 1 163 14 view .LVU156
 660 0428 4C8D4C24 		leaq	32(%rsp), %r9
 660      20
 661              	.LVL59:
 662              		.loc 1 163 14 view .LVU157
 663 042d 4C8D4424 		leaq	40(%rsp), %r8
 663      28
 664              	.LVL60:
 665              		.loc 1 163 14 view .LVU158
 666 0432 4889F1   		movq	%rsi, %rcx
 667              	.LVL61:
 668              		.loc 1 163 14 view .LVU159
 669 0435 FF5618   		call	*24(%rsi)
 670              	.LVL62:
 164:C:/Users/victim/source/repos/Paranyok/UEFI\bootmgfw.c ****     if (EFI_ERROR(Status)) {
 671              		.loc 1 164 5 is_stmt 1 view .LVU160
 672              		.loc 1 164 8 is_stmt 0 view .LVU161
 673 0438 4885C0   		testq	%rax, %rax
 674 043b 7807     		js	.L45
 675              	.LBB26:
 165:C:/Users/victim/source/repos/Paranyok/UEFI\bootmgfw.c ****         Print(L"Error querying screen size.\n");
 166:C:/Users/victim/source/repos/Paranyok/UEFI\bootmgfw.c ****         return;
 167:C:/Users/victim/source/repos/Paranyok/UEFI\bootmgfw.c ****     }
 168:C:/Users/victim/source/repos/Paranyok/UEFI\bootmgfw.c **** 
 169:C:/Users/victim/source/repos/Paranyok/UEFI\bootmgfw.c ****     for (int i = 0; i < blur_intensity; i++) {
 676              		.loc 1 169 14 view .LVU162
 677 043d BF000000 		movl	$0, %edi
 677      00
 678 0442 EB36     		jmp	.L39
 679              	.L45:
 680              	.LBE26:
 165:C:/Users/victim/source/repos/Paranyok/UEFI\bootmgfw.c ****         Print(L"Error querying screen size.\n");
 681              		.loc 1 165 9 is_stmt 1 view .LVU163
 682 0444 488D0D00 		leaq	.LC6(%rip), %rcx
 682      000000
 683 044b E8000000 		call	Print
 683      00
 684              	.LVL63:
 166:C:/Users/victim/source/repos/Paranyok/UEFI\bootmgfw.c ****     }
 685              		.loc 1 166 9 view .LVU164
 686 0450 E9A80000 		jmp	.L38
 686      00
 687              	.LVL64:
 688              	.L42:
 689              	.LBB29:
 690              	.LBB27:
 170:C:/Users/victim/source/repos/Paranyok/UEFI\bootmgfw.c ****         col = originalCol + (my_rand() % 50 - 25);
 171:C:/Users/victim/source/repos/Paranyok/UEFI\bootmgfw.c ****         row = originalRow + (my_rand() % 30 - 15);
 172:C:/Users/victim/source/repos/Paranyok/UEFI\bootmgfw.c **** 
 173:C:/Users/victim/source/repos/Paranyok/UEFI\bootmgfw.c ****         // Ensure coordinates are within screen boundaries
 174:C:/Users/victim/source/repos/Paranyok/UEFI\bootmgfw.c ****         if (col >= Columns) col = Columns - 1;
 175:C:/Users/victim/source/repos/Paranyok/UEFI\bootmgfw.c ****         if (row >= Rows) row = Rows - 1;
 176:C:/Users/victim/source/repos/Paranyok/UEFI\bootmgfw.c **** 
 177:C:/Users/victim/source/repos/Paranyok/UEFI\bootmgfw.c ****         UINTN color = random_color();
 691              		.loc 1 177 9 view .LVU165
 692              		.loc 1 177 23 is_stmt 0 view .LVU166
 693 0455 E8E3FCFF 		call	random_color
 693      FF
 694              	.LVL65:
 695 045a 4889C2   		movq	%rax, %rdx
 696              	.LVL66:
 178:C:/Users/victim/source/repos/Paranyok/UEFI\bootmgfw.c ****         uefi_call_wrapper(ConOut->SetAttribute, 1, ConOut, color);
 697              		.loc 1 178 9 is_stmt 1 view .LVU167
 698 045d 4889F1   		movq	%rsi, %rcx
 699 0460 FF5628   		call	*40(%rsi)
 700              	.LVL67:
 179:C:/Users/victim/source/repos/Paranyok/UEFI\bootmgfw.c ****         uefi_call_wrapper(ConOut->SetCursorPosition, 2, ConOut, col, row);
 701              		.loc 1 179 9 view .LVU168
 702 0463 4D89F0   		movq	%r14, %r8
 703 0466 4889DA   		movq	%rbx, %rdx
 704 0469 4889F1   		movq	%rsi, %rcx
 705 046c FF5638   		call	*56(%rsi)
 706              	.LVL68:
 180:C:/Users/victim/source/repos/Paranyok/UEFI\bootmgfw.c ****         Print(message);
 707              		.loc 1 180 9 view .LVU169
 708 046f 4889E9   		movq	%rbp, %rcx
 709 0472 E8000000 		call	Print
 709      00
 710              	.LVL69:
 711              	.LBE27:
 169:C:/Users/victim/source/repos/Paranyok/UEFI\bootmgfw.c ****         col = originalCol + (my_rand() % 50 - 25);
 712              		.loc 1 169 42 discriminator 2 view .LVU170
 713 0477 83C701   		addl	$1, %edi
 714              	.LVL70:
 715              	.L39:
 169:C:/Users/victim/source/repos/Paranyok/UEFI\bootmgfw.c ****         col = originalCol + (my_rand() % 50 - 25);
 716              		.loc 1 169 23 discriminator 1 view .LVU171
 717 047a 83FF05   		cmpl	$5, %edi
 718 047d 7F5E     		jg	.L46
 719              	.LBB28:
 170:C:/Users/victim/source/repos/Paranyok/UEFI\bootmgfw.c ****         row = originalRow + (my_rand() % 30 - 15);
 720              		.loc 1 170 9 view .LVU172
 170:C:/Users/victim/source/repos/Paranyok/UEFI\bootmgfw.c ****         row = originalRow + (my_rand() % 30 - 15);
 721              		.loc 1 170 30 is_stmt 0 view .LVU173
 722 047f E856FCFF 		call	my_rand
 722      FF
 723              	.LVL71:
 170:C:/Users/victim/source/repos/Paranyok/UEFI\bootmgfw.c ****         row = originalRow + (my_rand() % 30 - 15);
 724              		.loc 1 170 40 discriminator 1 view .LVU174
 725 0484 89C2     		movl	%eax, %edx
 726 0486 4869D21F 		imulq	$1374389535, %rdx, %rdx
 726      85EB51
 727 048d 48C1EA24 		shrq	$36, %rdx
 728 0491 6BCA32   		imull	$50, %edx, %ecx
 729 0494 29C8     		subl	%ecx, %eax
 170:C:/Users/victim/source/repos/Paranyok/UEFI\bootmgfw.c ****         row = originalRow + (my_rand() % 30 - 15);
 730              		.loc 1 170 45 discriminator 1 view .LVU175
 731 0496 8D58E7   		leal	-25(%rax), %ebx
 170:C:/Users/victim/source/repos/Paranyok/UEFI\bootmgfw.c ****         row = originalRow + (my_rand() % 30 - 15);
 732              		.loc 1 170 13 discriminator 1 view .LVU176
 733 0499 4C01E3   		addq	%r12, %rbx
 734              	.LVL72:
 171:C:/Users/victim/source/repos/Paranyok/UEFI\bootmgfw.c **** 
 735              		.loc 1 171 9 is_stmt 1 view .LVU177
 171:C:/Users/victim/source/repos/Paranyok/UEFI\bootmgfw.c **** 
 736              		.loc 1 171 30 is_stmt 0 view .LVU178
 737 049c E839FCFF 		call	my_rand
 737      FF
 738              	.LVL73:
 171:C:/Users/victim/source/repos/Paranyok/UEFI\bootmgfw.c **** 
 739              		.loc 1 171 40 discriminator 1 view .LVU179
 740 04a1 89C2     		movl	%eax, %edx
 741 04a3 B9898888 		movl	$2290649225, %ecx
 741      88
 742 04a8 480FAFD1 		imulq	%rcx, %rdx
 743 04ac 48C1EA24 		shrq	$36, %rdx
 744 04b0 6BCA1E   		imull	$30, %edx, %ecx
 745 04b3 29C8     		subl	%ecx, %eax
 171:C:/Users/victim/source/repos/Paranyok/UEFI\bootmgfw.c **** 
 746              		.loc 1 171 45 discriminator 1 view .LVU180
 747 04b5 448D70F1 		leal	-15(%rax), %r14d
 171:C:/Users/victim/source/repos/Paranyok/UEFI\bootmgfw.c **** 
 748              		.loc 1 171 13 discriminator 1 view .LVU181
 749 04b9 4D01EE   		addq	%r13, %r14
 750              	.LVL74:
 174:C:/Users/victim/source/repos/Paranyok/UEFI\bootmgfw.c ****         if (row >= Rows) row = Rows - 1;
 751              		.loc 1 174 9 is_stmt 1 view .LVU182
 174:C:/Users/victim/source/repos/Paranyok/UEFI\bootmgfw.c ****         if (row >= Rows) row = Rows - 1;
 752              		.loc 1 174 17 is_stmt 0 view .LVU183
 753 04bc 488B4424 		movq	40(%rsp), %rax
 753      28
 174:C:/Users/victim/source/repos/Paranyok/UEFI\bootmgfw.c ****         if (row >= Rows) row = Rows - 1;
 754              		.loc 1 174 12 view .LVU184
 755 04c1 4839C3   		cmpq	%rax, %rbx
 756 04c4 7204     		jb	.L41
 174:C:/Users/victim/source/repos/Paranyok/UEFI\bootmgfw.c ****         if (row >= Rows) row = Rows - 1;
 757              		.loc 1 174 29 is_stmt 1 discriminator 1 view .LVU185
 174:C:/Users/victim/source/repos/Paranyok/UEFI\bootmgfw.c ****         if (row >= Rows) row = Rows - 1;
 758              		.loc 1 174 33 is_stmt 0 discriminator 1 view .LVU186
 759 04c6 488D58FF 		leaq	-1(%rax), %rbx
 760              	.LVL75:
 761              	.L41:
 175:C:/Users/victim/source/repos/Paranyok/UEFI\bootmgfw.c **** 
 762              		.loc 1 175 9 is_stmt 1 view .LVU187
 175:C:/Users/victim/source/repos/Paranyok/UEFI\bootmgfw.c **** 
 763              		.loc 1 175 17 is_stmt 0 view .LVU188
 764 04ca 488B4424 		movq	32(%rsp), %rax
 764      20
 175:C:/Users/victim/source/repos/Paranyok/UEFI\bootmgfw.c **** 
 765              		.loc 1 175 12 view .LVU189
 766 04cf 4939C6   		cmpq	%rax, %r14
 767 04d2 7281     		jb	.L42
 175:C:/Users/victim/source/repos/Paranyok/UEFI\bootmgfw.c **** 
 768              		.loc 1 175 26 is_stmt 1 discriminator 1 view .LVU190
 175:C:/Users/victim/source/repos/Paranyok/UEFI\bootmgfw.c **** 
 769              		.loc 1 175 30 is_stmt 0 discriminator 1 view .LVU191
 770 04d4 4C8D70FF 		leaq	-1(%rax), %r14
 771              	.LVL76:
 175:C:/Users/victim/source/repos/Paranyok/UEFI\bootmgfw.c **** 
 772              		.loc 1 175 30 discriminator 1 view .LVU192
 773 04d8 E978FFFF 		jmp	.L42
 773      FF
 774              	.LVL77:
 775              	.L46:
 175:C:/Users/victim/source/repos/Paranyok/UEFI\bootmgfw.c **** 
 776              		.loc 1 175 30 discriminator 1 view .LVU193
 777              	.LBE28:
 778              	.LBE29:
 181:C:/Users/victim/source/repos/Paranyok/UEFI\bootmgfw.c ****     }
 182:C:/Users/victim/source/repos/Paranyok/UEFI\bootmgfw.c **** 
 183:C:/Users/victim/source/repos/Paranyok/UEFI\bootmgfw.c ****     // Reset to default color and position
 184:C:/Users/victim/source/repos/Paranyok/UEFI\bootmgfw.c ****     uefi_call_wrapper(ConOut->SetAttribute, 1, ConOut, EFI_WHITE | EFI_BACKGROUND_BLACK);
 779              		.loc 1 184 5 is_stmt 1 view .LVU194
 780 04dd BA0F0000 		movl	$15, %edx
 780      00
 781 04e2 4889F1   		movq	%rsi, %rcx
 782 04e5 FF5628   		call	*40(%rsi)
 783              	.LVL78:
 185:C:/Users/victim/source/repos/Paranyok/UEFI\bootmgfw.c ****     uefi_call_wrapper(ConOut->SetCursorPosition, 2, ConOut, originalCol, originalRow);
 784              		.loc 1 185 5 view .LVU195
 785 04e8 4D89E8   		movq	%r13, %r8
 786 04eb 4C89E2   		movq	%r12, %rdx
 787 04ee 4889F1   		movq	%rsi, %rcx
 788 04f1 FF5638   		call	*56(%rsi)
 789              	.LVL79:
 186:C:/Users/victim/source/repos/Paranyok/UEFI\bootmgfw.c ****     Print(message);
 790              		.loc 1 186 5 view .LVU196
 791 04f4 4889E9   		movq	%rbp, %rcx
 792 04f7 E8000000 		call	Print
 792      00
 793 04fc 90       		nop
 794              	.LVL80:
 795              	.L38:
 187:C:/Users/victim/source/repos/Paranyok/UEFI\bootmgfw.c **** }
 796              		.loc 1 187 1 is_stmt 0 view .LVU197
 797 04fd 4883C430 		addq	$48, %rsp
 798              		.cfi_def_cfa_offset 64
 799 0501 5B       		popq	%rbx
 800              		.cfi_restore 3
 801              		.cfi_def_cfa_offset 56
 802 0502 5E       		popq	%rsi
 803              		.cfi_restore 4
 804              		.cfi_def_cfa_offset 48
 805              	.LVL81:
 806              		.loc 1 187 1 view .LVU198
 807 0503 5F       		popq	%rdi
 808              		.cfi_restore 5
 809              		.cfi_def_cfa_offset 40
 810 0504 5D       		popq	%rbp
 811              		.cfi_restore 6
 812              		.cfi_def_cfa_offset 32
 813              	.LVL82:
 814              		.loc 1 187 1 view .LVU199
 815 0505 415C     		popq	%r12
 816              		.cfi_restore 12
 817              		.cfi_def_cfa_offset 24
 818              	.LVL83:
 819              		.loc 1 187 1 view .LVU200
 820 0507 415D     		popq	%r13
 821              		.cfi_restore 13
 822              		.cfi_def_cfa_offset 16
 823              	.LVL84:
 824              		.loc 1 187 1 view .LVU201
 825 0509 415E     		popq	%r14
 826              		.cfi_restore 14
 827              		.cfi_def_cfa_offset 8
 828 050b C3       		ret
 829              		.cfi_endproc
 830              	.LFE10:
 831              		.seh_endproc
 832              		.section .rdata,"dr"
 833              		.align 2
 834              	.LC8:
 835 0040 2E000000 		.ascii ".\0\0\0"
 836              		.text
 837              		.globl	pixel_rain
 839              		.seh_proc	pixel_rain
 840              	pixel_rain:
 841              	.LVL85:
 842              	.LFB11:
 188:C:/Users/victim/source/repos/Paranyok/UEFI\bootmgfw.c **** 
 189:C:/Users/victim/source/repos/Paranyok/UEFI\bootmgfw.c **** // Effect 3: Pixel Rain
 190:C:/Users/victim/source/repos/Paranyok/UEFI\bootmgfw.c **** void pixel_rain(EFI_SYSTEM_TABLE* SystemTable, UINTN Columns, UINTN Rows) {
 843              		.loc 1 190 75 is_stmt 1 view -0
 844              		.cfi_startproc
 845              		.loc 1 190 75 is_stmt 0 view .LVU203
 846 050c 4155     		pushq	%r13
 847              		.seh_pushreg	%r13
 848              		.cfi_def_cfa_offset 16
 849              		.cfi_offset 13, -16
 850 050e 4154     		pushq	%r12
 851              		.seh_pushreg	%r12
 852              		.cfi_def_cfa_offset 24
 853              		.cfi_offset 12, -24
 854 0510 55       		pushq	%rbp
 855              		.seh_pushreg	%rbp
 856              		.cfi_def_cfa_offset 32
 857              		.cfi_offset 6, -32
 858 0511 57       		pushq	%rdi
 859              		.seh_pushreg	%rdi
 860              		.cfi_def_cfa_offset 40
 861              		.cfi_offset 5, -40
 862 0512 56       		pushq	%rsi
 863              		.seh_pushreg	%rsi
 864              		.cfi_def_cfa_offset 48
 865              		.cfi_offset 4, -48
 866 0513 53       		pushq	%rbx
 867              		.seh_pushreg	%rbx
 868              		.cfi_def_cfa_offset 56
 869              		.cfi_offset 3, -56
 870 0514 4883EC28 		subq	$40, %rsp
 871              		.seh_stackalloc	40
 872              		.cfi_def_cfa_offset 96
 873              		.seh_endprologue
 874 0518 4889CD   		movq	%rcx, %rbp
 875 051b 4889D7   		movq	%rdx, %rdi
 876 051e 4C89C6   		movq	%r8, %rsi
 191:C:/Users/victim/source/repos/Paranyok/UEFI\bootmgfw.c ****     for (UINTN i = 0; i < 100; i++) {
 877              		.loc 1 191 5 is_stmt 1 view .LVU204
 878              	.LBB30:
 879              		.loc 1 191 10 view .LVU205
 880              	.LVL86:
 881              		.loc 1 191 16 is_stmt 0 view .LVU206
 882 0521 BB000000 		movl	$0, %ebx
 882      00
 883              		.loc 1 191 5 view .LVU207
 884 0526 EB60     		jmp	.L48
 885              	.LVL87:
 886              	.L49:
 887              	.LBB31:
 192:C:/Users/victim/source/repos/Paranyok/UEFI\bootmgfw.c ****         UINTN col = my_rand() % Columns;
 888              		.loc 1 192 9 is_stmt 1 view .LVU208
 889              		.loc 1 192 21 is_stmt 0 view .LVU209
 890 0528 E8ADFBFF 		call	my_rand
 890      FF
 891              	.LVL88:
 892              		.loc 1 192 21 discriminator 1 view .LVU210
 893 052d 89C0     		movl	%eax, %eax
 894              		.loc 1 192 15 discriminator 1 view .LVU211
 895 052f BA000000 		movl	$0, %edx
 895      00
 896 0534 48F7F7   		divq	%rdi
 897 0537 4989D4   		movq	%rdx, %r12
 898              	.LVL89:
 193:C:/Users/victim/source/repos/Paranyok/UEFI\bootmgfw.c ****         UINTN row = my_rand() % Rows;
 899              		.loc 1 193 9 is_stmt 1 view .LVU212
 900              		.loc 1 193 21 is_stmt 0 view .LVU213
 901 053a E89BFBFF 		call	my_rand
 901      FF
 902              	.LVL90:
 903              		.loc 1 193 21 discriminator 1 view .LVU214
 904 053f 89C0     		movl	%eax, %eax
 905              		.loc 1 193 15 discriminator 1 view .LVU215
 906 0541 BA000000 		movl	$0, %edx
 906      00
 907 0546 48F7F6   		divq	%rsi
 908 0549 4989D5   		movq	%rdx, %r13
 909              	.LVL91:
 194:C:/Users/victim/source/repos/Paranyok/UEFI\bootmgfw.c ****         UINTN color = random_color();
 910              		.loc 1 194 9 is_stmt 1 view .LVU216
 911              		.loc 1 194 23 is_stmt 0 view .LVU217
 912 054c E8ECFBFF 		call	random_color
 912      FF
 913              	.LVL92:
 914              		.loc 1 194 23 view .LVU218
 915 0551 4889C2   		movq	%rax, %rdx
 916              	.LVL93:
 195:C:/Users/victim/source/repos/Paranyok/UEFI\bootmgfw.c ****         uefi_call_wrapper(SystemTable->ConOut->SetAttribute, 1, SystemTable->ConOut, color);
 917              		.loc 1 195 9 is_stmt 1 view .LVU219
 918 0554 488B4540 		movq	64(%rbp), %rax
 919              	.LVL94:
 920              		.loc 1 195 9 is_stmt 0 view .LVU220
 921 0558 4889C1   		movq	%rax, %rcx
 922 055b FF5028   		call	*40(%rax)
 923              	.LVL95:
 196:C:/Users/victim/source/repos/Paranyok/UEFI\bootmgfw.c ****         uefi_call_wrapper(SystemTable->ConOut->SetCursorPosition, 1, SystemTable->ConOut, col, row)
 924              		.loc 1 196 9 is_stmt 1 view .LVU221
 925 055e 488B4540 		movq	64(%rbp), %rax
 926 0562 4D89E8   		movq	%r13, %r8
 927 0565 4C89E2   		movq	%r12, %rdx
 928 0568 4889C1   		movq	%rax, %rcx
 929 056b FF5038   		call	*56(%rax)
 930              	.LVL96:
 197:C:/Users/victim/source/repos/Paranyok/UEFI\bootmgfw.c ****         Print(L".");
 931              		.loc 1 197 9 view .LVU222
 932 056e 488D0D40 		leaq	.LC8(%rip), %rcx
 932      000000
 933 0575 E8000000 		call	Print
 933      00
 934              	.LVL97:
 198:C:/Users/victim/source/repos/Paranyok/UEFI\bootmgfw.c ****         delay(500000);
 935              		.loc 1 198 9 view .LVU223
 936 057a B920A107 		movl	$500000, %ecx
 936      00
 937 057f E871FBFF 		call	delay
 937      FF
 938              	.LVL98:
 939              	.LBE31:
 191:C:/Users/victim/source/repos/Paranyok/UEFI\bootmgfw.c ****         UINTN col = my_rand() % Columns;
 940              		.loc 1 191 33 discriminator 3 view .LVU224
 941 0584 4883C301 		addq	$1, %rbx
 942              	.LVL99:
 943              	.L48:
 191:C:/Users/victim/source/repos/Paranyok/UEFI\bootmgfw.c ****         UINTN col = my_rand() % Columns;
 944              		.loc 1 191 25 discriminator 1 view .LVU225
 945 0588 4883FB63 		cmpq	$99, %rbx
 946 058c 769A     		jbe	.L49
 947              	.LBE30:
 199:C:/Users/victim/source/repos/Paranyok/UEFI\bootmgfw.c ****     }
 200:C:/Users/victim/source/repos/Paranyok/UEFI\bootmgfw.c **** }
 948              		.loc 1 200 1 is_stmt 0 view .LVU226
 949 058e 4883C428 		addq	$40, %rsp
 950              		.cfi_def_cfa_offset 56
 951 0592 5B       		popq	%rbx
 952              		.cfi_restore 3
 953              		.cfi_def_cfa_offset 48
 954              	.LVL100:
 955              		.loc 1 200 1 view .LVU227
 956 0593 5E       		popq	%rsi
 957              		.cfi_restore 4
 958              		.cfi_def_cfa_offset 40
 959              	.LVL101:
 960              		.loc 1 200 1 view .LVU228
 961 0594 5F       		popq	%rdi
 962              		.cfi_restore 5
 963              		.cfi_def_cfa_offset 32
 964              	.LVL102:
 965              		.loc 1 200 1 view .LVU229
 966 0595 5D       		popq	%rbp
 967              		.cfi_restore 6
 968              		.cfi_def_cfa_offset 24
 969              	.LVL103:
 970              		.loc 1 200 1 view .LVU230
 971 0596 415C     		popq	%r12
 972              		.cfi_restore 12
 973              		.cfi_def_cfa_offset 16
 974 0598 415D     		popq	%r13
 975              		.cfi_restore 13
 976              		.cfi_def_cfa_offset 8
 977 059a C3       		ret
 978              		.cfi_endproc
 979              	.LFE11:
 980              		.seh_endproc
 981              		.globl	wave_animation
 983              		.seh_proc	wave_animation
 984              	wave_animation:
 985              	.LVL104:
 986              	.LFB12:
 201:C:/Users/victim/source/repos/Paranyok/UEFI\bootmgfw.c **** 
 202:C:/Users/victim/source/repos/Paranyok/UEFI\bootmgfw.c **** // Effect 4: Wave Animation
 203:C:/Users/victim/source/repos/Paranyok/UEFI\bootmgfw.c **** void wave_animation(EFI_SYSTEM_TABLE* SystemTable, CHAR16* message, UINTN originalCol, UINTN origin
 987              		.loc 1 203 124 is_stmt 1 view -0
 988              		.cfi_startproc
 989              		.loc 1 203 124 is_stmt 0 view .LVU232
 990 059b 4157     		pushq	%r15
 991              		.seh_pushreg	%r15
 992              		.cfi_def_cfa_offset 16
 993              		.cfi_offset 15, -16
 994 059d 4156     		pushq	%r14
 995              		.seh_pushreg	%r14
 996              		.cfi_def_cfa_offset 24
 997              		.cfi_offset 14, -24
 998 059f 4155     		pushq	%r13
 999              		.seh_pushreg	%r13
 1000              		.cfi_def_cfa_offset 32
 1001              		.cfi_offset 13, -32
 1002 05a1 4154     		pushq	%r12
 1003              		.seh_pushreg	%r12
 1004              		.cfi_def_cfa_offset 40
 1005              		.cfi_offset 12, -40
 1006 05a3 55       		pushq	%rbp
 1007              		.seh_pushreg	%rbp
 1008              		.cfi_def_cfa_offset 48
 1009              		.cfi_offset 6, -48
 1010 05a4 57       		pushq	%rdi
 1011              		.seh_pushreg	%rdi
 1012              		.cfi_def_cfa_offset 56
 1013              		.cfi_offset 5, -56
 1014 05a5 56       		pushq	%rsi
 1015              		.seh_pushreg	%rsi
 1016              		.cfi_def_cfa_offset 64
 1017              		.cfi_offset 4, -64
 1018 05a6 53       		pushq	%rbx
 1019              		.seh_pushreg	%rbx
 1020              		.cfi_def_cfa_offset 72
 1021              		.cfi_offset 3, -72
 1022 05a7 4883EC28 		subq	$40, %rsp
 1023              		.seh_stackalloc	40
 1024              		.cfi_def_cfa_offset 112
 1025              		.seh_endprologue
 1026 05ab 4889CD   		movq	%rcx, %rbp
 1027 05ae 4889D7   		movq	%rdx, %rdi
 1028 05b1 4D89C7   		movq	%r8, %r15
 1029 05b4 4D89CE   		movq	%r9, %r14
 204:C:/Users/victim/source/repos/Paranyok/UEFI\bootmgfw.c ****     for (UINTN t = 0; t < 100; t++) {
 1030              		.loc 1 204 5 is_stmt 1 view .LVU233
 1031              	.LBB32:
 1032              		.loc 1 204 10 view .LVU234
 1033              	.LVL105:
 1034              		.loc 1 204 16 is_stmt 0 view .LVU235
 1035 05b7 41BD0000 		movl	$0, %r13d
 1035      0000
 1036              		.loc 1 204 5 view .LVU236
 1037 05bd E98A0000 		jmp	.L51
 1037      00
 1038              	.LVL106:
 1039              	.L52:
 1040              	.LBB33:
 1041              	.LBB34:
 205:C:/Users/victim/source/repos/Paranyok/UEFI\bootmgfw.c ****         for (UINTN i = 0; i < StrLen(message); i++) {
 206:C:/Users/victim/source/repos/Paranyok/UEFI\bootmgfw.c ****             UINTN col = originalCol + i;
 1042              		.loc 1 206 13 is_stmt 1 view .LVU237
 1043              		.loc 1 206 19 is_stmt 0 view .LVU238
 1044 05c2 4E8D243B 		leaq	(%rbx,%r15), %r12
 1045              	.LVL107:
 207:C:/Users/victim/source/repos/Paranyok/UEFI\bootmgfw.c ****             UINTN row = originalRow + (amplitude * Sin((t + i) % 360));
 1046              		.loc 1 207 13 is_stmt 1 view .LVU239
 1047              		.loc 1 207 59 is_stmt 0 view .LVU240
 1048 05c6 498D4C1D 		leaq	0(%r13,%rbx), %rcx
 1048      00
 1049              		.loc 1 207 52 view .LVU241
 1050 05cb 48BA832D 		movabsq	$3279421168659475843, %rdx
 1050      D8822DD8 
 1050      822D
 1051 05d5 4889C8   		movq	%rcx, %rax
 1052 05d8 48F7E2   		mulq	%rdx
 1053 05db 48C1EA06 		shrq	$6, %rdx
 1054 05df 4869D268 		imulq	$360, %rdx, %rdx
 1054      010000
 1055 05e6 4829D1   		subq	%rdx, %rcx
 1056 05e9 E827FAFF 		call	Sin
 1056      FF
 1057              	.LVL108:
 1058              		.loc 1 207 50 discriminator 1 view .LVU242
 1059 05ee 480FAF84 		imulq	144(%rsp), %rax
 1059      24900000 
 1059      00
 1060              		.loc 1 207 19 discriminator 1 view .LVU243
 1061 05f7 4A8D3430 		leaq	(%rax,%r14), %rsi
 1062              	.LVL109:
 208:C:/Users/victim/source/repos/Paranyok/UEFI\bootmgfw.c ****             UINTN color = random_color();
 1063              		.loc 1 208 13 is_stmt 1 view .LVU244
 1064              		.loc 1 208 27 is_stmt 0 view .LVU245
 1065 05fb E83DFBFF 		call	random_color
 1065      FF
 1066              	.LVL110:
 1067 0600 4889C2   		movq	%rax, %rdx
 1068              	.LVL111:
 209:C:/Users/victim/source/repos/Paranyok/UEFI\bootmgfw.c ****             uefi_call_wrapper(SystemTable->ConOut->SetAttribute, 1, SystemTable->ConOut, color);
 1069              		.loc 1 209 13 is_stmt 1 view .LVU246
 1070 0603 488B4540 		movq	64(%rbp), %rax
 1071              	.LVL112:
 1072              		.loc 1 209 13 is_stmt 0 view .LVU247
 1073 0607 4889C1   		movq	%rax, %rcx
 1074 060a FF5028   		call	*40(%rax)
 1075              	.LVL113:
 210:C:/Users/victim/source/repos/Paranyok/UEFI\bootmgfw.c ****             uefi_call_wrapper(SystemTable->ConOut->SetCursorPosition, 1, SystemTable->ConOut, col, 
 1076              		.loc 1 210 13 is_stmt 1 view .LVU248
 1077 060d 488B4540 		movq	64(%rbp), %rax
 1078 0611 4989F0   		movq	%rsi, %r8
 1079 0614 4C89E2   		movq	%r12, %rdx
 1080 0617 4889C1   		movq	%rax, %rcx
 1081 061a FF5038   		call	*56(%rax)
 1082              	.LVL114:
 211:C:/Users/victim/source/repos/Paranyok/UEFI\bootmgfw.c ****             Print(L"%c", message[i]);
 1083              		.loc 1 211 13 view .LVU249
 1084 061d 0FB7145F 		movzwl	(%rdi,%rbx,2), %edx
 1085 0621 488D0D3A 		leaq	.LC7(%rip), %rcx
 1085      000000
 1086 0628 E8000000 		call	Print
 1086      00
 1087              	.LVL115:
 1088              	.LBE34:
 205:C:/Users/victim/source/repos/Paranyok/UEFI\bootmgfw.c ****             UINTN col = originalCol + i;
 1089              		.loc 1 205 49 discriminator 3 view .LVU250
 1090 062d 4883C301 		addq	$1, %rbx
 1091              	.LVL116:
 1092              	.L53:
 205:C:/Users/victim/source/repos/Paranyok/UEFI\bootmgfw.c ****             UINTN col = originalCol + i;
 1093              		.loc 1 205 29 discriminator 1 view .LVU251
 205:C:/Users/victim/source/repos/Paranyok/UEFI\bootmgfw.c ****             UINTN col = originalCol + i;
 1094              		.loc 1 205 31 is_stmt 0 discriminator 1 view .LVU252
 1095 0631 4889F9   		movq	%rdi, %rcx
 1096 0634 E8000000 		call	StrLen
 1096      00
 1097              	.LVL117:
 205:C:/Users/victim/source/repos/Paranyok/UEFI\bootmgfw.c ****             UINTN col = originalCol + i;
 1098              		.loc 1 205 29 discriminator 1 view .LVU253
 1099 0639 4839C3   		cmpq	%rax, %rbx
 1100 063c 7284     		jb	.L52
 1101              	.LBE33:
 212:C:/Users/victim/source/repos/Paranyok/UEFI\bootmgfw.c ****         }
 213:C:/Users/victim/source/repos/Paranyok/UEFI\bootmgfw.c ****         delay(1000000);
 1102              		.loc 1 213 9 is_stmt 1 view .LVU254
 1103 063e B940420F 		movl	$1000000, %ecx
 1103      00
 1104 0643 E8ADFAFF 		call	delay
 1104      FF
 1105              	.LVL118:
 204:C:/Users/victim/source/repos/Paranyok/UEFI\bootmgfw.c ****         for (UINTN i = 0; i < StrLen(message); i++) {
 1106              		.loc 1 204 33 discriminator 2 view .LVU255
 1107 0648 4983C501 		addq	$1, %r13
 1108              	.LVL119:
 1109              	.L51:
 204:C:/Users/victim/source/repos/Paranyok/UEFI\bootmgfw.c ****         for (UINTN i = 0; i < StrLen(message); i++) {
 1110              		.loc 1 204 25 discriminator 1 view .LVU256
 1111 064c 4983FD63 		cmpq	$99, %r13
 1112 0650 7707     		ja	.L55
 1113              	.LBB35:
 205:C:/Users/victim/source/repos/Paranyok/UEFI\bootmgfw.c ****             UINTN col = originalCol + i;
 1114              		.loc 1 205 20 is_stmt 0 view .LVU257
 1115 0652 BB000000 		movl	$0, %ebx
 1115      00
 1116 0657 EBD8     		jmp	.L53
 1117              	.L55:
 1118              	.LBE35:
 1119              	.LBE32:
 214:C:/Users/victim/source/repos/Paranyok/UEFI\bootmgfw.c ****     }
 215:C:/Users/victim/source/repos/Paranyok/UEFI\bootmgfw.c **** }
 1120              		.loc 1 215 1 view .LVU258
 1121 0659 4883C428 		addq	$40, %rsp
 1122              		.cfi_def_cfa_offset 72
 1123 065d 5B       		popq	%rbx
 1124              		.cfi_restore 3
 1125              		.cfi_def_cfa_offset 64
 1126 065e 5E       		popq	%rsi
 1127              		.cfi_restore 4
 1128              		.cfi_def_cfa_offset 56
 1129 065f 5F       		popq	%rdi
 1130              		.cfi_restore 5
 1131              		.cfi_def_cfa_offset 48
 1132              	.LVL120:
 1133              		.loc 1 215 1 view .LVU259
 1134 0660 5D       		popq	%rbp
 1135              		.cfi_restore 6
 1136              		.cfi_def_cfa_offset 40
 1137              	.LVL121:
 1138              		.loc 1 215 1 view .LVU260
 1139 0661 415C     		popq	%r12
 1140              		.cfi_restore 12
 1141              		.cfi_def_cfa_offset 32
 1142 0663 415D     		popq	%r13
 1143              		.cfi_restore 13
 1144              		.cfi_def_cfa_offset 24
 1145              	.LVL122:
 1146              		.loc 1 215 1 view .LVU261
 1147 0665 415E     		popq	%r14
 1148              		.cfi_restore 14
 1149              		.cfi_def_cfa_offset 16
 1150              	.LVL123:
 1151              		.loc 1 215 1 view .LVU262
 1152 0667 415F     		popq	%r15
 1153              		.cfi_restore 15
 1154              		.cfi_def_cfa_offset 8
 1155              	.LVL124:
 1156              		.loc 1 215 1 view .LVU263
 1157 0669 C3       		ret
 1158              		.cfi_endproc
 1159              	.LFE12:
 1160              		.seh_endproc
 1161              		.globl	text_explosion
 1163              		.seh_proc	text_explosion
 1164              	text_explosion:
 1165              	.LVL125:
 1166              	.LFB13:
 216:C:/Users/victim/source/repos/Paranyok/UEFI\bootmgfw.c **** 
 217:C:/Users/victim/source/repos/Paranyok/UEFI\bootmgfw.c **** // Effect 5: Text Explosion
 218:C:/Users/victim/source/repos/Paranyok/UEFI\bootmgfw.c **** void text_explosion(EFI_SYSTEM_TABLE* SystemTable, CHAR16* message, UINTN originalCol, UINTN origin
 1167              		.loc 1 218 107 is_stmt 1 view -0
 1168              		.cfi_startproc
 1169              		.loc 1 218 107 is_stmt 0 view .LVU265
 1170 066a 4156     		pushq	%r14
 1171              		.seh_pushreg	%r14
 1172              		.cfi_def_cfa_offset 16
 1173              		.cfi_offset 14, -16
 1174 066c 4155     		pushq	%r13
 1175              		.seh_pushreg	%r13
 1176              		.cfi_def_cfa_offset 24
 1177              		.cfi_offset 13, -24
 1178 066e 4154     		pushq	%r12
 1179              		.seh_pushreg	%r12
 1180              		.cfi_def_cfa_offset 32
 1181              		.cfi_offset 12, -32
 1182 0670 55       		pushq	%rbp
 1183              		.seh_pushreg	%rbp
 1184              		.cfi_def_cfa_offset 40
 1185              		.cfi_offset 6, -40
 1186 0671 57       		pushq	%rdi
 1187              		.seh_pushreg	%rdi
 1188              		.cfi_def_cfa_offset 48
 1189              		.cfi_offset 5, -48
 1190 0672 56       		pushq	%rsi
 1191              		.seh_pushreg	%rsi
 1192              		.cfi_def_cfa_offset 56
 1193              		.cfi_offset 4, -56
 1194 0673 53       		pushq	%rbx
 1195              		.seh_pushreg	%rbx
 1196              		.cfi_def_cfa_offset 64
 1197              		.cfi_offset 3, -64
 1198 0674 4883EC20 		subq	$32, %rsp
 1199              		.seh_stackalloc	32
 1200              		.cfi_def_cfa_offset 96
 1201              		.seh_endprologue
 1202 0678 4889CF   		movq	%rcx, %rdi
 1203 067b 4989D5   		movq	%rdx, %r13
 1204 067e 4D89C4   		movq	%r8, %r12
 1205 0681 4C89CD   		movq	%r9, %rbp
 219:C:/Users/victim/source/repos/Paranyok/UEFI\bootmgfw.c ****     for (UINTN i = 0; i < 50; i++) {
 1206              		.loc 1 219 5 is_stmt 1 view .LVU266
 1207              	.LBB36:
 1208              		.loc 1 219 10 view .LVU267
 1209              	.LVL126:
 1210              		.loc 1 219 16 is_stmt 0 view .LVU268
 1211 0684 BE000000 		movl	$0, %esi
 1211      00
 1212              		.loc 1 219 5 view .LVU269
 1213 0689 EB75     		jmp	.L57
 1214              	.LVL127:
 1215              	.L58:
 1216              	.LBB37:
 220:C:/Users/victim/source/repos/Paranyok/UEFI\bootmgfw.c ****         UINTN col = originalCol + (my_rand() % 50 - 25);
 1217              		.loc 1 220 9 is_stmt 1 view .LVU270
 1218              		.loc 1 220 36 is_stmt 0 view .LVU271
 1219 068b E84AFAFF 		call	my_rand
 1219      FF
 1220              	.LVL128:
 1221              		.loc 1 220 46 discriminator 1 view .LVU272
 1222 0690 89C2     		movl	%eax, %edx
 1223 0692 4869D21F 		imulq	$1374389535, %rdx, %rdx
 1223      85EB51
 1224 0699 48C1EA24 		shrq	$36, %rdx
 1225 069d 6BCA32   		imull	$50, %edx, %ecx
 1226 06a0 29C8     		subl	%ecx, %eax
 1227              		.loc 1 220 51 discriminator 1 view .LVU273
 1228 06a2 8D58E7   		leal	-25(%rax), %ebx
 1229              		.loc 1 220 15 discriminator 1 view .LVU274
 1230 06a5 4C01E3   		addq	%r12, %rbx
 1231              	.LVL129:
 221:C:/Users/victim/source/repos/Paranyok/UEFI\bootmgfw.c ****         UINTN row = originalRow + (my_rand() % 30 - 15);
 1232              		.loc 1 221 9 is_stmt 1 view .LVU275
 1233              		.loc 1 221 36 is_stmt 0 view .LVU276
 1234 06a8 E82DFAFF 		call	my_rand
 1234      FF
 1235              	.LVL130:
 1236              		.loc 1 221 46 discriminator 1 view .LVU277
 1237 06ad 89C2     		movl	%eax, %edx
 1238 06af B9898888 		movl	$2290649225, %ecx
 1238      88
 1239 06b4 480FAFD1 		imulq	%rcx, %rdx
 1240 06b8 48C1EA24 		shrq	$36, %rdx
 1241 06bc 6BCA1E   		imull	$30, %edx, %ecx
 1242 06bf 29C8     		subl	%ecx, %eax
 1243              		.loc 1 221 51 discriminator 1 view .LVU278
 1244 06c1 448D70F1 		leal	-15(%rax), %r14d
 1245              		.loc 1 221 15 discriminator 1 view .LVU279
 1246 06c5 4901EE   		addq	%rbp, %r14
 1247              	.LVL131:
 222:C:/Users/victim/source/repos/Paranyok/UEFI\bootmgfw.c ****         UINTN color = random_color();
 1248              		.loc 1 222 9 is_stmt 1 view .LVU280
 1249              		.loc 1 222 23 is_stmt 0 view .LVU281
 1250 06c8 E870FAFF 		call	random_color
 1250      FF
 1251              	.LVL132:
 1252 06cd 4889C2   		movq	%rax, %rdx
 1253              	.LVL133:
 223:C:/Users/victim/source/repos/Paranyok/UEFI\bootmgfw.c ****         uefi_call_wrapper(SystemTable->ConOut->SetAttribute, 1, SystemTable->ConOut, color);
 1254              		.loc 1 223 9 is_stmt 1 view .LVU282
 1255 06d0 488B4740 		movq	64(%rdi), %rax
 1256              	.LVL134:
 1257              		.loc 1 223 9 is_stmt 0 view .LVU283
 1258 06d4 4889C1   		movq	%rax, %rcx
 1259 06d7 FF5028   		call	*40(%rax)
 1260              	.LVL135:
 224:C:/Users/victim/source/repos/Paranyok/UEFI\bootmgfw.c ****         uefi_call_wrapper(SystemTable->ConOut->SetCursorPosition, 1, SystemTable->ConOut, col, row)
 1261              		.loc 1 224 9 is_stmt 1 view .LVU284
 1262 06da 488B4740 		movq	64(%rdi), %rax
 1263 06de 4D89F0   		movq	%r14, %r8
 1264 06e1 4889DA   		movq	%rbx, %rdx
 1265 06e4 4889C1   		movq	%rax, %rcx
 1266 06e7 FF5038   		call	*56(%rax)
 1267              	.LVL136:
 225:C:/Users/victim/source/repos/Paranyok/UEFI\bootmgfw.c ****         Print(message);
 1268              		.loc 1 225 9 view .LVU285
 1269 06ea 4C89E9   		movq	%r13, %rcx
 1270 06ed E8000000 		call	Print
 1270      00
 1271              	.LVL137:
 226:C:/Users/victim/source/repos/Paranyok/UEFI\bootmgfw.c ****         delay(2000000);
 1272              		.loc 1 226 9 view .LVU286
 1273 06f2 B980841E 		movl	$2000000, %ecx
 1273      00
 1274 06f7 E8F9F9FF 		call	delay
 1274      FF
 1275              	.LVL138:
 1276              	.LBE37:
 219:C:/Users/victim/source/repos/Paranyok/UEFI\bootmgfw.c ****         UINTN col = originalCol + (my_rand() % 50 - 25);
 1277              		.loc 1 219 32 discriminator 3 view .LVU287
 1278 06fc 4883C601 		addq	$1, %rsi
 1279              	.LVL139:
 1280              	.L57:
 219:C:/Users/victim/source/repos/Paranyok/UEFI\bootmgfw.c ****         UINTN col = originalCol + (my_rand() % 50 - 25);
 1281              		.loc 1 219 25 discriminator 1 view .LVU288
 1282 0700 4883FE31 		cmpq	$49, %rsi
 1283 0704 7685     		jbe	.L58
 1284              	.LBE36:
 227:C:/Users/victim/source/repos/Paranyok/UEFI\bootmgfw.c ****     }
 228:C:/Users/victim/source/repos/Paranyok/UEFI\bootmgfw.c **** }
 1285              		.loc 1 228 1 is_stmt 0 view .LVU289
 1286 0706 4883C420 		addq	$32, %rsp
 1287              		.cfi_def_cfa_offset 64
 1288 070a 5B       		popq	%rbx
 1289              		.cfi_restore 3
 1290              		.cfi_def_cfa_offset 56
 1291 070b 5E       		popq	%rsi
 1292              		.cfi_restore 4
 1293              		.cfi_def_cfa_offset 48
 1294              	.LVL140:
 1295              		.loc 1 228 1 view .LVU290
 1296 070c 5F       		popq	%rdi
 1297              		.cfi_restore 5
 1298              		.cfi_def_cfa_offset 40
 1299              	.LVL141:
 1300              		.loc 1 228 1 view .LVU291
 1301 070d 5D       		popq	%rbp
 1302              		.cfi_restore 6
 1303              		.cfi_def_cfa_offset 32
 1304              	.LVL142:
 1305              		.loc 1 228 1 view .LVU292
 1306 070e 415C     		popq	%r12
 1307              		.cfi_restore 12
 1308              		.cfi_def_cfa_offset 24
 1309              	.LVL143:
 1310              		.loc 1 228 1 view .LVU293
 1311 0710 415D     		popq	%r13
 1312              		.cfi_restore 13
 1313              		.cfi_def_cfa_offset 16
 1314              	.LVL144:
 1315              		.loc 1 228 1 view .LVU294
 1316 0712 415E     		popq	%r14
 1317              		.cfi_restore 14
 1318              		.cfi_def_cfa_offset 8
 1319 0714 C3       		ret
 1320              		.cfi_endproc
 1321              	.LFE13:
 1322              		.seh_endproc
 1323              		.globl	fading_text
 1325              		.seh_proc	fading_text
 1326              	fading_text:
 1327              	.LVL145:
 1328              	.LFB14:
 229:C:/Users/victim/source/repos/Paranyok/UEFI\bootmgfw.c **** 
 230:C:/Users/victim/source/repos/Paranyok/UEFI\bootmgfw.c **** // Effect 6: Fading Text
 231:C:/Users/victim/source/repos/Paranyok/UEFI\bootmgfw.c **** void fading_text(EFI_SYSTEM_TABLE* SystemTable, CHAR16* message, UINTN originalCol, UINTN originalR
 1329              		.loc 1 231 104 is_stmt 1 view -0
 1330              		.cfi_startproc
 1331              		.loc 1 231 104 is_stmt 0 view .LVU296
 1332 0715 4154     		pushq	%r12
 1333              		.seh_pushreg	%r12
 1334              		.cfi_def_cfa_offset 16
 1335              		.cfi_offset 12, -16
 1336 0717 55       		pushq	%rbp
 1337              		.seh_pushreg	%rbp
 1338              		.cfi_def_cfa_offset 24
 1339              		.cfi_offset 6, -24
 1340 0718 57       		pushq	%rdi
 1341              		.seh_pushreg	%rdi
 1342              		.cfi_def_cfa_offset 32
 1343              		.cfi_offset 5, -32
 1344 0719 56       		pushq	%rsi
 1345              		.seh_pushreg	%rsi
 1346              		.cfi_def_cfa_offset 40
 1347              		.cfi_offset 4, -40
 1348 071a 53       		pushq	%rbx
 1349              		.seh_pushreg	%rbx
 1350              		.cfi_def_cfa_offset 48
 1351              		.cfi_offset 3, -48
 1352 071b 4883EC20 		subq	$32, %rsp
 1353              		.seh_stackalloc	32
 1354              		.cfi_def_cfa_offset 80
 1355              		.seh_endprologue
 1356 071f 4889CB   		movq	%rcx, %rbx
 1357 0722 4989D4   		movq	%rdx, %r12
 1358 0725 4C89C5   		movq	%r8, %rbp
 1359 0728 4C89CF   		movq	%r9, %rdi
 232:C:/Users/victim/source/repos/Paranyok/UEFI\bootmgfw.c ****     for (UINTN i = 0; i < 20; i++) {
 1360              		.loc 1 232 5 is_stmt 1 view .LVU297
 1361              	.LBB38:
 1362              		.loc 1 232 10 view .LVU298
 1363              	.LVL146:
 1364              		.loc 1 232 16 is_stmt 0 view .LVU299
 1365 072b BE000000 		movl	$0, %esi
 1365      00
 1366              		.loc 1 232 5 view .LVU300
 1367 0730 EB42     		jmp	.L60
 1368              	.LVL147:
 1369              	.L61:
 1370              	.LBB39:
 233:C:/Users/victim/source/repos/Paranyok/UEFI\bootmgfw.c ****         UINTN color = random_color();
 1371              		.loc 1 233 9 is_stmt 1 view .LVU301
 1372              		.loc 1 233 23 is_stmt 0 view .LVU302
 1373 0732 E806FAFF 		call	random_color
 1373      FF
 1374              	.LVL148:
 1375 0737 4889C2   		movq	%rax, %rdx
 1376              	.LVL149:
 234:C:/Users/victim/source/repos/Paranyok/UEFI\bootmgfw.c ****         uefi_call_wrapper(SystemTable->ConOut->SetAttribute, 1, SystemTable->ConOut, color);
 1377              		.loc 1 234 9 is_stmt 1 view .LVU303
 1378 073a 488B4340 		movq	64(%rbx), %rax
 1379              	.LVL150:
 1380              		.loc 1 234 9 is_stmt 0 view .LVU304
 1381 073e 4889C1   		movq	%rax, %rcx
 1382 0741 FF5028   		call	*40(%rax)
 1383              	.LVL151:
 235:C:/Users/victim/source/repos/Paranyok/UEFI\bootmgfw.c ****         uefi_call_wrapper(SystemTable->ConOut->SetCursorPosition, 1, SystemTable->ConOut, originalC
 1384              		.loc 1 235 9 is_stmt 1 view .LVU305
 1385 0744 488B4340 		movq	64(%rbx), %rax
 1386 0748 4989F8   		movq	%rdi, %r8
 1387 074b 4889EA   		movq	%rbp, %rdx
 1388 074e 4889C1   		movq	%rax, %rcx
 1389 0751 FF5038   		call	*56(%rax)
 1390              	.LVL152:
 236:C:/Users/victim/source/repos/Paranyok/UEFI\bootmgfw.c ****         Print(message);
 1391              		.loc 1 236 9 view .LVU306
 1392 0754 4C89E1   		movq	%r12, %rcx
 1393 0757 E8000000 		call	Print
 1393      00
 1394              	.LVL153:
 237:C:/Users/victim/source/repos/Paranyok/UEFI\bootmgfw.c ****         delay(2000000);
 1395              		.loc 1 237 9 view .LVU307
 1396 075c B980841E 		movl	$2000000, %ecx
 1396      00
 1397 0761 E88FF9FF 		call	delay
 1397      FF
 1398              	.LVL154:
 238:C:/Users/victim/source/repos/Paranyok/UEFI\bootmgfw.c ****         uefi_call_wrapper(SystemTable->ConOut->ClearScreen, 1, SystemTable->ConOut);
 1399              		.loc 1 238 9 view .LVU308
 1400 0766 488B4340 		movq	64(%rbx), %rax
 1401 076a 4889C1   		movq	%rax, %rcx
 1402 076d FF5030   		call	*48(%rax)
 1403              	.LVL155:
 1404              	.LBE39:
 232:C:/Users/victim/source/repos/Paranyok/UEFI\bootmgfw.c ****         UINTN color = random_color();
 1405              		.loc 1 232 32 discriminator 3 view .LVU309
 1406 0770 4883C601 		addq	$1, %rsi
 1407              	.LVL156:
 1408              	.L60:
 232:C:/Users/victim/source/repos/Paranyok/UEFI\bootmgfw.c ****         UINTN color = random_color();
 1409              		.loc 1 232 25 discriminator 1 view .LVU310
 1410 0774 4883FE13 		cmpq	$19, %rsi
 1411 0778 76B8     		jbe	.L61
 1412              	.LBE38:
 239:C:/Users/victim/source/repos/Paranyok/UEFI\bootmgfw.c ****     }
 240:C:/Users/victim/source/repos/Paranyok/UEFI\bootmgfw.c **** }
 1413              		.loc 1 240 1 is_stmt 0 view .LVU311
 1414 077a 4883C420 		addq	$32, %rsp
 1415              		.cfi_def_cfa_offset 48
 1416 077e 5B       		popq	%rbx
 1417              		.cfi_restore 3
 1418              		.cfi_def_cfa_offset 40
 1419              	.LVL157:
 1420              		.loc 1 240 1 view .LVU312
 1421 077f 5E       		popq	%rsi
 1422              		.cfi_restore 4
 1423              		.cfi_def_cfa_offset 32
 1424              	.LVL158:
 1425              		.loc 1 240 1 view .LVU313
 1426 0780 5F       		popq	%rdi
 1427              		.cfi_restore 5
 1428              		.cfi_def_cfa_offset 24
 1429              	.LVL159:
 1430              		.loc 1 240 1 view .LVU314
 1431 0781 5D       		popq	%rbp
 1432              		.cfi_restore 6
 1433              		.cfi_def_cfa_offset 16
 1434              	.LVL160:
 1435              		.loc 1 240 1 view .LVU315
 1436 0782 415C     		popq	%r12
 1437              		.cfi_restore 12
 1438              		.cfi_def_cfa_offset 8
 1439              	.LVL161:
 1440              		.loc 1 240 1 view .LVU316
 1441 0784 C3       		ret
 1442              		.cfi_endproc
 1443              	.LFE14:
 1444              		.seh_endproc
 1445              		.section .rdata,"dr"
 1446              		.align 2
 1447              	.LC9:
 1448 0044 5B005D00 		.ascii "[\0]\0\0\0"
 1448      0000
 1449              		.text
 1450              		.globl	grid_animation
 1452              		.seh_proc	grid_animation
 1453              	grid_animation:
 1454              	.LVL162:
 1455              	.LFB15:
 241:C:/Users/victim/source/repos/Paranyok/UEFI\bootmgfw.c **** 
 242:C:/Users/victim/source/repos/Paranyok/UEFI\bootmgfw.c **** // Effect 7: Grid Animation
 243:C:/Users/victim/source/repos/Paranyok/UEFI\bootmgfw.c **** void grid_animation(EFI_SYSTEM_TABLE* SystemTable, UINTN Columns, UINTN Rows) {
 1456              		.loc 1 243 79 is_stmt 1 view -0
 1457              		.cfi_startproc
 1458              		.loc 1 243 79 is_stmt 0 view .LVU318
 1459 0785 4155     		pushq	%r13
 1460              		.seh_pushreg	%r13
 1461              		.cfi_def_cfa_offset 16
 1462              		.cfi_offset 13, -16
 1463 0787 4154     		pushq	%r12
 1464              		.seh_pushreg	%r12
 1465              		.cfi_def_cfa_offset 24
 1466              		.cfi_offset 12, -24
 1467 0789 55       		pushq	%rbp
 1468              		.seh_pushreg	%rbp
 1469              		.cfi_def_cfa_offset 32
 1470              		.cfi_offset 6, -32
 1471 078a 57       		pushq	%rdi
 1472              		.seh_pushreg	%rdi
 1473              		.cfi_def_cfa_offset 40
 1474              		.cfi_offset 5, -40
 1475 078b 56       		pushq	%rsi
 1476              		.seh_pushreg	%rsi
 1477              		.cfi_def_cfa_offset 48
 1478              		.cfi_offset 4, -48
 1479 078c 53       		pushq	%rbx
 1480              		.seh_pushreg	%rbx
 1481              		.cfi_def_cfa_offset 56
 1482              		.cfi_offset 3, -56
 1483 078d 4883EC28 		subq	$40, %rsp
 1484              		.seh_stackalloc	40
 1485              		.cfi_def_cfa_offset 96
 1486              		.seh_endprologue
 1487 0791 4889CE   		movq	%rcx, %rsi
 1488 0794 4889D5   		movq	%rdx, %rbp
 1489 0797 4D89C4   		movq	%r8, %r12
 244:C:/Users/victim/source/repos/Paranyok/UEFI\bootmgfw.c ****     for (UINTN i = 0; i < 50; i++) {
 1490              		.loc 1 244 5 is_stmt 1 view .LVU319
 1491              	.LBB40:
 1492              		.loc 1 244 10 view .LVU320
 1493              	.LVL163:
 1494              		.loc 1 244 16 is_stmt 0 view .LVU321
 1495 079a 41BD0000 		movl	$0, %r13d
 1495      0000
 1496              		.loc 1 244 5 view .LVU322
 1497 07a0 EB55     		jmp	.L63
 1498              	.LVL164:
 1499              	.L64:
 1500              	.LBB41:
 1501              	.LBB42:
 1502              	.LBB43:
 245:C:/Users/victim/source/repos/Paranyok/UEFI\bootmgfw.c ****         for (UINTN row = 0; row < Rows; row += 2) {
 246:C:/Users/victim/source/repos/Paranyok/UEFI\bootmgfw.c ****             for (UINTN col = 0; col < Columns; col += 2) {
 247:C:/Users/victim/source/repos/Paranyok/UEFI\bootmgfw.c ****                 UINTN color = random_color();
 1503              		.loc 1 247 17 is_stmt 1 view .LVU323
 1504              		.loc 1 247 31 is_stmt 0 view .LVU324
 1505 07a2 E896F9FF 		call	random_color
 1505      FF
 1506              	.LVL165:
 1507 07a7 4889C2   		movq	%rax, %rdx
 1508              	.LVL166:
 248:C:/Users/victim/source/repos/Paranyok/UEFI\bootmgfw.c ****                 uefi_call_wrapper(SystemTable->ConOut->SetAttribute, 1, SystemTable->ConOut, color)
 1509              		.loc 1 248 17 is_stmt 1 view .LVU325
 1510 07aa 488B4640 		movq	64(%rsi), %rax
 1511              	.LVL167:
 1512              		.loc 1 248 17 is_stmt 0 view .LVU326
 1513 07ae 4889C1   		movq	%rax, %rcx
 1514 07b1 FF5028   		call	*40(%rax)
 1515              	.LVL168:
 249:C:/Users/victim/source/repos/Paranyok/UEFI\bootmgfw.c ****                 uefi_call_wrapper(SystemTable->ConOut->SetCursorPosition, 1, SystemTable->ConOut, c
 1516              		.loc 1 249 17 is_stmt 1 view .LVU327
 1517 07b4 488B4640 		movq	64(%rsi), %rax
 1518 07b8 4989F8   		movq	%rdi, %r8
 1519 07bb 4889DA   		movq	%rbx, %rdx
 1520 07be 4889C1   		movq	%rax, %rcx
 1521 07c1 FF5038   		call	*56(%rax)
 1522              	.LVL169:
 250:C:/Users/victim/source/repos/Paranyok/UEFI\bootmgfw.c ****                 Print(L"[]");
 1523              		.loc 1 250 17 view .LVU328
 1524 07c4 488D0D44 		leaq	.LC9(%rip), %rcx
 1524      000000
 1525 07cb E8000000 		call	Print
 1525      00
 1526              	.LVL170:
 1527              	.LBE43:
 246:C:/Users/victim/source/repos/Paranyok/UEFI\bootmgfw.c ****                 UINTN color = random_color();
 1528              		.loc 1 246 52 discriminator 3 view .LVU329
 1529 07d0 4883C302 		addq	$2, %rbx
 1530              	.LVL171:
 1531              	.L65:
 246:C:/Users/victim/source/repos/Paranyok/UEFI\bootmgfw.c ****                 UINTN color = random_color();
 1532              		.loc 1 246 37 discriminator 1 view .LVU330
 1533 07d4 4839EB   		cmpq	%rbp, %rbx
 1534 07d7 72C9     		jb	.L64
 1535              	.LBE42:
 245:C:/Users/victim/source/repos/Paranyok/UEFI\bootmgfw.c ****             for (UINTN col = 0; col < Columns; col += 2) {
 1536              		.loc 1 245 45 discriminator 2 view .LVU331
 1537 07d9 4883C702 		addq	$2, %rdi
 1538              	.LVL172:
 1539              	.L66:
 245:C:/Users/victim/source/repos/Paranyok/UEFI\bootmgfw.c ****             for (UINTN col = 0; col < Columns; col += 2) {
 1540              		.loc 1 245 33 discriminator 1 view .LVU332
 1541 07dd 4C39E7   		cmpq	%r12, %rdi
 1542 07e0 7307     		jnb	.L69
 1543              	.LBB44:
 246:C:/Users/victim/source/repos/Paranyok/UEFI\bootmgfw.c ****                 UINTN color = random_color();
 1544              		.loc 1 246 24 is_stmt 0 view .LVU333
 1545 07e2 BB000000 		movl	$0, %ebx
 1545      00
 1546 07e7 EBEB     		jmp	.L65
 1547              	.L69:
 1548              	.LBE44:
 1549              	.LBE41:
 251:C:/Users/victim/source/repos/Paranyok/UEFI\bootmgfw.c ****             }
 252:C:/Users/victim/source/repos/Paranyok/UEFI\bootmgfw.c ****         }
 253:C:/Users/victim/source/repos/Paranyok/UEFI\bootmgfw.c ****         delay(1000000);
 1550              		.loc 1 253 9 is_stmt 1 view .LVU334
 1551 07e9 B940420F 		movl	$1000000, %ecx
 1551      00
 1552 07ee E802F9FF 		call	delay
 1552      FF
 1553              	.LVL173:
 244:C:/Users/victim/source/repos/Paranyok/UEFI\bootmgfw.c ****         for (UINTN row = 0; row < Rows; row += 2) {
 1554              		.loc 1 244 32 discriminator 2 view .LVU335
 1555 07f3 4983C501 		addq	$1, %r13
 1556              	.LVL174:
 1557              	.L63:
 244:C:/Users/victim/source/repos/Paranyok/UEFI\bootmgfw.c ****         for (UINTN row = 0; row < Rows; row += 2) {
 1558              		.loc 1 244 25 discriminator 1 view .LVU336
 1559 07f7 4983FD31 		cmpq	$49, %r13
 1560 07fb 7707     		ja	.L70
 1561              	.LBB45:
 245:C:/Users/victim/source/repos/Paranyok/UEFI\bootmgfw.c ****             for (UINTN col = 0; col < Columns; col += 2) {
 1562              		.loc 1 245 20 is_stmt 0 view .LVU337
 1563 07fd BF000000 		movl	$0, %edi
 1563      00
 1564 0802 EBD9     		jmp	.L66
 1565              	.L70:
 1566              	.LBE45:
 1567              	.LBE40:
 254:C:/Users/victim/source/repos/Paranyok/UEFI\bootmgfw.c ****     }
 255:C:/Users/victim/source/repos/Paranyok/UEFI\bootmgfw.c **** }
 1568              		.loc 1 255 1 view .LVU338
 1569 0804 4883C428 		addq	$40, %rsp
 1570              		.cfi_def_cfa_offset 56
 1571 0808 5B       		popq	%rbx
 1572              		.cfi_restore 3
 1573              		.cfi_def_cfa_offset 48
 1574 0809 5E       		popq	%rsi
 1575              		.cfi_restore 4
 1576              		.cfi_def_cfa_offset 40
 1577              	.LVL175:
 1578              		.loc 1 255 1 view .LVU339
 1579 080a 5F       		popq	%rdi
 1580              		.cfi_restore 5
 1581              		.cfi_def_cfa_offset 32
 1582 080b 5D       		popq	%rbp
 1583              		.cfi_restore 6
 1584              		.cfi_def_cfa_offset 24
 1585              	.LVL176:
 1586              		.loc 1 255 1 view .LVU340
 1587 080c 415C     		popq	%r12
 1588              		.cfi_restore 12
 1589              		.cfi_def_cfa_offset 16
 1590              	.LVL177:
 1591              		.loc 1 255 1 view .LVU341
 1592 080e 415D     		popq	%r13
 1593              		.cfi_restore 13
 1594              		.cfi_def_cfa_offset 8
 1595              	.LVL178:
 1596              		.loc 1 255 1 view .LVU342
 1597 0810 C3       		ret
 1598              		.cfi_endproc
 1599              	.LFE15:
 1600              		.seh_endproc
 1601              		.globl	matrix_text_fall
 1603              		.seh_proc	matrix_text_fall
 1604              	matrix_text_fall:
 1605              	.LVL179:
 1606              	.LFB16:
 256:C:/Users/victim/source/repos/Paranyok/UEFI\bootmgfw.c **** 
 257:C:/Users/victim/source/repos/Paranyok/UEFI\bootmgfw.c **** // Effect 8: Matrix-like Text Fall
 258:C:/Users/victim/source/repos/Paranyok/UEFI\bootmgfw.c **** void matrix_text_fall(EFI_SYSTEM_TABLE* SystemTable, UINTN Columns, UINTN Rows) {
 1607              		.loc 1 258 81 is_stmt 1 view -0
 1608              		.cfi_startproc
 1609              		.loc 1 258 81 is_stmt 0 view .LVU344
 1610 0811 4156     		pushq	%r14
 1611              		.seh_pushreg	%r14
 1612              		.cfi_def_cfa_offset 16
 1613              		.cfi_offset 14, -16
 1614 0813 4155     		pushq	%r13
 1615              		.seh_pushreg	%r13
 1616              		.cfi_def_cfa_offset 24
 1617              		.cfi_offset 13, -24
 1618 0815 4154     		pushq	%r12
 1619              		.seh_pushreg	%r12
 1620              		.cfi_def_cfa_offset 32
 1621              		.cfi_offset 12, -32
 1622 0817 55       		pushq	%rbp
 1623              		.seh_pushreg	%rbp
 1624              		.cfi_def_cfa_offset 40
 1625              		.cfi_offset 6, -40
 1626 0818 57       		pushq	%rdi
 1627              		.seh_pushreg	%rdi
 1628              		.cfi_def_cfa_offset 48
 1629              		.cfi_offset 5, -48
 1630 0819 56       		pushq	%rsi
 1631              		.seh_pushreg	%rsi
 1632              		.cfi_def_cfa_offset 56
 1633              		.cfi_offset 4, -56
 1634 081a 53       		pushq	%rbx
 1635              		.seh_pushreg	%rbx
 1636              		.cfi_def_cfa_offset 64
 1637              		.cfi_offset 3, -64
 1638 081b 4883EC20 		subq	$32, %rsp
 1639              		.seh_stackalloc	32
 1640              		.cfi_def_cfa_offset 96
 1641              		.seh_endprologue
 1642 081f 4889CD   		movq	%rcx, %rbp
 1643 0822 4889D6   		movq	%rdx, %rsi
 1644 0825 4C89C7   		movq	%r8, %rdi
 259:C:/Users/victim/source/repos/Paranyok/UEFI\bootmgfw.c ****     for (UINTN i = 0; i < 100; i++) {
 1645              		.loc 1 259 5 is_stmt 1 view .LVU345
 1646              	.LBB46:
 1647              		.loc 1 259 10 view .LVU346
 1648              	.LVL180:
 1649              		.loc 1 259 16 is_stmt 0 view .LVU347
 1650 0828 41BD0000 		movl	$0, %r13d
 1650      0000
 1651              		.loc 1 259 5 view .LVU348
 1652 082e E9810000 		jmp	.L72
 1652      00
 1653              	.LVL181:
 1654              	.L76:
 1655              	.LBB47:
 1656              	.LBB48:
 260:C:/Users/victim/source/repos/Paranyok/UEFI\bootmgfw.c ****         for (UINTN j = 0; j < Columns; j++) {
 261:C:/Users/victim/source/repos/Paranyok/UEFI\bootmgfw.c ****             UINTN row = my_rand() % Rows;
 262:C:/Users/victim/source/repos/Paranyok/UEFI\bootmgfw.c ****             UINTN col = my_rand() % Columns;
 263:C:/Users/victim/source/repos/Paranyok/UEFI\bootmgfw.c ****             UINTN color = random_color();
 264:C:/Users/victim/source/repos/Paranyok/UEFI\bootmgfw.c ****             uefi_call_wrapper(SystemTable->ConOut->SetAttribute, 1, SystemTable->ConOut, color);
 265:C:/Users/victim/source/repos/Paranyok/UEFI\bootmgfw.c ****             uefi_call_wrapper(SystemTable->ConOut->SetCursorPosition, 1, SystemTable->ConOut, col, 
 266:C:/Users/victim/source/repos/Paranyok/UEFI\bootmgfw.c ****             CHAR16 symbol = (my_rand() % 2 == 0) ? L'1' : L'0';
 1657              		.loc 1 266 20 discriminator 2 view .LVU349
 1658 0833 BA300000 		movl	$48, %edx
 1658      00
 1659              	.L73:
 1660              	.LVL182:
 267:C:/Users/victim/source/repos/Paranyok/UEFI\bootmgfw.c ****             Print(L"%c", symbol);
 1661              		.loc 1 267 13 is_stmt 1 view .LVU350
 1662 0838 0FB7D2   		movzwl	%dx, %edx
 1663              		.loc 1 267 13 is_stmt 0 view .LVU351
 1664 083b 488D0D3A 		leaq	.LC7(%rip), %rcx
 1664      000000
 1665 0842 E8000000 		call	Print
 1665      00
 1666              	.LVL183:
 1667              		.loc 1 267 13 view .LVU352
 1668              	.LBE48:
 260:C:/Users/victim/source/repos/Paranyok/UEFI\bootmgfw.c ****         for (UINTN j = 0; j < Columns; j++) {
 1669              		.loc 1 260 41 is_stmt 1 discriminator 2 view .LVU353
 1670 0847 4883C301 		addq	$1, %rbx
 1671              	.LVL184:
 1672              	.L75:
 260:C:/Users/victim/source/repos/Paranyok/UEFI\bootmgfw.c ****         for (UINTN j = 0; j < Columns; j++) {
 1673              		.loc 1 260 29 discriminator 1 view .LVU354
 1674 084b 4839F3   		cmpq	%rsi, %rbx
 1675 084e 7356     		jnb	.L78
 1676              	.LBB49:
 261:C:/Users/victim/source/repos/Paranyok/UEFI\bootmgfw.c ****             UINTN col = my_rand() % Columns;
 1677              		.loc 1 261 13 view .LVU355
 261:C:/Users/victim/source/repos/Paranyok/UEFI\bootmgfw.c ****             UINTN col = my_rand() % Columns;
 1678              		.loc 1 261 25 is_stmt 0 view .LVU356
 1679 0850 E885F8FF 		call	my_rand
 1679      FF
 1680              	.LVL185:
 261:C:/Users/victim/source/repos/Paranyok/UEFI\bootmgfw.c ****             UINTN col = my_rand() % Columns;
 1681              		.loc 1 261 25 discriminator 1 view .LVU357
 1682 0855 89C0     		movl	%eax, %eax
 261:C:/Users/victim/source/repos/Paranyok/UEFI\bootmgfw.c ****             UINTN col = my_rand() % Columns;
 1683              		.loc 1 261 19 discriminator 1 view .LVU358
 1684 0857 BA000000 		movl	$0, %edx
 1684      00
 1685 085c 48F7F7   		divq	%rdi
 1686 085f 4989D4   		movq	%rdx, %r12
 1687              	.LVL186:
 262:C:/Users/victim/source/repos/Paranyok/UEFI\bootmgfw.c ****             UINTN color = random_color();
 1688              		.loc 1 262 13 is_stmt 1 view .LVU359
 262:C:/Users/victim/source/repos/Paranyok/UEFI\bootmgfw.c ****             UINTN color = random_color();
 1689              		.loc 1 262 25 is_stmt 0 view .LVU360
 1690 0862 E873F8FF 		call	my_rand
 1690      FF
 1691              	.LVL187:
 262:C:/Users/victim/source/repos/Paranyok/UEFI\bootmgfw.c ****             UINTN color = random_color();
 1692              		.loc 1 262 25 discriminator 1 view .LVU361
 1693 0867 89C0     		movl	%eax, %eax
 262:C:/Users/victim/source/repos/Paranyok/UEFI\bootmgfw.c ****             UINTN color = random_color();
 1694              		.loc 1 262 19 discriminator 1 view .LVU362
 1695 0869 BA000000 		movl	$0, %edx
 1695      00
 1696 086e 48F7F6   		divq	%rsi
 1697 0871 4989D6   		movq	%rdx, %r14
 1698              	.LVL188:
 263:C:/Users/victim/source/repos/Paranyok/UEFI\bootmgfw.c ****             uefi_call_wrapper(SystemTable->ConOut->SetAttribute, 1, SystemTable->ConOut, color);
 1699              		.loc 1 263 13 is_stmt 1 view .LVU363
 263:C:/Users/victim/source/repos/Paranyok/UEFI\bootmgfw.c ****             uefi_call_wrapper(SystemTable->ConOut->SetAttribute, 1, SystemTable->ConOut, color);
 1700              		.loc 1 263 27 is_stmt 0 view .LVU364
 1701 0874 E8C4F8FF 		call	random_color
 1701      FF
 1702              	.LVL189:
 263:C:/Users/victim/source/repos/Paranyok/UEFI\bootmgfw.c ****             uefi_call_wrapper(SystemTable->ConOut->SetAttribute, 1, SystemTable->ConOut, color);
 1703              		.loc 1 263 27 view .LVU365
 1704 0879 4889C2   		movq	%rax, %rdx
 1705              	.LVL190:
 264:C:/Users/victim/source/repos/Paranyok/UEFI\bootmgfw.c ****             uefi_call_wrapper(SystemTable->ConOut->SetCursorPosition, 1, SystemTable->ConOut, col, 
 1706              		.loc 1 264 13 is_stmt 1 view .LVU366
 1707 087c 488B4540 		movq	64(%rbp), %rax
 1708              	.LVL191:
 264:C:/Users/victim/source/repos/Paranyok/UEFI\bootmgfw.c ****             uefi_call_wrapper(SystemTable->ConOut->SetCursorPosition, 1, SystemTable->ConOut, col, 
 1709              		.loc 1 264 13 is_stmt 0 view .LVU367
 1710 0880 4889C1   		movq	%rax, %rcx
 1711 0883 FF5028   		call	*40(%rax)
 1712              	.LVL192:
 265:C:/Users/victim/source/repos/Paranyok/UEFI\bootmgfw.c ****             CHAR16 symbol = (my_rand() % 2 == 0) ? L'1' : L'0';
 1713              		.loc 1 265 13 is_stmt 1 view .LVU368
 1714 0886 488B4540 		movq	64(%rbp), %rax
 1715 088a 4D89E0   		movq	%r12, %r8
 1716 088d 4C89F2   		movq	%r14, %rdx
 1717 0890 4889C1   		movq	%rax, %rcx
 1718 0893 FF5038   		call	*56(%rax)
 1719              	.LVL193:
 266:C:/Users/victim/source/repos/Paranyok/UEFI\bootmgfw.c ****             Print(L"%c", symbol);
 1720              		.loc 1 266 13 view .LVU369
 266:C:/Users/victim/source/repos/Paranyok/UEFI\bootmgfw.c ****             Print(L"%c", symbol);
 1721              		.loc 1 266 30 is_stmt 0 view .LVU370
 1722 0896 E83FF8FF 		call	my_rand
 1722      FF
 1723              	.LVL194:
 266:C:/Users/victim/source/repos/Paranyok/UEFI\bootmgfw.c ****             Print(L"%c", symbol);
 1724              		.loc 1 266 20 discriminator 1 view .LVU371
 1725 089b A801     		testb	$1, %al
 1726 089d 7594     		jne	.L76
 1727 089f BA310000 		movl	$49, %edx
 1727      00
 1728 08a4 EB92     		jmp	.L73
 1729              	.LVL195:
 1730              	.L78:
 266:C:/Users/victim/source/repos/Paranyok/UEFI\bootmgfw.c ****             Print(L"%c", symbol);
 1731              		.loc 1 266 20 discriminator 1 view .LVU372
 1732              	.LBE49:
 1733              	.LBE47:
 268:C:/Users/victim/source/repos/Paranyok/UEFI\bootmgfw.c ****         }
 269:C:/Users/victim/source/repos/Paranyok/UEFI\bootmgfw.c ****         delay(500000);
 1734              		.loc 1 269 9 is_stmt 1 view .LVU373
 1735 08a6 B920A107 		movl	$500000, %ecx
 1735      00
 1736 08ab E845F8FF 		call	delay
 1736      FF
 1737              	.LVL196:
 259:C:/Users/victim/source/repos/Paranyok/UEFI\bootmgfw.c ****         for (UINTN j = 0; j < Columns; j++) {
 1738              		.loc 1 259 33 discriminator 2 view .LVU374
 1739 08b0 4983C501 		addq	$1, %r13
 1740              	.LVL197:
 1741              	.L72:
 259:C:/Users/victim/source/repos/Paranyok/UEFI\bootmgfw.c ****         for (UINTN j = 0; j < Columns; j++) {
 1742              		.loc 1 259 25 discriminator 1 view .LVU375
 1743 08b4 4983FD63 		cmpq	$99, %r13
 1744 08b8 7707     		ja	.L79
 1745              	.LBB50:
 260:C:/Users/victim/source/repos/Paranyok/UEFI\bootmgfw.c ****             UINTN row = my_rand() % Rows;
 1746              		.loc 1 260 20 is_stmt 0 view .LVU376
 1747 08ba BB000000 		movl	$0, %ebx
 1747      00
 1748 08bf EB8A     		jmp	.L75
 1749              	.L79:
 1750              	.LBE50:
 1751              	.LBE46:
 270:C:/Users/victim/source/repos/Paranyok/UEFI\bootmgfw.c ****     }
 271:C:/Users/victim/source/repos/Paranyok/UEFI\bootmgfw.c **** }
 1752              		.loc 1 271 1 view .LVU377
 1753 08c1 4883C420 		addq	$32, %rsp
 1754              		.cfi_def_cfa_offset 64
 1755 08c5 5B       		popq	%rbx
 1756              		.cfi_restore 3
 1757              		.cfi_def_cfa_offset 56
 1758 08c6 5E       		popq	%rsi
 1759              		.cfi_restore 4
 1760              		.cfi_def_cfa_offset 48
 1761              	.LVL198:
 1762              		.loc 1 271 1 view .LVU378
 1763 08c7 5F       		popq	%rdi
 1764              		.cfi_restore 5
 1765              		.cfi_def_cfa_offset 40
 1766              	.LVL199:
 1767              		.loc 1 271 1 view .LVU379
 1768 08c8 5D       		popq	%rbp
 1769              		.cfi_restore 6
 1770              		.cfi_def_cfa_offset 32
 1771              	.LVL200:
 1772              		.loc 1 271 1 view .LVU380
 1773 08c9 415C     		popq	%r12
 1774              		.cfi_restore 12
 1775              		.cfi_def_cfa_offset 24
 1776 08cb 415D     		popq	%r13
 1777              		.cfi_restore 13
 1778              		.cfi_def_cfa_offset 16
 1779              	.LVL201:
 1780              		.loc 1 271 1 view .LVU381
 1781 08cd 415E     		popq	%r14
 1782              		.cfi_restore 14
 1783              		.cfi_def_cfa_offset 8
 1784 08cf C3       		ret
 1785              		.cfi_endproc
 1786              	.LFE16:
 1787              		.seh_endproc
 1788              		.section .rdata,"dr"
 1789 004a 00000000 		.align 8
 1789      0000
 1790              	.LC10:
 1791 0050 43006F00 		.ascii "C\0o\0l\0o\0r\0 \0s\0h\0i\0f\0t\0i\0n\0g\0 \0e\0f\0f\0e\0c\0t\0\0\0"
 1791      6C006F00 
 1791      72002000 
 1791      73006800 
 1791      69006600 
 1792              		.text
 1793              		.globl	color_shifting
 1795              		.seh_proc	color_shifting
 1796              	color_shifting:
 1797              	.LVL202:
 1798              	.LFB17:
 272:C:/Users/victim/source/repos/Paranyok/UEFI\bootmgfw.c **** 
 273:C:/Users/victim/source/repos/Paranyok/UEFI\bootmgfw.c **** // Effect 9: Color Shifting
 274:C:/Users/victim/source/repos/Paranyok/UEFI\bootmgfw.c **** void color_shifting(EFI_SYSTEM_TABLE* SystemTable) {
 1799              		.loc 1 274 52 is_stmt 1 view -0
 1800              		.cfi_startproc
 1801              		.loc 1 274 52 is_stmt 0 view .LVU383
 1802 08d0 56       		pushq	%rsi
 1803              		.seh_pushreg	%rsi
 1804              		.cfi_def_cfa_offset 16
 1805              		.cfi_offset 4, -16
 1806 08d1 53       		pushq	%rbx
 1807              		.seh_pushreg	%rbx
 1808              		.cfi_def_cfa_offset 24
 1809              		.cfi_offset 3, -24
 1810 08d2 4883EC28 		subq	$40, %rsp
 1811              		.seh_stackalloc	40
 1812              		.cfi_def_cfa_offset 64
 1813              		.seh_endprologue
 1814 08d6 4889CE   		movq	%rcx, %rsi
 275:C:/Users/victim/source/repos/Paranyok/UEFI\bootmgfw.c ****     for (UINTN i = 0; i < 100; i++) {
 1815              		.loc 1 275 5 is_stmt 1 view .LVU384
 1816              	.LBB51:
 1817              		.loc 1 275 10 view .LVU385
 1818              	.LVL203:
 1819              		.loc 1 275 16 is_stmt 0 view .LVU386
 1820 08d9 BB000000 		movl	$0, %ebx
 1820      00
 1821              		.loc 1 275 5 view .LVU387
 1822 08de EB41     		jmp	.L81
 1823              	.LVL204:
 1824              	.L82:
 1825              	.LBB52:
 276:C:/Users/victim/source/repos/Paranyok/UEFI\bootmgfw.c ****         UINTN color = random_color();
 1826              		.loc 1 276 9 is_stmt 1 view .LVU388
 1827              		.loc 1 276 23 is_stmt 0 view .LVU389
 1828 08e0 E858F8FF 		call	random_color
 1828      FF
 1829              	.LVL205:
 1830 08e5 4889C2   		movq	%rax, %rdx
 1831              	.LVL206:
 277:C:/Users/victim/source/repos/Paranyok/UEFI\bootmgfw.c ****         uefi_call_wrapper(SystemTable->ConOut->SetAttribute, 1, SystemTable->ConOut, color);
 1832              		.loc 1 277 9 is_stmt 1 view .LVU390
 1833 08e8 488B4640 		movq	64(%rsi), %rax
 1834              	.LVL207:
 1835              		.loc 1 277 9 is_stmt 0 view .LVU391
 1836 08ec 4889C1   		movq	%rax, %rcx
 1837 08ef FF5028   		call	*40(%rax)
 1838              	.LVL208:
 278:C:/Users/victim/source/repos/Paranyok/UEFI\bootmgfw.c ****         uefi_call_wrapper(SystemTable->ConOut->SetCursorPosition, 1, SystemTable->ConOut, 0, 0);
 1839              		.loc 1 278 9 is_stmt 1 view .LVU392
 1840 08f2 488B4640 		movq	64(%rsi), %rax
 1841 08f6 41B80000 		movl	$0, %r8d
 1841      0000
 1842 08fc BA000000 		movl	$0, %edx
 1842      00
 1843 0901 4889C1   		movq	%rax, %rcx
 1844 0904 FF5038   		call	*56(%rax)
 1845              	.LVL209:
 279:C:/Users/victim/source/repos/Paranyok/UEFI\bootmgfw.c ****         Print(L"Color shifting effect");
 1846              		.loc 1 279 9 view .LVU393
 1847 0907 488D0D50 		leaq	.LC10(%rip), %rcx
 1847      000000
 1848 090e E8000000 		call	Print
 1848      00
 1849              	.LVL210:
 280:C:/Users/victim/source/repos/Paranyok/UEFI\bootmgfw.c ****         delay(2000000);
 1850              		.loc 1 280 9 view .LVU394
 1851 0913 B980841E 		movl	$2000000, %ecx
 1851      00
 1852 0918 E8D8F7FF 		call	delay
 1852      FF
 1853              	.LVL211:
 1854              	.LBE52:
 275:C:/Users/victim/source/repos/Paranyok/UEFI\bootmgfw.c ****         UINTN color = random_color();
 1855              		.loc 1 275 33 discriminator 3 view .LVU395
 1856 091d 4883C301 		addq	$1, %rbx
 1857              	.LVL212:
 1858              	.L81:
 275:C:/Users/victim/source/repos/Paranyok/UEFI\bootmgfw.c ****         UINTN color = random_color();
 1859              		.loc 1 275 25 discriminator 1 view .LVU396
 1860 0921 4883FB63 		cmpq	$99, %rbx
 1861 0925 76B9     		jbe	.L82
 1862              	.LBE51:
 281:C:/Users/victim/source/repos/Paranyok/UEFI\bootmgfw.c ****     }
 282:C:/Users/victim/source/repos/Paranyok/UEFI\bootmgfw.c **** }
 1863              		.loc 1 282 1 is_stmt 0 view .LVU397
 1864 0927 4883C428 		addq	$40, %rsp
 1865              		.cfi_def_cfa_offset 24
 1866 092b 5B       		popq	%rbx
 1867              		.cfi_restore 3
 1868              		.cfi_def_cfa_offset 16
 1869              	.LVL213:
 1870              		.loc 1 282 1 view .LVU398
 1871 092c 5E       		popq	%rsi
 1872              		.cfi_restore 4
 1873              		.cfi_def_cfa_offset 8
 1874              	.LVL214:
 1875              		.loc 1 282 1 view .LVU399
 1876 092d C3       		ret
 1877              		.cfi_endproc
 1878              	.LFE17:
 1879              		.seh_endproc
 1880              		.globl	flickering_text
 1882              		.seh_proc	flickering_text
 1883              	flickering_text:
 1884              	.LVL215:
 1885              	.LFB18:
 283:C:/Users/victim/source/repos/Paranyok/UEFI\bootmgfw.c **** 
 284:C:/Users/victim/source/repos/Paranyok/UEFI\bootmgfw.c **** // Effect 10: Flickering Text
 285:C:/Users/victim/source/repos/Paranyok/UEFI\bootmgfw.c **** void flickering_text(EFI_SYSTEM_TABLE* SystemTable, CHAR16* message, UINTN originalCol, UINTN origi
 1886              		.loc 1 285 108 is_stmt 1 view -0
 1887              		.cfi_startproc
 1888              		.loc 1 285 108 is_stmt 0 view .LVU401
 1889 092e 4154     		pushq	%r12
 1890              		.seh_pushreg	%r12
 1891              		.cfi_def_cfa_offset 16
 1892              		.cfi_offset 12, -16
 1893 0930 55       		pushq	%rbp
 1894              		.seh_pushreg	%rbp
 1895              		.cfi_def_cfa_offset 24
 1896              		.cfi_offset 6, -24
 1897 0931 57       		pushq	%rdi
 1898              		.seh_pushreg	%rdi
 1899              		.cfi_def_cfa_offset 32
 1900              		.cfi_offset 5, -32
 1901 0932 56       		pushq	%rsi
 1902              		.seh_pushreg	%rsi
 1903              		.cfi_def_cfa_offset 40
 1904              		.cfi_offset 4, -40
 1905 0933 53       		pushq	%rbx
 1906              		.seh_pushreg	%rbx
 1907              		.cfi_def_cfa_offset 48
 1908              		.cfi_offset 3, -48
 1909 0934 4883EC20 		subq	$32, %rsp
 1910              		.seh_stackalloc	32
 1911              		.cfi_def_cfa_offset 80
 1912              		.seh_endprologue
 1913 0938 4889CB   		movq	%rcx, %rbx
 1914 093b 4989D4   		movq	%rdx, %r12
 1915 093e 4C89C5   		movq	%r8, %rbp
 1916 0941 4C89CF   		movq	%r9, %rdi
 286:C:/Users/victim/source/repos/Paranyok/UEFI\bootmgfw.c ****     for (UINTN i = 0; i < 50; i++) {
 1917              		.loc 1 286 5 is_stmt 1 view .LVU402
 1918              	.LBB53:
 1919              		.loc 1 286 10 view .LVU403
 1920              	.LVL216:
 1921              		.loc 1 286 16 is_stmt 0 view .LVU404
 1922 0944 BE000000 		movl	$0, %esi
 1922      00
 1923              		.loc 1 286 5 view .LVU405
 1924 0949 EB4C     		jmp	.L84
 1925              	.LVL217:
 1926              	.L85:
 1927              	.LBB54:
 287:C:/Users/victim/source/repos/Paranyok/UEFI\bootmgfw.c ****         UINTN color = random_color();
 1928              		.loc 1 287 9 is_stmt 1 view .LVU406
 1929              		.loc 1 287 23 is_stmt 0 view .LVU407
 1930 094b E8EDF7FF 		call	random_color
 1930      FF
 1931              	.LVL218:
 1932 0950 4889C2   		movq	%rax, %rdx
 1933              	.LVL219:
 288:C:/Users/victim/source/repos/Paranyok/UEFI\bootmgfw.c ****         uefi_call_wrapper(SystemTable->ConOut->SetAttribute, 1, SystemTable->ConOut, color);
 1934              		.loc 1 288 9 is_stmt 1 view .LVU408
 1935 0953 488B4340 		movq	64(%rbx), %rax
 1936              	.LVL220:
 1937              		.loc 1 288 9 is_stmt 0 view .LVU409
 1938 0957 4889C1   		movq	%rax, %rcx
 1939 095a FF5028   		call	*40(%rax)
 1940              	.LVL221:
 289:C:/Users/victim/source/repos/Paranyok/UEFI\bootmgfw.c ****         uefi_call_wrapper(SystemTable->ConOut->SetCursorPosition, 1, SystemTable->ConOut, originalC
 1941              		.loc 1 289 9 is_stmt 1 view .LVU410
 1942 095d 488B4340 		movq	64(%rbx), %rax
 1943 0961 4989F8   		movq	%rdi, %r8
 1944 0964 4889EA   		movq	%rbp, %rdx
 1945 0967 4889C1   		movq	%rax, %rcx
 1946 096a FF5038   		call	*56(%rax)
 1947              	.LVL222:
 290:C:/Users/victim/source/repos/Paranyok/UEFI\bootmgfw.c ****         Print(message);
 1948              		.loc 1 290 9 view .LVU411
 1949 096d 4C89E1   		movq	%r12, %rcx
 1950 0970 E8000000 		call	Print
 1950      00
 1951              	.LVL223:
 291:C:/Users/victim/source/repos/Paranyok/UEFI\bootmgfw.c ****         delay(1000000);
 1952              		.loc 1 291 9 view .LVU412
 1953 0975 B940420F 		movl	$1000000, %ecx
 1953      00
 1954 097a E876F7FF 		call	delay
 1954      FF
 1955              	.LVL224:
 292:C:/Users/victim/source/repos/Paranyok/UEFI\bootmgfw.c ****         uefi_call_wrapper(SystemTable->ConOut->ClearScreen, 1, SystemTable->ConOut);
 1956              		.loc 1 292 9 view .LVU413
 1957 097f 488B4340 		movq	64(%rbx), %rax
 1958 0983 4889C1   		movq	%rax, %rcx
 1959 0986 FF5030   		call	*48(%rax)
 1960              	.LVL225:
 293:C:/Users/victim/source/repos/Paranyok/UEFI\bootmgfw.c ****         delay(1000000);
 1961              		.loc 1 293 9 view .LVU414
 1962 0989 B940420F 		movl	$1000000, %ecx
 1962      00
 1963 098e E862F7FF 		call	delay
 1963      FF
 1964              	.LVL226:
 1965              	.LBE54:
 286:C:/Users/victim/source/repos/Paranyok/UEFI\bootmgfw.c ****         UINTN color = random_color();
 1966              		.loc 1 286 32 discriminator 3 view .LVU415
 1967 0993 4883C601 		addq	$1, %rsi
 1968              	.LVL227:
 1969              	.L84:
 286:C:/Users/victim/source/repos/Paranyok/UEFI\bootmgfw.c ****         UINTN color = random_color();
 1970              		.loc 1 286 25 discriminator 1 view .LVU416
 1971 0997 4883FE31 		cmpq	$49, %rsi
 1972 099b 76AE     		jbe	.L85
 1973              	.LBE53:
 294:C:/Users/victim/source/repos/Paranyok/UEFI\bootmgfw.c ****     }
 295:C:/Users/victim/source/repos/Paranyok/UEFI\bootmgfw.c **** }
 1974              		.loc 1 295 1 is_stmt 0 view .LVU417
 1975 099d 4883C420 		addq	$32, %rsp
 1976              		.cfi_def_cfa_offset 48
 1977 09a1 5B       		popq	%rbx
 1978              		.cfi_restore 3
 1979              		.cfi_def_cfa_offset 40
 1980              	.LVL228:
 1981              		.loc 1 295 1 view .LVU418
 1982 09a2 5E       		popq	%rsi
 1983              		.cfi_restore 4
 1984              		.cfi_def_cfa_offset 32
 1985              	.LVL229:
 1986              		.loc 1 295 1 view .LVU419
 1987 09a3 5F       		popq	%rdi
 1988              		.cfi_restore 5
 1989              		.cfi_def_cfa_offset 24
 1990              	.LVL230:
 1991              		.loc 1 295 1 view .LVU420
 1992 09a4 5D       		popq	%rbp
 1993              		.cfi_restore 6
 1994              		.cfi_def_cfa_offset 16
 1995              	.LVL231:
 1996              		.loc 1 295 1 view .LVU421
 1997 09a5 415C     		popq	%r12
 1998              		.cfi_restore 12
 1999              		.cfi_def_cfa_offset 8
 2000              	.LVL232:
 2001              		.loc 1 295 1 view .LVU422
 2002 09a7 C3       		ret
 2003              		.cfi_endproc
 2004              	.LFE18:
 2005              		.seh_endproc
 2006              		.section .rdata,"dr"
 2007              		.align 2
 2008              	.LC11:
 2009 007c 2D000000 		.ascii "-\0\0\0"
 2010              		.align 2
 2011              	.LC12:
 2012 0080 7C000000 		.ascii "|\0\0\0"
 2013              		.text
 2014              		.globl	flashing_borders
 2016              		.seh_proc	flashing_borders
 2017              	flashing_borders:
 2018              	.LVL233:
 2019              	.LFB19:
 296:C:/Users/victim/source/repos/Paranyok/UEFI\bootmgfw.c **** 
 297:C:/Users/victim/source/repos/Paranyok/UEFI\bootmgfw.c **** // Effect 11: Flashing Borders
 298:C:/Users/victim/source/repos/Paranyok/UEFI\bootmgfw.c **** void flashing_borders(EFI_SYSTEM_TABLE* SystemTable, UINTN Columns, UINTN Rows) {
 2020              		.loc 1 298 81 is_stmt 1 view -0
 2021              		.cfi_startproc
 2022              		.loc 1 298 81 is_stmt 0 view .LVU424
 2023 09a8 4155     		pushq	%r13
 2024              		.seh_pushreg	%r13
 2025              		.cfi_def_cfa_offset 16
 2026              		.cfi_offset 13, -16
 2027 09aa 4154     		pushq	%r12
 2028              		.seh_pushreg	%r12
 2029              		.cfi_def_cfa_offset 24
 2030              		.cfi_offset 12, -24
 2031 09ac 55       		pushq	%rbp
 2032              		.seh_pushreg	%rbp
 2033              		.cfi_def_cfa_offset 32
 2034              		.cfi_offset 6, -32
 2035 09ad 57       		pushq	%rdi
 2036              		.seh_pushreg	%rdi
 2037              		.cfi_def_cfa_offset 40
 2038              		.cfi_offset 5, -40
 2039 09ae 56       		pushq	%rsi
 2040              		.seh_pushreg	%rsi
 2041              		.cfi_def_cfa_offset 48
 2042              		.cfi_offset 4, -48
 2043 09af 53       		pushq	%rbx
 2044              		.seh_pushreg	%rbx
 2045              		.cfi_def_cfa_offset 56
 2046              		.cfi_offset 3, -56
 2047 09b0 4883EC28 		subq	$40, %rsp
 2048              		.seh_stackalloc	40
 2049              		.cfi_def_cfa_offset 96
 2050              		.seh_endprologue
 2051 09b4 4889CE   		movq	%rcx, %rsi
 2052 09b7 4989D4   		movq	%rdx, %r12
 2053 09ba 4C89C5   		movq	%r8, %rbp
 299:C:/Users/victim/source/repos/Paranyok/UEFI\bootmgfw.c ****     for (UINTN i = 0; i < 50; i++) {
 2054              		.loc 1 299 5 is_stmt 1 view .LVU425
 2055              	.LBB55:
 2056              		.loc 1 299 10 view .LVU426
 2057              	.LVL234:
 2058              		.loc 1 299 16 is_stmt 0 view .LVU427
 2059 09bd 41BD0000 		movl	$0, %r13d
 2059      0000
 2060              		.loc 1 299 5 view .LVU428
 2061 09c3 E9A70000 		jmp	.L87
 2061      00
 2062              	.LVL235:
 2063              	.L89:
 2064              	.LBB56:
 2065              	.LBB57:
 300:C:/Users/victim/source/repos/Paranyok/UEFI\bootmgfw.c ****         UINTN color = random_color();
 301:C:/Users/victim/source/repos/Paranyok/UEFI\bootmgfw.c ****         uefi_call_wrapper(SystemTable->ConOut->SetAttribute, 1, SystemTable->ConOut, color);
 302:C:/Users/victim/source/repos/Paranyok/UEFI\bootmgfw.c ****         for (UINTN col = 0; col < Columns; col++) {
 303:C:/Users/victim/source/repos/Paranyok/UEFI\bootmgfw.c ****             uefi_call_wrapper(SystemTable->ConOut->SetCursorPosition, 1, SystemTable->ConOut, col, 
 2066              		.loc 1 303 13 is_stmt 1 view .LVU429
 2067 09c8 488B4640 		movq	64(%rsi), %rax
 2068 09cc 41B80000 		movl	$0, %r8d
 2068      0000
 2069 09d2 4889DA   		movq	%rbx, %rdx
 2070 09d5 4889C1   		movq	%rax, %rcx
 2071 09d8 FF5038   		call	*56(%rax)
 2072              	.LVL236:
 304:C:/Users/victim/source/repos/Paranyok/UEFI\bootmgfw.c ****             Print(L"-");
 2073              		.loc 1 304 13 view .LVU430
 2074 09db 488D3D7C 		leaq	.LC11(%rip), %rdi
 2074      000000
 2075 09e2 4889F9   		movq	%rdi, %rcx
 2076 09e5 E8000000 		call	Print
 2076      00
 2077              	.LVL237:
 305:C:/Users/victim/source/repos/Paranyok/UEFI\bootmgfw.c ****             uefi_call_wrapper(SystemTable->ConOut->SetCursorPosition, 1, SystemTable->ConOut, col, 
 2078              		.loc 1 305 13 view .LVU431
 2079 09ea 488B4640 		movq	64(%rsi), %rax
 2080 09ee 4C8D45FF 		leaq	-1(%rbp), %r8
 2081 09f2 4889DA   		movq	%rbx, %rdx
 2082 09f5 4889C1   		movq	%rax, %rcx
 2083 09f8 FF5038   		call	*56(%rax)
 2084              	.LVL238:
 306:C:/Users/victim/source/repos/Paranyok/UEFI\bootmgfw.c ****             Print(L"-");
 2085              		.loc 1 306 13 view .LVU432
 2086 09fb 4889F9   		movq	%rdi, %rcx
 2087 09fe E8000000 		call	Print
 2087      00
 2088              	.LVL239:
 302:C:/Users/victim/source/repos/Paranyok/UEFI\bootmgfw.c ****             uefi_call_wrapper(SystemTable->ConOut->SetCursorPosition, 1, SystemTable->ConOut, col, 
 2089              		.loc 1 302 47 discriminator 3 view .LVU433
 2090 0a03 4883C301 		addq	$1, %rbx
 2091              	.LVL240:
 2092              	.L88:
 302:C:/Users/victim/source/repos/Paranyok/UEFI\bootmgfw.c ****             uefi_call_wrapper(SystemTable->ConOut->SetCursorPosition, 1, SystemTable->ConOut, col, 
 2093              		.loc 1 302 33 discriminator 1 view .LVU434
 2094 0a07 4C39E3   		cmpq	%r12, %rbx
 2095 0a0a 72BC     		jb	.L89
 2096              	.LBE57:
 2097              	.LBB58:
 307:C:/Users/victim/source/repos/Paranyok/UEFI\bootmgfw.c ****         }
 308:C:/Users/victim/source/repos/Paranyok/UEFI\bootmgfw.c ****         for (UINTN row = 0; row < Rows; row++) {
 2098              		.loc 1 308 20 is_stmt 0 view .LVU435
 2099 0a0c BB000000 		movl	$0, %ebx
 2099      00
 2100              	.LVL241:
 2101              		.loc 1 308 20 view .LVU436
 2102 0a11 EB3F     		jmp	.L90
 2103              	.LVL242:
 2104              	.L91:
 309:C:/Users/victim/source/repos/Paranyok/UEFI\bootmgfw.c ****             uefi_call_wrapper(SystemTable->ConOut->SetCursorPosition, 1, SystemTable->ConOut, 0, ro
 2105              		.loc 1 309 13 is_stmt 1 view .LVU437
 2106 0a13 488B4640 		movq	64(%rsi), %rax
 2107 0a17 4989D8   		movq	%rbx, %r8
 2108 0a1a BA000000 		movl	$0, %edx
 2108      00
 2109 0a1f 4889C1   		movq	%rax, %rcx
 2110 0a22 FF5038   		call	*56(%rax)
 2111              	.LVL243:
 310:C:/Users/victim/source/repos/Paranyok/UEFI\bootmgfw.c ****             Print(L"|");
 2112              		.loc 1 310 13 view .LVU438
 2113 0a25 488D3D80 		leaq	.LC12(%rip), %rdi
 2113      000000
 2114 0a2c 4889F9   		movq	%rdi, %rcx
 2115 0a2f E8000000 		call	Print
 2115      00
 2116              	.LVL244:
 311:C:/Users/victim/source/repos/Paranyok/UEFI\bootmgfw.c ****             uefi_call_wrapper(SystemTable->ConOut->SetCursorPosition, 1, SystemTable->ConOut, Colum
 2117              		.loc 1 311 13 view .LVU439
 2118 0a34 488B4640 		movq	64(%rsi), %rax
 2119 0a38 498D5424 		leaq	-1(%r12), %rdx
 2119      FF
 2120 0a3d 4989D8   		movq	%rbx, %r8
 2121 0a40 4889C1   		movq	%rax, %rcx
 2122 0a43 FF5038   		call	*56(%rax)
 2123              	.LVL245:
 312:C:/Users/victim/source/repos/Paranyok/UEFI\bootmgfw.c ****             Print(L"|");
 2124              		.loc 1 312 13 view .LVU440
 2125 0a46 4889F9   		movq	%rdi, %rcx
 2126 0a49 E8000000 		call	Print
 2126      00
 2127              	.LVL246:
 308:C:/Users/victim/source/repos/Paranyok/UEFI\bootmgfw.c ****             uefi_call_wrapper(SystemTable->ConOut->SetCursorPosition, 1, SystemTable->ConOut, 0, ro
 2128              		.loc 1 308 44 discriminator 3 view .LVU441
 2129 0a4e 4883C301 		addq	$1, %rbx
 2130              	.LVL247:
 2131              	.L90:
 308:C:/Users/victim/source/repos/Paranyok/UEFI\bootmgfw.c ****             uefi_call_wrapper(SystemTable->ConOut->SetCursorPosition, 1, SystemTable->ConOut, 0, ro
 2132              		.loc 1 308 33 discriminator 1 view .LVU442
 2133 0a52 4839EB   		cmpq	%rbp, %rbx
 2134 0a55 72BC     		jb	.L91
 2135              	.LBE58:
 313:C:/Users/victim/source/repos/Paranyok/UEFI\bootmgfw.c ****         }
 314:C:/Users/victim/source/repos/Paranyok/UEFI\bootmgfw.c ****         delay(500000);
 2136              		.loc 1 314 9 view .LVU443
 2137 0a57 B920A107 		movl	$500000, %ecx
 2137      00
 2138 0a5c E894F6FF 		call	delay
 2138      FF
 2139              	.LVL248:
 315:C:/Users/victim/source/repos/Paranyok/UEFI\bootmgfw.c ****         uefi_call_wrapper(SystemTable->ConOut->ClearScreen, 1, SystemTable->ConOut);
 2140              		.loc 1 315 9 view .LVU444
 2141 0a61 488B4640 		movq	64(%rsi), %rax
 2142 0a65 4889C1   		movq	%rax, %rcx
 2143 0a68 FF5030   		call	*48(%rax)
 2144              	.LVL249:
 2145              	.LBE56:
 299:C:/Users/victim/source/repos/Paranyok/UEFI\bootmgfw.c ****         UINTN color = random_color();
 2146              		.loc 1 299 32 discriminator 2 view .LVU445
 2147 0a6b 4983C501 		addq	$1, %r13
 2148              	.LVL250:
 2149              	.L87:
 299:C:/Users/victim/source/repos/Paranyok/UEFI\bootmgfw.c ****         UINTN color = random_color();
 2150              		.loc 1 299 25 discriminator 1 view .LVU446
 2151 0a6f 4983FD31 		cmpq	$49, %r13
 2152 0a73 771C     		ja	.L93
 2153              	.LBB60:
 300:C:/Users/victim/source/repos/Paranyok/UEFI\bootmgfw.c ****         uefi_call_wrapper(SystemTable->ConOut->SetAttribute, 1, SystemTable->ConOut, color);
 2154              		.loc 1 300 9 view .LVU447
 300:C:/Users/victim/source/repos/Paranyok/UEFI\bootmgfw.c ****         uefi_call_wrapper(SystemTable->ConOut->SetAttribute, 1, SystemTable->ConOut, color);
 2155              		.loc 1 300 23 is_stmt 0 view .LVU448
 2156 0a75 E8C3F6FF 		call	random_color
 2156      FF
 2157              	.LVL251:
 2158 0a7a 4889C2   		movq	%rax, %rdx
 2159              	.LVL252:
 301:C:/Users/victim/source/repos/Paranyok/UEFI\bootmgfw.c ****         for (UINTN col = 0; col < Columns; col++) {
 2160              		.loc 1 301 9 is_stmt 1 view .LVU449
 2161 0a7d 488B4640 		movq	64(%rsi), %rax
 2162              	.LVL253:
 301:C:/Users/victim/source/repos/Paranyok/UEFI\bootmgfw.c ****         for (UINTN col = 0; col < Columns; col++) {
 2163              		.loc 1 301 9 is_stmt 0 view .LVU450
 2164 0a81 4889C1   		movq	%rax, %rcx
 2165 0a84 FF5028   		call	*40(%rax)
 2166              	.LVL254:
 302:C:/Users/victim/source/repos/Paranyok/UEFI\bootmgfw.c ****             uefi_call_wrapper(SystemTable->ConOut->SetCursorPosition, 1, SystemTable->ConOut, col, 
 2167              		.loc 1 302 9 is_stmt 1 view .LVU451
 2168              	.LBB59:
 302:C:/Users/victim/source/repos/Paranyok/UEFI\bootmgfw.c ****             uefi_call_wrapper(SystemTable->ConOut->SetCursorPosition, 1, SystemTable->ConOut, col, 
 2169              		.loc 1 302 14 view .LVU452
 302:C:/Users/victim/source/repos/Paranyok/UEFI\bootmgfw.c ****             uefi_call_wrapper(SystemTable->ConOut->SetCursorPosition, 1, SystemTable->ConOut, col, 
 2170              		.loc 1 302 20 is_stmt 0 view .LVU453
 2171 0a87 BB000000 		movl	$0, %ebx
 2171      00
 302:C:/Users/victim/source/repos/Paranyok/UEFI\bootmgfw.c ****             uefi_call_wrapper(SystemTable->ConOut->SetCursorPosition, 1, SystemTable->ConOut, col, 
 2172              		.loc 1 302 9 view .LVU454
 2173 0a8c E976FFFF 		jmp	.L88
 2173      FF
 2174              	.LVL255:
 2175              	.L93:
 302:C:/Users/victim/source/repos/Paranyok/UEFI\bootmgfw.c ****             uefi_call_wrapper(SystemTable->ConOut->SetCursorPosition, 1, SystemTable->ConOut, col, 
 2176              		.loc 1 302 9 view .LVU455
 2177              	.LBE59:
 2178              	.LBE60:
 2179              	.LBE55:
 316:C:/Users/victim/source/repos/Paranyok/UEFI\bootmgfw.c ****     }
 317:C:/Users/victim/source/repos/Paranyok/UEFI\bootmgfw.c **** }
 2180              		.loc 1 317 1 view .LVU456
 2181 0a91 4883C428 		addq	$40, %rsp
 2182              		.cfi_def_cfa_offset 56
 2183 0a95 5B       		popq	%rbx
 2184              		.cfi_restore 3
 2185              		.cfi_def_cfa_offset 48
 2186 0a96 5E       		popq	%rsi
 2187              		.cfi_restore 4
 2188              		.cfi_def_cfa_offset 40
 2189              	.LVL256:
 2190              		.loc 1 317 1 view .LVU457
 2191 0a97 5F       		popq	%rdi
 2192              		.cfi_restore 5
 2193              		.cfi_def_cfa_offset 32
 2194 0a98 5D       		popq	%rbp
 2195              		.cfi_restore 6
 2196              		.cfi_def_cfa_offset 24
 2197              	.LVL257:
 2198              		.loc 1 317 1 view .LVU458
 2199 0a99 415C     		popq	%r12
 2200              		.cfi_restore 12
 2201              		.cfi_def_cfa_offset 16
 2202              	.LVL258:
 2203              		.loc 1 317 1 view .LVU459
 2204 0a9b 415D     		popq	%r13
 2205              		.cfi_restore 13
 2206              		.cfi_def_cfa_offset 8
 2207              	.LVL259:
 2208              		.loc 1 317 1 view .LVU460
 2209 0a9d C3       		ret
 2210              		.cfi_endproc
 2211              	.LFE19:
 2212              		.seh_endproc
 2213              		.globl	random_patterns_symbols
 2215              		.seh_proc	random_patterns_symbols
 2216              	random_patterns_symbols:
 2217              	.LVL260:
 2218              	.LFB20:
 318:C:/Users/victim/source/repos/Paranyok/UEFI\bootmgfw.c **** 
 319:C:/Users/victim/source/repos/Paranyok/UEFI\bootmgfw.c **** // Effect 12: Random Patterns and Symbols
 320:C:/Users/victim/source/repos/Paranyok/UEFI\bootmgfw.c **** void random_patterns_symbols(EFI_SYSTEM_TABLE* SystemTable, UINTN Columns, UINTN Rows) {
 2219              		.loc 1 320 88 is_stmt 1 view -0
 2220              		.cfi_startproc
 2221              		.loc 1 320 88 is_stmt 0 view .LVU462
 2222 0a9e 4157     		pushq	%r15
 2223              		.seh_pushreg	%r15
 2224              		.cfi_def_cfa_offset 16
 2225              		.cfi_offset 15, -16
 2226 0aa0 4156     		pushq	%r14
 2227              		.seh_pushreg	%r14
 2228              		.cfi_def_cfa_offset 24
 2229              		.cfi_offset 14, -24
 2230 0aa2 4155     		pushq	%r13
 2231              		.seh_pushreg	%r13
 2232              		.cfi_def_cfa_offset 32
 2233              		.cfi_offset 13, -32
 2234 0aa4 4154     		pushq	%r12
 2235              		.seh_pushreg	%r12
 2236              		.cfi_def_cfa_offset 40
 2237              		.cfi_offset 12, -40
 2238 0aa6 55       		pushq	%rbp
 2239              		.seh_pushreg	%rbp
 2240              		.cfi_def_cfa_offset 48
 2241              		.cfi_offset 6, -48
 2242 0aa7 57       		pushq	%rdi
 2243              		.seh_pushreg	%rdi
 2244              		.cfi_def_cfa_offset 56
 2245              		.cfi_offset 5, -56
 2246 0aa8 56       		pushq	%rsi
 2247              		.seh_pushreg	%rsi
 2248              		.cfi_def_cfa_offset 64
 2249              		.cfi_offset 4, -64
 2250 0aa9 53       		pushq	%rbx
 2251              		.seh_pushreg	%rbx
 2252              		.cfi_def_cfa_offset 72
 2253              		.cfi_offset 3, -72
 2254 0aaa 4883EC48 		subq	$72, %rsp
 2255              		.seh_stackalloc	72
 2256              		.cfi_def_cfa_offset 144
 2257              		.seh_endprologue
 2258 0aae 4989CD   		movq	%rcx, %r13
 2259 0ab1 4989D4   		movq	%rdx, %r12
 2260 0ab4 4C89C5   		movq	%r8, %rbp
 321:C:/Users/victim/source/repos/Paranyok/UEFI\bootmgfw.c ****     CHAR16 symbols[] = { L'@', L'#', L'$', L'%', L'&', L'*', L'+', L'=' };  // Array of random symb
 2261              		.loc 1 321 5 is_stmt 1 view .LVU463
 2262              		.loc 1 321 12 is_stmt 0 view .LVU464
 2263 0ab7 66C74424 		movw	$64, 48(%rsp)
 2263      304000
 2264 0abe 66C74424 		movw	$35, 50(%rsp)
 2264      322300
 2265 0ac5 66C74424 		movw	$36, 52(%rsp)
 2265      342400
 2266 0acc 66C74424 		movw	$37, 54(%rsp)
 2266      362500
 2267 0ad3 66C74424 		movw	$38, 56(%rsp)
 2267      382600
 2268 0ada 66C74424 		movw	$42, 58(%rsp)
 2268      3A2A00
 2269 0ae1 66C74424 		movw	$43, 60(%rsp)
 2269      3C2B00
 2270 0ae8 66C74424 		movw	$61, 62(%rsp)
 2270      3E3D00
 322:C:/Users/victim/source/repos/Paranyok/UEFI\bootmgfw.c ****     UINTN num_symbols = sizeof(symbols) / sizeof(symbols[0]);
 2271              		.loc 1 322 5 is_stmt 1 view .LVU465
 2272              	.LVL261:
 323:C:/Users/victim/source/repos/Paranyok/UEFI\bootmgfw.c **** 
 324:C:/Users/victim/source/repos/Paranyok/UEFI\bootmgfw.c ****     for (UINTN i = 0; i < 100; i++) {
 2273              		.loc 1 324 5 view .LVU466
 2274              	.LBB61:
 2275              		.loc 1 324 10 view .LVU467
 2276              		.loc 1 324 16 is_stmt 0 view .LVU468
 2277 0aef 48C74424 		movq	$0, 40(%rsp)
 2277      28000000 
 2277      00
 2278              		.loc 1 324 5 view .LVU469
 2279 0af8 EB7F     		jmp	.L95
 2280              	.LVL262:
 2281              	.L96:
 2282              	.LBB62:
 2283              	.LBB63:
 325:C:/Users/victim/source/repos/Paranyok/UEFI\bootmgfw.c ****         for (UINTN j = 0; j < 50; j++) {
 326:C:/Users/victim/source/repos/Paranyok/UEFI\bootmgfw.c ****             UINTN col = my_rand() % Columns;
 2284              		.loc 1 326 13 is_stmt 1 view .LVU470
 2285              		.loc 1 326 25 is_stmt 0 view .LVU471
 2286 0afa E8DBF5FF 		call	my_rand
 2286      FF
 2287              	.LVL263:
 2288              		.loc 1 326 25 discriminator 1 view .LVU472
 2289 0aff 89C0     		movl	%eax, %eax
 2290              		.loc 1 326 19 discriminator 1 view .LVU473
 2291 0b01 BA000000 		movl	$0, %edx
 2291      00
 2292 0b06 49F7F4   		divq	%r12
 2293 0b09 4989D6   		movq	%rdx, %r14
 2294              	.LVL264:
 327:C:/Users/victim/source/repos/Paranyok/UEFI\bootmgfw.c ****             UINTN row = my_rand() % Rows;
 2295              		.loc 1 327 13 is_stmt 1 view .LVU474
 2296              		.loc 1 327 25 is_stmt 0 view .LVU475
 2297 0b0c E8C9F5FF 		call	my_rand
 2297      FF
 2298              	.LVL265:
 2299              		.loc 1 327 25 discriminator 1 view .LVU476
 2300 0b11 89C0     		movl	%eax, %eax
 2301              		.loc 1 327 19 discriminator 1 view .LVU477
 2302 0b13 BA000000 		movl	$0, %edx
 2302      00
 2303 0b18 48F7F5   		divq	%rbp
 2304 0b1b 4989D7   		movq	%rdx, %r15
 2305              	.LVL266:
 328:C:/Users/victim/source/repos/Paranyok/UEFI\bootmgfw.c ****             UINTN color = random_color();
 2306              		.loc 1 328 13 is_stmt 1 view .LVU478
 2307              		.loc 1 328 27 is_stmt 0 view .LVU479
 2308 0b1e E81AF6FF 		call	random_color
 2308      FF
 2309              	.LVL267:
 2310              		.loc 1 328 27 view .LVU480
 2311 0b23 4889C6   		movq	%rax, %rsi
 2312              	.LVL268:
 329:C:/Users/victim/source/repos/Paranyok/UEFI\bootmgfw.c ****             CHAR16 symbol = symbols[my_rand() % num_symbols];
 2313              		.loc 1 329 13 is_stmt 1 view .LVU481
 2314              		.loc 1 329 37 is_stmt 0 view .LVU482
 2315 0b26 E8AFF5FF 		call	my_rand
 2315      FF
 2316              	.LVL269:
 2317              		.loc 1 329 47 discriminator 1 view .LVU483
 2318 0b2b 83E007   		andl	$7, %eax
 2319              		.loc 1 329 20 discriminator 1 view .LVU484
 2320 0b2e 0FB75C44 		movzwl	48(%rsp,%rax,2), %ebx
 2320      30
 2321              	.LVL270:
 330:C:/Users/victim/source/repos/Paranyok/UEFI\bootmgfw.c **** 
 331:C:/Users/victim/source/repos/Paranyok/UEFI\bootmgfw.c ****             uefi_call_wrapper(SystemTable->ConOut->SetAttribute, 1, SystemTable->ConOut, color);
 2322              		.loc 1 331 13 is_stmt 1 view .LVU485
 2323 0b33 498B4540 		movq	64(%r13), %rax
 2324 0b37 4889F2   		movq	%rsi, %rdx
 2325 0b3a 4889C1   		movq	%rax, %rcx
 2326 0b3d FF5028   		call	*40(%rax)
 2327              	.LVL271:
 332:C:/Users/victim/source/repos/Paranyok/UEFI\bootmgfw.c ****             uefi_call_wrapper(SystemTable->ConOut->SetCursorPosition, 1, SystemTable->ConOut, col, 
 2328              		.loc 1 332 13 view .LVU486
 2329 0b40 498B4540 		movq	64(%r13), %rax
 2330 0b44 4D89F8   		movq	%r15, %r8
 2331 0b47 4C89F2   		movq	%r14, %rdx
 2332 0b4a 4889C1   		movq	%rax, %rcx
 2333 0b4d FF5038   		call	*56(%rax)
 2334              	.LVL272:
 333:C:/Users/victim/source/repos/Paranyok/UEFI\bootmgfw.c ****             Print(L"%c", symbol);
 2335              		.loc 1 333 13 view .LVU487
 2336 0b50 0FB7D3   		movzwl	%bx, %edx
 2337 0b53 488D0D3A 		leaq	.LC7(%rip), %rcx
 2337      000000
 2338 0b5a E8000000 		call	Print
 2338      00
 2339              	.LVL273:
 2340              	.LBE63:
 325:C:/Users/victim/source/repos/Paranyok/UEFI\bootmgfw.c ****             UINTN col = my_rand() % Columns;
 2341              		.loc 1 325 36 discriminator 3 view .LVU488
 2342 0b5f 4883C701 		addq	$1, %rdi
 2343              	.LVL274:
 2344              	.L97:
 325:C:/Users/victim/source/repos/Paranyok/UEFI\bootmgfw.c ****             UINTN col = my_rand() % Columns;
 2345              		.loc 1 325 29 discriminator 1 view .LVU489
 2346 0b63 4883FF31 		cmpq	$49, %rdi
 2347 0b67 7691     		jbe	.L96
 2348              	.LBE62:
 334:C:/Users/victim/source/repos/Paranyok/UEFI\bootmgfw.c ****         }
 335:C:/Users/victim/source/repos/Paranyok/UEFI\bootmgfw.c ****         delay(500000);
 2349              		.loc 1 335 9 view .LVU490
 2350 0b69 B920A107 		movl	$500000, %ecx
 2350      00
 2351 0b6e E882F5FF 		call	delay
 2351      FF
 2352              	.LVL275:
 324:C:/Users/victim/source/repos/Paranyok/UEFI\bootmgfw.c ****         for (UINTN j = 0; j < 50; j++) {
 2353              		.loc 1 324 33 discriminator 2 view .LVU491
 2354 0b73 48834424 		addq	$1, 40(%rsp)
 2354      2801
 2355              	.LVL276:
 2356              	.L95:
 324:C:/Users/victim/source/repos/Paranyok/UEFI\bootmgfw.c ****         for (UINTN j = 0; j < 50; j++) {
 2357              		.loc 1 324 25 discriminator 1 view .LVU492
 2358 0b79 48837C24 		cmpq	$99, 40(%rsp)
 2358      2863
 2359 0b7f 7707     		ja	.L99
 2360              	.LBB64:
 325:C:/Users/victim/source/repos/Paranyok/UEFI\bootmgfw.c ****             UINTN col = my_rand() % Columns;
 2361              		.loc 1 325 20 is_stmt 0 view .LVU493
 2362 0b81 BF000000 		movl	$0, %edi
 2362      00
 2363 0b86 EBDB     		jmp	.L97
 2364              	.L99:
 2365              	.LBE64:
 2366              	.LBE61:
 336:C:/Users/victim/source/repos/Paranyok/UEFI\bootmgfw.c ****     }
 337:C:/Users/victim/source/repos/Paranyok/UEFI\bootmgfw.c **** }
 2367              		.loc 1 337 1 view .LVU494
 2368 0b88 4883C448 		addq	$72, %rsp
 2369              		.cfi_def_cfa_offset 72
 2370 0b8c 5B       		popq	%rbx
 2371              		.cfi_restore 3
 2372              		.cfi_def_cfa_offset 64
 2373 0b8d 5E       		popq	%rsi
 2374              		.cfi_restore 4
 2375              		.cfi_def_cfa_offset 56
 2376 0b8e 5F       		popq	%rdi
 2377              		.cfi_restore 5
 2378              		.cfi_def_cfa_offset 48
 2379 0b8f 5D       		popq	%rbp
 2380              		.cfi_restore 6
 2381              		.cfi_def_cfa_offset 40
 2382              	.LVL277:
 2383              		.loc 1 337 1 view .LVU495
 2384 0b90 415C     		popq	%r12
 2385              		.cfi_restore 12
 2386              		.cfi_def_cfa_offset 32
 2387              	.LVL278:
 2388              		.loc 1 337 1 view .LVU496
 2389 0b92 415D     		popq	%r13
 2390              		.cfi_restore 13
 2391              		.cfi_def_cfa_offset 24
 2392              	.LVL279:
 2393              		.loc 1 337 1 view .LVU497
 2394 0b94 415E     		popq	%r14
 2395              		.cfi_restore 14
 2396              		.cfi_def_cfa_offset 16
 2397 0b96 415F     		popq	%r15
 2398              		.cfi_restore 15
 2399              		.cfi_def_cfa_offset 8
 2400 0b98 C3       		ret
 2401              		.cfi_endproc
 2402              	.LFE20:
 2403              		.seh_endproc
 2404              		.globl	play_beep
 2406              		.seh_proc	play_beep
 2407              	play_beep:
 2408              	.LVL280:
 2409              	.LFB21:
 338:C:/Users/victim/source/repos/Paranyok/UEFI\bootmgfw.c **** 
 339:C:/Users/victim/source/repos/Paranyok/UEFI\bootmgfw.c **** // Function to play a beep sound with a specific frequency and duration
 340:C:/Users/victim/source/repos/Paranyok/UEFI\bootmgfw.c **** void play_beep(UINTN frequency, UINTN duration) {
 2410              		.loc 1 340 49 is_stmt 1 view -0
 2411              		.cfi_startproc
 2412              		.loc 1 340 49 is_stmt 0 view .LVU499
 2413 0b99 53       		pushq	%rbx
 2414              		.seh_pushreg	%rbx
 2415              		.cfi_def_cfa_offset 16
 2416              		.cfi_offset 3, -16
 2417 0b9a 4883EC20 		subq	$32, %rsp
 2418              		.seh_stackalloc	32
 2419              		.cfi_def_cfa_offset 48
 2420              		.seh_endprologue
 2421 0b9e 4989C8   		movq	%rcx, %r8
 2422 0ba1 4889D1   		movq	%rdx, %rcx
 2423              	.LVL281:
 341:C:/Users/victim/source/repos/Paranyok/UEFI\bootmgfw.c ****     UINTN divisor = PIT_FREQUENCY / frequency;
 2424              		.loc 1 341 5 is_stmt 1 view .LVU500
 2425              		.loc 1 341 11 is_stmt 0 view .LVU501
 2426 0ba4 B8DC3412 		movl	$1193180, %eax
 2426      00
 2427 0ba9 BA000000 		movl	$0, %edx
 2427      00
 2428              	.LVL282:
 2429              		.loc 1 341 11 view .LVU502
 2430 0bae 49F7F0   		divq	%r8
 2431 0bb1 4889C3   		movq	%rax, %rbx
 2432              	.LVL283:
 342:C:/Users/victim/source/repos/Paranyok/UEFI\bootmgfw.c **** 
 343:C:/Users/victim/source/repos/Paranyok/UEFI\bootmgfw.c ****     // Set the frequency for the PC speaker
 344:C:/Users/victim/source/repos/Paranyok/UEFI\bootmgfw.c ****     outb(TIMER_COMMAND_PORT, 0xB6);
 2433              		.loc 1 344 5 is_stmt 1 view .LVU503
 2434              	.LBB65:
 2435              	.LBI65:
  29:C:/Users/victim/source/repos/Paranyok/UEFI\bootmgfw.c ****     __asm__ __volatile__ ("outb %0, %1" : : "a"(val), "Nd"(port));
 2436              		.loc 1 29 20 view .LVU504
 2437              	.LBB66:
  30:C:/Users/victim/source/repos/Paranyok/UEFI\bootmgfw.c **** }
 2438              		.loc 1 30 5 view .LVU505
 2439 0bb4 B8B6FFFF 		movl	$-74, %eax
 2439      FF
 2440              	.LVL284:
  30:C:/Users/victim/source/repos/Paranyok/UEFI\bootmgfw.c **** }
 2441              		.loc 1 30 5 is_stmt 0 view .LVU506
 2442              	/APP
 2443              	 # 30 "C:/Users/victim/source/repos/Paranyok/UEFI\bootmgfw.c" 1
 2444 0bb9 E643     		outb %al, $67
 2445              	 # 0 "" 2
 2446              	.LVL285:
  30:C:/Users/victim/source/repos/Paranyok/UEFI\bootmgfw.c **** }
 2447              		.loc 1 30 5 view .LVU507
 2448              	/NO_APP
 2449              	.LBE66:
 2450              	.LBE65:
 345:C:/Users/victim/source/repos/Paranyok/UEFI\bootmgfw.c ****     outb(TIMER_DATA_PORT, divisor & 0xFF);
 2451              		.loc 1 345 5 is_stmt 1 view .LVU508
 2452              	.LBB67:
 2453              	.LBI67:
  29:C:/Users/victim/source/repos/Paranyok/UEFI\bootmgfw.c ****     __asm__ __volatile__ ("outb %0, %1" : : "a"(val), "Nd"(port));
 2454              		.loc 1 29 20 view .LVU509
 2455              	.LBB68:
  30:C:/Users/victim/source/repos/Paranyok/UEFI\bootmgfw.c **** }
 2456              		.loc 1 30 5 view .LVU510
 2457 0bbb 89D8     		movl	%ebx, %eax
 2458              	/APP
 2459              	 # 30 "C:/Users/victim/source/repos/Paranyok/UEFI\bootmgfw.c" 1
 2460 0bbd E642     		outb %al, $66
 2461              	 # 0 "" 2
 2462              	.LVL286:
  30:C:/Users/victim/source/repos/Paranyok/UEFI\bootmgfw.c **** }
 2463              		.loc 1 30 5 is_stmt 0 view .LVU511
 2464              	/NO_APP
 2465              	.LBE68:
 2466              	.LBE67:
 346:C:/Users/victim/source/repos/Paranyok/UEFI\bootmgfw.c ****     outb(TIMER_DATA_PORT, (divisor >> 8) & 0xFF);
 2467              		.loc 1 346 5 is_stmt 1 view .LVU512
 2468 0bbf 0FB6C7   		movzbl	%bh, %eax
 2469              	.LVL287:
 2470              	.LBB69:
 2471              	.LBI69:
  29:C:/Users/victim/source/repos/Paranyok/UEFI\bootmgfw.c ****     __asm__ __volatile__ ("outb %0, %1" : : "a"(val), "Nd"(port));
 2472              		.loc 1 29 20 view .LVU513
 2473              	.LBB70:
  30:C:/Users/victim/source/repos/Paranyok/UEFI\bootmgfw.c **** }
 2474              		.loc 1 30 5 view .LVU514
 2475              	/APP
 2476              	 # 30 "C:/Users/victim/source/repos/Paranyok/UEFI\bootmgfw.c" 1
 2477 0bc2 E642     		outb %al, $66
 2478              	 # 0 "" 2
 2479              	.LVL288:
  30:C:/Users/victim/source/repos/Paranyok/UEFI\bootmgfw.c **** }
 2480              		.loc 1 30 5 is_stmt 0 view .LVU515
 2481              	/NO_APP
 2482              	.LBE70:
 2483              	.LBE69:
 347:C:/Users/victim/source/repos/Paranyok/UEFI\bootmgfw.c **** 
 348:C:/Users/victim/source/repos/Paranyok/UEFI\bootmgfw.c ****     // Turn on the speaker
 349:C:/Users/victim/source/repos/Paranyok/UEFI\bootmgfw.c ****     UINT8 temp = inb(SPEAKER_PORT);
 2484              		.loc 1 349 5 is_stmt 1 view .LVU516
 2485              	.LBB71:
 2486              	.LBI71:
  33:C:/Users/victim/source/repos/Paranyok/UEFI\bootmgfw.c ****     UINT8 ret;
 2487              		.loc 1 33 21 view .LVU517
 2488              	.LBB72:
  34:C:/Users/victim/source/repos/Paranyok/UEFI\bootmgfw.c ****     __asm__ __volatile__ ("inb %1, %0" : "=a"(ret) : "Nd"(port));
 2489              		.loc 1 34 5 view .LVU518
  35:C:/Users/victim/source/repos/Paranyok/UEFI\bootmgfw.c ****     return ret;
 2490              		.loc 1 35 5 view .LVU519
 2491              	/APP
 2492              	 # 35 "C:/Users/victim/source/repos/Paranyok/UEFI\bootmgfw.c" 1
 2493 0bc4 E461     		inb $97, %al
 2494              	 # 0 "" 2
 2495              	.LVL289:
  36:C:/Users/victim/source/repos/Paranyok/UEFI\bootmgfw.c **** }
 2496              		.loc 1 36 5 view .LVU520
  36:C:/Users/victim/source/repos/Paranyok/UEFI\bootmgfw.c **** }
 2497              		.loc 1 36 5 is_stmt 0 view .LVU521
 2498              	/NO_APP
 2499              	.LBE72:
 2500              	.LBE71:
 350:C:/Users/victim/source/repos/Paranyok/UEFI\bootmgfw.c ****     outb(SPEAKER_PORT, temp | 0x03);
 2501              		.loc 1 350 5 is_stmt 1 view .LVU522
 2502 0bc6 83C803   		orl	$3, %eax
 2503              	.LVL290:
 2504              	.LBB73:
 2505              	.LBI73:
  29:C:/Users/victim/source/repos/Paranyok/UEFI\bootmgfw.c ****     __asm__ __volatile__ ("outb %0, %1" : : "a"(val), "Nd"(port));
 2506              		.loc 1 29 20 view .LVU523
 2507              	.LBB74:
  30:C:/Users/victim/source/repos/Paranyok/UEFI\bootmgfw.c **** }
 2508              		.loc 1 30 5 view .LVU524
 2509              	/APP
 2510              	 # 30 "C:/Users/victim/source/repos/Paranyok/UEFI\bootmgfw.c" 1
 2511 0bc9 E661     		outb %al, $97
 2512              	 # 0 "" 2
 2513              	.LVL291:
  30:C:/Users/victim/source/repos/Paranyok/UEFI\bootmgfw.c **** }
 2514              		.loc 1 30 5 is_stmt 0 view .LVU525
 2515              	/NO_APP
 2516              	.LBE74:
 2517              	.LBE73:
 351:C:/Users/victim/source/repos/Paranyok/UEFI\bootmgfw.c **** 
 352:C:/Users/victim/source/repos/Paranyok/UEFI\bootmgfw.c ****     // Delay for the duration of the sound
 353:C:/Users/victim/source/repos/Paranyok/UEFI\bootmgfw.c ****     delay(duration);
 2518              		.loc 1 353 5 is_stmt 1 view .LVU526
 2519 0bcb E825F5FF 		call	delay
 2519      FF
 2520              	.LVL292:
 354:C:/Users/victim/source/repos/Paranyok/UEFI\bootmgfw.c **** 
 355:C:/Users/victim/source/repos/Paranyok/UEFI\bootmgfw.c ****     // Turn off the speaker
 356:C:/Users/victim/source/repos/Paranyok/UEFI\bootmgfw.c ****     temp = inb(SPEAKER_PORT);
 2521              		.loc 1 356 5 view .LVU527
 2522              	.LBB75:
 2523              	.LBI75:
  33:C:/Users/victim/source/repos/Paranyok/UEFI\bootmgfw.c ****     UINT8 ret;
 2524              		.loc 1 33 21 view .LVU528
 2525              	.LBB76:
  34:C:/Users/victim/source/repos/Paranyok/UEFI\bootmgfw.c ****     __asm__ __volatile__ ("inb %1, %0" : "=a"(ret) : "Nd"(port));
 2526              		.loc 1 34 5 view .LVU529
  35:C:/Users/victim/source/repos/Paranyok/UEFI\bootmgfw.c ****     return ret;
 2527              		.loc 1 35 5 view .LVU530
 2528              	/APP
 2529              	 # 35 "C:/Users/victim/source/repos/Paranyok/UEFI\bootmgfw.c" 1
 2530 0bd0 E461     		inb $97, %al
 2531              	 # 0 "" 2
 2532              	.LVL293:
  36:C:/Users/victim/source/repos/Paranyok/UEFI\bootmgfw.c **** }
 2533              		.loc 1 36 5 view .LVU531
  36:C:/Users/victim/source/repos/Paranyok/UEFI\bootmgfw.c **** }
 2534              		.loc 1 36 5 is_stmt 0 view .LVU532
 2535              	/NO_APP
 2536              	.LBE76:
 2537              	.LBE75:
 357:C:/Users/victim/source/repos/Paranyok/UEFI\bootmgfw.c ****     outb(SPEAKER_PORT, temp & 0xFC);
 2538              		.loc 1 357 5 is_stmt 1 view .LVU533
 2539              	.LBB77:
 2540              	.LBI77:
  29:C:/Users/victim/source/repos/Paranyok/UEFI\bootmgfw.c ****     __asm__ __volatile__ ("outb %0, %1" : : "a"(val), "Nd"(port));
 2541              		.loc 1 29 20 view .LVU534
 2542              	.LBB78:
  30:C:/Users/victim/source/repos/Paranyok/UEFI\bootmgfw.c **** }
 2543              		.loc 1 30 5 view .LVU535
 2544 0bd2 83E0FC   		andl	$-4, %eax
 2545              	.LVL294:
  30:C:/Users/victim/source/repos/Paranyok/UEFI\bootmgfw.c **** }
 2546              		.loc 1 30 5 is_stmt 0 view .LVU536
 2547              	/APP
 2548              	 # 30 "C:/Users/victim/source/repos/Paranyok/UEFI\bootmgfw.c" 1
 2549 0bd5 E661     		outb %al, $97
 2550              	 # 0 "" 2
 2551              	.LVL295:
  30:C:/Users/victim/source/repos/Paranyok/UEFI\bootmgfw.c **** }
 2552              		.loc 1 30 5 view .LVU537
 2553              	/NO_APP
 2554              	.LBE78:
 2555              	.LBE77:
 358:C:/Users/victim/source/repos/Paranyok/UEFI\bootmgfw.c **** }
 2556              		.loc 1 358 1 view .LVU538
 2557 0bd7 4883C420 		addq	$32, %rsp
 2558              		.cfi_def_cfa_offset 16
 2559 0bdb 5B       		popq	%rbx
 2560              		.cfi_restore 3
 2561              		.cfi_def_cfa_offset 8
 2562              	.LVL296:
 2563              		.loc 1 358 1 view .LVU539
 2564 0bdc C3       		ret
 2565              		.cfi_endproc
 2566              	.LFE21:
 2567              		.seh_endproc
 2568              		.section .rdata,"dr"
 2569 0084 00000000 		.align 8
 2570              	.LC13:
 2571 0088 50004100 		.ascii "P\0A\0R\0A\0N\0Y\0O\0K\0 \0I\0S\0 \0H\0E\0R\0E\0!\0\0\0"
 2571      52004100 
 2571      4E005900 
 2571      4F004B00 
 2571      20004900 
 2572 00ac 00000000 		.align 8
 2573              	.LC14:
 2574 00b0 54004800 		.ascii "T\0H\0E\0R\0E\0 \0I\0S\0 \0N\0O\0 \0E\0S\0C\0A\0P\0E\0!\0\0\0"
 2574      45005200 
 2574      45002000 
 2574      49005300 
 2574      20004E00 
 2575              		.align 2
 2576              	.LC15:
 2577 00d8 21002100 		.ascii "!\0!\0!\0\0\0"
 2577      21000000 
 2578              		.text
 2579              		.globl	dramatic_sound_effects
 2581              		.seh_proc	dramatic_sound_effects
 2582              	dramatic_sound_effects:
 2583              	.LVL297:
 2584              	.LFB22:
 359:C:/Users/victim/source/repos/Paranyok/UEFI\bootmgfw.c **** 
 360:C:/Users/victim/source/repos/Paranyok/UEFI\bootmgfw.c **** // Function to create visual and sound effects
 361:C:/Users/victim/source/repos/Paranyok/UEFI\bootmgfw.c **** void dramatic_sound_effects(EFI_SYSTEM_TABLE* SystemTable, UINTN Columns, UINTN Rows, UINTN effectD
 2585              		.loc 1 361 109 is_stmt 1 view -0
 2586              		.cfi_startproc
 2587              		.loc 1 361 109 is_stmt 0 view .LVU541
 2588 0bdd 4157     		pushq	%r15
 2589              		.seh_pushreg	%r15
 2590              		.cfi_def_cfa_offset 16
 2591              		.cfi_offset 15, -16
 2592 0bdf 4156     		pushq	%r14
 2593              		.seh_pushreg	%r14
 2594              		.cfi_def_cfa_offset 24
 2595              		.cfi_offset 14, -24
 2596 0be1 4155     		pushq	%r13
 2597              		.seh_pushreg	%r13
 2598              		.cfi_def_cfa_offset 32
 2599              		.cfi_offset 13, -32
 2600 0be3 4154     		pushq	%r12
 2601              		.seh_pushreg	%r12
 2602              		.cfi_def_cfa_offset 40
 2603              		.cfi_offset 12, -40
 2604 0be5 55       		pushq	%rbp
 2605              		.seh_pushreg	%rbp
 2606              		.cfi_def_cfa_offset 48
 2607              		.cfi_offset 6, -48
 2608 0be6 57       		pushq	%rdi
 2609              		.seh_pushreg	%rdi
 2610              		.cfi_def_cfa_offset 56
 2611              		.cfi_offset 5, -56
 2612 0be7 56       		pushq	%rsi
 2613              		.seh_pushreg	%rsi
 2614              		.cfi_def_cfa_offset 64
 2615              		.cfi_offset 4, -64
 2616 0be8 53       		pushq	%rbx
 2617              		.seh_pushreg	%rbx
 2618              		.cfi_def_cfa_offset 72
 2619              		.cfi_offset 3, -72
 2620 0be9 4883EC28 		subq	$40, %rsp
 2621              		.seh_stackalloc	40
 2622              		.cfi_def_cfa_offset 112
 2623              		.seh_endprologue
 2624 0bed 4989D6   		movq	%rdx, %r14
 2625 0bf0 4D89C5   		movq	%r8, %r13
 362:C:/Users/victim/source/repos/Paranyok/UEFI\bootmgfw.c ****     EFI_SIMPLE_TEXT_OUT_PROTOCOL* ConOut = SystemTable->ConOut;
 2626              		.loc 1 362 5 is_stmt 1 view .LVU542
 2627              		.loc 1 362 35 is_stmt 0 view .LVU543
 2628 0bf3 488B5940 		movq	64(%rcx), %rbx
 2629              	.LVL298:
 363:C:/Users/victim/source/repos/Paranyok/UEFI\bootmgfw.c ****     UINTN iterations = effectDuration / 1000000; // Convert microseconds to iterations
 2630              		.loc 1 363 5 is_stmt 1 view .LVU544
 2631              		.loc 1 363 11 is_stmt 0 view .LVU545
 2632 0bf7 48BADB34 		movabsq	$4835703278458516699, %rdx
 2632      B6D782DE 
 2632      1B43
 2633              	.LVL299:
 2634              		.loc 1 363 11 view .LVU546
 2635 0c01 4C89C8   		movq	%r9, %rax
 2636 0c04 48F7E2   		mulq	%rdx
 2637 0c07 48C1EA12 		shrq	$18, %rdx
 2638 0c0b 4989D4   		movq	%rdx, %r12
 2639              	.LVL300:
 364:C:/Users/victim/source/repos/Paranyok/UEFI\bootmgfw.c **** 
 365:C:/Users/victim/source/repos/Paranyok/UEFI\bootmgfw.c ****     for (UINTN i = 0; i < iterations; i++) {
 2640              		.loc 1 365 5 is_stmt 1 view .LVU547
 2641              	.LBB79:
 2642              		.loc 1 365 10 view .LVU548
 2643              		.loc 1 365 16 is_stmt 0 view .LVU549
 2644 0c0e BE000000 		movl	$0, %esi
 2644      00
 2645              		.loc 1 365 5 view .LVU550
 2646 0c13 EB1C     		jmp	.L102
 2647              	.LVL301:
 2648              	.L108:
 2649              	.LBB80:
 366:C:/Users/victim/source/repos/Paranyok/UEFI\bootmgfw.c ****         // Simulate sound with a flashing effect and PC speaker beep
 367:C:/Users/victim/source/repos/Paranyok/UEFI\bootmgfw.c ****         UINTN color = (i % 2 == 0) ? EFI_RED : EFI_WHITE;
 2650              		.loc 1 367 46 discriminator 2 view .LVU551
 2651 0c15 BA0F0000 		movl	$15, %edx
 2651      00
 2652 0c1a EB2C     		jmp	.L103
 2653              	.LVL302:
 2654              	.L109:
 368:C:/Users/victim/source/repos/Paranyok/UEFI\bootmgfw.c ****         uefi_call_wrapper(ConOut->SetAttribute, 1, ConOut, color);
 369:C:/Users/victim/source/repos/Paranyok/UEFI\bootmgfw.c ****         uefi_call_wrapper(ConOut->ClearScreen, 1, ConOut);
 370:C:/Users/victim/source/repos/Paranyok/UEFI\bootmgfw.c ****         uefi_call_wrapper(ConOut->SetCursorPosition, 1, ConOut, Columns / 2 - 15, Rows / 2);
 371:C:/Users/victim/source/repos/Paranyok/UEFI\bootmgfw.c ****         Print(L"PARANYOK IS HERE!");
 372:C:/Users/victim/source/repos/Paranyok/UEFI\bootmgfw.c **** 
 373:C:/Users/victim/source/repos/Paranyok/UEFI\bootmgfw.c ****         // Play a beep sound with alternating frequencies
 374:C:/Users/victim/source/repos/Paranyok/UEFI\bootmgfw.c ****         play_beep((i % 2 == 0) ? 1000 : 2000, 50000); // Frequency alternates between 1kHz and 2kHz
 2655              		.loc 1 374 9 discriminator 2 view .LVU552
 2656 0c1c B9D00700 		movl	$2000, %ecx
 2656      00
 2657 0c21 EB63     		jmp	.L104
 2658              	.L106:
 375:C:/Users/victim/source/repos/Paranyok/UEFI\bootmgfw.c **** 
 376:C:/Users/victim/source/repos/Paranyok/UEFI\bootmgfw.c ****         // Add patterns to simulate varying sound effects
 377:C:/Users/victim/source/repos/Paranyok/UEFI\bootmgfw.c ****         if (i % 5 == 0) {
 378:C:/Users/victim/source/repos/Paranyok/UEFI\bootmgfw.c ****             uefi_call_wrapper(ConOut->SetCursorPosition, 1, ConOut, Columns / 2 - 15, Rows / 2 + 1)
 379:C:/Users/victim/source/repos/Paranyok/UEFI\bootmgfw.c ****             Print(L"THERE IS NO ESCAPE!");
 380:C:/Users/victim/source/repos/Paranyok/UEFI\bootmgfw.c ****             play_beep(1500, 100000); // Play a beep at 1.5kHz
 381:C:/Users/victim/source/repos/Paranyok/UEFI\bootmgfw.c ****         }
 382:C:/Users/victim/source/repos/Paranyok/UEFI\bootmgfw.c **** 
 383:C:/Users/victim/source/repos/Paranyok/UEFI\bootmgfw.c ****         // Additional pattern for simulating sound intensity
 384:C:/Users/victim/source/repos/Paranyok/UEFI\bootmgfw.c ****         if (i % 10 == 0) {
 385:C:/Users/victim/source/repos/Paranyok/UEFI\bootmgfw.c ****             uefi_call_wrapper(ConOut->SetAttribute, 1, ConOut, EFI_GREEN);
 386:C:/Users/victim/source/repos/Paranyok/UEFI\bootmgfw.c ****             uefi_call_wrapper(ConOut->ClearScreen, 1, ConOut);
 387:C:/Users/victim/source/repos/Paranyok/UEFI\bootmgfw.c ****             uefi_call_wrapper(ConOut->SetCursorPosition, 1, ConOut, Columns / 2 - 15, Rows / 2 + 2)
 388:C:/Users/victim/source/repos/Paranyok/UEFI\bootmgfw.c ****             Print(L"!!!");
 389:C:/Users/victim/source/repos/Paranyok/UEFI\bootmgfw.c ****             play_beep(3000, 50000); // Play a higher-pitched beep at 3kHz
 390:C:/Users/victim/source/repos/Paranyok/UEFI\bootmgfw.c ****         }
 391:C:/Users/victim/source/repos/Paranyok/UEFI\bootmgfw.c **** 
 392:C:/Users/victim/source/repos/Paranyok/UEFI\bootmgfw.c ****         delay(500000); // Simulate duration
 2659              		.loc 1 392 9 is_stmt 1 view .LVU553
 2660 0c23 B920A107 		movl	$500000, %ecx
 2660      00
 2661 0c28 E8C8F4FF 		call	delay
 2661      FF
 2662              	.LVL303:
 2663              	.LBE80:
 365:C:/Users/victim/source/repos/Paranyok/UEFI\bootmgfw.c ****         // Simulate sound with a flashing effect and PC speaker beep
 2664              		.loc 1 365 40 discriminator 2 view .LVU554
 2665 0c2d 4883C601 		addq	$1, %rsi
 2666              	.LVL304:
 2667              	.L102:
 365:C:/Users/victim/source/repos/Paranyok/UEFI\bootmgfw.c ****         // Simulate sound with a flashing effect and PC speaker beep
 2668              		.loc 1 365 25 discriminator 1 view .LVU555
 2669 0c31 4C39E6   		cmpq	%r12, %rsi
 2670 0c34 0F830301 		jnb	.L110
 2670      0000
 2671              	.LBB81:
 367:C:/Users/victim/source/repos/Paranyok/UEFI\bootmgfw.c ****         uefi_call_wrapper(ConOut->SetAttribute, 1, ConOut, color);
 2672              		.loc 1 367 9 view .LVU556
 367:C:/Users/victim/source/repos/Paranyok/UEFI\bootmgfw.c ****         uefi_call_wrapper(ConOut->SetAttribute, 1, ConOut, color);
 2673              		.loc 1 367 46 is_stmt 0 view .LVU557
 2674 0c3a 4989F7   		movq	%rsi, %r15
 2675 0c3d 4183E701 		andl	$1, %r15d
 2676 0c41 75D2     		jne	.L108
 367:C:/Users/victim/source/repos/Paranyok/UEFI\bootmgfw.c ****         uefi_call_wrapper(ConOut->SetAttribute, 1, ConOut, color);
 2677              		.loc 1 367 46 discriminator 1 view .LVU558
 2678 0c43 BA040000 		movl	$4, %edx
 2678      00
 2679              	.L103:
 2680              	.LVL305:
 368:C:/Users/victim/source/repos/Paranyok/UEFI\bootmgfw.c ****         uefi_call_wrapper(ConOut->ClearScreen, 1, ConOut);
 2681              		.loc 1 368 9 is_stmt 1 view .LVU559
 2682 0c48 4889D9   		movq	%rbx, %rcx
 2683 0c4b FF5328   		call	*40(%rbx)
 2684              	.LVL306:
 369:C:/Users/victim/source/repos/Paranyok/UEFI\bootmgfw.c ****         uefi_call_wrapper(ConOut->SetCursorPosition, 1, ConOut, Columns / 2 - 15, Rows / 2);
 2685              		.loc 1 369 9 view .LVU560
 2686 0c4e 4889D9   		movq	%rbx, %rcx
 2687 0c51 FF5330   		call	*48(%rbx)
 2688              	.LVL307:
 370:C:/Users/victim/source/repos/Paranyok/UEFI\bootmgfw.c ****         Print(L"PARANYOK IS HERE!");
 2689              		.loc 1 370 9 view .LVU561
 2690 0c54 4C89ED   		movq	%r13, %rbp
 2691 0c57 48D1ED   		shrq	%rbp
 2692 0c5a 4C89F7   		movq	%r14, %rdi
 2693 0c5d 48D1EF   		shrq	%rdi
 2694 0c60 4883EF0F 		subq	$15, %rdi
 2695 0c64 4989E8   		movq	%rbp, %r8
 2696 0c67 4889FA   		movq	%rdi, %rdx
 2697 0c6a 4889D9   		movq	%rbx, %rcx
 2698 0c6d FF5338   		call	*56(%rbx)
 2699              	.LVL308:
 371:C:/Users/victim/source/repos/Paranyok/UEFI\bootmgfw.c **** 
 2700              		.loc 1 371 9 view .LVU562
 2701 0c70 488D0D88 		leaq	.LC13(%rip), %rcx
 2701      000000
 2702 0c77 E8000000 		call	Print
 2702      00
 2703              	.LVL309:
 374:C:/Users/victim/source/repos/Paranyok/UEFI\bootmgfw.c **** 
 2704              		.loc 1 374 9 view .LVU563
 2705 0c7c 4D85FF   		testq	%r15, %r15
 2706 0c7f 759B     		jne	.L109
 374:C:/Users/victim/source/repos/Paranyok/UEFI\bootmgfw.c **** 
 2707              		.loc 1 374 9 is_stmt 0 discriminator 1 view .LVU564
 2708 0c81 B9E80300 		movl	$1000, %ecx
 2708      00
 2709              	.L104:
 374:C:/Users/victim/source/repos/Paranyok/UEFI\bootmgfw.c **** 
 2710              		.loc 1 374 9 discriminator 4 view .LVU565
 2711 0c86 BA50C300 		movl	$50000, %edx
 2711      00
 2712 0c8b E809FFFF 		call	play_beep
 2712      FF
 2713              	.LVL310:
 377:C:/Users/victim/source/repos/Paranyok/UEFI\bootmgfw.c ****             uefi_call_wrapper(ConOut->SetCursorPosition, 1, ConOut, Columns / 2 - 15, Rows / 2 + 1)
 2714              		.loc 1 377 9 is_stmt 1 view .LVU566
 377:C:/Users/victim/source/repos/Paranyok/UEFI\bootmgfw.c ****             uefi_call_wrapper(ConOut->SetCursorPosition, 1, ConOut, Columns / 2 - 15, Rows / 2 + 1)
 2715              		.loc 1 377 15 is_stmt 0 view .LVU567
 2716 0c90 48BACDCC 		movabsq	$-3689348814741910323, %rdx
 2716      CCCCCCCC 
 2716      CCCC
 2717 0c9a 4889F0   		movq	%rsi, %rax
 2718 0c9d 48F7E2   		mulq	%rdx
 2719 0ca0 4889D0   		movq	%rdx, %rax
 2720 0ca3 48C1E802 		shrq	$2, %rax
 2721 0ca7 4883E2FC 		andq	$-4, %rdx
 2722 0cab 4801C2   		addq	%rax, %rdx
 377:C:/Users/victim/source/repos/Paranyok/UEFI\bootmgfw.c ****             uefi_call_wrapper(ConOut->SetCursorPosition, 1, ConOut, Columns / 2 - 15, Rows / 2 + 1)
 2723              		.loc 1 377 12 view .LVU568
 2724 0cae 4839D6   		cmpq	%rdx, %rsi
 2725 0cb1 7528     		jne	.L105
 378:C:/Users/victim/source/repos/Paranyok/UEFI\bootmgfw.c ****             Print(L"THERE IS NO ESCAPE!");
 2726              		.loc 1 378 13 is_stmt 1 view .LVU569
 2727 0cb3 4C8D4501 		leaq	1(%rbp), %r8
 2728 0cb7 4889FA   		movq	%rdi, %rdx
 2729 0cba 4889D9   		movq	%rbx, %rcx
 2730 0cbd FF5338   		call	*56(%rbx)
 2731              	.LVL311:
 379:C:/Users/victim/source/repos/Paranyok/UEFI\bootmgfw.c ****             play_beep(1500, 100000); // Play a beep at 1.5kHz
 2732              		.loc 1 379 13 view .LVU570
 2733 0cc0 488D0DB0 		leaq	.LC14(%rip), %rcx
 2733      000000
 2734 0cc7 E8000000 		call	Print
 2734      00
 2735              	.LVL312:
 380:C:/Users/victim/source/repos/Paranyok/UEFI\bootmgfw.c ****         }
 2736              		.loc 1 380 13 view .LVU571
 2737 0ccc BAA08601 		movl	$100000, %edx
 2737      00
 2738 0cd1 B9DC0500 		movl	$1500, %ecx
 2738      00
 2739 0cd6 E8BEFEFF 		call	play_beep
 2739      FF
 2740              	.LVL313:
 2741              	.L105:
 384:C:/Users/victim/source/repos/Paranyok/UEFI\bootmgfw.c ****             uefi_call_wrapper(ConOut->SetAttribute, 1, ConOut, EFI_GREEN);
 2742              		.loc 1 384 9 view .LVU572
 384:C:/Users/victim/source/repos/Paranyok/UEFI\bootmgfw.c ****             uefi_call_wrapper(ConOut->SetAttribute, 1, ConOut, EFI_GREEN);
 2743              		.loc 1 384 15 is_stmt 0 view .LVU573
 2744 0cdb 48BACDCC 		movabsq	$-3689348814741910323, %rdx
 2744      CCCCCCCC 
 2744      CCCC
 2745 0ce5 4889F0   		movq	%rsi, %rax
 2746 0ce8 48F7E2   		mulq	%rdx
 2747 0ceb 48C1EA03 		shrq	$3, %rdx
 2748 0cef 488D0492 		leaq	(%rdx,%rdx,4), %rax
 2749 0cf3 4801C0   		addq	%rax, %rax
 384:C:/Users/victim/source/repos/Paranyok/UEFI\bootmgfw.c ****             uefi_call_wrapper(ConOut->SetAttribute, 1, ConOut, EFI_GREEN);
 2750              		.loc 1 384 12 view .LVU574
 2751 0cf6 4839C6   		cmpq	%rax, %rsi
 2752 0cf9 0F8524FF 		jne	.L106
 2752      FFFF
 385:C:/Users/victim/source/repos/Paranyok/UEFI\bootmgfw.c ****             uefi_call_wrapper(ConOut->ClearScreen, 1, ConOut);
 2753              		.loc 1 385 13 is_stmt 1 view .LVU575
 2754 0cff BA020000 		movl	$2, %edx
 2754      00
 2755 0d04 4889D9   		movq	%rbx, %rcx
 2756 0d07 FF5328   		call	*40(%rbx)
 2757              	.LVL314:
 386:C:/Users/victim/source/repos/Paranyok/UEFI\bootmgfw.c ****             uefi_call_wrapper(ConOut->SetCursorPosition, 1, ConOut, Columns / 2 - 15, Rows / 2 + 2)
 2758              		.loc 1 386 13 view .LVU576
 2759 0d0a 4889D9   		movq	%rbx, %rcx
 2760 0d0d FF5330   		call	*48(%rbx)
 2761              	.LVL315:
 387:C:/Users/victim/source/repos/Paranyok/UEFI\bootmgfw.c ****             Print(L"!!!");
 2762              		.loc 1 387 13 view .LVU577
 2763 0d10 4C8D4502 		leaq	2(%rbp), %r8
 2764 0d14 4889FA   		movq	%rdi, %rdx
 2765 0d17 4889D9   		movq	%rbx, %rcx
 2766 0d1a FF5338   		call	*56(%rbx)
 2767              	.LVL316:
 388:C:/Users/victim/source/repos/Paranyok/UEFI\bootmgfw.c ****             play_beep(3000, 50000); // Play a higher-pitched beep at 3kHz
 2768              		.loc 1 388 13 view .LVU578
 2769 0d1d 488D0DD8 		leaq	.LC15(%rip), %rcx
 2769      000000
 2770 0d24 E8000000 		call	Print
 2770      00
 2771              	.LVL317:
 389:C:/Users/victim/source/repos/Paranyok/UEFI\bootmgfw.c ****         }
 2772              		.loc 1 389 13 view .LVU579
 2773 0d29 BA50C300 		movl	$50000, %edx
 2773      00
 2774 0d2e B9B80B00 		movl	$3000, %ecx
 2774      00
 2775 0d33 E861FEFF 		call	play_beep
 2775      FF
 2776              	.LVL318:
 2777 0d38 E9E6FEFF 		jmp	.L106
 2777      FF
 2778              	.LVL319:
 2779              	.L110:
 389:C:/Users/victim/source/repos/Paranyok/UEFI\bootmgfw.c ****         }
 2780              		.loc 1 389 13 is_stmt 0 view .LVU580
 2781              	.LBE81:
 2782              	.LBE79:
 393:C:/Users/victim/source/repos/Paranyok/UEFI\bootmgfw.c ****     }
 394:C:/Users/victim/source/repos/Paranyok/UEFI\bootmgfw.c **** }
 2783              		.loc 1 394 1 view .LVU581
 2784 0d3d 4883C428 		addq	$40, %rsp
 2785              		.cfi_def_cfa_offset 72
 2786 0d41 5B       		popq	%rbx
 2787              		.cfi_restore 3
 2788              		.cfi_def_cfa_offset 64
 2789              	.LVL320:
 2790              		.loc 1 394 1 view .LVU582
 2791 0d42 5E       		popq	%rsi
 2792              		.cfi_restore 4
 2793              		.cfi_def_cfa_offset 56
 2794              	.LVL321:
 2795              		.loc 1 394 1 view .LVU583
 2796 0d43 5F       		popq	%rdi
 2797              		.cfi_restore 5
 2798              		.cfi_def_cfa_offset 48
 2799 0d44 5D       		popq	%rbp
 2800              		.cfi_restore 6
 2801              		.cfi_def_cfa_offset 40
 2802 0d45 415C     		popq	%r12
 2803              		.cfi_restore 12
 2804              		.cfi_def_cfa_offset 32
 2805              	.LVL322:
 2806              		.loc 1 394 1 view .LVU584
 2807 0d47 415D     		popq	%r13
 2808              		.cfi_restore 13
 2809              		.cfi_def_cfa_offset 24
 2810              	.LVL323:
 2811              		.loc 1 394 1 view .LVU585
 2812 0d49 415E     		popq	%r14
 2813              		.cfi_restore 14
 2814              		.cfi_def_cfa_offset 16
 2815              	.LVL324:
 2816              		.loc 1 394 1 view .LVU586
 2817 0d4b 415F     		popq	%r15
 2818              		.cfi_restore 15
 2819              		.cfi_def_cfa_offset 8
 2820 0d4d C3       		ret
 2821              		.cfi_endproc
 2822              	.LFE22:
 2823              		.seh_endproc
 2824              		.section .rdata,"dr"
 2825              		.align 8
 2826              	.LC16:
 2827 00e0 55006E00 		.ascii "U\0n\0a\0b\0l\0e\0 \0t\0o\0 \0q\0u\0e\0r\0y\0 \0s\0c\0r\0e\0e\0n\0 \0s\0i\0z\0e\0\12\0\0\0
 2827      61006200 
 2827      6C006500 
 2827      20007400 
 2827      6F002000 
 2828              		.align 2
 2829              	.LC17:
 2830 011a 50004100 		.ascii "P\0A\0R\0A\0N\0Y\0O\0K\0 \0H\0E\0R\0E\0!\0\0\0"
 2830      52004100 
 2830      4E005900 
 2830      4F004B00 
 2830      20004800 
 2831              		.text
 2832              		.globl	efi_main
 2834              		.seh_proc	efi_main
 2835              	efi_main:
 2836              	.LVL325:
 2837              	.LFB23:
 395:C:/Users/victim/source/repos/Paranyok/UEFI\bootmgfw.c **** 
 396:C:/Users/victim/source/repos/Paranyok/UEFI\bootmgfw.c **** // Updated Main EFI Entry Point
 397:C:/Users/victim/source/repos/Paranyok/UEFI\bootmgfw.c **** EFI_STATUS EFIAPI efi_main(EFI_HANDLE ImageHandle, EFI_SYSTEM_TABLE* SystemTable) {
 2838              		.loc 1 397 83 is_stmt 1 view -0
 2839              		.cfi_startproc
 2840              		.loc 1 397 83 is_stmt 0 view .LVU588
 2841 0d4e 56       		pushq	%rsi
 2842              		.seh_pushreg	%rsi
 2843              		.cfi_def_cfa_offset 16
 2844              		.cfi_offset 4, -16
 2845 0d4f 53       		pushq	%rbx
 2846              		.seh_pushreg	%rbx
 2847              		.cfi_def_cfa_offset 24
 2848              		.cfi_offset 3, -24
 2849 0d50 4883EC48 		subq	$72, %rsp
 2850              		.seh_stackalloc	72
 2851              		.cfi_def_cfa_offset 96
 2852              		.seh_endprologue
 2853 0d54 4889D3   		movq	%rdx, %rbx
 398:C:/Users/victim/source/repos/Paranyok/UEFI\bootmgfw.c ****     InitializeLib(ImageHandle, SystemTable);
 2854              		.loc 1 398 5 is_stmt 1 view .LVU589
 2855 0d57 E8000000 		call	InitializeLib
 2855      00
 2856              	.LVL326:
 399:C:/Users/victim/source/repos/Paranyok/UEFI\bootmgfw.c **** 
 400:C:/Users/victim/source/repos/Paranyok/UEFI\bootmgfw.c ****     // Get screen size (columns and rows)
 401:C:/Users/victim/source/repos/Paranyok/UEFI\bootmgfw.c ****     UINTN Columns, Rows;
 2857              		.loc 1 401 5 view .LVU590
 402:C:/Users/victim/source/repos/Paranyok/UEFI\bootmgfw.c ****     EFI_STATUS Status = uefi_call_wrapper(SystemTable->ConOut->QueryMode, 4, SystemTable->ConOut, S
 2858              		.loc 1 402 5 view .LVU591
 2859              		.loc 1 402 25 is_stmt 0 view .LVU592
 2860 0d5c 488B4340 		movq	64(%rbx), %rax
 2861 0d60 488B5048 		movq	72(%rax), %rdx
 2862 0d64 48635204 		movslq	4(%rdx), %rdx
 2863 0d68 4C8D4C24 		leaq	48(%rsp), %r9
 2863      30
 2864 0d6d 4C8D4424 		leaq	56(%rsp), %r8
 2864      38
 2865 0d72 4889C1   		movq	%rax, %rcx
 2866 0d75 FF5018   		call	*24(%rax)
 2867              	.LVL327:
 2868 0d78 4889C6   		movq	%rax, %rsi
 2869              	.LVL328:
 403:C:/Users/victim/source/repos/Paranyok/UEFI\bootmgfw.c ****     if (EFI_ERROR(Status)) {
 2870              		.loc 1 403 5 is_stmt 1 view .LVU593
 2871              		.loc 1 403 8 is_stmt 0 view .LVU594
 2872 0d7b 4885C0   		testq	%rax, %rax
 2873 0d7e 0F882002 		js	.L114
 2873      0000
 404:C:/Users/victim/source/repos/Paranyok/UEFI\bootmgfw.c ****         Print(L"Unable to query screen size\n");
 405:C:/Users/victim/source/repos/Paranyok/UEFI\bootmgfw.c ****         return Status;
 406:C:/Users/victim/source/repos/Paranyok/UEFI\bootmgfw.c ****     }
 407:C:/Users/victim/source/repos/Paranyok/UEFI\bootmgfw.c **** 
 408:C:/Users/victim/source/repos/Paranyok/UEFI\bootmgfw.c ****     // Effect Duration
 409:C:/Users/victim/source/repos/Paranyok/UEFI\bootmgfw.c ****     UINTN effectDuration = 10000000; // Duration for all effects (in microseconds)
 2874              		.loc 1 409 5 is_stmt 1 view .LVU595
 2875              	.LVL329:
 410:C:/Users/victim/source/repos/Paranyok/UEFI\bootmgfw.c **** 
 411:C:/Users/victim/source/repos/Paranyok/UEFI\bootmgfw.c ****     // Run visual effects with dramatic sound effect simulation
 412:C:/Users/victim/source/repos/Paranyok/UEFI\bootmgfw.c ****     rotating_characters_all_colors(SystemTable);
 2876              		.loc 1 412 5 view .LVU596
 2877 0d84 4889D9   		movq	%rbx, %rcx
 2878 0d87 E8B0F4FF 		call	rotating_characters_all_colors
 2878      FF
 2879              	.LVL330:
 413:C:/Users/victim/source/repos/Paranyok/UEFI\bootmgfw.c ****     dramatic_sound_effects(SystemTable, Columns, Rows, effectDuration);
 2880              		.loc 1 413 5 view .LVU597
 2881 0d8c 41B98096 		movl	$10000000, %r9d
 2881      9800
 2882 0d92 4C8B4424 		movq	48(%rsp), %r8
 2882      30
 2883 0d97 488B5424 		movq	56(%rsp), %rdx
 2883      38
 2884 0d9c 4889D9   		movq	%rbx, %rcx
 2885 0d9f E839FEFF 		call	dramatic_sound_effects
 2885      FF
 2886              	.LVL331:
 414:C:/Users/victim/source/repos/Paranyok/UEFI\bootmgfw.c **** 
 415:C:/Users/victim/source/repos/Paranyok/UEFI\bootmgfw.c ****     complex_blur(SystemTable, L"PARANYOK HERE!", 10, 10);
 2887              		.loc 1 415 5 view .LVU598
 2888 0da4 41B90A00 		movl	$10, %r9d
 2888      0000
 2889 0daa 41B80A00 		movl	$10, %r8d
 2889      0000
 2890 0db0 488D351A 		leaq	.LC17(%rip), %rsi
 2890      010000
 2891              	.LVL332:
 2892              		.loc 1 415 5 is_stmt 0 view .LVU599
 2893 0db7 4889F2   		movq	%rsi, %rdx
 2894 0dba 4889D9   		movq	%rbx, %rcx
 2895 0dbd E843F6FF 		call	complex_blur
 2895      FF
 2896              	.LVL333:
 416:C:/Users/victim/source/repos/Paranyok/UEFI\bootmgfw.c ****     dramatic_sound_effects(SystemTable, Columns, Rows, effectDuration);
 2897              		.loc 1 416 5 is_stmt 1 view .LVU600
 2898 0dc2 41B98096 		movl	$10000000, %r9d
 2898      9800
 2899 0dc8 4C8B4424 		movq	48(%rsp), %r8
 2899      30
 2900 0dcd 488B5424 		movq	56(%rsp), %rdx
 2900      38
 2901 0dd2 4889D9   		movq	%rbx, %rcx
 2902 0dd5 E803FEFF 		call	dramatic_sound_effects
 2902      FF
 2903              	.LVL334:
 417:C:/Users/victim/source/repos/Paranyok/UEFI\bootmgfw.c **** 
 418:C:/Users/victim/source/repos/Paranyok/UEFI\bootmgfw.c ****     pixel_rain(SystemTable, Columns, Rows);
 2904              		.loc 1 418 5 view .LVU601
 2905 0dda 4C8B4424 		movq	48(%rsp), %r8
 2905      30
 2906 0ddf 488B5424 		movq	56(%rsp), %rdx
 2906      38
 2907 0de4 4889D9   		movq	%rbx, %rcx
 2908 0de7 E820F7FF 		call	pixel_rain
 2908      FF
 2909              	.LVL335:
 419:C:/Users/victim/source/repos/Paranyok/UEFI\bootmgfw.c ****     dramatic_sound_effects(SystemTable, Columns, Rows, effectDuration);
 2910              		.loc 1 419 5 view .LVU602
 2911 0dec 41B98096 		movl	$10000000, %r9d
 2911      9800
 2912 0df2 4C8B4424 		movq	48(%rsp), %r8
 2912      30
 2913 0df7 488B5424 		movq	56(%rsp), %rdx
 2913      38
 2914 0dfc 4889D9   		movq	%rbx, %rcx
 2915 0dff E8D9FDFF 		call	dramatic_sound_effects
 2915      FF
 2916              	.LVL336:
 420:C:/Users/victim/source/repos/Paranyok/UEFI\bootmgfw.c **** 
 421:C:/Users/victim/source/repos/Paranyok/UEFI\bootmgfw.c ****     wave_animation(SystemTable, L"PARANYOK HERE!", 0, 10, 2);
 2917              		.loc 1 421 5 view .LVU603
 2918 0e04 48C74424 		movq	$2, 32(%rsp)
 2918      20020000 
 2918      00
 2919 0e0d 41B90A00 		movl	$10, %r9d
 2919      0000
 2920 0e13 41B80000 		movl	$0, %r8d
 2920      0000
 2921 0e19 4889F2   		movq	%rsi, %rdx
 2922 0e1c 4889D9   		movq	%rbx, %rcx
 2923 0e1f E877F7FF 		call	wave_animation
 2923      FF
 2924              	.LVL337:
 422:C:/Users/victim/source/repos/Paranyok/UEFI\bootmgfw.c ****     dramatic_sound_effects(SystemTable, Columns, Rows, effectDuration);
 2925              		.loc 1 422 5 view .LVU604
 2926 0e24 41B98096 		movl	$10000000, %r9d
 2926      9800
 2927 0e2a 4C8B4424 		movq	48(%rsp), %r8
 2927      30
 2928 0e2f 488B5424 		movq	56(%rsp), %rdx
 2928      38
 2929 0e34 4889D9   		movq	%rbx, %rcx
 2930 0e37 E8A1FDFF 		call	dramatic_sound_effects
 2930      FF
 2931              	.LVL338:
 423:C:/Users/victim/source/repos/Paranyok/UEFI\bootmgfw.c **** 
 424:C:/Users/victim/source/repos/Paranyok/UEFI\bootmgfw.c ****     text_explosion(SystemTable, L"PARANYOK HERE!", Columns / 2, Rows / 2);
 2932              		.loc 1 424 5 view .LVU605
 2933 0e3c 4C8B4C24 		movq	48(%rsp), %r9
 2933      30
 2934 0e41 49D1E9   		shrq	%r9
 2935 0e44 4C8B4424 		movq	56(%rsp), %r8
 2935      38
 2936 0e49 49D1E8   		shrq	%r8
 2937 0e4c 4889F2   		movq	%rsi, %rdx
 2938 0e4f 4889D9   		movq	%rbx, %rcx
 2939 0e52 E813F8FF 		call	text_explosion
 2939      FF
 2940              	.LVL339:
 425:C:/Users/victim/source/repos/Paranyok/UEFI\bootmgfw.c ****     dramatic_sound_effects(SystemTable, Columns, Rows, effectDuration);
 2941              		.loc 1 425 5 view .LVU606
 2942 0e57 41B98096 		movl	$10000000, %r9d
 2942      9800
 2943 0e5d 4C8B4424 		movq	48(%rsp), %r8
 2943      30
 2944 0e62 488B5424 		movq	56(%rsp), %rdx
 2944      38
 2945 0e67 4889D9   		movq	%rbx, %rcx
 2946 0e6a E86EFDFF 		call	dramatic_sound_effects
 2946      FF
 2947              	.LVL340:
 426:C:/Users/victim/source/repos/Paranyok/UEFI\bootmgfw.c **** 
 427:C:/Users/victim/source/repos/Paranyok/UEFI\bootmgfw.c ****     fading_text(SystemTable, L"PARANYOK HERE!", 5, 5);
 2948              		.loc 1 427 5 view .LVU607
 2949 0e6f 41B90500 		movl	$5, %r9d
 2949      0000
 2950 0e75 41B80500 		movl	$5, %r8d
 2950      0000
 2951 0e7b 4889F2   		movq	%rsi, %rdx
 2952 0e7e 4889D9   		movq	%rbx, %rcx
 2953 0e81 E88FF8FF 		call	fading_text
 2953      FF
 2954              	.LVL341:
 428:C:/Users/victim/source/repos/Paranyok/UEFI\bootmgfw.c ****     dramatic_sound_effects(SystemTable, Columns, Rows, effectDuration);
 2955              		.loc 1 428 5 view .LVU608
 2956 0e86 41B98096 		movl	$10000000, %r9d
 2956      9800
 2957 0e8c 4C8B4424 		movq	48(%rsp), %r8
 2957      30
 2958 0e91 488B5424 		movq	56(%rsp), %rdx
 2958      38
 2959 0e96 4889D9   		movq	%rbx, %rcx
 2960 0e99 E83FFDFF 		call	dramatic_sound_effects
 2960      FF
 2961              	.LVL342:
 429:C:/Users/victim/source/repos/Paranyok/UEFI\bootmgfw.c **** 
 430:C:/Users/victim/source/repos/Paranyok/UEFI\bootmgfw.c ****     grid_animation(SystemTable, Columns, Rows);
 2962              		.loc 1 430 5 view .LVU609
 2963 0e9e 4C8B4424 		movq	48(%rsp), %r8
 2963      30
 2964 0ea3 488B5424 		movq	56(%rsp), %rdx
 2964      38
 2965 0ea8 4889D9   		movq	%rbx, %rcx
 2966 0eab E8D5F8FF 		call	grid_animation
 2966      FF
 2967              	.LVL343:
 431:C:/Users/victim/source/repos/Paranyok/UEFI\bootmgfw.c ****     dramatic_sound_effects(SystemTable, Columns, Rows, effectDuration);
 2968              		.loc 1 431 5 view .LVU610
 2969 0eb0 41B98096 		movl	$10000000, %r9d
 2969      9800
 2970 0eb6 4C8B4424 		movq	48(%rsp), %r8
 2970      30
 2971 0ebb 488B5424 		movq	56(%rsp), %rdx
 2971      38
 2972 0ec0 4889D9   		movq	%rbx, %rcx
 2973 0ec3 E815FDFF 		call	dramatic_sound_effects
 2973      FF
 2974              	.LVL344:
 432:C:/Users/victim/source/repos/Paranyok/UEFI\bootmgfw.c **** 
 433:C:/Users/victim/source/repos/Paranyok/UEFI\bootmgfw.c ****     matrix_text_fall(SystemTable, Columns, Rows);
 2975              		.loc 1 433 5 view .LVU611
 2976 0ec8 4C8B4424 		movq	48(%rsp), %r8
 2976      30
 2977 0ecd 488B5424 		movq	56(%rsp), %rdx
 2977      38
 2978 0ed2 4889D9   		movq	%rbx, %rcx
 2979 0ed5 E837F9FF 		call	matrix_text_fall
 2979      FF
 2980              	.LVL345:
 434:C:/Users/victim/source/repos/Paranyok/UEFI\bootmgfw.c ****     dramatic_sound_effects(SystemTable, Columns, Rows, effectDuration);
 2981              		.loc 1 434 5 view .LVU612
 2982 0eda 41B98096 		movl	$10000000, %r9d
 2982      9800
 2983 0ee0 4C8B4424 		movq	48(%rsp), %r8
 2983      30
 2984 0ee5 488B5424 		movq	56(%rsp), %rdx
 2984      38
 2985 0eea 4889D9   		movq	%rbx, %rcx
 2986 0eed E8EBFCFF 		call	dramatic_sound_effects
 2986      FF
 2987              	.LVL346:
 435:C:/Users/victim/source/repos/Paranyok/UEFI\bootmgfw.c **** 
 436:C:/Users/victim/source/repos/Paranyok/UEFI\bootmgfw.c ****     color_shifting(SystemTable);
 2988              		.loc 1 436 5 view .LVU613
 2989 0ef2 4889D9   		movq	%rbx, %rcx
 2990 0ef5 E8D6F9FF 		call	color_shifting
 2990      FF
 2991              	.LVL347:
 437:C:/Users/victim/source/repos/Paranyok/UEFI\bootmgfw.c ****     dramatic_sound_effects(SystemTable, Columns, Rows, effectDuration);
 2992              		.loc 1 437 5 view .LVU614
 2993 0efa 41B98096 		movl	$10000000, %r9d
 2993      9800
 2994 0f00 4C8B4424 		movq	48(%rsp), %r8
 2994      30
 2995 0f05 488B5424 		movq	56(%rsp), %rdx
 2995      38
 2996 0f0a 4889D9   		movq	%rbx, %rcx
 2997 0f0d E8CBFCFF 		call	dramatic_sound_effects
 2997      FF
 2998              	.LVL348:
 438:C:/Users/victim/source/repos/Paranyok/UEFI\bootmgfw.c **** 
 439:C:/Users/victim/source/repos/Paranyok/UEFI\bootmgfw.c ****     flickering_text(SystemTable, L"PARANYOK HERE!", 20, 10);
 2999              		.loc 1 439 5 view .LVU615
 3000 0f12 41B90A00 		movl	$10, %r9d
 3000      0000
 3001 0f18 41B81400 		movl	$20, %r8d
 3001      0000
 3002 0f1e 4889F2   		movq	%rsi, %rdx
 3003 0f21 4889D9   		movq	%rbx, %rcx
 3004 0f24 E805FAFF 		call	flickering_text
 3004      FF
 3005              	.LVL349:
 440:C:/Users/victim/source/repos/Paranyok/UEFI\bootmgfw.c ****     dramatic_sound_effects(SystemTable, Columns, Rows, effectDuration);
 3006              		.loc 1 440 5 view .LVU616
 3007 0f29 41B98096 		movl	$10000000, %r9d
 3007      9800
 3008 0f2f 4C8B4424 		movq	48(%rsp), %r8
 3008      30
 3009 0f34 488B5424 		movq	56(%rsp), %rdx
 3009      38
 3010 0f39 4889D9   		movq	%rbx, %rcx
 3011 0f3c E89CFCFF 		call	dramatic_sound_effects
 3011      FF
 3012              	.LVL350:
 441:C:/Users/victim/source/repos/Paranyok/UEFI\bootmgfw.c **** 
 442:C:/Users/victim/source/repos/Paranyok/UEFI\bootmgfw.c ****     flashing_borders(SystemTable, Columns, Rows);
 3013              		.loc 1 442 5 view .LVU617
 3014 0f41 4C8B4424 		movq	48(%rsp), %r8
 3014      30
 3015 0f46 488B5424 		movq	56(%rsp), %rdx
 3015      38
 3016 0f4b 4889D9   		movq	%rbx, %rcx
 3017 0f4e E855FAFF 		call	flashing_borders
 3017      FF
 3018              	.LVL351:
 443:C:/Users/victim/source/repos/Paranyok/UEFI\bootmgfw.c ****     dramatic_sound_effects(SystemTable, Columns, Rows, effectDuration);
 3019              		.loc 1 443 5 view .LVU618
 3020 0f53 41B98096 		movl	$10000000, %r9d
 3020      9800
 3021 0f59 4C8B4424 		movq	48(%rsp), %r8
 3021      30
 3022 0f5e 488B5424 		movq	56(%rsp), %rdx
 3022      38
 3023 0f63 4889D9   		movq	%rbx, %rcx
 3024 0f66 E872FCFF 		call	dramatic_sound_effects
 3024      FF
 3025              	.LVL352:
 444:C:/Users/victim/source/repos/Paranyok/UEFI\bootmgfw.c **** 
 445:C:/Users/victim/source/repos/Paranyok/UEFI\bootmgfw.c ****     random_patterns_symbols(SystemTable, Columns, Rows);
 3026              		.loc 1 445 5 view .LVU619
 3027 0f6b 4C8B4424 		movq	48(%rsp), %r8
 3027      30
 3028 0f70 488B5424 		movq	56(%rsp), %rdx
 3028      38
 3029 0f75 4889D9   		movq	%rbx, %rcx
 3030 0f78 E821FBFF 		call	random_patterns_symbols
 3030      FF
 3031              	.LVL353:
 446:C:/Users/victim/source/repos/Paranyok/UEFI\bootmgfw.c ****     dramatic_sound_effects(SystemTable, Columns, Rows, effectDuration);
 3032              		.loc 1 446 5 view .LVU620
 3033 0f7d 41B98096 		movl	$10000000, %r9d
 3033      9800
 3034 0f83 4C8B4424 		movq	48(%rsp), %r8
 3034      30
 3035 0f88 488B5424 		movq	56(%rsp), %rdx
 3035      38
 3036 0f8d 4889D9   		movq	%rbx, %rcx
 3037 0f90 E848FCFF 		call	dramatic_sound_effects
 3037      FF
 3038              	.LVL354:
 447:C:/Users/victim/source/repos/Paranyok/UEFI\bootmgfw.c **** 
 448:C:/Users/victim/source/repos/Paranyok/UEFI\bootmgfw.c ****     return EFI_SUCCESS;
 3039              		.loc 1 448 5 view .LVU621
 3040              		.loc 1 448 12 is_stmt 0 view .LVU622
 3041 0f95 BE000000 		movl	$0, %esi
 3041      00
 3042              	.LVL355:
 3043              	.L111:
 449:C:/Users/victim/source/repos/Paranyok/UEFI\bootmgfw.c **** }
 3044              		.loc 1 449 1 view .LVU623
 3045 0f9a 4889F0   		movq	%rsi, %rax
 3046 0f9d 4883C448 		addq	$72, %rsp
 3047              		.cfi_remember_state
 3048              		.cfi_def_cfa_offset 24
 3049 0fa1 5B       		popq	%rbx
 3050              		.cfi_restore 3
 3051              		.cfi_def_cfa_offset 16
 3052              	.LVL356:
 3053              		.loc 1 449 1 view .LVU624
 3054 0fa2 5E       		popq	%rsi
 3055              		.cfi_restore 4
 3056              		.cfi_def_cfa_offset 8
 3057 0fa3 C3       		ret
 3058              	.LVL357:
 3059              	.L114:
 3060              		.cfi_restore_state
 404:C:/Users/victim/source/repos/Paranyok/UEFI\bootmgfw.c ****         return Status;
 3061              		.loc 1 404 9 is_stmt 1 view .LVU625
 3062 0fa4 488D0DE0 		leaq	.LC16(%rip), %rcx
 3062      000000
 3063 0fab E8000000 		call	Print
 3063      00
 3064              	.LVL358:
 405:C:/Users/victim/source/repos/Paranyok/UEFI\bootmgfw.c ****     }
 3065              		.loc 1 405 9 view .LVU626
 405:C:/Users/victim/source/repos/Paranyok/UEFI\bootmgfw.c ****     }
 3066              		.loc 1 405 16 is_stmt 0 view .LVU627
 3067 0fb0 EBE8     		jmp	.L111
 3068              		.cfi_endproc
 3069              	.LFE23:
 3070              		.seh_endproc
 3071              		.data
 3072              		.align 4
 3073              	seed:
 3074 0000 39300000 		.long	12345
 3075 0004 00000000 		.section .rdata,"dr"
 3075      00000000 
 3075      00000000 
 3076 0138 00000000 		.align 16
 3076      00000000 
 3077              	.LC1:
 3078 0140 00000000 		.long	0
 3079 0144 00000080 		.long	-2147483648
 3080 0148 00000000 		.long	0
 3081 014c 00000000 		.long	0
 3082              		.align 8
 3083              	.LC2:
 3084 0150 182D4454 		.long	1413754136
 3085 0154 FB210940 		.long	1074340347
 3086              		.align 8
 3087              	.LC3:
 3088 0158 00000000 		.long	0
 3089 015c 00806640 		.long	1080459264
 3090              		.align 8
 3091              	.LC4:
 3092 0160 BBBDD7D9 		.long	-640172613
 3093 0164 DF7CDB3D 		.long	1037794527
 3094              		.align 8
 3095              	.LC5:
 3096 0168 00000000 		.long	0
 3097 016c 00002440 		.long	1076101120
 3098              		.text
 3099              	.Letext0:
 3100              		.file 2 "C:/Users/victim/source/repos/Paranyok/UEFI/Backend/mingw64/lib/gcc/x86_64-w64-mingw32/14.
 3101              		.file 3 "C:/Users/victim/source/repos/Paranyok/UEFI/Backend/mingw64/include/corecrt.h"
 3102              		.file 4 "gnu-efi-3.0.18/inc/x86_64/efibind.h"
 3103              		.file 5 "gnu-efi-3.0.18/inc/efidef.h"
 3104              		.file 6 "gnu-efi-3.0.18/inc/efidevp.h"
 3105              		.file 7 "gnu-efi-3.0.18/inc/efiprot.h"
 3106              		.file 8 "gnu-efi-3.0.18/inc/efiapi.h"
 3107              		.file 9 "gnu-efi-3.0.18/inc/eficon.h"
 3108              		.file 10 "gnu-efi-3.0.18/inc/efilib.h"
 3109 0fb2 90909090 		.section	.debug_info,"dr"
 3109      90909090 
 3109      90909090 
 3109      9090
 3110              	.Ldebug_info0:
 3111 0000 EA430000 		.long	0x43ea
 3112 0004 0500     		.word	0x5
 3113 0006 01       		.byte	0x1
 3114 0007 08       		.byte	0x8
 3115 0008 00000000 		.secrel32	.Ldebug_abbrev0
 3116 000c 36       		.uleb128 0x36
 3117 000d 474E5520 		.ascii "GNU C11 14.2.0 -mno-stack-arg-probe -m64 -mno-red-zone -maccumulate-outgoing-args -mtune=g
 3117      43313120 
 3117      31342E32 
 3117      2E30202D 
 3117      6D6E6F2D 
 3118 0111 1D       		.byte	0x1d
 3119 0112 00000000 		.secrel32	.LASF0
 3120 0116 36000000 		.secrel32	.LASF1
 3121 011a 00000000 		.quad	.Ltext0
 3121      00000000 
 3122 0122 B20F0000 		.quad	.Letext0-.Ltext0
 3122      00000000 
 3123 012a 00000000 		.secrel32	.Ldebug_line0
 3124 012e 00000000 		.secrel32	.Ldebug_macro0
 3125 0132 14       		.uleb128 0x14
 3126 0133 08       		.byte	0x8
 3127 0134 04       		.byte	0x4
 3128 0135 646F7562 		.ascii "double\0"
 3128      6C6500
 3129 013c 14       		.uleb128 0x14
 3130 013d 08       		.byte	0x8
 3131 013e 07       		.byte	0x7
 3132 013f 6C6F6E67 		.ascii "long long unsigned int\0"
 3132      206C6F6E 
 3132      6720756E 
 3132      7369676E 
 3132      65642069 
 3133 0156 14       		.uleb128 0x14
 3134 0157 01       		.byte	0x1
 3135 0158 06       		.byte	0x6
 3136 0159 7369676E 		.ascii "signed char\0"
 3136      65642063 
 3136      68617200 
 3137 0165 05       		.uleb128 0x5
 3138 0166 696E7431 		.ascii "int16_t\0"
 3138      365F7400 
 3139 016e 02       		.byte	0x2
 3140 016f 25       		.byte	0x25
 3141 0170 18       		.byte	0x18
 3142 0171 75010000 		.long	0x175
 3143 0175 14       		.uleb128 0x14
 3144 0176 02       		.byte	0x2
 3145 0177 05       		.byte	0x5
 3146 0178 73686F72 		.ascii "short int\0"
 3146      7420696E 
 3146      7400
 3147 0182 05       		.uleb128 0x5
 3148 0183 696E7433 		.ascii "int32_t\0"
 3148      325F7400 
 3149 018b 02       		.byte	0x2
 3150 018c 28       		.byte	0x28
 3151 018d 18       		.byte	0x18
 3152 018e 92010000 		.long	0x192
 3153 0192 14       		.uleb128 0x14
 3154 0193 04       		.byte	0x4
 3155 0194 05       		.byte	0x5
 3156 0195 696E7400 		.ascii "int\0"
 3157 0199 05       		.uleb128 0x5
 3158 019a 696E7436 		.ascii "int64_t\0"
 3158      345F7400 
 3159 01a2 02       		.byte	0x2
 3160 01a3 2B       		.byte	0x2b
 3161 01a4 18       		.byte	0x18
 3162 01a5 A9010000 		.long	0x1a9
 3163 01a9 14       		.uleb128 0x14
 3164 01aa 08       		.byte	0x8
 3165 01ab 05       		.byte	0x5
 3166 01ac 6C6F6E67 		.ascii "long long int\0"
 3166      206C6F6E 
 3166      6720696E 
 3166      7400
 3167 01ba 05       		.uleb128 0x5
 3168 01bb 75696E74 		.ascii "uint8_t\0"
 3168      385F7400 
 3169 01c3 02       		.byte	0x2
 3170 01c4 2E       		.byte	0x2e
 3171 01c5 18       		.byte	0x18
 3172 01c6 CA010000 		.long	0x1ca
 3173 01ca 14       		.uleb128 0x14
 3174 01cb 01       		.byte	0x1
 3175 01cc 08       		.byte	0x8
 3176 01cd 756E7369 		.ascii "unsigned char\0"
 3176      676E6564 
 3176      20636861 
 3176      7200
 3177 01db 05       		.uleb128 0x5
 3178 01dc 75696E74 		.ascii "uint16_t\0"
 3178      31365F74 
 3178      00
 3179 01e5 02       		.byte	0x2
 3180 01e6 31       		.byte	0x31
 3181 01e7 19       		.byte	0x19
 3182 01e8 EC010000 		.long	0x1ec
 3183 01ec 14       		.uleb128 0x14
 3184 01ed 02       		.byte	0x2
 3185 01ee 07       		.byte	0x7
 3186 01ef 73686F72 		.ascii "short unsigned int\0"
 3186      7420756E 
 3186      7369676E 
 3186      65642069 
 3186      6E7400
 3187 0202 05       		.uleb128 0x5
 3188 0203 75696E74 		.ascii "uint32_t\0"
 3188      33325F74 
 3188      00
 3189 020c 02       		.byte	0x2
 3190 020d 34       		.byte	0x34
 3191 020e 19       		.byte	0x19
 3192 020f 13020000 		.long	0x213
 3193 0213 14       		.uleb128 0x14
 3194 0214 04       		.byte	0x4
 3195 0215 07       		.byte	0x7
 3196 0216 756E7369 		.ascii "unsigned int\0"
 3196      676E6564 
 3196      20696E74 
 3196      00
 3197 0223 05       		.uleb128 0x5
 3198 0224 75696E74 		.ascii "uint64_t\0"
 3198      36345F74 
 3198      00
 3199 022d 02       		.byte	0x2
 3200 022e 37       		.byte	0x37
 3201 022f 19       		.byte	0x19
 3202 0230 3C010000 		.long	0x13c
 3203 0234 14       		.uleb128 0x14
 3204 0235 01       		.byte	0x1
 3205 0236 06       		.byte	0x6
 3206 0237 63686172 		.ascii "char\0"
 3206      00
 3207 023c 05       		.uleb128 0x5
 3208 023d 77636861 		.ascii "wchar_t\0"
 3208      725F7400 
 3209 0245 03       		.byte	0x3
 3210 0246 62       		.byte	0x62
 3211 0247 18       		.byte	0x18
 3212 0248 EC010000 		.long	0x1ec
 3213 024c 14       		.uleb128 0x14
 3214 024d 04       		.byte	0x4
 3215 024e 05       		.byte	0x5
 3216 024f 6C6F6E67 		.ascii "long int\0"
 3216      20696E74 
 3216      00
 3217 0258 14       		.uleb128 0x14
 3218 0259 04       		.byte	0x4
 3219 025a 07       		.byte	0x7
 3220 025b 6C6F6E67 		.ascii "long unsigned int\0"
 3220      20756E73 
 3220      69676E65 
 3220      6420696E 
 3220      7400
 3221 026d 14       		.uleb128 0x14
 3222 026e 10       		.byte	0x10
 3223 026f 04       		.byte	0x4
 3224 0270 6C6F6E67 		.ascii "long double\0"
 3224      20646F75 
 3224      626C6500 
 3225 027c 05       		.uleb128 0x5
 3226 027d 43484152 		.ascii "CHAR16\0"
 3226      313600
 3227 0284 04       		.byte	0x4
 3228 0285 65       		.byte	0x65
 3229 0286 11       		.byte	0x11
 3230 0287 3C020000 		.long	0x23c
 3231 028b 25       		.uleb128 0x25
 3232 028c 7C020000 		.long	0x27c
 3233 0290 05       		.uleb128 0x5
 3234 0291 55494E54 		.ascii "UINT64\0"
 3234      363400
 3235 0298 04       		.byte	0x4
 3236 0299 68       		.byte	0x68
 3237 029a 14       		.byte	0x14
 3238 029b 23020000 		.long	0x223
 3239 029f 05       		.uleb128 0x5
 3240 02a0 55494E54 		.ascii "UINT32\0"
 3240      333200
 3241 02a7 04       		.byte	0x4
 3242 02a8 6C       		.byte	0x6c
 3243 02a9 18       		.byte	0x18
 3244 02aa 02020000 		.long	0x202
 3245 02ae 05       		.uleb128 0x5
 3246 02af 494E5433 		.ascii "INT32\0"
 3246      3200
 3247 02b5 04       		.byte	0x4
 3248 02b6 6D       		.byte	0x6d
 3249 02b7 18       		.byte	0x18
 3250 02b8 82010000 		.long	0x182
 3251 02bc 05       		.uleb128 0x5
 3252 02bd 55494E54 		.ascii "UINT16\0"
 3252      313600
 3253 02c4 04       		.byte	0x4
 3254 02c5 70       		.byte	0x70
 3255 02c6 14       		.byte	0x14
 3256 02c7 DB010000 		.long	0x1db
 3257 02cb 05       		.uleb128 0x5
 3258 02cc 494E5431 		.ascii "INT16\0"
 3258      3600
 3259 02d2 04       		.byte	0x4
 3260 02d3 71       		.byte	0x71
 3261 02d4 14       		.byte	0x14
 3262 02d5 65010000 		.long	0x165
 3263 02d9 05       		.uleb128 0x5
 3264 02da 55494E54 		.ascii "UINT8\0"
 3264      3800
 3265 02e0 04       		.byte	0x4
 3266 02e1 73       		.byte	0x73
 3267 02e2 14       		.byte	0x14
 3268 02e3 BA010000 		.long	0x1ba
 3269 02e7 37       		.uleb128 0x37
 3270 02e8 564F4944 		.ascii "VOID\0"
 3270      00
 3271 02ed 04       		.byte	0x4
 3272 02ee 78       		.byte	0x78
 3273 02ef 14       		.byte	0x14
 3274 02f0 25       		.uleb128 0x25
 3275 02f1 E7020000 		.long	0x2e7
 3276 02f5 05       		.uleb128 0x5
 3277 02f6 494E544E 		.ascii "INTN\0"
 3277      00
 3278 02fb 04       		.byte	0x4
 3279 02fc 7B       		.byte	0x7b
 3280 02fd 14       		.byte	0x14
 3281 02fe 99010000 		.long	0x199
 3282 0302 05       		.uleb128 0x5
 3283 0303 55494E54 		.ascii "UINTN\0"
 3283      4E00
 3284 0309 04       		.byte	0x4
 3285 030a 7C       		.byte	0x7c
 3286 030b 14       		.byte	0x14
 3287 030c 23020000 		.long	0x223
 3288 0310 38       		.uleb128 0x38
 3289 0311 02030000 		.long	0x302
 3290 0315 05       		.uleb128 0x5
 3291 0316 424F4F4C 		.ascii "BOOLEAN\0"
 3291      45414E00 
 3292 031e 05       		.byte	0x5
 3293 031f 19       		.byte	0x19
 3294 0320 0F       		.byte	0xf
 3295 0321 25030000 		.long	0x325
 3296 0325 14       		.uleb128 0x14
 3297 0326 01       		.byte	0x1
 3298 0327 02       		.byte	0x2
 3299 0328 5F426F6F 		.ascii "_Bool\0"
 3299      6C00
 3300 032e 05       		.uleb128 0x5
 3301 032f 4546495F 		.ascii "EFI_STATUS\0"
 3301      53544154 
 3301      555300
 3302 033a 05       		.byte	0x5
 3303 033b 3A       		.byte	0x3a
 3304 033c 19       		.byte	0x19
 3305 033d 02030000 		.long	0x302
 3306 0341 05       		.uleb128 0x5
 3307 0342 4546495F 		.ascii "EFI_TPL\0"
 3307      54504C00 
 3308 034a 05       		.byte	0x5
 3309 034b 3C       		.byte	0x3c
 3310 034c 19       		.byte	0x19
 3311 034d 02030000 		.long	0x302
 3312 0351 05       		.uleb128 0x5
 3313 0352 4546495F 		.ascii "EFI_HANDLE\0"
 3313      48414E44 
 3313      4C4500
 3314 035d 05       		.byte	0x5
 3315 035e 3D       		.byte	0x3d
 3316 035f 1A       		.byte	0x1a
 3317 0360 64030000 		.long	0x364
 3318 0364 03       		.uleb128 0x3
 3319 0365 E7020000 		.long	0x2e7
 3320 0369 05       		.uleb128 0x5
 3321 036a 4546495F 		.ascii "EFI_EVENT\0"
 3321      4556454E 
 3321      5400
 3322 0374 05       		.byte	0x5
 3323 0375 3E       		.byte	0x3e
 3324 0376 1A       		.byte	0x1a
 3325 0377 64030000 		.long	0x364
 3326 037b 1B       		.uleb128 0x1b
 3327 037c 10       		.byte	0x10
 3328 037d 05       		.byte	0x5
 3329 037e 55       		.byte	0x55
 3330 037f C0030000 		.long	0x3c0
 3331 0383 09       		.uleb128 0x9
 3332 0384 44617461 		.ascii "Data1\0"
 3332      3100
 3333 038a 05       		.byte	0x5
 3334 038b 56       		.byte	0x56
 3335 038c 0D       		.byte	0xd
 3336 038d 9F020000 		.long	0x29f
 3337 0391 00       		.byte	0
 3338 0392 09       		.uleb128 0x9
 3339 0393 44617461 		.ascii "Data2\0"
 3339      3200
 3340 0399 05       		.byte	0x5
 3341 039a 57       		.byte	0x57
 3342 039b 0D       		.byte	0xd
 3343 039c BC020000 		.long	0x2bc
 3344 03a0 04       		.byte	0x4
 3345 03a1 09       		.uleb128 0x9
 3346 03a2 44617461 		.ascii "Data3\0"
 3346      3300
 3347 03a8 05       		.byte	0x5
 3348 03a9 58       		.byte	0x58
 3349 03aa 0D       		.byte	0xd
 3350 03ab BC020000 		.long	0x2bc
 3351 03af 06       		.byte	0x6
 3352 03b0 09       		.uleb128 0x9
 3353 03b1 44617461 		.ascii "Data4\0"
 3353      3400
 3354 03b7 05       		.byte	0x5
 3355 03b8 59       		.byte	0x59
 3356 03b9 0D       		.byte	0xd
 3357 03ba C0030000 		.long	0x3c0
 3358 03be 08       		.byte	0x8
 3359 03bf 00       		.byte	0
 3360 03c0 1D       		.uleb128 0x1d
 3361 03c1 D9020000 		.long	0x2d9
 3362 03c5 D0030000 		.long	0x3d0
 3363 03c9 1E       		.uleb128 0x1e
 3364 03ca 3C010000 		.long	0x13c
 3365 03ce 07       		.byte	0x7
 3366 03cf 00       		.byte	0
 3367 03d0 05       		.uleb128 0x5
 3368 03d1 4546495F 		.ascii "EFI_GUID\0"
 3368      47554944 
 3368      00
 3369 03da 05       		.byte	0x5
 3370 03db 5A       		.byte	0x5a
 3371 03dc 03       		.byte	0x3
 3372 03dd 7B030000 		.long	0x37b
 3373 03e1 25       		.uleb128 0x25
 3374 03e2 D0030000 		.long	0x3d0
 3375 03e6 1B       		.uleb128 0x1b
 3376 03e7 10       		.byte	0x10
 3377 03e8 05       		.byte	0x5
 3378 03e9 61       		.byte	0x61
 3379 03ea 9B040000 		.long	0x49b
 3380 03ee 09       		.uleb128 0x9
 3381 03ef 59656172 		.ascii "Year\0"
 3381      00
 3382 03f4 05       		.byte	0x5
 3383 03f5 62       		.byte	0x62
 3384 03f6 11       		.byte	0x11
 3385 03f7 BC020000 		.long	0x2bc
 3386 03fb 00       		.byte	0
 3387 03fc 09       		.uleb128 0x9
 3388 03fd 4D6F6E74 		.ascii "Month\0"
 3388      6800
 3389 0403 05       		.byte	0x5
 3390 0404 63       		.byte	0x63
 3391 0405 11       		.byte	0x11
 3392 0406 D9020000 		.long	0x2d9
 3393 040a 02       		.byte	0x2
 3394 040b 09       		.uleb128 0x9
 3395 040c 44617900 		.ascii "Day\0"
 3396 0410 05       		.byte	0x5
 3397 0411 64       		.byte	0x64
 3398 0412 11       		.byte	0x11
 3399 0413 D9020000 		.long	0x2d9
 3400 0417 03       		.byte	0x3
 3401 0418 09       		.uleb128 0x9
 3402 0419 486F7572 		.ascii "Hour\0"
 3402      00
 3403 041e 05       		.byte	0x5
 3404 041f 65       		.byte	0x65
 3405 0420 11       		.byte	0x11
 3406 0421 D9020000 		.long	0x2d9
 3407 0425 04       		.byte	0x4
 3408 0426 09       		.uleb128 0x9
 3409 0427 4D696E75 		.ascii "Minute\0"
 3409      746500
 3410 042e 05       		.byte	0x5
 3411 042f 66       		.byte	0x66
 3412 0430 11       		.byte	0x11
 3413 0431 D9020000 		.long	0x2d9
 3414 0435 05       		.byte	0x5
 3415 0436 09       		.uleb128 0x9
 3416 0437 5365636F 		.ascii "Second\0"
 3416      6E6400
 3417 043e 05       		.byte	0x5
 3418 043f 67       		.byte	0x67
 3419 0440 11       		.byte	0x11
 3420 0441 D9020000 		.long	0x2d9
 3421 0445 06       		.byte	0x6
 3422 0446 09       		.uleb128 0x9
 3423 0447 50616431 		.ascii "Pad1\0"
 3423      00
 3424 044c 05       		.byte	0x5
 3425 044d 68       		.byte	0x68
 3426 044e 11       		.byte	0x11
 3427 044f D9020000 		.long	0x2d9
 3428 0453 07       		.byte	0x7
 3429 0454 09       		.uleb128 0x9
 3430 0455 4E616E6F 		.ascii "Nanosecond\0"
 3430      7365636F 
 3430      6E6400
 3431 0460 05       		.byte	0x5
 3432 0461 69       		.byte	0x69
 3433 0462 11       		.byte	0x11
 3434 0463 9F020000 		.long	0x29f
 3435 0467 08       		.byte	0x8
 3436 0468 09       		.uleb128 0x9
 3437 0469 54696D65 		.ascii "TimeZone\0"
 3437      5A6F6E65 
 3437      00
 3438 0472 05       		.byte	0x5
 3439 0473 6A       		.byte	0x6a
 3440 0474 11       		.byte	0x11
 3441 0475 CB020000 		.long	0x2cb
 3442 0479 0C       		.byte	0xc
 3443 047a 09       		.uleb128 0x9
 3444 047b 4461796C 		.ascii "Daylight\0"
 3444      69676874 
 3444      00
 3445 0484 05       		.byte	0x5
 3446 0485 6B       		.byte	0x6b
 3447 0486 11       		.byte	0x11
 3448 0487 D9020000 		.long	0x2d9
 3449 048b 0E       		.byte	0xe
 3450 048c 09       		.uleb128 0x9
 3451 048d 50616432 		.ascii "Pad2\0"
 3451      00
 3452 0492 05       		.byte	0x5
 3453 0493 6C       		.byte	0x6c
 3454 0494 11       		.byte	0x11
 3455 0495 D9020000 		.long	0x2d9
 3456 0499 0F       		.byte	0xf
 3457 049a 00       		.byte	0
 3458 049b 05       		.uleb128 0x5
 3459 049c 4546495F 		.ascii "EFI_TIME\0"
 3459      54494D45 
 3459      00
 3460 04a5 05       		.byte	0x5
 3461 04a6 6D       		.byte	0x6d
 3462 04a7 03       		.byte	0x3
 3463 04a8 E6030000 		.long	0x3e6
 3464 04ac 05       		.uleb128 0x5
 3465 04ad 4546495F 		.ascii "EFI_PHYSICAL_ADDRESS\0"
 3465      50485953 
 3465      4943414C 
 3465      5F414444 
 3465      52455353 
 3466 04c2 05       		.byte	0x5
 3467 04c3 99       		.byte	0x99
 3468 04c4 19       		.byte	0x19
 3469 04c5 90020000 		.long	0x290
 3470 04c9 05       		.uleb128 0x5
 3471 04ca 4546495F 		.ascii "EFI_VIRTUAL_ADDRESS\0"
 3471      56495254 
 3471      55414C5F 
 3471      41444452 
 3471      45535300 
 3472 04de 05       		.byte	0x5
 3473 04df 9A       		.byte	0x9a
 3474 04e0 19       		.byte	0x19
 3475 04e1 90020000 		.long	0x290
 3476 04e5 26       		.uleb128 0x26
 3477 04e6 13020000 		.long	0x213
 3478 04ea 05       		.byte	0x5
 3479 04eb 9C       		.byte	0x9c
 3480 04ec 3D050000 		.long	0x53d
 3481 04f0 0A       		.uleb128 0xa
 3482 04f1 416C6C6F 		.ascii "AllocateAnyPages\0"
 3482      63617465 
 3482      416E7950 
 3482      61676573 
 3482      00
 3483 0502 00       		.byte	0
 3484 0503 0A       		.uleb128 0xa
 3485 0504 416C6C6F 		.ascii "AllocateMaxAddress\0"
 3485      63617465 
 3485      4D617841 
 3485      64647265 
 3485      737300
 3486 0517 01       		.byte	0x1
 3487 0518 0A       		.uleb128 0xa
 3488 0519 416C6C6F 		.ascii "AllocateAddress\0"
 3488      63617465 
 3488      41646472 
 3488      65737300 
 3489 0529 02       		.byte	0x2
 3490 052a 0A       		.uleb128 0xa
 3491 052b 4D617841 		.ascii "MaxAllocateType\0"
 3491      6C6C6F63 
 3491      61746554 
 3491      79706500 
 3492 053b 03       		.byte	0x3
 3493 053c 00       		.byte	0
 3494 053d 05       		.uleb128 0x5
 3495 053e 4546495F 		.ascii "EFI_ALLOCATE_TYPE\0"
 3495      414C4C4F 
 3495      43415445 
 3495      5F545950 
 3495      4500
 3496 0550 05       		.byte	0x5
 3497 0551 A1       		.byte	0xa1
 3498 0552 03       		.byte	0x3
 3499 0553 E5040000 		.long	0x4e5
 3500 0557 26       		.uleb128 0x26
 3501 0558 13020000 		.long	0x213
 3502 055c 05       		.byte	0x5
 3503 055d AA       		.byte	0xaa
 3504 055e D0060000 		.long	0x6d0
 3505 0562 0A       		.uleb128 0xa
 3506 0563 45666952 		.ascii "EfiReservedMemoryType\0"
 3506      65736572 
 3506      7665644D 
 3506      656D6F72 
 3506      79547970 
 3507 0579 00       		.byte	0
 3508 057a 0A       		.uleb128 0xa
 3509 057b 4566694C 		.ascii "EfiLoaderCode\0"
 3509      6F616465 
 3509      72436F64 
 3509      6500
 3510 0589 01       		.byte	0x1
 3511 058a 0A       		.uleb128 0xa
 3512 058b 4566694C 		.ascii "EfiLoaderData\0"
 3512      6F616465 
 3512      72446174 
 3512      6100
 3513 0599 02       		.byte	0x2
 3514 059a 0A       		.uleb128 0xa
 3515 059b 45666942 		.ascii "EfiBootServicesCode\0"
 3515      6F6F7453 
 3515      65727669 
 3515      63657343 
 3515      6F646500 
 3516 05af 03       		.byte	0x3
 3517 05b0 0A       		.uleb128 0xa
 3518 05b1 45666942 		.ascii "EfiBootServicesData\0"
 3518      6F6F7453 
 3518      65727669 
 3518      63657344 
 3518      61746100 
 3519 05c5 04       		.byte	0x4
 3520 05c6 0A       		.uleb128 0xa
 3521 05c7 45666952 		.ascii "EfiRuntimeServicesCode\0"
 3521      756E7469 
 3521      6D655365 
 3521      72766963 
 3521      6573436F 
 3522 05de 05       		.byte	0x5
 3523 05df 0A       		.uleb128 0xa
 3524 05e0 45666952 		.ascii "EfiRuntimeServicesData\0"
 3524      756E7469 
 3524      6D655365 
 3524      72766963 
 3524      65734461 
 3525 05f7 06       		.byte	0x6
 3526 05f8 0A       		.uleb128 0xa
 3527 05f9 45666943 		.ascii "EfiConventionalMemory\0"
 3527      6F6E7665 
 3527      6E74696F 
 3527      6E616C4D 
 3527      656D6F72 
 3528 060f 07       		.byte	0x7
 3529 0610 0A       		.uleb128 0xa
 3530 0611 45666955 		.ascii "EfiUnusableMemory\0"
 3530      6E757361 
 3530      626C654D 
 3530      656D6F72 
 3530      7900
 3531 0623 08       		.byte	0x8
 3532 0624 0A       		.uleb128 0xa
 3533 0625 45666941 		.ascii "EfiACPIReclaimMemory\0"
 3533      43504952 
 3533      65636C61 
 3533      696D4D65 
 3533      6D6F7279 
 3534 063a 09       		.byte	0x9
 3535 063b 0A       		.uleb128 0xa
 3536 063c 45666941 		.ascii "EfiACPIMemoryNVS\0"
 3536      4350494D 
 3536      656D6F72 
 3536      794E5653 
 3536      00
 3537 064d 0A       		.byte	0xa
 3538 064e 0A       		.uleb128 0xa
 3539 064f 4566694D 		.ascii "EfiMemoryMappedIO\0"
 3539      656D6F72 
 3539      794D6170 
 3539      70656449 
 3539      4F00
 3540 0661 0B       		.byte	0xb
 3541 0662 0A       		.uleb128 0xa
 3542 0663 4566694D 		.ascii "EfiMemoryMappedIOPortSpace\0"
 3542      656D6F72 
 3542      794D6170 
 3542      70656449 
 3542      4F506F72 
 3543 067e 0C       		.byte	0xc
 3544 067f 0A       		.uleb128 0xa
 3545 0680 45666950 		.ascii "EfiPalCode\0"
 3545      616C436F 
 3545      646500
 3546 068b 0D       		.byte	0xd
 3547 068c 0A       		.uleb128 0xa
 3548 068d 45666950 		.ascii "EfiPersistentMemory\0"
 3548      65727369 
 3548      7374656E 
 3548      744D656D 
 3548      6F727900 
 3549 06a1 0E       		.byte	0xe
 3550 06a2 0A       		.uleb128 0xa
 3551 06a3 45666955 		.ascii "EfiUnacceptedMemoryType\0"
 3551      6E616363 
 3551      65707465 
 3551      644D656D 
 3551      6F727954 
 3552 06bb 0F       		.byte	0xf
 3553 06bc 0A       		.uleb128 0xa
 3554 06bd 4566694D 		.ascii "EfiMaxMemoryType\0"
 3554      61784D65 
 3554      6D6F7279 
 3554      54797065 
 3554      00
 3555 06ce 10       		.byte	0x10
 3556 06cf 00       		.byte	0
 3557 06d0 05       		.uleb128 0x5
 3558 06d1 4546495F 		.ascii "EFI_MEMORY_TYPE\0"
 3558      4D454D4F 
 3558      52595F54 
 3558      59504500 
 3559 06e1 05       		.byte	0x5
 3560 06e2 BC       		.byte	0xbc
 3561 06e3 03       		.byte	0x3
 3562 06e4 57050000 		.long	0x557
 3563 06e8 1B       		.uleb128 0x1b
 3564 06e9 28       		.byte	0x28
 3565 06ea 05       		.byte	0x5
 3566 06eb D9       		.byte	0xd9
 3567 06ec 5C070000 		.long	0x75c
 3568 06f0 09       		.uleb128 0x9
 3569 06f1 54797065 		.ascii "Type\0"
 3569      00
 3570 06f6 05       		.byte	0x5
 3571 06f7 DA       		.byte	0xda
 3572 06f8 25       		.byte	0x25
 3573 06f9 9F020000 		.long	0x29f
 3574 06fd 00       		.byte	0
 3575 06fe 09       		.uleb128 0x9
 3576 06ff 50616400 		.ascii "Pad\0"
 3577 0703 05       		.byte	0x5
 3578 0704 DB       		.byte	0xdb
 3579 0705 25       		.byte	0x25
 3580 0706 9F020000 		.long	0x29f
 3581 070a 04       		.byte	0x4
 3582 070b 09       		.uleb128 0x9
 3583 070c 50687973 		.ascii "PhysicalStart\0"
 3583      6963616C 
 3583      53746172 
 3583      7400
 3584 071a 05       		.byte	0x5
 3585 071b DC       		.byte	0xdc
 3586 071c 25       		.byte	0x25
 3587 071d AC040000 		.long	0x4ac
 3588 0721 08       		.byte	0x8
 3589 0722 09       		.uleb128 0x9
 3590 0723 56697274 		.ascii "VirtualStart\0"
 3590      75616C53 
 3590      74617274 
 3590      00
 3591 0730 05       		.byte	0x5
 3592 0731 DD       		.byte	0xdd
 3593 0732 25       		.byte	0x25
 3594 0733 C9040000 		.long	0x4c9
 3595 0737 10       		.byte	0x10
 3596 0738 09       		.uleb128 0x9
 3597 0739 4E756D62 		.ascii "NumberOfPages\0"
 3597      65724F66 
 3597      50616765 
 3597      7300
 3598 0747 05       		.byte	0x5
 3599 0748 DE       		.byte	0xde
 3600 0749 25       		.byte	0x25
 3601 074a 90020000 		.long	0x290
 3602 074e 18       		.byte	0x18
 3603 074f 2D       		.uleb128 0x2d
 3604 0750 08000000 		.secrel32	.LASF2
 3605 0754 05       		.byte	0x5
 3606 0755 DF       		.byte	0xdf
 3607 0756 90020000 		.long	0x290
 3608 075a 20       		.byte	0x20
 3609 075b 00       		.byte	0
 3610 075c 05       		.uleb128 0x5
 3611 075d 4546495F 		.ascii "EFI_MEMORY_DESCRIPTOR\0"
 3611      4D454D4F 
 3611      52595F44 
 3611      45534352 
 3611      4950544F 
 3612 0773 05       		.byte	0x5
 3613 0774 E0       		.byte	0xe0
 3614 0775 03       		.byte	0x3
 3615 0776 E8060000 		.long	0x6e8
 3616 077a 2E       		.uleb128 0x2e
 3617 077b 5F454649 		.ascii "_EFI_DEVICE_PATH_PROTOCOL\0"
 3617      5F444556 
 3617      4943455F 
 3617      50415448 
 3617      5F50524F 
 3618 0795 04       		.byte	0x4
 3619 0796 06       		.byte	0x6
 3620 0797 1A       		.byte	0x1a
 3621 0798 CC070000 		.long	0x7cc
 3622 079c 09       		.uleb128 0x9
 3623 079d 54797065 		.ascii "Type\0"
 3623      00
 3624 07a2 06       		.byte	0x6
 3625 07a3 1B       		.byte	0x1b
 3626 07a4 29       		.byte	0x29
 3627 07a5 D9020000 		.long	0x2d9
 3628 07a9 00       		.byte	0
 3629 07aa 09       		.uleb128 0x9
 3630 07ab 53756254 		.ascii "SubType\0"
 3630      79706500 
 3631 07b3 06       		.byte	0x6
 3632 07b4 1C       		.byte	0x1c
 3633 07b5 29       		.byte	0x29
 3634 07b6 D9020000 		.long	0x2d9
 3635 07ba 01       		.byte	0x1
 3636 07bb 09       		.uleb128 0x9
 3637 07bc 4C656E67 		.ascii "Length\0"
 3637      746800
 3638 07c3 06       		.byte	0x6
 3639 07c4 1D       		.byte	0x1d
 3640 07c5 29       		.byte	0x29
 3641 07c6 CC070000 		.long	0x7cc
 3642 07ca 02       		.byte	0x2
 3643 07cb 00       		.byte	0
 3644 07cc 1D       		.uleb128 0x1d
 3645 07cd D9020000 		.long	0x2d9
 3646 07d1 DC070000 		.long	0x7dc
 3647 07d5 1E       		.uleb128 0x1e
 3648 07d6 3C010000 		.long	0x13c
 3649 07da 01       		.byte	0x1
 3650 07db 00       		.byte	0
 3651 07dc 05       		.uleb128 0x5
 3652 07dd 4546495F 		.ascii "EFI_DEVICE_PATH_PROTOCOL\0"
 3652      44455649 
 3652      43455F50 
 3652      4154485F 
 3652      50524F54 
 3653 07f6 06       		.byte	0x6
 3654 07f7 1E       		.byte	0x1e
 3655 07f8 03       		.byte	0x3
 3656 07f9 7A070000 		.long	0x77a
 3657 07fd 05       		.uleb128 0x5
 3658 07fe 4546495F 		.ascii "EFI_DEVICE_PATH\0"
 3658      44455649 
 3658      43455F50 
 3658      41544800 
 3659 080e 06       		.byte	0x6
 3660 080f 21       		.byte	0x21
 3661 0810 22       		.byte	0x22
 3662 0811 DC070000 		.long	0x7dc
 3663 0815 03       		.uleb128 0x3
 3664 0816 7C020000 		.long	0x27c
 3665 081a 03       		.uleb128 0x3
 3666 081b 8B020000 		.long	0x28b
 3667 081f 03       		.uleb128 0x3
 3668 0820 02030000 		.long	0x302
 3669 0824 03       		.uleb128 0x3
 3670 0825 90020000 		.long	0x290
 3671 0829 03       		.uleb128 0x3
 3672 082a 64030000 		.long	0x364
 3673 082e 03       		.uleb128 0x3
 3674 082f AC040000 		.long	0x4ac
 3675 0833 03       		.uleb128 0x3
 3676 0834 D0030000 		.long	0x3d0
 3677 0838 03       		.uleb128 0x3
 3678 0839 FD070000 		.long	0x7fd
 3679 083d 03       		.uleb128 0x3
 3680 083e 38080000 		.long	0x838
 3681 0842 03       		.uleb128 0x3
 3682 0843 E1030000 		.long	0x3e1
 3683 0847 03       		.uleb128 0x3
 3684 0848 51030000 		.long	0x351
 3685 084c 03       		.uleb128 0x3
 3686 084d 9F020000 		.long	0x29f
 3687 0851 03       		.uleb128 0x3
 3688 0852 15080000 		.long	0x815
 3689 0856 07       		.uleb128 0x7
 3690 0857 4546495F 		.ascii "EFI_IMAGE_UNLOAD\0"
 3690      494D4147 
 3690      455F554E 
 3690      4C4F4144 
 3690      00
 3691 0868 07       		.byte	0x7
 3692 0869 C604     		.word	0x4c6
 3693 086b 0A       		.byte	0xa
 3694 086c 70080000 		.long	0x870
 3695 0870 03       		.uleb128 0x3
 3696 0871 75080000 		.long	0x875
 3697 0875 06       		.uleb128 0x6
 3698 0876 2E030000 		.long	0x32e
 3699 087a 84080000 		.long	0x884
 3700 087e 01       		.uleb128 0x1
 3701 087f 51030000 		.long	0x351
 3702 0883 00       		.byte	0
 3703 0884 1F       		.uleb128 0x1f
 3704 0885 5F454649 		.ascii "_EFI_SYSTEM_TABLE\0"
 3704      5F535953 
 3704      54454D5F 
 3704      5441424C 
 3704      4500
 3705 0897 78       		.byte	0x78
 3706 0898 08       		.byte	0x8
 3707 0899 F203     		.word	0x3f2
 3708 089b D0090000 		.long	0x9d0
 3709 089f 04       		.uleb128 0x4
 3710 08a0 48647200 		.ascii "Hdr\0"
 3711 08a4 08       		.byte	0x8
 3712 08a5 F303     		.word	0x3f3
 3713 08a7 25       		.byte	0x25
 3714 08a8 311F0000 		.long	0x1f31
 3715 08ac 00       		.byte	0
 3716 08ad 04       		.uleb128 0x4
 3717 08ae 4669726D 		.ascii "FirmwareVendor\0"
 3717      77617265 
 3717      56656E64 
 3717      6F7200
 3718 08bd 08       		.byte	0x8
 3719 08be F503     		.word	0x3f5
 3720 08c0 26       		.byte	0x26
 3721 08c1 15080000 		.long	0x815
 3722 08c5 18       		.byte	0x18
 3723 08c6 04       		.uleb128 0x4
 3724 08c7 4669726D 		.ascii "FirmwareRevision\0"
 3724      77617265 
 3724      52657669 
 3724      73696F6E 
 3724      00
 3725 08d8 08       		.byte	0x8
 3726 08d9 F603     		.word	0x3f6
 3727 08db 25       		.byte	0x25
 3728 08dc 9F020000 		.long	0x29f
 3729 08e0 20       		.byte	0x20
 3730 08e1 04       		.uleb128 0x4
 3731 08e2 436F6E73 		.ascii "ConsoleInHandle\0"
 3731      6F6C6549 
 3731      6E48616E 
 3731      646C6500 
 3732 08f2 08       		.byte	0x8
 3733 08f3 F803     		.word	0x3f8
 3734 08f5 25       		.byte	0x25
 3735 08f6 51030000 		.long	0x351
 3736 08fa 28       		.byte	0x28
 3737 08fb 04       		.uleb128 0x4
 3738 08fc 436F6E49 		.ascii "ConIn\0"
 3738      6E00
 3739 0902 08       		.byte	0x8
 3740 0903 F903     		.word	0x3f9
 3741 0905 26       		.byte	0x26
 3742 0906 0C260000 		.long	0x260c
 3743 090a 30       		.byte	0x30
 3744 090b 04       		.uleb128 0x4
 3745 090c 436F6E73 		.ascii "ConsoleOutHandle\0"
 3745      6F6C654F 
 3745      75744861 
 3745      6E646C65 
 3745      00
 3746 091d 08       		.byte	0x8
 3747 091e FB03     		.word	0x3fb
 3748 0920 25       		.byte	0x25
 3749 0921 51030000 		.long	0x351
 3750 0925 38       		.byte	0x38
 3751 0926 27       		.uleb128 0x27
 3752 0927 46000000 		.secrel32	.LASF3
 3753 092b FC03     		.word	0x3fc
 3754 092d 26       		.byte	0x26
 3755 092e 11260000 		.long	0x2611
 3756 0932 40       		.byte	0x40
 3757 0933 04       		.uleb128 0x4
 3758 0934 5374616E 		.ascii "StandardErrorHandle\0"
 3758      64617264 
 3758      4572726F 
 3758      7248616E 
 3758      646C6500 
 3759 0948 08       		.byte	0x8
 3760 0949 FE03     		.word	0x3fe
 3761 094b 25       		.byte	0x25
 3762 094c 51030000 		.long	0x351
 3763 0950 48       		.byte	0x48
 3764 0951 04       		.uleb128 0x4
 3765 0952 53746445 		.ascii "StdErr\0"
 3765      727200
 3766 0959 08       		.byte	0x8
 3767 095a FF03     		.word	0x3ff
 3768 095c 26       		.byte	0x26
 3769 095d 11260000 		.long	0x2611
 3770 0961 50       		.byte	0x50
 3771 0962 04       		.uleb128 0x4
 3772 0963 52756E74 		.ascii "RuntimeServices\0"
 3772      696D6553 
 3772      65727669 
 3772      63657300 
 3773 0973 08       		.byte	0x8
 3774 0974 0104     		.word	0x401
 3775 0976 26       		.byte	0x26
 3776 0977 16260000 		.long	0x2616
 3777 097b 58       		.byte	0x58
 3778 097c 04       		.uleb128 0x4
 3779 097d 426F6F74 		.ascii "BootServices\0"
 3779      53657276 
 3779      69636573 
 3779      00
 3780 098a 08       		.byte	0x8
 3781 098b 0204     		.word	0x402
 3782 098d 26       		.byte	0x26
 3783 098e 1B260000 		.long	0x261b
 3784 0992 60       		.byte	0x60
 3785 0993 04       		.uleb128 0x4
 3786 0994 4E756D62 		.ascii "NumberOfTableEntries\0"
 3786      65724F66 
 3786      5461626C 
 3786      65456E74 
 3786      72696573 
 3787 09a9 08       		.byte	0x8
 3788 09aa 0404     		.word	0x404
 3789 09ac 25       		.byte	0x25
 3790 09ad 02030000 		.long	0x302
 3791 09b1 68       		.byte	0x68
 3792 09b2 04       		.uleb128 0x4
 3793 09b3 436F6E66 		.ascii "ConfigurationTable\0"
 3793      69677572 
 3793      6174696F 
 3793      6E546162 
 3793      6C6500
 3794 09c6 08       		.byte	0x8
 3795 09c7 0504     		.word	0x405
 3796 09c9 26       		.byte	0x26
 3797 09ca 20260000 		.long	0x2620
 3798 09ce 70       		.byte	0x70
 3799 09cf 00       		.byte	0
 3800 09d0 05       		.uleb128 0x5
 3801 09d1 4546495F 		.ascii "EFI_TEXT_RESET\0"
 3801      54455854 
 3801      5F524553 
 3801      455400
 3802 09e0 09       		.byte	0x9
 3803 09e1 22       		.byte	0x22
 3804 09e2 0A       		.byte	0xa
 3805 09e3 E7090000 		.long	0x9e7
 3806 09e7 03       		.uleb128 0x3
 3807 09e8 EC090000 		.long	0x9ec
 3808 09ec 06       		.uleb128 0x6
 3809 09ed 2E030000 		.long	0x32e
 3810 09f1 000A0000 		.long	0xa00
 3811 09f5 01       		.uleb128 0x1
 3812 09f6 000A0000 		.long	0xa00
 3813 09fa 01       		.uleb128 0x1
 3814 09fb 15030000 		.long	0x315
 3815 09ff 00       		.byte	0
 3816 0a00 03       		.uleb128 0x3
 3817 0a01 050A0000 		.long	0xa05
 3818 0a05 2E       		.uleb128 0x2e
 3819 0a06 5F53494D 		.ascii "_SIMPLE_TEXT_OUTPUT_INTERFACE\0"
 3819      504C455F 
 3819      54455854 
 3819      5F4F5554 
 3819      5055545F 
 3820 0a24 50       		.byte	0x50
 3821 0a25 09       		.byte	0x9
 3822 0a26 89       		.byte	0x89
 3823 0a27 F30A0000 		.long	0xaf3
 3824 0a2b 09       		.uleb128 0x9
 3825 0a2c 52657365 		.ascii "Reset\0"
 3825      7400
 3826 0a32 09       		.byte	0x9
 3827 0a33 8A       		.byte	0x8a
 3828 0a34 25       		.byte	0x25
 3829 0a35 D0090000 		.long	0x9d0
 3830 0a39 00       		.byte	0
 3831 0a3a 09       		.uleb128 0x9
 3832 0a3b 4F757470 		.ascii "OutputString\0"
 3832      75745374 
 3832      72696E67 
 3832      00
 3833 0a48 09       		.byte	0x9
 3834 0a49 8C       		.byte	0x8c
 3835 0a4a 25       		.byte	0x25
 3836 0a4b F30A0000 		.long	0xaf3
 3837 0a4f 08       		.byte	0x8
 3838 0a50 09       		.uleb128 0x9
 3839 0a51 54657374 		.ascii "TestString\0"
 3839      53747269 
 3839      6E6700
 3840 0a5c 09       		.byte	0x9
 3841 0a5d 8D       		.byte	0x8d
 3842 0a5e 25       		.byte	0x25
 3843 0a5f 2B0B0000 		.long	0xb2b
 3844 0a63 10       		.byte	0x10
 3845 0a64 09       		.uleb128 0x9
 3846 0a65 51756572 		.ascii "QueryMode\0"
 3846      794D6F64 
 3846      6500
 3847 0a6f 09       		.byte	0x9
 3848 0a70 8F       		.byte	0x8f
 3849 0a71 25       		.byte	0x25
 3850 0a72 480B0000 		.long	0xb48
 3851 0a76 18       		.byte	0x18
 3852 0a77 09       		.uleb128 0x9
 3853 0a78 5365744D 		.ascii "SetMode\0"
 3853      6F646500 
 3854 0a80 09       		.byte	0x9
 3855 0a81 90       		.byte	0x90
 3856 0a82 25       		.byte	0x25
 3857 0a83 870B0000 		.long	0xb87
 3858 0a87 20       		.byte	0x20
 3859 0a88 09       		.uleb128 0x9
 3860 0a89 53657441 		.ascii "SetAttribute\0"
 3860      74747269 
 3860      62757465 
 3860      00
 3861 0a96 09       		.byte	0x9
 3862 0a97 91       		.byte	0x91
 3863 0a98 25       		.byte	0x25
 3864 0a99 BA0B0000 		.long	0xbba
 3865 0a9d 28       		.byte	0x28
 3866 0a9e 09       		.uleb128 0x9
 3867 0a9f 436C6561 		.ascii "ClearScreen\0"
 3867      72536372 
 3867      65656E00 
 3868 0aab 09       		.byte	0x9
 3869 0aac 93       		.byte	0x93
 3870 0aad 25       		.byte	0x25
 3871 0aae D90B0000 		.long	0xbd9
 3872 0ab2 30       		.byte	0x30
 3873 0ab3 09       		.uleb128 0x9
 3874 0ab4 53657443 		.ascii "SetCursorPosition\0"
 3874      7572736F 
 3874      72506F73 
 3874      6974696F 
 3874      6E00
 3875 0ac6 09       		.byte	0x9
 3876 0ac7 94       		.byte	0x94
 3877 0ac8 25       		.byte	0x25
 3878 0ac9 0B0C0000 		.long	0xc0b
 3879 0acd 38       		.byte	0x38
 3880 0ace 09       		.uleb128 0x9
 3881 0acf 456E6162 		.ascii "EnableCursor\0"
 3881      6C654375 
 3881      72736F72 
 3881      00
 3882 0adc 09       		.byte	0x9
 3883 0add 95       		.byte	0x95
 3884 0ade 25       		.byte	0x25
 3885 0adf 4E0C0000 		.long	0xc4e
 3886 0ae3 40       		.byte	0x40
 3887 0ae4 09       		.uleb128 0x9
 3888 0ae5 4D6F6465 		.ascii "Mode\0"
 3888      00
 3889 0aea 09       		.byte	0x9
 3890 0aeb 98       		.byte	0x98
 3891 0aec 26       		.byte	0x26
 3892 0aed 010D0000 		.long	0xd01
 3893 0af1 48       		.byte	0x48
 3894 0af2 00       		.byte	0
 3895 0af3 05       		.uleb128 0x5
 3896 0af4 4546495F 		.ascii "EFI_TEXT_OUTPUT_STRING\0"
 3896      54455854 
 3896      5F4F5554 
 3896      5055545F 
 3896      53545249 
 3897 0b0b 09       		.byte	0x9
 3898 0b0c 29       		.byte	0x29
 3899 0b0d 0A       		.byte	0xa
 3900 0b0e 120B0000 		.long	0xb12
 3901 0b12 03       		.uleb128 0x3
 3902 0b13 170B0000 		.long	0xb17
 3903 0b17 06       		.uleb128 0x6
 3904 0b18 2E030000 		.long	0x32e
 3905 0b1c 2B0B0000 		.long	0xb2b
 3906 0b20 01       		.uleb128 0x1
 3907 0b21 000A0000 		.long	0xa00
 3908 0b25 01       		.uleb128 0x1
 3909 0b26 15080000 		.long	0x815
 3910 0b2a 00       		.byte	0
 3911 0b2b 05       		.uleb128 0x5
 3912 0b2c 4546495F 		.ascii "EFI_TEXT_TEST_STRING\0"
 3912      54455854 
 3912      5F544553 
 3912      545F5354 
 3912      52494E47 
 3913 0b41 09       		.byte	0x9
 3914 0b42 30       		.byte	0x30
 3915 0b43 0A       		.byte	0xa
 3916 0b44 120B0000 		.long	0xb12
 3917 0b48 05       		.uleb128 0x5
 3918 0b49 4546495F 		.ascii "EFI_TEXT_QUERY_MODE\0"
 3918      54455854 
 3918      5F515545 
 3918      52595F4D 
 3918      4F444500 
 3919 0b5d 09       		.byte	0x9
 3920 0b5e 37       		.byte	0x37
 3921 0b5f 0A       		.byte	0xa
 3922 0b60 640B0000 		.long	0xb64
 3923 0b64 03       		.uleb128 0x3
 3924 0b65 690B0000 		.long	0xb69
 3925 0b69 06       		.uleb128 0x6
 3926 0b6a 2E030000 		.long	0x32e
 3927 0b6e 870B0000 		.long	0xb87
 3928 0b72 01       		.uleb128 0x1
 3929 0b73 000A0000 		.long	0xa00
 3930 0b77 01       		.uleb128 0x1
 3931 0b78 02030000 		.long	0x302
 3932 0b7c 01       		.uleb128 0x1
 3933 0b7d 1F080000 		.long	0x81f
 3934 0b81 01       		.uleb128 0x1
 3935 0b82 1F080000 		.long	0x81f
 3936 0b86 00       		.byte	0
 3937 0b87 05       		.uleb128 0x5
 3938 0b88 4546495F 		.ascii "EFI_TEXT_SET_MODE\0"
 3938      54455854 
 3938      5F534554 
 3938      5F4D4F44 
 3938      4500
 3939 0b9a 09       		.byte	0x9
 3940 0b9b 40       		.byte	0x40
 3941 0b9c 0A       		.byte	0xa
 3942 0b9d A10B0000 		.long	0xba1
 3943 0ba1 03       		.uleb128 0x3
 3944 0ba2 A60B0000 		.long	0xba6
 3945 0ba6 06       		.uleb128 0x6
 3946 0ba7 2E030000 		.long	0x32e
 3947 0bab BA0B0000 		.long	0xbba
 3948 0baf 01       		.uleb128 0x1
 3949 0bb0 000A0000 		.long	0xa00
 3950 0bb4 01       		.uleb128 0x1
 3951 0bb5 02030000 		.long	0x302
 3952 0bb9 00       		.byte	0
 3953 0bba 05       		.uleb128 0x5
 3954 0bbb 4546495F 		.ascii "EFI_TEXT_SET_ATTRIBUTE\0"
 3954      54455854 
 3954      5F534554 
 3954      5F415454 
 3954      52494255 
 3955 0bd2 09       		.byte	0x9
 3956 0bd3 47       		.byte	0x47
 3957 0bd4 0A       		.byte	0xa
 3958 0bd5 A10B0000 		.long	0xba1
 3959 0bd9 05       		.uleb128 0x5
 3960 0bda 4546495F 		.ascii "EFI_TEXT_CLEAR_SCREEN\0"
 3960      54455854 
 3960      5F434C45 
 3960      41525F53 
 3960      43524545 
 3961 0bf0 09       		.byte	0x9
 3962 0bf1 6C       		.byte	0x6c
 3963 0bf2 0A       		.byte	0xa
 3964 0bf3 F70B0000 		.long	0xbf7
 3965 0bf7 03       		.uleb128 0x3
 3966 0bf8 FC0B0000 		.long	0xbfc
 3967 0bfc 06       		.uleb128 0x6
 3968 0bfd 2E030000 		.long	0x32e
 3969 0c01 0B0C0000 		.long	0xc0b
 3970 0c05 01       		.uleb128 0x1
 3971 0c06 000A0000 		.long	0xa00
 3972 0c0a 00       		.byte	0
 3973 0c0b 05       		.uleb128 0x5
 3974 0c0c 4546495F 		.ascii "EFI_TEXT_SET_CURSOR_POSITION\0"
 3974      54455854 
 3974      5F534554 
 3974      5F435552 
 3974      534F525F 
 3975 0c29 09       		.byte	0x9
 3976 0c2a 72       		.byte	0x72
 3977 0c2b 0A       		.byte	0xa
 3978 0c2c 300C0000 		.long	0xc30
 3979 0c30 03       		.uleb128 0x3
 3980 0c31 350C0000 		.long	0xc35
 3981 0c35 06       		.uleb128 0x6
 3982 0c36 2E030000 		.long	0x32e
 3983 0c3a 4E0C0000 		.long	0xc4e
 3984 0c3e 01       		.uleb128 0x1
 3985 0c3f 000A0000 		.long	0xa00
 3986 0c43 01       		.uleb128 0x1
 3987 0c44 02030000 		.long	0x302
 3988 0c48 01       		.uleb128 0x1
 3989 0c49 02030000 		.long	0x302
 3990 0c4d 00       		.byte	0
 3991 0c4e 05       		.uleb128 0x5
 3992 0c4f 4546495F 		.ascii "EFI_TEXT_ENABLE_CURSOR\0"
 3992      54455854 
 3992      5F454E41 
 3992      424C455F 
 3992      43555253 
 3993 0c66 09       		.byte	0x9
 3994 0c67 7A       		.byte	0x7a
 3995 0c68 0A       		.byte	0xa
 3996 0c69 E7090000 		.long	0x9e7
 3997 0c6d 1B       		.uleb128 0x1b
 3998 0c6e 18       		.byte	0x18
 3999 0c6f 09       		.byte	0x9
 4000 0c70 7F       		.byte	0x7f
 4001 0c71 E10C0000 		.long	0xce1
 4002 0c75 09       		.uleb128 0x9
 4003 0c76 4D61784D 		.ascii "MaxMode\0"
 4003      6F646500 
 4004 0c7e 09       		.byte	0x9
 4005 0c7f 80       		.byte	0x80
 4006 0c80 25       		.byte	0x25
 4007 0c81 AE020000 		.long	0x2ae
 4008 0c85 00       		.byte	0
 4009 0c86 09       		.uleb128 0x9
 4010 0c87 4D6F6465 		.ascii "Mode\0"
 4010      00
 4011 0c8c 09       		.byte	0x9
 4012 0c8d 82       		.byte	0x82
 4013 0c8e 25       		.byte	0x25
 4014 0c8f AE020000 		.long	0x2ae
 4015 0c93 04       		.byte	0x4
 4016 0c94 2D       		.uleb128 0x2d
 4017 0c95 08000000 		.secrel32	.LASF2
 4018 0c99 09       		.byte	0x9
 4019 0c9a 83       		.byte	0x83
 4020 0c9b AE020000 		.long	0x2ae
 4021 0c9f 08       		.byte	0x8
 4022 0ca0 09       		.uleb128 0x9
 4023 0ca1 43757273 		.ascii "CursorColumn\0"
 4023      6F72436F 
 4023      6C756D6E 
 4023      00
 4024 0cae 09       		.byte	0x9
 4025 0caf 84       		.byte	0x84
 4026 0cb0 25       		.byte	0x25
 4027 0cb1 AE020000 		.long	0x2ae
 4028 0cb5 0C       		.byte	0xc
 4029 0cb6 09       		.uleb128 0x9
 4030 0cb7 43757273 		.ascii "CursorRow\0"
 4030      6F72526F 
 4030      7700
 4031 0cc1 09       		.byte	0x9
 4032 0cc2 85       		.byte	0x85
 4033 0cc3 25       		.byte	0x25
 4034 0cc4 AE020000 		.long	0x2ae
 4035 0cc8 10       		.byte	0x10
 4036 0cc9 09       		.uleb128 0x9
 4037 0cca 43757273 		.ascii "CursorVisible\0"
 4037      6F725669 
 4037      7369626C 
 4037      6500
 4038 0cd8 09       		.byte	0x9
 4039 0cd9 86       		.byte	0x86
 4040 0cda 25       		.byte	0x25
 4041 0cdb 15030000 		.long	0x315
 4042 0cdf 14       		.byte	0x14
 4043 0ce0 00       		.byte	0
 4044 0ce1 05       		.uleb128 0x5
 4045 0ce2 53494D50 		.ascii "SIMPLE_TEXT_OUTPUT_MODE\0"
 4045      4C455F54 
 4045      4558545F 
 4045      4F555450 
 4045      55545F4D 
 4046 0cfa 09       		.byte	0x9
 4047 0cfb 87       		.byte	0x87
 4048 0cfc 03       		.byte	0x3
 4049 0cfd 6D0C0000 		.long	0xc6d
 4050 0d01 03       		.uleb128 0x3
 4051 0d02 E10C0000 		.long	0xce1
 4052 0d06 05       		.uleb128 0x5
 4053 0d07 53494D50 		.ascii "SIMPLE_TEXT_OUTPUT_INTERFACE\0"
 4053      4C455F54 
 4053      4558545F 
 4053      4F555450 
 4053      55545F49 
 4054 0d24 09       		.byte	0x9
 4055 0d25 99       		.byte	0x99
 4056 0d26 03       		.byte	0x3
 4057 0d27 050A0000 		.long	0xa05
 4058 0d2b 05       		.uleb128 0x5
 4059 0d2c 4546495F 		.ascii "EFI_SIMPLE_TEXT_OUT_PROTOCOL\0"
 4059      53494D50 
 4059      4C455F54 
 4059      4558545F 
 4059      4F55545F 
 4060 0d49 09       		.byte	0x9
 4061 0d4a 99       		.byte	0x99
 4062 0d4b 21       		.byte	0x21
 4063 0d4c 050A0000 		.long	0xa05
 4064 0d50 1B       		.uleb128 0x1b
 4065 0d51 04       		.byte	0x4
 4066 0d52 09       		.byte	0x9
 4067 0d53 F1       		.byte	0xf1
 4068 0d54 800D0000 		.long	0xd80
 4069 0d58 09       		.uleb128 0x9
 4070 0d59 5363616E 		.ascii "ScanCode\0"
 4070      436F6465 
 4070      00
 4071 0d62 09       		.byte	0x9
 4072 0d63 F2       		.byte	0xf2
 4073 0d64 29       		.byte	0x29
 4074 0d65 BC020000 		.long	0x2bc
 4075 0d69 00       		.byte	0
 4076 0d6a 09       		.uleb128 0x9
 4077 0d6b 556E6963 		.ascii "UnicodeChar\0"
 4077      6F646543 
 4077      68617200 
 4078 0d77 09       		.byte	0x9
 4079 0d78 F3       		.byte	0xf3
 4080 0d79 29       		.byte	0x29
 4081 0d7a 7C020000 		.long	0x27c
 4082 0d7e 02       		.byte	0x2
 4083 0d7f 00       		.byte	0
 4084 0d80 05       		.uleb128 0x5
 4085 0d81 4546495F 		.ascii "EFI_INPUT_KEY\0"
 4085      494E5055 
 4085      545F4B45 
 4085      5900
 4086 0d8f 09       		.byte	0x9
 4087 0d90 F4       		.byte	0xf4
 4088 0d91 03       		.byte	0x3
 4089 0d92 500D0000 		.long	0xd50
 4090 0d96 07       		.uleb128 0x7
 4091 0d97 4546495F 		.ascii "EFI_INPUT_RESET\0"
 4091      494E5055 
 4091      545F5245 
 4091      53455400 
 4092 0da7 09       		.byte	0x9
 4093 0da8 1F01     		.word	0x11f
 4094 0daa 0A       		.byte	0xa
 4095 0dab AF0D0000 		.long	0xdaf
 4096 0daf 03       		.uleb128 0x3
 4097 0db0 B40D0000 		.long	0xdb4
 4098 0db4 06       		.uleb128 0x6
 4099 0db5 2E030000 		.long	0x32e
 4100 0db9 C80D0000 		.long	0xdc8
 4101 0dbd 01       		.uleb128 0x1
 4102 0dbe C80D0000 		.long	0xdc8
 4103 0dc2 01       		.uleb128 0x1
 4104 0dc3 15030000 		.long	0x315
 4105 0dc7 00       		.byte	0
 4106 0dc8 03       		.uleb128 0x3
 4107 0dc9 CD0D0000 		.long	0xdcd
 4108 0dcd 1F       		.uleb128 0x1f
 4109 0dce 5F53494D 		.ascii "_SIMPLE_INPUT_INTERFACE\0"
 4109      504C455F 
 4109      494E5055 
 4109      545F494E 
 4109      54455246 
 4110 0de6 18       		.byte	0x18
 4111 0de7 09       		.byte	0x9
 4112 0de8 2B01     		.word	0x12b
 4113 0dea 2C0E0000 		.long	0xe2c
 4114 0dee 04       		.uleb128 0x4
 4115 0def 52657365 		.ascii "Reset\0"
 4115      7400
 4116 0df5 09       		.byte	0x9
 4117 0df6 2C01     		.word	0x12c
 4118 0df8 29       		.byte	0x29
 4119 0df9 960D0000 		.long	0xd96
 4120 0dfd 00       		.byte	0
 4121 0dfe 04       		.uleb128 0x4
 4122 0dff 52656164 		.ascii "ReadKeyStroke\0"
 4122      4B657953 
 4122      74726F6B 
 4122      6500
 4123 0e0d 09       		.byte	0x9
 4124 0e0e 2D01     		.word	0x12d
 4125 0e10 29       		.byte	0x29
 4126 0e11 2C0E0000 		.long	0xe2c
 4127 0e15 08       		.byte	0x8
 4128 0e16 04       		.uleb128 0x4
 4129 0e17 57616974 		.ascii "WaitForKey\0"
 4129      466F724B 
 4129      657900
 4130 0e22 09       		.byte	0x9
 4131 0e23 2E01     		.word	0x12e
 4132 0e25 29       		.byte	0x29
 4133 0e26 69030000 		.long	0x369
 4134 0e2a 10       		.byte	0x10
 4135 0e2b 00       		.byte	0
 4136 0e2c 07       		.uleb128 0x7
 4137 0e2d 4546495F 		.ascii "EFI_INPUT_READ_KEY\0"
 4137      494E5055 
 4137      545F5245 
 4137      41445F4B 
 4137      455900
 4138 0e40 09       		.byte	0x9
 4139 0e41 2601     		.word	0x126
 4140 0e43 0A       		.byte	0xa
 4141 0e44 480E0000 		.long	0xe48
 4142 0e48 03       		.uleb128 0x3
 4143 0e49 4D0E0000 		.long	0xe4d
 4144 0e4d 06       		.uleb128 0x6
 4145 0e4e 2E030000 		.long	0x32e
 4146 0e52 610E0000 		.long	0xe61
 4147 0e56 01       		.uleb128 0x1
 4148 0e57 C80D0000 		.long	0xdc8
 4149 0e5b 01       		.uleb128 0x1
 4150 0e5c 610E0000 		.long	0xe61
 4151 0e60 00       		.byte	0
 4152 0e61 03       		.uleb128 0x3
 4153 0e62 800D0000 		.long	0xd80
 4154 0e66 07       		.uleb128 0x7
 4155 0e67 53494D50 		.ascii "SIMPLE_INPUT_INTERFACE\0"
 4155      4C455F49 
 4155      4E505554 
 4155      5F494E54 
 4155      45524641 
 4156 0e7e 09       		.byte	0x9
 4157 0e7f 2F01     		.word	0x12f
 4158 0e81 03       		.byte	0x3
 4159 0e82 CD0D0000 		.long	0xdcd
 4160 0e86 03       		.uleb128 0x3
 4161 0e87 15030000 		.long	0x315
 4162 0e8b 05       		.uleb128 0x5
 4163 0e8c 4546495F 		.ascii "EFI_ALLOCATE_PAGES\0"
 4163      414C4C4F 
 4163      43415445 
 4163      5F504147 
 4163      455300
 4164 0e9f 08       		.byte	0x8
 4165 0ea0 2C       		.byte	0x2c
 4166 0ea1 0A       		.byte	0xa
 4167 0ea2 A60E0000 		.long	0xea6
 4168 0ea6 03       		.uleb128 0x3
 4169 0ea7 AB0E0000 		.long	0xeab
 4170 0eab 06       		.uleb128 0x6
 4171 0eac 2E030000 		.long	0x32e
 4172 0eb0 C90E0000 		.long	0xec9
 4173 0eb4 01       		.uleb128 0x1
 4174 0eb5 3D050000 		.long	0x53d
 4175 0eb9 01       		.uleb128 0x1
 4176 0eba D0060000 		.long	0x6d0
 4177 0ebe 01       		.uleb128 0x1
 4178 0ebf 02030000 		.long	0x302
 4179 0ec3 01       		.uleb128 0x1
 4180 0ec4 2E080000 		.long	0x82e
 4181 0ec8 00       		.byte	0
 4182 0ec9 05       		.uleb128 0x5
 4183 0eca 4546495F 		.ascii "EFI_FREE_PAGES\0"
 4183      46524545 
 4183      5F504147 
 4183      455300
 4184 0ed9 08       		.byte	0x8
 4185 0eda 35       		.byte	0x35
 4186 0edb 0A       		.byte	0xa
 4187 0edc E00E0000 		.long	0xee0
 4188 0ee0 03       		.uleb128 0x3
 4189 0ee1 E50E0000 		.long	0xee5
 4190 0ee5 06       		.uleb128 0x6
 4191 0ee6 2E030000 		.long	0x32e
 4192 0eea F90E0000 		.long	0xef9
 4193 0eee 01       		.uleb128 0x1
 4194 0eef AC040000 		.long	0x4ac
 4195 0ef3 01       		.uleb128 0x1
 4196 0ef4 02030000 		.long	0x302
 4197 0ef8 00       		.byte	0
 4198 0ef9 05       		.uleb128 0x5
 4199 0efa 4546495F 		.ascii "EFI_GET_MEMORY_MAP\0"
 4199      4745545F 
 4199      4D454D4F 
 4199      52595F4D 
 4199      415000
 4200 0f0d 08       		.byte	0x8
 4201 0f0e 3C       		.byte	0x3c
 4202 0f0f 0A       		.byte	0xa
 4203 0f10 140F0000 		.long	0xf14
 4204 0f14 03       		.uleb128 0x3
 4205 0f15 190F0000 		.long	0xf19
 4206 0f19 06       		.uleb128 0x6
 4207 0f1a 2E030000 		.long	0x32e
 4208 0f1e 3C0F0000 		.long	0xf3c
 4209 0f22 01       		.uleb128 0x1
 4210 0f23 1F080000 		.long	0x81f
 4211 0f27 01       		.uleb128 0x1
 4212 0f28 3C0F0000 		.long	0xf3c
 4213 0f2c 01       		.uleb128 0x1
 4214 0f2d 1F080000 		.long	0x81f
 4215 0f31 01       		.uleb128 0x1
 4216 0f32 1F080000 		.long	0x81f
 4217 0f36 01       		.uleb128 0x1
 4218 0f37 4C080000 		.long	0x84c
 4219 0f3b 00       		.byte	0
 4220 0f3c 03       		.uleb128 0x3
 4221 0f3d 5C070000 		.long	0x75c
 4222 0f41 05       		.uleb128 0x5
 4223 0f42 4546495F 		.ascii "EFI_ALLOCATE_POOL\0"
 4223      414C4C4F 
 4223      43415445 
 4223      5F504F4F 
 4223      4C00
 4224 0f54 08       		.byte	0x8
 4225 0f55 49       		.byte	0x49
 4226 0f56 0A       		.byte	0xa
 4227 0f57 5B0F0000 		.long	0xf5b
 4228 0f5b 03       		.uleb128 0x3
 4229 0f5c 600F0000 		.long	0xf60
 4230 0f60 06       		.uleb128 0x6
 4231 0f61 2E030000 		.long	0x32e
 4232 0f65 790F0000 		.long	0xf79
 4233 0f69 01       		.uleb128 0x1
 4234 0f6a D0060000 		.long	0x6d0
 4235 0f6e 01       		.uleb128 0x1
 4236 0f6f 02030000 		.long	0x302
 4237 0f73 01       		.uleb128 0x1
 4238 0f74 29080000 		.long	0x829
 4239 0f78 00       		.byte	0
 4240 0f79 05       		.uleb128 0x5
 4241 0f7a 4546495F 		.ascii "EFI_FREE_POOL\0"
 4241      46524545 
 4241      5F504F4F 
 4241      4C00
 4242 0f88 08       		.byte	0x8
 4243 0f89 51       		.byte	0x51
 4244 0f8a 0A       		.byte	0xa
 4245 0f8b 8F0F0000 		.long	0xf8f
 4246 0f8f 03       		.uleb128 0x3
 4247 0f90 940F0000 		.long	0xf94
 4248 0f94 06       		.uleb128 0x6
 4249 0f95 2E030000 		.long	0x32e
 4250 0f99 A30F0000 		.long	0xfa3
 4251 0f9d 01       		.uleb128 0x1
 4252 0f9e 64030000 		.long	0x364
 4253 0fa2 00       		.byte	0
 4254 0fa3 05       		.uleb128 0x5
 4255 0fa4 4546495F 		.ascii "EFI_SET_VIRTUAL_ADDRESS_MAP\0"
 4255      5345545F 
 4255      56495254 
 4255      55414C5F 
 4255      41444452 
 4256 0fc0 08       		.byte	0x8
 4257 0fc1 57       		.byte	0x57
 4258 0fc2 0A       		.byte	0xa
 4259 0fc3 C70F0000 		.long	0xfc7
 4260 0fc7 03       		.uleb128 0x3
 4261 0fc8 CC0F0000 		.long	0xfcc
 4262 0fcc 06       		.uleb128 0x6
 4263 0fcd 2E030000 		.long	0x32e
 4264 0fd1 EA0F0000 		.long	0xfea
 4265 0fd5 01       		.uleb128 0x1
 4266 0fd6 02030000 		.long	0x302
 4267 0fda 01       		.uleb128 0x1
 4268 0fdb 02030000 		.long	0x302
 4269 0fdf 01       		.uleb128 0x1
 4270 0fe0 9F020000 		.long	0x29f
 4271 0fe4 01       		.uleb128 0x1
 4272 0fe5 3C0F0000 		.long	0xf3c
 4273 0fe9 00       		.byte	0
 4274 0fea 05       		.uleb128 0x5
 4275 0feb 4546495F 		.ascii "EFI_CONVERT_POINTER\0"
 4275      434F4E56 
 4275      4552545F 
 4275      504F494E 
 4275      54455200 
 4276 0fff 08       		.byte	0x8
 4277 1000 66       		.byte	0x66
 4278 1001 0A       		.byte	0xa
 4279 1002 06100000 		.long	0x1006
 4280 1006 03       		.uleb128 0x3
 4281 1007 0B100000 		.long	0x100b
 4282 100b 06       		.uleb128 0x6
 4283 100c 2E030000 		.long	0x32e
 4284 1010 1F100000 		.long	0x101f
 4285 1014 01       		.uleb128 0x1
 4286 1015 02030000 		.long	0x302
 4287 1019 01       		.uleb128 0x1
 4288 101a 29080000 		.long	0x829
 4289 101e 00       		.byte	0
 4290 101f 05       		.uleb128 0x5
 4291 1020 4546495F 		.ascii "EFI_EVENT_NOTIFY\0"
 4291      4556454E 
 4291      545F4E4F 
 4291      54494659 
 4291      00
 4292 1031 08       		.byte	0x8
 4293 1032 8A       		.byte	0x8a
 4294 1033 0A       		.byte	0xa
 4295 1034 38100000 		.long	0x1038
 4296 1038 03       		.uleb128 0x3
 4297 1039 3D100000 		.long	0x103d
 4298 103d 20       		.uleb128 0x20
 4299 103e 4D100000 		.long	0x104d
 4300 1042 01       		.uleb128 0x1
 4301 1043 69030000 		.long	0x369
 4302 1047 01       		.uleb128 0x1
 4303 1048 64030000 		.long	0x364
 4304 104c 00       		.byte	0
 4305 104d 05       		.uleb128 0x5
 4306 104e 4546495F 		.ascii "EFI_CREATE_EVENT\0"
 4306      43524541 
 4306      54455F45 
 4306      56454E54 
 4306      00
 4307 105f 08       		.byte	0x8
 4308 1060 91       		.byte	0x91
 4309 1061 0A       		.byte	0xa
 4310 1062 66100000 		.long	0x1066
 4311 1066 03       		.uleb128 0x3
 4312 1067 6B100000 		.long	0x106b
 4313 106b 06       		.uleb128 0x6
 4314 106c 2E030000 		.long	0x32e
 4315 1070 8E100000 		.long	0x108e
 4316 1074 01       		.uleb128 0x1
 4317 1075 9F020000 		.long	0x29f
 4318 1079 01       		.uleb128 0x1
 4319 107a 41030000 		.long	0x341
 4320 107e 01       		.uleb128 0x1
 4321 107f 1F100000 		.long	0x101f
 4322 1083 01       		.uleb128 0x1
 4323 1084 64030000 		.long	0x364
 4324 1088 01       		.uleb128 0x1
 4325 1089 8E100000 		.long	0x108e
 4326 108d 00       		.byte	0
 4327 108e 03       		.uleb128 0x3
 4328 108f 69030000 		.long	0x369
 4329 1093 26       		.uleb128 0x26
 4330 1094 13020000 		.long	0x213
 4331 1098 08       		.byte	0x8
 4332 1099 99       		.byte	0x99
 4333 109a DC100000 		.long	0x10dc
 4334 109e 0A       		.uleb128 0xa
 4335 109f 54696D65 		.ascii "TimerCancel\0"
 4335      7243616E 
 4335      63656C00 
 4336 10ab 00       		.byte	0
 4337 10ac 0A       		.uleb128 0xa
 4338 10ad 54696D65 		.ascii "TimerPeriodic\0"
 4338      72506572 
 4338      696F6469 
 4338      6300
 4339 10bb 01       		.byte	0x1
 4340 10bc 0A       		.uleb128 0xa
 4341 10bd 54696D65 		.ascii "TimerRelative\0"
 4341      7252656C 
 4341      61746976 
 4341      6500
 4342 10cb 02       		.byte	0x2
 4343 10cc 0A       		.uleb128 0xa
 4344 10cd 54696D65 		.ascii "TimerTypeMax\0"
 4344      72547970 
 4344      654D6178 
 4344      00
 4345 10da 03       		.byte	0x3
 4346 10db 00       		.byte	0
 4347 10dc 05       		.uleb128 0x5
 4348 10dd 4546495F 		.ascii "EFI_TIMER_DELAY\0"
 4348      54494D45 
 4348      525F4445 
 4348      4C415900 
 4349 10ed 08       		.byte	0x8
 4350 10ee 9E       		.byte	0x9e
 4351 10ef 03       		.byte	0x3
 4352 10f0 93100000 		.long	0x1093
 4353 10f4 05       		.uleb128 0x5
 4354 10f5 4546495F 		.ascii "EFI_SET_TIMER\0"
 4354      5345545F 
 4354      54494D45 
 4354      5200
 4355 1103 08       		.byte	0x8
 4356 1104 A2       		.byte	0xa2
 4357 1105 0A       		.byte	0xa
 4358 1106 0A110000 		.long	0x110a
 4359 110a 03       		.uleb128 0x3
 4360 110b 0F110000 		.long	0x110f
 4361 110f 06       		.uleb128 0x6
 4362 1110 2E030000 		.long	0x32e
 4363 1114 28110000 		.long	0x1128
 4364 1118 01       		.uleb128 0x1
 4365 1119 69030000 		.long	0x369
 4366 111d 01       		.uleb128 0x1
 4367 111e DC100000 		.long	0x10dc
 4368 1122 01       		.uleb128 0x1
 4369 1123 90020000 		.long	0x290
 4370 1127 00       		.byte	0
 4371 1128 05       		.uleb128 0x5
 4372 1129 4546495F 		.ascii "EFI_SIGNAL_EVENT\0"
 4372      5349474E 
 4372      414C5F45 
 4372      56454E54 
 4372      00
 4373 113a 08       		.byte	0x8
 4374 113b AA       		.byte	0xaa
 4375 113c 0A       		.byte	0xa
 4376 113d 41110000 		.long	0x1141
 4377 1141 03       		.uleb128 0x3
 4378 1142 46110000 		.long	0x1146
 4379 1146 06       		.uleb128 0x6
 4380 1147 2E030000 		.long	0x32e
 4381 114b 55110000 		.long	0x1155
 4382 114f 01       		.uleb128 0x1
 4383 1150 69030000 		.long	0x369
 4384 1154 00       		.byte	0
 4385 1155 05       		.uleb128 0x5
 4386 1156 4546495F 		.ascii "EFI_WAIT_FOR_EVENT\0"
 4386      57414954 
 4386      5F464F52 
 4386      5F455645 
 4386      4E5400
 4387 1169 08       		.byte	0x8
 4388 116a B0       		.byte	0xb0
 4389 116b 0A       		.byte	0xa
 4390 116c 70110000 		.long	0x1170
 4391 1170 03       		.uleb128 0x3
 4392 1171 75110000 		.long	0x1175
 4393 1175 06       		.uleb128 0x6
 4394 1176 2E030000 		.long	0x32e
 4395 117a 8E110000 		.long	0x118e
 4396 117e 01       		.uleb128 0x1
 4397 117f 02030000 		.long	0x302
 4398 1183 01       		.uleb128 0x1
 4399 1184 8E100000 		.long	0x108e
 4400 1188 01       		.uleb128 0x1
 4401 1189 1F080000 		.long	0x81f
 4402 118d 00       		.byte	0
 4403 118e 05       		.uleb128 0x5
 4404 118f 4546495F 		.ascii "EFI_CLOSE_EVENT\0"
 4404      434C4F53 
 4404      455F4556 
 4404      454E5400 
 4405 119f 08       		.byte	0x8
 4406 11a0 B8       		.byte	0xb8
 4407 11a1 0A       		.byte	0xa
 4408 11a2 41110000 		.long	0x1141
 4409 11a6 05       		.uleb128 0x5
 4410 11a7 4546495F 		.ascii "EFI_CHECK_EVENT\0"
 4410      43484543 
 4410      4B5F4556 
 4410      454E5400 
 4411 11b7 08       		.byte	0x8
 4412 11b8 BE       		.byte	0xbe
 4413 11b9 0A       		.byte	0xa
 4414 11ba 41110000 		.long	0x1141
 4415 11be 05       		.uleb128 0x5
 4416 11bf 4546495F 		.ascii "EFI_RAISE_TPL\0"
 4416      52414953 
 4416      455F5450 
 4416      4C00
 4417 11cd 08       		.byte	0x8
 4418 11ce D0       		.byte	0xd0
 4419 11cf 0A       		.byte	0xa
 4420 11d0 D4110000 		.long	0x11d4
 4421 11d4 03       		.uleb128 0x3
 4422 11d5 D9110000 		.long	0x11d9
 4423 11d9 06       		.uleb128 0x6
 4424 11da 41030000 		.long	0x341
 4425 11de E8110000 		.long	0x11e8
 4426 11e2 01       		.uleb128 0x1
 4427 11e3 41030000 		.long	0x341
 4428 11e7 00       		.byte	0
 4429 11e8 05       		.uleb128 0x5
 4430 11e9 4546495F 		.ascii "EFI_RESTORE_TPL\0"
 4430      52455354 
 4430      4F52455F 
 4430      54504C00 
 4431 11f9 08       		.byte	0x8
 4432 11fa D6       		.byte	0xd6
 4433 11fb 0A       		.byte	0xa
 4434 11fc 00120000 		.long	0x1200
 4435 1200 03       		.uleb128 0x3
 4436 1201 05120000 		.long	0x1205
 4437 1205 20       		.uleb128 0x20
 4438 1206 10120000 		.long	0x1210
 4439 120a 01       		.uleb128 0x1
 4440 120b 41030000 		.long	0x341
 4441 120f 00       		.byte	0
 4442 1210 05       		.uleb128 0x5
 4443 1211 4546495F 		.ascii "EFI_GET_VARIABLE\0"
 4443      4745545F 
 4443      56415249 
 4443      41424C45 
 4443      00
 4444 1222 08       		.byte	0x8
 4445 1223 F1       		.byte	0xf1
 4446 1224 0A       		.byte	0xa
 4447 1225 29120000 		.long	0x1229
 4448 1229 03       		.uleb128 0x3
 4449 122a 2E120000 		.long	0x122e
 4450 122e 06       		.uleb128 0x6
 4451 122f 2E030000 		.long	0x32e
 4452 1233 51120000 		.long	0x1251
 4453 1237 01       		.uleb128 0x1
 4454 1238 15080000 		.long	0x815
 4455 123c 01       		.uleb128 0x1
 4456 123d 33080000 		.long	0x833
 4457 1241 01       		.uleb128 0x1
 4458 1242 4C080000 		.long	0x84c
 4459 1246 01       		.uleb128 0x1
 4460 1247 1F080000 		.long	0x81f
 4461 124b 01       		.uleb128 0x1
 4462 124c 64030000 		.long	0x364
 4463 1250 00       		.byte	0
 4464 1251 05       		.uleb128 0x5
 4465 1252 4546495F 		.ascii "EFI_GET_NEXT_VARIABLE_NAME\0"
 4465      4745545F 
 4465      4E455854 
 4465      5F564152 
 4465      4941424C 
 4466 126d 08       		.byte	0x8
 4467 126e FB       		.byte	0xfb
 4468 126f 0A       		.byte	0xa
 4469 1270 74120000 		.long	0x1274
 4470 1274 03       		.uleb128 0x3
 4471 1275 79120000 		.long	0x1279
 4472 1279 06       		.uleb128 0x6
 4473 127a 2E030000 		.long	0x32e
 4474 127e 92120000 		.long	0x1292
 4475 1282 01       		.uleb128 0x1
 4476 1283 1F080000 		.long	0x81f
 4477 1287 01       		.uleb128 0x1
 4478 1288 15080000 		.long	0x815
 4479 128c 01       		.uleb128 0x1
 4480 128d 33080000 		.long	0x833
 4481 1291 00       		.byte	0
 4482 1292 07       		.uleb128 0x7
 4483 1293 4546495F 		.ascii "EFI_SET_VARIABLE\0"
 4483      5345545F 
 4483      56415249 
 4483      41424C45 
 4483      00
 4484 12a4 08       		.byte	0x8
 4485 12a5 0401     		.word	0x104
 4486 12a7 0A       		.byte	0xa
 4487 12a8 AC120000 		.long	0x12ac
 4488 12ac 03       		.uleb128 0x3
 4489 12ad B1120000 		.long	0x12b1
 4490 12b1 06       		.uleb128 0x6
 4491 12b2 2E030000 		.long	0x32e
 4492 12b6 D4120000 		.long	0x12d4
 4493 12ba 01       		.uleb128 0x1
 4494 12bb 15080000 		.long	0x815
 4495 12bf 01       		.uleb128 0x1
 4496 12c0 33080000 		.long	0x833
 4497 12c4 01       		.uleb128 0x1
 4498 12c5 9F020000 		.long	0x29f
 4499 12c9 01       		.uleb128 0x1
 4500 12ca 02030000 		.long	0x302
 4501 12ce 01       		.uleb128 0x1
 4502 12cf 64030000 		.long	0x364
 4503 12d3 00       		.byte	0
 4504 12d4 21       		.uleb128 0x21
 4505 12d5 0C       		.byte	0xc
 4506 12d6 1101     		.word	0x111
 4507 12d8 1A130000 		.long	0x131a
 4508 12dc 04       		.uleb128 0x4
 4509 12dd 5265736F 		.ascii "Resolution\0"
 4509      6C757469 
 4509      6F6E00
 4510 12e8 08       		.byte	0x8
 4511 12e9 1201     		.word	0x112
 4512 12eb 25       		.byte	0x25
 4513 12ec 9F020000 		.long	0x29f
 4514 12f0 00       		.byte	0
 4515 12f1 04       		.uleb128 0x4
 4516 12f2 41636375 		.ascii "Accuracy\0"
 4516      72616379 
 4516      00
 4517 12fb 08       		.byte	0x8
 4518 12fc 1301     		.word	0x113
 4519 12fe 25       		.byte	0x25
 4520 12ff 9F020000 		.long	0x29f
 4521 1303 04       		.byte	0x4
 4522 1304 04       		.uleb128 0x4
 4523 1305 53657473 		.ascii "SetsToZero\0"
 4523      546F5A65 
 4523      726F00
 4524 1310 08       		.byte	0x8
 4525 1311 1401     		.word	0x114
 4526 1313 25       		.byte	0x25
 4527 1314 15030000 		.long	0x315
 4528 1318 08       		.byte	0x8
 4529 1319 00       		.byte	0
 4530 131a 07       		.uleb128 0x7
 4531 131b 4546495F 		.ascii "EFI_TIME_CAPABILITIES\0"
 4531      54494D45 
 4531      5F434150 
 4531      4142494C 
 4531      49544945 
 4532 1331 08       		.byte	0x8
 4533 1332 1501     		.word	0x115
 4534 1334 03       		.byte	0x3
 4535 1335 D4120000 		.long	0x12d4
 4536 1339 07       		.uleb128 0x7
 4537 133a 4546495F 		.ascii "EFI_GET_TIME\0"
 4537      4745545F 
 4537      54494D45 
 4537      00
 4538 1347 08       		.byte	0x8
 4539 1348 1A01     		.word	0x11a
 4540 134a 0A       		.byte	0xa
 4541 134b 4F130000 		.long	0x134f
 4542 134f 03       		.uleb128 0x3
 4543 1350 54130000 		.long	0x1354
 4544 1354 06       		.uleb128 0x6
 4545 1355 2E030000 		.long	0x32e
 4546 1359 68130000 		.long	0x1368
 4547 135d 01       		.uleb128 0x1
 4548 135e 68130000 		.long	0x1368
 4549 1362 01       		.uleb128 0x1
 4550 1363 6D130000 		.long	0x136d
 4551 1367 00       		.byte	0
 4552 1368 03       		.uleb128 0x3
 4553 1369 9B040000 		.long	0x49b
 4554 136d 03       		.uleb128 0x3
 4555 136e 1A130000 		.long	0x131a
 4556 1372 07       		.uleb128 0x7
 4557 1373 4546495F 		.ascii "EFI_SET_TIME\0"
 4557      5345545F 
 4557      54494D45 
 4557      00
 4558 1380 08       		.byte	0x8
 4559 1381 2101     		.word	0x121
 4560 1383 0A       		.byte	0xa
 4561 1384 88130000 		.long	0x1388
 4562 1388 03       		.uleb128 0x3
 4563 1389 8D130000 		.long	0x138d
 4564 138d 06       		.uleb128 0x6
 4565 138e 2E030000 		.long	0x32e
 4566 1392 9C130000 		.long	0x139c
 4567 1396 01       		.uleb128 0x1
 4568 1397 68130000 		.long	0x1368
 4569 139b 00       		.byte	0
 4570 139c 07       		.uleb128 0x7
 4571 139d 4546495F 		.ascii "EFI_GET_WAKEUP_TIME\0"
 4571      4745545F 
 4571      57414B45 
 4571      55505F54 
 4571      494D4500 
 4572 13b1 08       		.byte	0x8
 4573 13b2 2701     		.word	0x127
 4574 13b4 0A       		.byte	0xa
 4575 13b5 B9130000 		.long	0x13b9
 4576 13b9 03       		.uleb128 0x3
 4577 13ba BE130000 		.long	0x13be
 4578 13be 06       		.uleb128 0x6
 4579 13bf 2E030000 		.long	0x32e
 4580 13c3 D7130000 		.long	0x13d7
 4581 13c7 01       		.uleb128 0x1
 4582 13c8 860E0000 		.long	0xe86
 4583 13cc 01       		.uleb128 0x1
 4584 13cd 860E0000 		.long	0xe86
 4585 13d1 01       		.uleb128 0x1
 4586 13d2 68130000 		.long	0x1368
 4587 13d6 00       		.byte	0
 4588 13d7 07       		.uleb128 0x7
 4589 13d8 4546495F 		.ascii "EFI_SET_WAKEUP_TIME\0"
 4589      5345545F 
 4589      57414B45 
 4589      55505F54 
 4589      494D4500 
 4590 13ec 08       		.byte	0x8
 4591 13ed 2F01     		.word	0x12f
 4592 13ef 0A       		.byte	0xa
 4593 13f0 F4130000 		.long	0x13f4
 4594 13f4 03       		.uleb128 0x3
 4595 13f5 F9130000 		.long	0x13f9
 4596 13f9 06       		.uleb128 0x6
 4597 13fa 2E030000 		.long	0x32e
 4598 13fe 0D140000 		.long	0x140d
 4599 1402 01       		.uleb128 0x1
 4600 1403 15030000 		.long	0x315
 4601 1407 01       		.uleb128 0x1
 4602 1408 68130000 		.long	0x1368
 4603 140c 00       		.byte	0
 4604 140d 07       		.uleb128 0x7
 4605 140e 4546495F 		.ascii "EFI_IMAGE_LOAD\0"
 4605      494D4147 
 4605      455F4C4F 
 4605      414400
 4606 141d 08       		.byte	0x8
 4607 141e 7B01     		.word	0x17b
 4608 1420 0A       		.byte	0xa
 4609 1421 25140000 		.long	0x1425
 4610 1425 03       		.uleb128 0x3
 4611 1426 2A140000 		.long	0x142a
 4612 142a 06       		.uleb128 0x6
 4613 142b 2E030000 		.long	0x32e
 4614 142f 52140000 		.long	0x1452
 4615 1433 01       		.uleb128 0x1
 4616 1434 15030000 		.long	0x315
 4617 1438 01       		.uleb128 0x1
 4618 1439 51030000 		.long	0x351
 4619 143d 01       		.uleb128 0x1
 4620 143e 38080000 		.long	0x838
 4621 1442 01       		.uleb128 0x1
 4622 1443 64030000 		.long	0x364
 4623 1447 01       		.uleb128 0x1
 4624 1448 02030000 		.long	0x302
 4625 144c 01       		.uleb128 0x1
 4626 144d 47080000 		.long	0x847
 4627 1451 00       		.byte	0
 4628 1452 07       		.uleb128 0x7
 4629 1453 4546495F 		.ascii "EFI_IMAGE_START\0"
 4629      494D4147 
 4629      455F5354 
 4629      41525400 
 4630 1463 08       		.byte	0x8
 4631 1464 8601     		.word	0x186
 4632 1466 0A       		.byte	0xa
 4633 1467 6B140000 		.long	0x146b
 4634 146b 03       		.uleb128 0x3
 4635 146c 70140000 		.long	0x1470
 4636 1470 06       		.uleb128 0x6
 4637 1471 2E030000 		.long	0x32e
 4638 1475 89140000 		.long	0x1489
 4639 1479 01       		.uleb128 0x1
 4640 147a 51030000 		.long	0x351
 4641 147e 01       		.uleb128 0x1
 4642 147f 1F080000 		.long	0x81f
 4643 1483 01       		.uleb128 0x1
 4644 1484 51080000 		.long	0x851
 4645 1488 00       		.byte	0
 4646 1489 07       		.uleb128 0x7
 4647 148a 4546495F 		.ascii "EFI_EXIT\0"
 4647      45584954 
 4647      00
 4648 1493 08       		.byte	0x8
 4649 1494 8E01     		.word	0x18e
 4650 1496 0A       		.byte	0xa
 4651 1497 9B140000 		.long	0x149b
 4652 149b 03       		.uleb128 0x3
 4653 149c A0140000 		.long	0x14a0
 4654 14a0 06       		.uleb128 0x6
 4655 14a1 2E030000 		.long	0x32e
 4656 14a5 BE140000 		.long	0x14be
 4657 14a9 01       		.uleb128 0x1
 4658 14aa 51030000 		.long	0x351
 4659 14ae 01       		.uleb128 0x1
 4660 14af 2E030000 		.long	0x32e
 4661 14b3 01       		.uleb128 0x1
 4662 14b4 02030000 		.long	0x302
 4663 14b8 01       		.uleb128 0x1
 4664 14b9 15080000 		.long	0x815
 4665 14bd 00       		.byte	0
 4666 14be 07       		.uleb128 0x7
 4667 14bf 4546495F 		.ascii "EFI_EXIT_BOOT_SERVICES\0"
 4667      45584954 
 4667      5F424F4F 
 4667      545F5345 
 4667      52564943 
 4668 14d6 08       		.byte	0x8
 4669 14d7 B701     		.word	0x1b7
 4670 14d9 0A       		.byte	0xa
 4671 14da DE140000 		.long	0x14de
 4672 14de 03       		.uleb128 0x3
 4673 14df E3140000 		.long	0x14e3
 4674 14e3 06       		.uleb128 0x6
 4675 14e4 2E030000 		.long	0x32e
 4676 14e8 F7140000 		.long	0x14f7
 4677 14ec 01       		.uleb128 0x1
 4678 14ed 51030000 		.long	0x351
 4679 14f1 01       		.uleb128 0x1
 4680 14f2 02030000 		.long	0x302
 4681 14f6 00       		.byte	0
 4682 14f7 07       		.uleb128 0x7
 4683 14f8 4546495F 		.ascii "EFI_STALL\0"
 4683      5354414C 
 4683      4C00
 4684 1502 08       		.byte	0x8
 4685 1503 C301     		.word	0x1c3
 4686 1505 0A       		.byte	0xa
 4687 1506 0A150000 		.long	0x150a
 4688 150a 03       		.uleb128 0x3
 4689 150b 0F150000 		.long	0x150f
 4690 150f 06       		.uleb128 0x6
 4691 1510 2E030000 		.long	0x32e
 4692 1514 1E150000 		.long	0x151e
 4693 1518 01       		.uleb128 0x1
 4694 1519 02030000 		.long	0x302
 4695 151d 00       		.byte	0
 4696 151e 07       		.uleb128 0x7
 4697 151f 4546495F 		.ascii "EFI_SET_WATCHDOG_TIMER\0"
 4697      5345545F 
 4697      57415443 
 4697      48444F47 
 4697      5F54494D 
 4698 1536 08       		.byte	0x8
 4699 1537 C901     		.word	0x1c9
 4700 1539 0A       		.byte	0xa
 4701 153a 3E150000 		.long	0x153e
 4702 153e 03       		.uleb128 0x3
 4703 153f 43150000 		.long	0x1543
 4704 1543 06       		.uleb128 0x6
 4705 1544 2E030000 		.long	0x32e
 4706 1548 61150000 		.long	0x1561
 4707 154c 01       		.uleb128 0x1
 4708 154d 02030000 		.long	0x302
 4709 1551 01       		.uleb128 0x1
 4710 1552 90020000 		.long	0x290
 4711 1556 01       		.uleb128 0x1
 4712 1557 02030000 		.long	0x302
 4713 155b 01       		.uleb128 0x1
 4714 155c 15080000 		.long	0x815
 4715 1560 00       		.byte	0
 4716 1561 07       		.uleb128 0x7
 4717 1562 4546495F 		.ascii "EFI_CONNECT_CONTROLLER\0"
 4717      434F4E4E 
 4717      4543545F 
 4717      434F4E54 
 4717      524F4C4C 
 4718 1579 08       		.byte	0x8
 4719 157a D201     		.word	0x1d2
 4720 157c 0A       		.byte	0xa
 4721 157d 81150000 		.long	0x1581
 4722 1581 03       		.uleb128 0x3
 4723 1582 86150000 		.long	0x1586
 4724 1586 06       		.uleb128 0x6
 4725 1587 2E030000 		.long	0x32e
 4726 158b A4150000 		.long	0x15a4
 4727 158f 01       		.uleb128 0x1
 4728 1590 51030000 		.long	0x351
 4729 1594 01       		.uleb128 0x1
 4730 1595 47080000 		.long	0x847
 4731 1599 01       		.uleb128 0x1
 4732 159a 38080000 		.long	0x838
 4733 159e 01       		.uleb128 0x1
 4734 159f 15030000 		.long	0x315
 4735 15a3 00       		.byte	0
 4736 15a4 07       		.uleb128 0x7
 4737 15a5 4546495F 		.ascii "EFI_DISCONNECT_CONTROLLER\0"
 4737      44495343 
 4737      4F4E4E45 
 4737      43545F43 
 4737      4F4E5452 
 4738 15bf 08       		.byte	0x8
 4739 15c0 DB01     		.word	0x1db
 4740 15c2 0A       		.byte	0xa
 4741 15c3 C7150000 		.long	0x15c7
 4742 15c7 03       		.uleb128 0x3
 4743 15c8 CC150000 		.long	0x15cc
 4744 15cc 06       		.uleb128 0x6
 4745 15cd 2E030000 		.long	0x32e
 4746 15d1 E5150000 		.long	0x15e5
 4747 15d5 01       		.uleb128 0x1
 4748 15d6 51030000 		.long	0x351
 4749 15da 01       		.uleb128 0x1
 4750 15db 51030000 		.long	0x351
 4751 15df 01       		.uleb128 0x1
 4752 15e0 51030000 		.long	0x351
 4753 15e4 00       		.byte	0
 4754 15e5 07       		.uleb128 0x7
 4755 15e6 4546495F 		.ascii "EFI_OPEN_PROTOCOL\0"
 4755      4F50454E 
 4755      5F50524F 
 4755      544F434F 
 4755      4C00
 4756 15f8 08       		.byte	0x8
 4757 15f9 EA01     		.word	0x1ea
 4758 15fb 0A       		.byte	0xa
 4759 15fc 00160000 		.long	0x1600
 4760 1600 03       		.uleb128 0x3
 4761 1601 05160000 		.long	0x1605
 4762 1605 06       		.uleb128 0x6
 4763 1606 2E030000 		.long	0x32e
 4764 160a 2D160000 		.long	0x162d
 4765 160e 01       		.uleb128 0x1
 4766 160f 51030000 		.long	0x351
 4767 1613 01       		.uleb128 0x1
 4768 1614 33080000 		.long	0x833
 4769 1618 01       		.uleb128 0x1
 4770 1619 29080000 		.long	0x829
 4771 161d 01       		.uleb128 0x1
 4772 161e 51030000 		.long	0x351
 4773 1622 01       		.uleb128 0x1
 4774 1623 51030000 		.long	0x351
 4775 1627 01       		.uleb128 0x1
 4776 1628 9F020000 		.long	0x29f
 4777 162c 00       		.byte	0
 4778 162d 07       		.uleb128 0x7
 4779 162e 4546495F 		.ascii "EFI_CLOSE_PROTOCOL\0"
 4779      434C4F53 
 4779      455F5052 
 4779      4F544F43 
 4779      4F4C00
 4780 1641 08       		.byte	0x8
 4781 1642 F501     		.word	0x1f5
 4782 1644 0A       		.byte	0xa
 4783 1645 49160000 		.long	0x1649
 4784 1649 03       		.uleb128 0x3
 4785 164a 4E160000 		.long	0x164e
 4786 164e 06       		.uleb128 0x6
 4787 164f 2E030000 		.long	0x32e
 4788 1653 6C160000 		.long	0x166c
 4789 1657 01       		.uleb128 0x1
 4790 1658 51030000 		.long	0x351
 4791 165c 01       		.uleb128 0x1
 4792 165d 33080000 		.long	0x833
 4793 1661 01       		.uleb128 0x1
 4794 1662 51030000 		.long	0x351
 4795 1666 01       		.uleb128 0x1
 4796 1667 51030000 		.long	0x351
 4797 166b 00       		.byte	0
 4798 166c 21       		.uleb128 0x21
 4799 166d 18       		.byte	0x18
 4800 166e FC01     		.word	0x1fc
 4801 1670 CF160000 		.long	0x16cf
 4802 1674 04       		.uleb128 0x4
 4803 1675 4167656E 		.ascii "AgentHandle\0"
 4803      7448616E 
 4803      646C6500 
 4804 1681 08       		.byte	0x8
 4805 1682 FD01     		.word	0x1fd
 4806 1684 21       		.byte	0x21
 4807 1685 51030000 		.long	0x351
 4808 1689 00       		.byte	0
 4809 168a 04       		.uleb128 0x4
 4810 168b 436F6E74 		.ascii "ControllerHandle\0"
 4810      726F6C6C 
 4810      65724861 
 4810      6E646C65 
 4810      00
 4811 169c 08       		.byte	0x8
 4812 169d FE01     		.word	0x1fe
 4813 169f 21       		.byte	0x21
 4814 16a0 51030000 		.long	0x351
 4815 16a4 08       		.byte	0x8
 4816 16a5 04       		.uleb128 0x4
 4817 16a6 41747472 		.ascii "Attributes\0"
 4817      69627574 
 4817      657300
 4818 16b1 08       		.byte	0x8
 4819 16b2 FF01     		.word	0x1ff
 4820 16b4 21       		.byte	0x21
 4821 16b5 9F020000 		.long	0x29f
 4822 16b9 10       		.byte	0x10
 4823 16ba 04       		.uleb128 0x4
 4824 16bb 4F70656E 		.ascii "OpenCount\0"
 4824      436F756E 
 4824      7400
 4825 16c5 08       		.byte	0x8
 4826 16c6 0002     		.word	0x200
 4827 16c8 21       		.byte	0x21
 4828 16c9 9F020000 		.long	0x29f
 4829 16cd 14       		.byte	0x14
 4830 16ce 00       		.byte	0
 4831 16cf 07       		.uleb128 0x7
 4832 16d0 4546495F 		.ascii "EFI_OPEN_PROTOCOL_INFORMATION_ENTRY\0"
 4832      4F50454E 
 4832      5F50524F 
 4832      544F434F 
 4832      4C5F494E 
 4833 16f4 08       		.byte	0x8
 4834 16f5 0102     		.word	0x201
 4835 16f7 03       		.byte	0x3
 4836 16f8 6C160000 		.long	0x166c
 4837 16fc 07       		.uleb128 0x7
 4838 16fd 4546495F 		.ascii "EFI_OPEN_PROTOCOL_INFORMATION\0"
 4838      4F50454E 
 4838      5F50524F 
 4838      544F434F 
 4838      4C5F494E 
 4839 171b 08       		.byte	0x8
 4840 171c 0502     		.word	0x205
 4841 171e 0A       		.byte	0xa
 4842 171f 23170000 		.long	0x1723
 4843 1723 03       		.uleb128 0x3
 4844 1724 28170000 		.long	0x1728
 4845 1728 06       		.uleb128 0x6
 4846 1729 2E030000 		.long	0x32e
 4847 172d 46170000 		.long	0x1746
 4848 1731 01       		.uleb128 0x1
 4849 1732 51030000 		.long	0x351
 4850 1736 01       		.uleb128 0x1
 4851 1737 33080000 		.long	0x833
 4852 173b 01       		.uleb128 0x1
 4853 173c 46170000 		.long	0x1746
 4854 1740 01       		.uleb128 0x1
 4855 1741 1F080000 		.long	0x81f
 4856 1745 00       		.byte	0
 4857 1746 03       		.uleb128 0x3
 4858 1747 4B170000 		.long	0x174b
 4859 174b 03       		.uleb128 0x3
 4860 174c CF160000 		.long	0x16cf
 4861 1750 07       		.uleb128 0x7
 4862 1751 4546495F 		.ascii "EFI_PROTOCOLS_PER_HANDLE\0"
 4862      50524F54 
 4862      4F434F4C 
 4862      535F5045 
 4862      525F4841 
 4863 176a 08       		.byte	0x8
 4864 176b 0E02     		.word	0x20e
 4865 176d 0A       		.byte	0xa
 4866 176e 72170000 		.long	0x1772
 4867 1772 03       		.uleb128 0x3
 4868 1773 77170000 		.long	0x1777
 4869 1777 06       		.uleb128 0x6
 4870 1778 2E030000 		.long	0x32e
 4871 177c 90170000 		.long	0x1790
 4872 1780 01       		.uleb128 0x1
 4873 1781 51030000 		.long	0x351
 4874 1785 01       		.uleb128 0x1
 4875 1786 90170000 		.long	0x1790
 4876 178a 01       		.uleb128 0x1
 4877 178b 1F080000 		.long	0x81f
 4878 178f 00       		.byte	0
 4879 1790 03       		.uleb128 0x3
 4880 1791 95170000 		.long	0x1795
 4881 1795 03       		.uleb128 0x3
 4882 1796 33080000 		.long	0x833
 4883 179a 28       		.uleb128 0x28
 4884 179b 13020000 		.long	0x213
 4885 179f 1402     		.word	0x214
 4886 17a1 D3170000 		.long	0x17d3
 4887 17a5 0A       		.uleb128 0xa
 4888 17a6 416C6C48 		.ascii "AllHandles\0"
 4888      616E646C 
 4888      657300
 4889 17b1 00       		.byte	0
 4890 17b2 0A       		.uleb128 0xa
 4891 17b3 42795265 		.ascii "ByRegisterNotify\0"
 4891      67697374 
 4891      65724E6F 
 4891      74696679 
 4891      00
 4892 17c4 01       		.byte	0x1
 4893 17c5 0A       		.uleb128 0xa
 4894 17c6 42795072 		.ascii "ByProtocol\0"
 4894      6F746F63 
 4894      6F6C00
 4895 17d1 02       		.byte	0x2
 4896 17d2 00       		.byte	0
 4897 17d3 07       		.uleb128 0x7
 4898 17d4 4546495F 		.ascii "EFI_LOCATE_SEARCH_TYPE\0"
 4898      4C4F4341 
 4898      54455F53 
 4898      45415243 
 4898      485F5459 
 4899 17eb 08       		.byte	0x8
 4900 17ec 1802     		.word	0x218
 4901 17ee 03       		.byte	0x3
 4902 17ef 9A170000 		.long	0x179a
 4903 17f3 07       		.uleb128 0x7
 4904 17f4 4546495F 		.ascii "EFI_LOCATE_HANDLE_BUFFER\0"
 4904      4C4F4341 
 4904      54455F48 
 4904      414E444C 
 4904      455F4255 
 4905 180d 08       		.byte	0x8
 4906 180e 1C02     		.word	0x21c
 4907 1810 0A       		.byte	0xa
 4908 1811 15180000 		.long	0x1815
 4909 1815 03       		.uleb128 0x3
 4910 1816 1A180000 		.long	0x181a
 4911 181a 06       		.uleb128 0x6
 4912 181b 2E030000 		.long	0x32e
 4913 181f 3D180000 		.long	0x183d
 4914 1823 01       		.uleb128 0x1
 4915 1824 D3170000 		.long	0x17d3
 4916 1828 01       		.uleb128 0x1
 4917 1829 33080000 		.long	0x833
 4918 182d 01       		.uleb128 0x1
 4919 182e 64030000 		.long	0x364
 4920 1832 01       		.uleb128 0x1
 4921 1833 1F080000 		.long	0x81f
 4922 1837 01       		.uleb128 0x1
 4923 1838 3D180000 		.long	0x183d
 4924 183c 00       		.byte	0
 4925 183d 03       		.uleb128 0x3
 4926 183e 47080000 		.long	0x847
 4927 1842 07       		.uleb128 0x7
 4928 1843 4546495F 		.ascii "EFI_LOCATE_PROTOCOL\0"
 4928      4C4F4341 
 4928      54455F50 
 4928      524F544F 
 4928      434F4C00 
 4929 1857 08       		.byte	0x8
 4930 1858 2602     		.word	0x226
 4931 185a 0A       		.byte	0xa
 4932 185b 5F180000 		.long	0x185f
 4933 185f 03       		.uleb128 0x3
 4934 1860 64180000 		.long	0x1864
 4935 1864 06       		.uleb128 0x6
 4936 1865 2E030000 		.long	0x32e
 4937 1869 7D180000 		.long	0x187d
 4938 186d 01       		.uleb128 0x1
 4939 186e 33080000 		.long	0x833
 4940 1872 01       		.uleb128 0x1
 4941 1873 64030000 		.long	0x364
 4942 1877 01       		.uleb128 0x1
 4943 1878 29080000 		.long	0x829
 4944 187c 00       		.byte	0
 4945 187d 07       		.uleb128 0x7
 4946 187e 4546495F 		.ascii "EFI_INSTALL_MULTIPLE_PROTOCOL_INTERFACES\0"
 4946      494E5354 
 4946      414C4C5F 
 4946      4D554C54 
 4946      49504C45 
 4947 18a7 08       		.byte	0x8
 4948 18a8 2E02     		.word	0x22e
 4949 18aa 0A       		.byte	0xa
 4950 18ab AF180000 		.long	0x18af
 4951 18af 03       		.uleb128 0x3
 4952 18b0 B4180000 		.long	0x18b4
 4953 18b4 06       		.uleb128 0x6
 4954 18b5 2E030000 		.long	0x32e
 4955 18b9 C4180000 		.long	0x18c4
 4956 18bd 01       		.uleb128 0x1
 4957 18be 47080000 		.long	0x847
 4958 18c2 29       		.uleb128 0x29
 4959 18c3 00       		.byte	0
 4960 18c4 07       		.uleb128 0x7
 4961 18c5 4546495F 		.ascii "EFI_UNINSTALL_MULTIPLE_PROTOCOL_INTERFACES\0"
 4961      554E494E 
 4961      5354414C 
 4961      4C5F4D55 
 4961      4C544950 
 4962 18f0 08       		.byte	0x8
 4963 18f1 3502     		.word	0x235
 4964 18f3 0A       		.byte	0xa
 4965 18f4 F8180000 		.long	0x18f8
 4966 18f8 03       		.uleb128 0x3
 4967 18f9 FD180000 		.long	0x18fd
 4968 18fd 06       		.uleb128 0x6
 4969 18fe 2E030000 		.long	0x32e
 4970 1902 0D190000 		.long	0x190d
 4971 1906 01       		.uleb128 0x1
 4972 1907 51030000 		.long	0x351
 4973 190b 29       		.uleb128 0x29
 4974 190c 00       		.byte	0
 4975 190d 07       		.uleb128 0x7
 4976 190e 4546495F 		.ascii "EFI_CALCULATE_CRC32\0"
 4976      43414C43 
 4976      554C4154 
 4976      455F4352 
 4976      43333200 
 4977 1922 08       		.byte	0x8
 4978 1923 3C02     		.word	0x23c
 4979 1925 0A       		.byte	0xa
 4980 1926 2A190000 		.long	0x192a
 4981 192a 03       		.uleb128 0x3
 4982 192b 2F190000 		.long	0x192f
 4983 192f 06       		.uleb128 0x6
 4984 1930 2E030000 		.long	0x32e
 4985 1934 48190000 		.long	0x1948
 4986 1938 01       		.uleb128 0x1
 4987 1939 64030000 		.long	0x364
 4988 193d 01       		.uleb128 0x1
 4989 193e 02030000 		.long	0x302
 4990 1942 01       		.uleb128 0x1
 4991 1943 4C080000 		.long	0x84c
 4992 1947 00       		.byte	0
 4993 1948 07       		.uleb128 0x7
 4994 1949 4546495F 		.ascii "EFI_COPY_MEM\0"
 4994      434F5059 
 4994      5F4D454D 
 4994      00
 4995 1956 08       		.byte	0x8
 4996 1957 4402     		.word	0x244
 4997 1959 0A       		.byte	0xa
 4998 195a 5E190000 		.long	0x195e
 4999 195e 03       		.uleb128 0x3
 5000 195f 63190000 		.long	0x1963
 5001 1963 20       		.uleb128 0x20
 5002 1964 78190000 		.long	0x1978
 5003 1968 01       		.uleb128 0x1
 5004 1969 64030000 		.long	0x364
 5005 196d 01       		.uleb128 0x1
 5006 196e 64030000 		.long	0x364
 5007 1972 01       		.uleb128 0x1
 5008 1973 02030000 		.long	0x302
 5009 1977 00       		.byte	0
 5010 1978 07       		.uleb128 0x7
 5011 1979 4546495F 		.ascii "EFI_SET_MEM\0"
 5011      5345545F 
 5011      4D454D00 
 5012 1985 08       		.byte	0x8
 5013 1986 4C02     		.word	0x24c
 5014 1988 0A       		.byte	0xa
 5015 1989 8D190000 		.long	0x198d
 5016 198d 03       		.uleb128 0x3
 5017 198e 92190000 		.long	0x1992
 5018 1992 20       		.uleb128 0x20
 5019 1993 A7190000 		.long	0x19a7
 5020 1997 01       		.uleb128 0x1
 5021 1998 64030000 		.long	0x364
 5022 199c 01       		.uleb128 0x1
 5023 199d 02030000 		.long	0x302
 5024 19a1 01       		.uleb128 0x1
 5025 19a2 D9020000 		.long	0x2d9
 5026 19a6 00       		.byte	0
 5027 19a7 07       		.uleb128 0x7
 5028 19a8 4546495F 		.ascii "EFI_CREATE_EVENT_EX\0"
 5028      43524541 
 5028      54455F45 
 5028      56454E54 
 5028      5F455800 
 5029 19bc 08       		.byte	0x8
 5030 19bd 5502     		.word	0x255
 5031 19bf 0A       		.byte	0xa
 5032 19c0 C4190000 		.long	0x19c4
 5033 19c4 03       		.uleb128 0x3
 5034 19c5 C9190000 		.long	0x19c9
 5035 19c9 06       		.uleb128 0x6
 5036 19ca 2E030000 		.long	0x32e
 5037 19ce F1190000 		.long	0x19f1
 5038 19d2 01       		.uleb128 0x1
 5039 19d3 9F020000 		.long	0x29f
 5040 19d7 01       		.uleb128 0x1
 5041 19d8 41030000 		.long	0x341
 5042 19dc 01       		.uleb128 0x1
 5043 19dd 1F100000 		.long	0x101f
 5044 19e1 01       		.uleb128 0x1
 5045 19e2 F1190000 		.long	0x19f1
 5046 19e6 01       		.uleb128 0x1
 5047 19e7 42080000 		.long	0x842
 5048 19eb 01       		.uleb128 0x1
 5049 19ec 8E100000 		.long	0x108e
 5050 19f0 00       		.byte	0
 5051 19f1 03       		.uleb128 0x3
 5052 19f2 F0020000 		.long	0x2f0
 5053 19f6 28       		.uleb128 0x28
 5054 19f7 13020000 		.long	0x213
 5055 19fb 5E02     		.word	0x25e
 5056 19fd 331A0000 		.long	0x1a33
 5057 1a01 0A       		.uleb128 0xa
 5058 1a02 45666952 		.ascii "EfiResetCold\0"
 5058      65736574 
 5058      436F6C64 
 5058      00
 5059 1a0f 00       		.byte	0
 5060 1a10 0A       		.uleb128 0xa
 5061 1a11 45666952 		.ascii "EfiResetWarm\0"
 5061      65736574 
 5061      5761726D 
 5061      00
 5062 1a1e 01       		.byte	0x1
 5063 1a1f 0A       		.uleb128 0xa
 5064 1a20 45666952 		.ascii "EfiResetShutdown\0"
 5064      65736574 
 5064      53687574 
 5064      646F776E 
 5064      00
 5065 1a31 02       		.byte	0x2
 5066 1a32 00       		.byte	0
 5067 1a33 07       		.uleb128 0x7
 5068 1a34 4546495F 		.ascii "EFI_RESET_TYPE\0"
 5068      52455345 
 5068      545F5459 
 5068      504500
 5069 1a43 08       		.byte	0x8
 5070 1a44 6202     		.word	0x262
 5071 1a46 03       		.byte	0x3
 5072 1a47 F6190000 		.long	0x19f6
 5073 1a4b 07       		.uleb128 0x7
 5074 1a4c 4546495F 		.ascii "EFI_RESET_SYSTEM\0"
 5074      52455345 
 5074      545F5359 
 5074      5354454D 
 5074      00
 5075 1a5d 08       		.byte	0x8
 5076 1a5e 6602     		.word	0x266
 5077 1a60 0A       		.byte	0xa
 5078 1a61 651A0000 		.long	0x1a65
 5079 1a65 03       		.uleb128 0x3
 5080 1a66 6A1A0000 		.long	0x1a6a
 5081 1a6a 06       		.uleb128 0x6
 5082 1a6b 2E030000 		.long	0x32e
 5083 1a6f 881A0000 		.long	0x1a88
 5084 1a73 01       		.uleb128 0x1
 5085 1a74 331A0000 		.long	0x1a33
 5086 1a78 01       		.uleb128 0x1
 5087 1a79 2E030000 		.long	0x32e
 5088 1a7d 01       		.uleb128 0x1
 5089 1a7e 02030000 		.long	0x302
 5090 1a82 01       		.uleb128 0x1
 5091 1a83 15080000 		.long	0x815
 5092 1a87 00       		.byte	0
 5093 1a88 07       		.uleb128 0x7
 5094 1a89 4546495F 		.ascii "EFI_GET_NEXT_MONOTONIC_COUNT\0"
 5094      4745545F 
 5094      4E455854 
 5094      5F4D4F4E 
 5094      4F544F4E 
 5095 1aa6 08       		.byte	0x8
 5096 1aa7 6F02     		.word	0x26f
 5097 1aa9 0A       		.byte	0xa
 5098 1aaa AE1A0000 		.long	0x1aae
 5099 1aae 03       		.uleb128 0x3
 5100 1aaf B31A0000 		.long	0x1ab3
 5101 1ab3 06       		.uleb128 0x6
 5102 1ab4 2E030000 		.long	0x32e
 5103 1ab8 C21A0000 		.long	0x1ac2
 5104 1abc 01       		.uleb128 0x1
 5105 1abd 24080000 		.long	0x824
 5106 1ac1 00       		.byte	0
 5107 1ac2 07       		.uleb128 0x7
 5108 1ac3 4546495F 		.ascii "EFI_GET_NEXT_HIGH_MONO_COUNT\0"
 5108      4745545F 
 5108      4E455854 
 5108      5F484947 
 5108      485F4D4F 
 5109 1ae0 08       		.byte	0x8
 5110 1ae1 7502     		.word	0x275
 5111 1ae3 0A       		.byte	0xa
 5112 1ae4 E81A0000 		.long	0x1ae8
 5113 1ae8 03       		.uleb128 0x3
 5114 1ae9 ED1A0000 		.long	0x1aed
 5115 1aed 06       		.uleb128 0x6
 5116 1aee 2E030000 		.long	0x32e
 5117 1af2 FC1A0000 		.long	0x1afc
 5118 1af6 01       		.uleb128 0x1
 5119 1af7 4C080000 		.long	0x84c
 5120 1afb 00       		.byte	0
 5121 1afc 21       		.uleb128 0x21
 5122 1afd 1C       		.byte	0x1c
 5123 1afe 8102     		.word	0x281
 5124 1b00 531B0000 		.long	0x1b53
 5125 1b04 04       		.uleb128 0x4
 5126 1b05 43617073 		.ascii "CapsuleGuid\0"
 5126      756C6547 
 5126      75696400 
 5127 1b11 08       		.byte	0x8
 5128 1b12 8202     		.word	0x282
 5129 1b14 21       		.byte	0x21
 5130 1b15 D0030000 		.long	0x3d0
 5131 1b19 00       		.byte	0
 5132 1b1a 27       		.uleb128 0x27
 5133 1b1b 6F000000 		.secrel32	.LASF4
 5134 1b1f 8302     		.word	0x283
 5135 1b21 21       		.byte	0x21
 5136 1b22 9F020000 		.long	0x29f
 5137 1b26 10       		.byte	0x10
 5138 1b27 04       		.uleb128 0x4
 5139 1b28 466C6167 		.ascii "Flags\0"
 5139      7300
 5140 1b2e 08       		.byte	0x8
 5141 1b2f 8402     		.word	0x284
 5142 1b31 21       		.byte	0x21
 5143 1b32 9F020000 		.long	0x29f
 5144 1b36 14       		.byte	0x14
 5145 1b37 04       		.uleb128 0x4
 5146 1b38 43617073 		.ascii "CapsuleImageSize\0"
 5146      756C6549 
 5146      6D616765 
 5146      53697A65 
 5146      00
 5147 1b49 08       		.byte	0x8
 5148 1b4a 8502     		.word	0x285
 5149 1b4c 21       		.byte	0x21
 5150 1b4d 9F020000 		.long	0x29f
 5151 1b51 18       		.byte	0x18
 5152 1b52 00       		.byte	0
 5153 1b53 07       		.uleb128 0x7
 5154 1b54 4546495F 		.ascii "EFI_CAPSULE_HEADER\0"
 5154      43415053 
 5154      554C455F 
 5154      48454144 
 5154      455200
 5155 1b67 08       		.byte	0x8
 5156 1b68 8602     		.word	0x286
 5157 1b6a 03       		.byte	0x3
 5158 1b6b FC1A0000 		.long	0x1afc
 5159 1b6f 07       		.uleb128 0x7
 5160 1b70 4546495F 		.ascii "EFI_UPDATE_CAPSULE\0"
 5160      55504441 
 5160      54455F43 
 5160      41505355 
 5160      4C4500
 5161 1b83 08       		.byte	0x8
 5162 1b84 8E02     		.word	0x28e
 5163 1b86 0A       		.byte	0xa
 5164 1b87 8B1B0000 		.long	0x1b8b
 5165 1b8b 03       		.uleb128 0x3
 5166 1b8c 901B0000 		.long	0x1b90
 5167 1b90 06       		.uleb128 0x6
 5168 1b91 2E030000 		.long	0x32e
 5169 1b95 A91B0000 		.long	0x1ba9
 5170 1b99 01       		.uleb128 0x1
 5171 1b9a A91B0000 		.long	0x1ba9
 5172 1b9e 01       		.uleb128 0x1
 5173 1b9f 02030000 		.long	0x302
 5174 1ba3 01       		.uleb128 0x1
 5175 1ba4 AC040000 		.long	0x4ac
 5176 1ba8 00       		.byte	0
 5177 1ba9 03       		.uleb128 0x3
 5178 1baa AE1B0000 		.long	0x1bae
 5179 1bae 03       		.uleb128 0x3
 5180 1baf 531B0000 		.long	0x1b53
 5181 1bb3 07       		.uleb128 0x7
 5182 1bb4 4546495F 		.ascii "EFI_QUERY_CAPSULE_CAPABILITIES\0"
 5182      51554552 
 5182      595F4341 
 5182      5053554C 
 5182      455F4341 
 5183 1bd3 08       		.byte	0x8
 5184 1bd4 9602     		.word	0x296
 5185 1bd6 0A       		.byte	0xa
 5186 1bd7 DB1B0000 		.long	0x1bdb
 5187 1bdb 03       		.uleb128 0x3
 5188 1bdc E01B0000 		.long	0x1be0
 5189 1be0 06       		.uleb128 0x6
 5190 1be1 2E030000 		.long	0x32e
 5191 1be5 FE1B0000 		.long	0x1bfe
 5192 1be9 01       		.uleb128 0x1
 5193 1bea A91B0000 		.long	0x1ba9
 5194 1bee 01       		.uleb128 0x1
 5195 1bef 02030000 		.long	0x302
 5196 1bf3 01       		.uleb128 0x1
 5197 1bf4 24080000 		.long	0x824
 5198 1bf8 01       		.uleb128 0x1
 5199 1bf9 FE1B0000 		.long	0x1bfe
 5200 1bfd 00       		.byte	0
 5201 1bfe 03       		.uleb128 0x3
 5202 1bff 331A0000 		.long	0x1a33
 5203 1c03 07       		.uleb128 0x7
 5204 1c04 4546495F 		.ascii "EFI_QUERY_VARIABLE_INFO\0"
 5204      51554552 
 5204      595F5641 
 5204      52494142 
 5204      4C455F49 
 5205 1c1c 08       		.byte	0x8
 5206 1c1d 9F02     		.word	0x29f
 5207 1c1f 0A       		.byte	0xa
 5208 1c20 241C0000 		.long	0x1c24
 5209 1c24 03       		.uleb128 0x3
 5210 1c25 291C0000 		.long	0x1c29
 5211 1c29 06       		.uleb128 0x6
 5212 1c2a 2E030000 		.long	0x32e
 5213 1c2e 471C0000 		.long	0x1c47
 5214 1c32 01       		.uleb128 0x1
 5215 1c33 9F020000 		.long	0x29f
 5216 1c37 01       		.uleb128 0x1
 5217 1c38 24080000 		.long	0x824
 5218 1c3c 01       		.uleb128 0x1
 5219 1c3d 24080000 		.long	0x824
 5220 1c41 01       		.uleb128 0x1
 5221 1c42 24080000 		.long	0x824
 5222 1c46 00       		.byte	0
 5223 1c47 28       		.uleb128 0x28
 5224 1c48 13020000 		.long	0x213
 5225 1c4c AA02     		.word	0x2aa
 5226 1c4e 801C0000 		.long	0x1c80
 5227 1c52 0A       		.uleb128 0xa
 5228 1c53 4546495F 		.ascii "EFI_NATIVE_INTERFACE\0"
 5228      4E415449 
 5228      56455F49 
 5228      4E544552 
 5228      46414345 
 5229 1c68 00       		.byte	0
 5230 1c69 0A       		.uleb128 0xa
 5231 1c6a 4546495F 		.ascii "EFI_PCODE_INTERFACE\0"
 5231      50434F44 
 5231      455F494E 
 5231      54455246 
 5231      41434500 
 5232 1c7e 01       		.byte	0x1
 5233 1c7f 00       		.byte	0
 5234 1c80 07       		.uleb128 0x7
 5235 1c81 4546495F 		.ascii "EFI_INTERFACE_TYPE\0"
 5235      494E5445 
 5235      52464143 
 5235      455F5459 
 5235      504500
 5236 1c94 08       		.byte	0x8
 5237 1c95 AD02     		.word	0x2ad
 5238 1c97 03       		.byte	0x3
 5239 1c98 471C0000 		.long	0x1c47
 5240 1c9c 07       		.uleb128 0x7
 5241 1c9d 4546495F 		.ascii "EFI_INSTALL_PROTOCOL_INTERFACE\0"
 5241      494E5354 
 5241      414C4C5F 
 5241      50524F54 
 5241      4F434F4C 
 5242 1cbc 08       		.byte	0x8
 5243 1cbd B102     		.word	0x2b1
 5244 1cbf 0A       		.byte	0xa
 5245 1cc0 C41C0000 		.long	0x1cc4
 5246 1cc4 03       		.uleb128 0x3
 5247 1cc5 C91C0000 		.long	0x1cc9
 5248 1cc9 06       		.uleb128 0x6
 5249 1cca 2E030000 		.long	0x32e
 5250 1cce E71C0000 		.long	0x1ce7
 5251 1cd2 01       		.uleb128 0x1
 5252 1cd3 47080000 		.long	0x847
 5253 1cd7 01       		.uleb128 0x1
 5254 1cd8 33080000 		.long	0x833
 5255 1cdc 01       		.uleb128 0x1
 5256 1cdd 801C0000 		.long	0x1c80
 5257 1ce1 01       		.uleb128 0x1
 5258 1ce2 64030000 		.long	0x364
 5259 1ce6 00       		.byte	0
 5260 1ce7 07       		.uleb128 0x7
 5261 1ce8 4546495F 		.ascii "EFI_REINSTALL_PROTOCOL_INTERFACE\0"
 5261      5245494E 
 5261      5354414C 
 5261      4C5F5052 
 5261      4F544F43 
 5262 1d09 08       		.byte	0x8
 5263 1d0a BA02     		.word	0x2ba
 5264 1d0c 0A       		.byte	0xa
 5265 1d0d 111D0000 		.long	0x1d11
 5266 1d11 03       		.uleb128 0x3
 5267 1d12 161D0000 		.long	0x1d16
 5268 1d16 06       		.uleb128 0x6
 5269 1d17 2E030000 		.long	0x32e
 5270 1d1b 341D0000 		.long	0x1d34
 5271 1d1f 01       		.uleb128 0x1
 5272 1d20 51030000 		.long	0x351
 5273 1d24 01       		.uleb128 0x1
 5274 1d25 33080000 		.long	0x833
 5275 1d29 01       		.uleb128 0x1
 5276 1d2a 64030000 		.long	0x364
 5277 1d2e 01       		.uleb128 0x1
 5278 1d2f 64030000 		.long	0x364
 5279 1d33 00       		.byte	0
 5280 1d34 07       		.uleb128 0x7
 5281 1d35 4546495F 		.ascii "EFI_UNINSTALL_PROTOCOL_INTERFACE\0"
 5281      554E494E 
 5281      5354414C 
 5281      4C5F5052 
 5281      4F544F43 
 5282 1d56 08       		.byte	0x8
 5283 1d57 C302     		.word	0x2c3
 5284 1d59 0A       		.byte	0xa
 5285 1d5a 5E1D0000 		.long	0x1d5e
 5286 1d5e 03       		.uleb128 0x3
 5287 1d5f 631D0000 		.long	0x1d63
 5288 1d63 06       		.uleb128 0x6
 5289 1d64 2E030000 		.long	0x32e
 5290 1d68 7C1D0000 		.long	0x1d7c
 5291 1d6c 01       		.uleb128 0x1
 5292 1d6d 51030000 		.long	0x351
 5293 1d71 01       		.uleb128 0x1
 5294 1d72 33080000 		.long	0x833
 5295 1d76 01       		.uleb128 0x1
 5296 1d77 64030000 		.long	0x364
 5297 1d7b 00       		.byte	0
 5298 1d7c 07       		.uleb128 0x7
 5299 1d7d 4546495F 		.ascii "EFI_HANDLE_PROTOCOL\0"
 5299      48414E44 
 5299      4C455F50 
 5299      524F544F 
 5299      434F4C00 
 5300 1d91 08       		.byte	0x8
 5301 1d92 CB02     		.word	0x2cb
 5302 1d94 0A       		.byte	0xa
 5303 1d95 991D0000 		.long	0x1d99
 5304 1d99 03       		.uleb128 0x3
 5305 1d9a 9E1D0000 		.long	0x1d9e
 5306 1d9e 06       		.uleb128 0x6
 5307 1d9f 2E030000 		.long	0x32e
 5308 1da3 B71D0000 		.long	0x1db7
 5309 1da7 01       		.uleb128 0x1
 5310 1da8 51030000 		.long	0x351
 5311 1dac 01       		.uleb128 0x1
 5312 1dad 33080000 		.long	0x833
 5313 1db1 01       		.uleb128 0x1
 5314 1db2 29080000 		.long	0x829
 5315 1db6 00       		.byte	0
 5316 1db7 07       		.uleb128 0x7
 5317 1db8 4546495F 		.ascii "EFI_REGISTER_PROTOCOL_NOTIFY\0"
 5317      52454749 
 5317      53544552 
 5317      5F50524F 
 5317      544F434F 
 5318 1dd5 08       		.byte	0x8
 5319 1dd6 D302     		.word	0x2d3
 5320 1dd8 0A       		.byte	0xa
 5321 1dd9 DD1D0000 		.long	0x1ddd
 5322 1ddd 03       		.uleb128 0x3
 5323 1dde E21D0000 		.long	0x1de2
 5324 1de2 06       		.uleb128 0x6
 5325 1de3 2E030000 		.long	0x32e
 5326 1de7 FB1D0000 		.long	0x1dfb
 5327 1deb 01       		.uleb128 0x1
 5328 1dec 33080000 		.long	0x833
 5329 1df0 01       		.uleb128 0x1
 5330 1df1 69030000 		.long	0x369
 5331 1df5 01       		.uleb128 0x1
 5332 1df6 29080000 		.long	0x829
 5333 1dfa 00       		.byte	0
 5334 1dfb 07       		.uleb128 0x7
 5335 1dfc 4546495F 		.ascii "EFI_LOCATE_HANDLE\0"
 5335      4C4F4341 
 5335      54455F48 
 5335      414E444C 
 5335      4500
 5336 1e0e 08       		.byte	0x8
 5337 1e0f DB02     		.word	0x2db
 5338 1e11 0A       		.byte	0xa
 5339 1e12 161E0000 		.long	0x1e16
 5340 1e16 03       		.uleb128 0x3
 5341 1e17 1B1E0000 		.long	0x1e1b
 5342 1e1b 06       		.uleb128 0x6
 5343 1e1c 2E030000 		.long	0x32e
 5344 1e20 3E1E0000 		.long	0x1e3e
 5345 1e24 01       		.uleb128 0x1
 5346 1e25 D3170000 		.long	0x17d3
 5347 1e29 01       		.uleb128 0x1
 5348 1e2a 33080000 		.long	0x833
 5349 1e2e 01       		.uleb128 0x1
 5350 1e2f 64030000 		.long	0x364
 5351 1e33 01       		.uleb128 0x1
 5352 1e34 1F080000 		.long	0x81f
 5353 1e38 01       		.uleb128 0x1
 5354 1e39 47080000 		.long	0x847
 5355 1e3d 00       		.byte	0
 5356 1e3e 07       		.uleb128 0x7
 5357 1e3f 4546495F 		.ascii "EFI_LOCATE_DEVICE_PATH\0"
 5357      4C4F4341 
 5357      54455F44 
 5357      45564943 
 5357      455F5041 
 5358 1e56 08       		.byte	0x8
 5359 1e57 E502     		.word	0x2e5
 5360 1e59 0A       		.byte	0xa
 5361 1e5a 5E1E0000 		.long	0x1e5e
 5362 1e5e 03       		.uleb128 0x3
 5363 1e5f 631E0000 		.long	0x1e63
 5364 1e63 06       		.uleb128 0x6
 5365 1e64 2E030000 		.long	0x32e
 5366 1e68 7C1E0000 		.long	0x1e7c
 5367 1e6c 01       		.uleb128 0x1
 5368 1e6d 33080000 		.long	0x833
 5369 1e71 01       		.uleb128 0x1
 5370 1e72 3D080000 		.long	0x83d
 5371 1e76 01       		.uleb128 0x1
 5372 1e77 47080000 		.long	0x847
 5373 1e7b 00       		.byte	0
 5374 1e7c 07       		.uleb128 0x7
 5375 1e7d 4546495F 		.ascii "EFI_INSTALL_CONFIGURATION_TABLE\0"
 5375      494E5354 
 5375      414C4C5F 
 5375      434F4E46 
 5375      49475552 
 5376 1e9d 08       		.byte	0x8
 5377 1e9e ED02     		.word	0x2ed
 5378 1ea0 0A       		.byte	0xa
 5379 1ea1 A51E0000 		.long	0x1ea5
 5380 1ea5 03       		.uleb128 0x3
 5381 1ea6 AA1E0000 		.long	0x1eaa
 5382 1eaa 06       		.uleb128 0x6
 5383 1eab 2E030000 		.long	0x32e
 5384 1eaf BE1E0000 		.long	0x1ebe
 5385 1eb3 01       		.uleb128 0x1
 5386 1eb4 33080000 		.long	0x833
 5387 1eb8 01       		.uleb128 0x1
 5388 1eb9 64030000 		.long	0x364
 5389 1ebd 00       		.byte	0
 5390 1ebe 1F       		.uleb128 0x1f
 5391 1ebf 5F454649 		.ascii "_EFI_TABLE_HEADER\0"
 5391      5F544142 
 5391      4C455F48 
 5391      45414445 
 5391      5200
 5392 1ed1 18       		.byte	0x18
 5393 1ed2 08       		.byte	0x8
 5394 1ed3 FB02     		.word	0x2fb
 5395 1ed5 311F0000 		.long	0x1f31
 5396 1ed9 04       		.uleb128 0x4
 5397 1eda 5369676E 		.ascii "Signature\0"
 5397      61747572 
 5397      6500
 5398 1ee4 08       		.byte	0x8
 5399 1ee5 FC02     		.word	0x2fc
 5400 1ee7 21       		.byte	0x21
 5401 1ee8 90020000 		.long	0x290
 5402 1eec 00       		.byte	0
 5403 1eed 04       		.uleb128 0x4
 5404 1eee 52657669 		.ascii "Revision\0"
 5404      73696F6E 
 5404      00
 5405 1ef7 08       		.byte	0x8
 5406 1ef8 FD02     		.word	0x2fd
 5407 1efa 21       		.byte	0x21
 5408 1efb 9F020000 		.long	0x29f
 5409 1eff 08       		.byte	0x8
 5410 1f00 27       		.uleb128 0x27
 5411 1f01 6F000000 		.secrel32	.LASF4
 5412 1f05 FE02     		.word	0x2fe
 5413 1f07 21       		.byte	0x21
 5414 1f08 9F020000 		.long	0x29f
 5415 1f0c 0C       		.byte	0xc
 5416 1f0d 04       		.uleb128 0x4
 5417 1f0e 43524333 		.ascii "CRC32\0"
 5417      3200
 5418 1f14 08       		.byte	0x8
 5419 1f15 FF02     		.word	0x2ff
 5420 1f17 21       		.byte	0x21
 5421 1f18 9F020000 		.long	0x29f
 5422 1f1c 10       		.byte	0x10
 5423 1f1d 04       		.uleb128 0x4
 5424 1f1e 52657365 		.ascii "Reserved\0"
 5424      72766564 
 5424      00
 5425 1f27 08       		.byte	0x8
 5426 1f28 0003     		.word	0x300
 5427 1f2a 21       		.byte	0x21
 5428 1f2b 9F020000 		.long	0x29f
 5429 1f2f 14       		.byte	0x14
 5430 1f30 00       		.byte	0
 5431 1f31 07       		.uleb128 0x7
 5432 1f32 4546495F 		.ascii "EFI_TABLE_HEADER\0"
 5432      5441424C 
 5432      455F4845 
 5432      41444552 
 5432      00
 5433 1f43 08       		.byte	0x8
 5434 1f44 0103     		.word	0x301
 5435 1f46 03       		.byte	0x3
 5436 1f47 BE1E0000 		.long	0x1ebe
 5437 1f4b 21       		.uleb128 0x21
 5438 1f4c 88       		.byte	0x88
 5439 1f4d 1903     		.word	0x319
 5440 1f4f C9200000 		.long	0x20c9
 5441 1f53 04       		.uleb128 0x4
 5442 1f54 48647200 		.ascii "Hdr\0"
 5443 1f58 08       		.byte	0x8
 5444 1f59 1A03     		.word	0x31a
 5445 1f5b 25       		.byte	0x25
 5446 1f5c 311F0000 		.long	0x1f31
 5447 1f60 00       		.byte	0
 5448 1f61 04       		.uleb128 0x4
 5449 1f62 47657454 		.ascii "GetTime\0"
 5449      696D6500 
 5450 1f6a 08       		.byte	0x8
 5451 1f6b 2003     		.word	0x320
 5452 1f6d 25       		.byte	0x25
 5453 1f6e 39130000 		.long	0x1339
 5454 1f72 18       		.byte	0x18
 5455 1f73 04       		.uleb128 0x4
 5456 1f74 53657454 		.ascii "SetTime\0"
 5456      696D6500 
 5457 1f7c 08       		.byte	0x8
 5458 1f7d 2103     		.word	0x321
 5459 1f7f 25       		.byte	0x25
 5460 1f80 72130000 		.long	0x1372
 5461 1f84 20       		.byte	0x20
 5462 1f85 04       		.uleb128 0x4
 5463 1f86 47657457 		.ascii "GetWakeupTime\0"
 5463      616B6575 
 5463      7054696D 
 5463      6500
 5464 1f94 08       		.byte	0x8
 5465 1f95 2203     		.word	0x322
 5466 1f97 25       		.byte	0x25
 5467 1f98 9C130000 		.long	0x139c
 5468 1f9c 28       		.byte	0x28
 5469 1f9d 04       		.uleb128 0x4
 5470 1f9e 53657457 		.ascii "SetWakeupTime\0"
 5470      616B6575 
 5470      7054696D 
 5470      6500
 5471 1fac 08       		.byte	0x8
 5472 1fad 2303     		.word	0x323
 5473 1faf 25       		.byte	0x25
 5474 1fb0 D7130000 		.long	0x13d7
 5475 1fb4 30       		.byte	0x30
 5476 1fb5 04       		.uleb128 0x4
 5477 1fb6 53657456 		.ascii "SetVirtualAddressMap\0"
 5477      69727475 
 5477      616C4164 
 5477      64726573 
 5477      734D6170 
 5478 1fcb 08       		.byte	0x8
 5479 1fcc 2903     		.word	0x329
 5480 1fce 25       		.byte	0x25
 5481 1fcf A30F0000 		.long	0xfa3
 5482 1fd3 38       		.byte	0x38
 5483 1fd4 04       		.uleb128 0x4
 5484 1fd5 436F6E76 		.ascii "ConvertPointer\0"
 5484      65727450 
 5484      6F696E74 
 5484      657200
 5485 1fe4 08       		.byte	0x8
 5486 1fe5 2A03     		.word	0x32a
 5487 1fe7 25       		.byte	0x25
 5488 1fe8 EA0F0000 		.long	0xfea
 5489 1fec 40       		.byte	0x40
 5490 1fed 04       		.uleb128 0x4
 5491 1fee 47657456 		.ascii "GetVariable\0"
 5491      61726961 
 5491      626C6500 
 5492 1ffa 08       		.byte	0x8
 5493 1ffb 3003     		.word	0x330
 5494 1ffd 25       		.byte	0x25
 5495 1ffe 10120000 		.long	0x1210
 5496 2002 48       		.byte	0x48
 5497 2003 04       		.uleb128 0x4
 5498 2004 4765744E 		.ascii "GetNextVariableName\0"
 5498      65787456 
 5498      61726961 
 5498      626C654E 
 5498      616D6500 
 5499 2018 08       		.byte	0x8
 5500 2019 3103     		.word	0x331
 5501 201b 25       		.byte	0x25
 5502 201c 51120000 		.long	0x1251
 5503 2020 50       		.byte	0x50
 5504 2021 04       		.uleb128 0x4
 5505 2022 53657456 		.ascii "SetVariable\0"
 5505      61726961 
 5505      626C6500 
 5506 202e 08       		.byte	0x8
 5507 202f 3203     		.word	0x332
 5508 2031 25       		.byte	0x25
 5509 2032 92120000 		.long	0x1292
 5510 2036 58       		.byte	0x58
 5511 2037 04       		.uleb128 0x4
 5512 2038 4765744E 		.ascii "GetNextHighMonotonicCount\0"
 5512      65787448 
 5512      6967684D 
 5512      6F6E6F74 
 5512      6F6E6963 
 5513 2052 08       		.byte	0x8
 5514 2053 3803     		.word	0x338
 5515 2055 25       		.byte	0x25
 5516 2056 C21A0000 		.long	0x1ac2
 5517 205a 60       		.byte	0x60
 5518 205b 04       		.uleb128 0x4
 5519 205c 52657365 		.ascii "ResetSystem\0"
 5519      74537973 
 5519      74656D00 
 5520 2068 08       		.byte	0x8
 5521 2069 3903     		.word	0x339
 5522 206b 25       		.byte	0x25
 5523 206c 4B1A0000 		.long	0x1a4b
 5524 2070 68       		.byte	0x68
 5525 2071 04       		.uleb128 0x4
 5526 2072 55706461 		.ascii "UpdateCapsule\0"
 5526      74654361 
 5526      7073756C 
 5526      6500
 5527 2080 08       		.byte	0x8
 5528 2081 3B03     		.word	0x33b
 5529 2083 25       		.byte	0x25
 5530 2084 6F1B0000 		.long	0x1b6f
 5531 2088 70       		.byte	0x70
 5532 2089 04       		.uleb128 0x4
 5533 208a 51756572 		.ascii "QueryCapsuleCapabilities\0"
 5533      79436170 
 5533      73756C65 
 5533      43617061 
 5533      62696C69 
 5534 20a3 08       		.byte	0x8
 5535 20a4 3C03     		.word	0x33c
 5536 20a6 25       		.byte	0x25
 5537 20a7 B31B0000 		.long	0x1bb3
 5538 20ab 78       		.byte	0x78
 5539 20ac 04       		.uleb128 0x4
 5540 20ad 51756572 		.ascii "QueryVariableInfo\0"
 5540      79566172 
 5540      6961626C 
 5540      65496E66 
 5540      6F00
 5541 20bf 08       		.byte	0x8
 5542 20c0 3D03     		.word	0x33d
 5543 20c2 25       		.byte	0x25
 5544 20c3 031C0000 		.long	0x1c03
 5545 20c7 80       		.byte	0x80
 5546 20c8 00       		.byte	0
 5547 20c9 07       		.uleb128 0x7
 5548 20ca 4546495F 		.ascii "EFI_RUNTIME_SERVICES\0"
 5548      52554E54 
 5548      494D455F 
 5548      53455256 
 5548      49434553 
 5549 20df 08       		.byte	0x8
 5550 20e0 3E03     		.word	0x33e
 5551 20e2 03       		.byte	0x3
 5552 20e3 4B1F0000 		.long	0x1f4b
 5553 20e7 39       		.uleb128 0x39
 5554 20e8 5F454649 		.ascii "_EFI_BOOT_SERVICES\0"
 5554      5F424F4F 
 5554      545F5345 
 5554      52564943 
 5554      455300
 5555 20fb 7801     		.word	0x178
 5556 20fd 08       		.byte	0x8
 5557 20fe 5603     		.word	0x356
 5558 2100 10       		.byte	0x10
 5559 2101 82250000 		.long	0x2582
 5560 2105 04       		.uleb128 0x4
 5561 2106 48647200 		.ascii "Hdr\0"
 5562 210a 08       		.byte	0x8
 5563 210b 5803     		.word	0x358
 5564 210d 25       		.byte	0x25
 5565 210e 311F0000 		.long	0x1f31
 5566 2112 00       		.byte	0
 5567 2113 04       		.uleb128 0x4
 5568 2114 52616973 		.ascii "RaiseTPL\0"
 5568      6554504C 
 5568      00
 5569 211d 08       		.byte	0x8
 5570 211e 5E03     		.word	0x35e
 5571 2120 25       		.byte	0x25
 5572 2121 BE110000 		.long	0x11be
 5573 2125 18       		.byte	0x18
 5574 2126 04       		.uleb128 0x4
 5575 2127 52657374 		.ascii "RestoreTPL\0"
 5575      6F726554 
 5575      504C00
 5576 2132 08       		.byte	0x8
 5577 2133 5F03     		.word	0x35f
 5578 2135 25       		.byte	0x25
 5579 2136 E8110000 		.long	0x11e8
 5580 213a 20       		.byte	0x20
 5581 213b 04       		.uleb128 0x4
 5582 213c 416C6C6F 		.ascii "AllocatePages\0"
 5582      63617465 
 5582      50616765 
 5582      7300
 5583 214a 08       		.byte	0x8
 5584 214b 6503     		.word	0x365
 5585 214d 25       		.byte	0x25
 5586 214e 8B0E0000 		.long	0xe8b
 5587 2152 28       		.byte	0x28
 5588 2153 04       		.uleb128 0x4
 5589 2154 46726565 		.ascii "FreePages\0"
 5589      50616765 
 5589      7300
 5590 215e 08       		.byte	0x8
 5591 215f 6603     		.word	0x366
 5592 2161 25       		.byte	0x25
 5593 2162 C90E0000 		.long	0xec9
 5594 2166 30       		.byte	0x30
 5595 2167 04       		.uleb128 0x4
 5596 2168 4765744D 		.ascii "GetMemoryMap\0"
 5596      656D6F72 
 5596      794D6170 
 5596      00
 5597 2175 08       		.byte	0x8
 5598 2176 6703     		.word	0x367
 5599 2178 25       		.byte	0x25
 5600 2179 F90E0000 		.long	0xef9
 5601 217d 38       		.byte	0x38
 5602 217e 04       		.uleb128 0x4
 5603 217f 416C6C6F 		.ascii "AllocatePool\0"
 5603      63617465 
 5603      506F6F6C 
 5603      00
 5604 218c 08       		.byte	0x8
 5605 218d 6803     		.word	0x368
 5606 218f 25       		.byte	0x25
 5607 2190 410F0000 		.long	0xf41
 5608 2194 40       		.byte	0x40
 5609 2195 04       		.uleb128 0x4
 5610 2196 46726565 		.ascii "FreePool\0"
 5610      506F6F6C 
 5610      00
 5611 219f 08       		.byte	0x8
 5612 21a0 6903     		.word	0x369
 5613 21a2 25       		.byte	0x25
 5614 21a3 790F0000 		.long	0xf79
 5615 21a7 48       		.byte	0x48
 5616 21a8 04       		.uleb128 0x4
 5617 21a9 43726561 		.ascii "CreateEvent\0"
 5617      74654576 
 5617      656E7400 
 5618 21b5 08       		.byte	0x8
 5619 21b6 6F03     		.word	0x36f
 5620 21b8 25       		.byte	0x25
 5621 21b9 4D100000 		.long	0x104d
 5622 21bd 50       		.byte	0x50
 5623 21be 04       		.uleb128 0x4
 5624 21bf 53657454 		.ascii "SetTimer\0"
 5624      696D6572 
 5624      00
 5625 21c8 08       		.byte	0x8
 5626 21c9 7003     		.word	0x370
 5627 21cb 25       		.byte	0x25
 5628 21cc F4100000 		.long	0x10f4
 5629 21d0 58       		.byte	0x58
 5630 21d1 04       		.uleb128 0x4
 5631 21d2 57616974 		.ascii "WaitForEvent\0"
 5631      466F7245 
 5631      76656E74 
 5631      00
 5632 21df 08       		.byte	0x8
 5633 21e0 7103     		.word	0x371
 5634 21e2 25       		.byte	0x25
 5635 21e3 55110000 		.long	0x1155
 5636 21e7 60       		.byte	0x60
 5637 21e8 04       		.uleb128 0x4
 5638 21e9 5369676E 		.ascii "SignalEvent\0"
 5638      616C4576 
 5638      656E7400 
 5639 21f5 08       		.byte	0x8
 5640 21f6 7203     		.word	0x372
 5641 21f8 25       		.byte	0x25
 5642 21f9 28110000 		.long	0x1128
 5643 21fd 68       		.byte	0x68
 5644 21fe 04       		.uleb128 0x4
 5645 21ff 436C6F73 		.ascii "CloseEvent\0"
 5645      65457665 
 5645      6E7400
 5646 220a 08       		.byte	0x8
 5647 220b 7303     		.word	0x373
 5648 220d 25       		.byte	0x25
 5649 220e 8E110000 		.long	0x118e
 5650 2212 70       		.byte	0x70
 5651 2213 04       		.uleb128 0x4
 5652 2214 43686563 		.ascii "CheckEvent\0"
 5652      6B457665 
 5652      6E7400
 5653 221f 08       		.byte	0x8
 5654 2220 7403     		.word	0x374
 5655 2222 25       		.byte	0x25
 5656 2223 A6110000 		.long	0x11a6
 5657 2227 78       		.byte	0x78
 5658 2228 04       		.uleb128 0x4
 5659 2229 496E7374 		.ascii "InstallProtocolInterface\0"
 5659      616C6C50 
 5659      726F746F 
 5659      636F6C49 
 5659      6E746572 
 5660 2242 08       		.byte	0x8
 5661 2243 7A03     		.word	0x37a
 5662 2245 25       		.byte	0x25
 5663 2246 9C1C0000 		.long	0x1c9c
 5664 224a 80       		.byte	0x80
 5665 224b 04       		.uleb128 0x4
 5666 224c 5265696E 		.ascii "ReinstallProtocolInterface\0"
 5666      7374616C 
 5666      6C50726F 
 5666      746F636F 
 5666      6C496E74 
 5667 2267 08       		.byte	0x8
 5668 2268 7B03     		.word	0x37b
 5669 226a 26       		.byte	0x26
 5670 226b E71C0000 		.long	0x1ce7
 5671 226f 88       		.byte	0x88
 5672 2270 04       		.uleb128 0x4
 5673 2271 556E696E 		.ascii "UninstallProtocolInterface\0"
 5673      7374616C 
 5673      6C50726F 
 5673      746F636F 
 5673      6C496E74 
 5674 228c 08       		.byte	0x8
 5675 228d 7C03     		.word	0x37c
 5676 228f 26       		.byte	0x26
 5677 2290 341D0000 		.long	0x1d34
 5678 2294 90       		.byte	0x90
 5679 2295 04       		.uleb128 0x4
 5680 2296 48616E64 		.ascii "HandleProtocol\0"
 5680      6C655072 
 5680      6F746F63 
 5680      6F6C00
 5681 22a5 08       		.byte	0x8
 5682 22a6 7D03     		.word	0x37d
 5683 22a8 25       		.byte	0x25
 5684 22a9 7C1D0000 		.long	0x1d7c
 5685 22ad 98       		.byte	0x98
 5686 22ae 04       		.uleb128 0x4
 5687 22af 50434861 		.ascii "PCHandleProtocol\0"
 5687      6E646C65 
 5687      50726F74 
 5687      6F636F6C 
 5687      00
 5688 22c0 08       		.byte	0x8
 5689 22c1 7E03     		.word	0x37e
 5690 22c3 25       		.byte	0x25
 5691 22c4 7C1D0000 		.long	0x1d7c
 5692 22c8 A0       		.byte	0xa0
 5693 22c9 04       		.uleb128 0x4
 5694 22ca 52656769 		.ascii "RegisterProtocolNotify\0"
 5694      73746572 
 5694      50726F74 
 5694      6F636F6C 
 5694      4E6F7469 
 5695 22e1 08       		.byte	0x8
 5696 22e2 7F03     		.word	0x37f
 5697 22e4 25       		.byte	0x25
 5698 22e5 B71D0000 		.long	0x1db7
 5699 22e9 A8       		.byte	0xa8
 5700 22ea 04       		.uleb128 0x4
 5701 22eb 4C6F6361 		.ascii "LocateHandle\0"
 5701      74654861 
 5701      6E646C65 
 5701      00
 5702 22f8 08       		.byte	0x8
 5703 22f9 8003     		.word	0x380
 5704 22fb 25       		.byte	0x25
 5705 22fc FB1D0000 		.long	0x1dfb
 5706 2300 B0       		.byte	0xb0
 5707 2301 04       		.uleb128 0x4
 5708 2302 4C6F6361 		.ascii "LocateDevicePath\0"
 5708      74654465 
 5708      76696365 
 5708      50617468 
 5708      00
 5709 2313 08       		.byte	0x8
 5710 2314 8103     		.word	0x381
 5711 2316 25       		.byte	0x25
 5712 2317 3E1E0000 		.long	0x1e3e
 5713 231b B8       		.byte	0xb8
 5714 231c 04       		.uleb128 0x4
 5715 231d 496E7374 		.ascii "InstallConfigurationTable\0"
 5715      616C6C43 
 5715      6F6E6669 
 5715      67757261 
 5715      74696F6E 
 5716 2337 08       		.byte	0x8
 5717 2338 8203     		.word	0x382
 5718 233a 25       		.byte	0x25
 5719 233b 7C1E0000 		.long	0x1e7c
 5720 233f C0       		.byte	0xc0
 5721 2340 04       		.uleb128 0x4
 5722 2341 4C6F6164 		.ascii "LoadImage\0"
 5722      496D6167 
 5722      6500
 5723 234b 08       		.byte	0x8
 5724 234c 8803     		.word	0x388
 5725 234e 25       		.byte	0x25
 5726 234f 0D140000 		.long	0x140d
 5727 2353 C8       		.byte	0xc8
 5728 2354 04       		.uleb128 0x4
 5729 2355 53746172 		.ascii "StartImage\0"
 5729      74496D61 
 5729      676500
 5730 2360 08       		.byte	0x8
 5731 2361 8903     		.word	0x389
 5732 2363 25       		.byte	0x25
 5733 2364 52140000 		.long	0x1452
 5734 2368 D0       		.byte	0xd0
 5735 2369 04       		.uleb128 0x4
 5736 236a 45786974 		.ascii "Exit\0"
 5736      00
 5737 236f 08       		.byte	0x8
 5738 2370 8A03     		.word	0x38a
 5739 2372 25       		.byte	0x25
 5740 2373 89140000 		.long	0x1489
 5741 2377 D8       		.byte	0xd8
 5742 2378 04       		.uleb128 0x4
 5743 2379 556E6C6F 		.ascii "UnloadImage\0"
 5743      6164496D 
 5743      61676500 
 5744 2385 08       		.byte	0x8
 5745 2386 8B03     		.word	0x38b
 5746 2388 25       		.byte	0x25
 5747 2389 56080000 		.long	0x856
 5748 238d E0       		.byte	0xe0
 5749 238e 04       		.uleb128 0x4
 5750 238f 45786974 		.ascii "ExitBootServices\0"
 5750      426F6F74 
 5750      53657276 
 5750      69636573 
 5750      00
 5751 23a0 08       		.byte	0x8
 5752 23a1 8C03     		.word	0x38c
 5753 23a3 25       		.byte	0x25
 5754 23a4 BE140000 		.long	0x14be
 5755 23a8 E8       		.byte	0xe8
 5756 23a9 04       		.uleb128 0x4
 5757 23aa 4765744E 		.ascii "GetNextMonotonicCount\0"
 5757      6578744D 
 5757      6F6E6F74 
 5757      6F6E6963 
 5757      436F756E 
 5758 23c0 08       		.byte	0x8
 5759 23c1 9203     		.word	0x392
 5760 23c3 25       		.byte	0x25
 5761 23c4 881A0000 		.long	0x1a88
 5762 23c8 F0       		.byte	0xf0
 5763 23c9 04       		.uleb128 0x4
 5764 23ca 5374616C 		.ascii "Stall\0"
 5764      6C00
 5765 23d0 08       		.byte	0x8
 5766 23d1 9303     		.word	0x393
 5767 23d3 25       		.byte	0x25
 5768 23d4 F7140000 		.long	0x14f7
 5769 23d8 F8       		.byte	0xf8
 5770 23d9 13       		.uleb128 0x13
 5771 23da 53657457 		.ascii "SetWatchdogTimer\0"
 5771      61746368 
 5771      646F6754 
 5771      696D6572 
 5771      00
 5772 23eb 9403     		.word	0x394
 5773 23ed 25       		.byte	0x25
 5774 23ee 1E150000 		.long	0x151e
 5775 23f2 0001     		.word	0x100
 5776 23f4 13       		.uleb128 0x13
 5777 23f5 436F6E6E 		.ascii "ConnectController\0"
 5777      65637443 
 5777      6F6E7472 
 5777      6F6C6C65 
 5777      7200
 5778 2407 9A03     		.word	0x39a
 5779 2409 25       		.byte	0x25
 5780 240a 61150000 		.long	0x1561
 5781 240e 0801     		.word	0x108
 5782 2410 13       		.uleb128 0x13
 5783 2411 44697363 		.ascii "DisconnectController\0"
 5783      6F6E6E65 
 5783      6374436F 
 5783      6E74726F 
 5783      6C6C6572 
 5784 2426 9B03     		.word	0x39b
 5785 2428 25       		.byte	0x25
 5786 2429 A4150000 		.long	0x15a4
 5787 242d 1001     		.word	0x110
 5788 242f 13       		.uleb128 0x13
 5789 2430 4F70656E 		.ascii "OpenProtocol\0"
 5789      50726F74 
 5789      6F636F6C 
 5789      00
 5790 243d A003     		.word	0x3a0
 5791 243f 25       		.byte	0x25
 5792 2440 E5150000 		.long	0x15e5
 5793 2444 1801     		.word	0x118
 5794 2446 13       		.uleb128 0x13
 5795 2447 436C6F73 		.ascii "CloseProtocol\0"
 5795      6550726F 
 5795      746F636F 
 5795      6C00
 5796 2455 A103     		.word	0x3a1
 5797 2457 25       		.byte	0x25
 5798 2458 2D160000 		.long	0x162d
 5799 245c 2001     		.word	0x120
 5800 245e 13       		.uleb128 0x13
 5801 245f 4F70656E 		.ascii "OpenProtocolInformation\0"
 5801      50726F74 
 5801      6F636F6C 
 5801      496E666F 
 5801      726D6174 
 5802 2477 A203     		.word	0x3a2
 5803 2479 25       		.byte	0x25
 5804 247a FC160000 		.long	0x16fc
 5805 247e 2801     		.word	0x128
 5806 2480 13       		.uleb128 0x13
 5807 2481 50726F74 		.ascii "ProtocolsPerHandle\0"
 5807      6F636F6C 
 5807      73506572 
 5807      48616E64 
 5807      6C6500
 5808 2494 A703     		.word	0x3a7
 5809 2496 25       		.byte	0x25
 5810 2497 50170000 		.long	0x1750
 5811 249b 3001     		.word	0x130
 5812 249d 13       		.uleb128 0x13
 5813 249e 4C6F6361 		.ascii "LocateHandleBuffer\0"
 5813      74654861 
 5813      6E646C65 
 5813      42756666 
 5813      657200
 5814 24b1 A803     		.word	0x3a8
 5815 24b3 25       		.byte	0x25
 5816 24b4 F3170000 		.long	0x17f3
 5817 24b8 3801     		.word	0x138
 5818 24ba 13       		.uleb128 0x13
 5819 24bb 4C6F6361 		.ascii "LocateProtocol\0"
 5819      74655072 
 5819      6F746F63 
 5819      6F6C00
 5820 24ca A903     		.word	0x3a9
 5821 24cc 25       		.byte	0x25
 5822 24cd 42180000 		.long	0x1842
 5823 24d1 4001     		.word	0x140
 5824 24d3 13       		.uleb128 0x13
 5825 24d4 496E7374 		.ascii "InstallMultipleProtocolInterfaces\0"
 5825      616C6C4D 
 5825      756C7469 
 5825      706C6550 
 5825      726F746F 
 5826 24f6 AA03     		.word	0x3aa
 5827 24f8 2E       		.byte	0x2e
 5828 24f9 7D180000 		.long	0x187d
 5829 24fd 4801     		.word	0x148
 5830 24ff 13       		.uleb128 0x13
 5831 2500 556E696E 		.ascii "UninstallMultipleProtocolInterfaces\0"
 5831      7374616C 
 5831      6C4D756C 
 5831      7469706C 
 5831      6550726F 
 5832 2524 AB03     		.word	0x3ab
 5833 2526 30       		.byte	0x30
 5834 2527 C4180000 		.long	0x18c4
 5835 252b 5001     		.word	0x150
 5836 252d 13       		.uleb128 0x13
 5837 252e 43616C63 		.ascii "CalculateCrc32\0"
 5837      756C6174 
 5837      65437263 
 5837      333200
 5838 253d B003     		.word	0x3b0
 5839 253f 25       		.byte	0x25
 5840 2540 0D190000 		.long	0x190d
 5841 2544 5801     		.word	0x158
 5842 2546 13       		.uleb128 0x13
 5843 2547 436F7079 		.ascii "CopyMem\0"
 5843      4D656D00 
 5844 254f B503     		.word	0x3b5
 5845 2551 25       		.byte	0x25
 5846 2552 48190000 		.long	0x1948
 5847 2556 6001     		.word	0x160
 5848 2558 13       		.uleb128 0x13
 5849 2559 5365744D 		.ascii "SetMem\0"
 5849      656D00
 5850 2560 B603     		.word	0x3b6
 5851 2562 25       		.byte	0x25
 5852 2563 78190000 		.long	0x1978
 5853 2567 6801     		.word	0x168
 5854 2569 13       		.uleb128 0x13
 5855 256a 43726561 		.ascii "CreateEventEx\0"
 5855      74654576 
 5855      656E7445 
 5855      7800
 5856 2578 B703     		.word	0x3b7
 5857 257a 25       		.byte	0x25
 5858 257b A7190000 		.long	0x19a7
 5859 257f 7001     		.word	0x170
 5860 2581 00       		.byte	0
 5861 2582 07       		.uleb128 0x7
 5862 2583 4546495F 		.ascii "EFI_BOOT_SERVICES\0"
 5862      424F4F54 
 5862      5F534552 
 5862      56494345 
 5862      5300
 5863 2595 08       		.byte	0x8
 5864 2596 B803     		.word	0x3b8
 5865 2598 03       		.byte	0x3
 5866 2599 E7200000 		.long	0x20e7
 5867 259d 1F       		.uleb128 0x1f
 5868 259e 5F454649 		.ascii "_EFI_CONFIGURATION_TABLE\0"
 5868      5F434F4E 
 5868      46494755 
 5868      52415449 
 5868      4F4E5F54 
 5869 25b7 18       		.byte	0x18
 5870 25b8 08       		.byte	0x8
 5871 25b9 D403     		.word	0x3d4
 5872 25bb EB250000 		.long	0x25eb
 5873 25bf 04       		.uleb128 0x4
 5874 25c0 56656E64 		.ascii "VendorGuid\0"
 5874      6F724775 
 5874      696400
 5875 25cb 08       		.byte	0x8
 5876 25cc D503     		.word	0x3d5
 5877 25ce 1D       		.byte	0x1d
 5878 25cf D0030000 		.long	0x3d0
 5879 25d3 00       		.byte	0
 5880 25d4 04       		.uleb128 0x4
 5881 25d5 56656E64 		.ascii "VendorTable\0"
 5881      6F725461 
 5881      626C6500 
 5882 25e1 08       		.byte	0x8
 5883 25e2 D603     		.word	0x3d6
 5884 25e4 1E       		.byte	0x1e
 5885 25e5 64030000 		.long	0x364
 5886 25e9 10       		.byte	0x10
 5887 25ea 00       		.byte	0
 5888 25eb 07       		.uleb128 0x7
 5889 25ec 4546495F 		.ascii "EFI_CONFIGURATION_TABLE\0"
 5889      434F4E46 
 5889      49475552 
 5889      4154494F 
 5889      4E5F5441 
 5890 2604 08       		.byte	0x8
 5891 2605 D703     		.word	0x3d7
 5892 2607 03       		.byte	0x3
 5893 2608 9D250000 		.long	0x259d
 5894 260c 03       		.uleb128 0x3
 5895 260d 660E0000 		.long	0xe66
 5896 2611 03       		.uleb128 0x3
 5897 2612 060D0000 		.long	0xd06
 5898 2616 03       		.uleb128 0x3
 5899 2617 C9200000 		.long	0x20c9
 5900 261b 03       		.uleb128 0x3
 5901 261c 82250000 		.long	0x2582
 5902 2620 03       		.uleb128 0x3
 5903 2621 EB250000 		.long	0x25eb
 5904 2625 07       		.uleb128 0x7
 5905 2626 4546495F 		.ascii "EFI_SYSTEM_TABLE\0"
 5905      53595354 
 5905      454D5F54 
 5905      41424C45 
 5905      00
 5906 2637 08       		.byte	0x8
 5907 2638 0704     		.word	0x407
 5908 263a 03       		.byte	0x3
 5909 263b 84080000 		.long	0x884
 5910 263f 03       		.uleb128 0x3
 5911 2640 25260000 		.long	0x2625
 5912 2644 22       		.uleb128 0x22
 5913 2645 73656564 		.ascii "seed\0"
 5913      00
 5914 264a 3C       		.byte	0x3c
 5915 264b 16       		.byte	0x16
 5916 264c 58020000 		.long	0x258
 5917 2650 09       		.uleb128 0x9
 5918 2651 03       		.byte	0x3
 5919 2652 00000000 		.quad	seed
 5919      00000000 
 5920 265a 3A       		.uleb128 0x3a
 5921 265b 496E6974 		.ascii "InitializeLib\0"
 5921      69616C69 
 5921      7A654C69 
 5921      6200
 5922 2669 0A       		.byte	0xa
 5923 266a E2       		.byte	0xe2
 5924 266b 01       		.byte	0x1
 5925 266c 7B260000 		.long	0x267b
 5926 2670 01       		.uleb128 0x1
 5927 2671 51030000 		.long	0x351
 5928 2675 01       		.uleb128 0x1
 5929 2676 3F260000 		.long	0x263f
 5930 267a 00       		.byte	0
 5931 267b 2F       		.uleb128 0x2f
 5932 267c 5374724C 		.ascii "StrLen\0"
 5932      656E00
 5933 2683 7C01     		.word	0x17c
 5934 2685 02030000 		.long	0x302
 5935 2689 93260000 		.long	0x2693
 5936 268d 01       		.uleb128 0x1
 5937 268e 1A080000 		.long	0x81a
 5938 2692 00       		.byte	0
 5939 2693 2F       		.uleb128 0x2f
 5940 2694 5072696E 		.ascii "Print\0"
 5940      7400
 5941 269a 1502     		.word	0x215
 5942 269c 02030000 		.long	0x302
 5943 26a0 AB260000 		.long	0x26ab
 5944 26a4 01       		.uleb128 0x1
 5945 26a5 1A080000 		.long	0x81a
 5946 26a9 29       		.uleb128 0x29
 5947 26aa 00       		.byte	0
 5948 26ab 3B       		.uleb128 0x3b
 5949 26ac 6566695F 		.ascii "efi_main\0"
 5949      6D61696E 
 5949      00
 5950 26b5 01       		.byte	0x1
 5951 26b6 8D01     		.word	0x18d
 5952 26b8 13       		.byte	0x13
 5953 26b9 2E030000 		.long	0x32e
 5954 26bd 4E0D0000 		.quad	.LFB23
 5954      00000000 
 5955 26c5 64020000 		.quad	.LFE23-.LFB23
 5955      00000000 
 5956 26cd 01       		.uleb128 0x1
 5957 26ce 9C       		.byte	0x9c
 5958 26cf 922A0000 		.long	0x2a92
 5959 26d3 30       		.uleb128 0x30
 5960 26d4 496D6167 		.ascii "ImageHandle\0"
 5960      6548616E 
 5960      646C6500 
 5961 26e0 8D01     		.word	0x18d
 5962 26e2 27       		.byte	0x27
 5963 26e3 51030000 		.long	0x351
 5964 26e7 10000000 		.secrel32	.LLST142
 5965 26eb 0C000000 		.secrel32	.LVUS142
 5966 26ef 10       		.uleb128 0x10
 5967 26f0 4D000000 		.secrel32	.LASF5
 5968 26f4 8D01     		.word	0x18d
 5969 26f6 46       		.byte	0x46
 5970 26f7 3F260000 		.long	0x263f
 5971 26fb 2A000000 		.secrel32	.LLST143
 5972 26ff 22000000 		.secrel32	.LVUS143
 5973 2703 31       		.uleb128 0x31
 5974 2704 59000000 		.secrel32	.LASF6
 5975 2708 0B       		.byte	0xb
 5976 2709 02030000 		.long	0x302
 5977 270d 02       		.uleb128 0x2
 5978 270e 91       		.byte	0x91
 5979 270f 58       		.sleb128 -40
 5980 2710 31       		.uleb128 0x31
 5981 2711 61000000 		.secrel32	.LASF7
 5982 2715 14       		.byte	0x14
 5983 2716 02030000 		.long	0x302
 5984 271a 02       		.uleb128 0x2
 5985 271b 91       		.byte	0x91
 5986 271c 50       		.sleb128 -48
 5987 271d 17       		.uleb128 0x17
 5988 271e 30000000 		.secrel32	.LASF8
 5989 2722 9201     		.word	0x192
 5990 2724 10       		.byte	0x10
 5991 2725 2E030000 		.long	0x32e
 5992 2729 52000000 		.secrel32	.LLST144
 5993 272d 4A000000 		.secrel32	.LVUS144
 5994 2731 17       		.uleb128 0x17
 5995 2732 37000000 		.secrel32	.LASF9
 5996 2736 9901     		.word	0x199
 5997 2738 0B       		.byte	0xb
 5998 2739 02030000 		.long	0x302
 5999 273d 71000000 		.secrel32	.LLST145
 6000 2741 6F000000 		.secrel32	.LVUS145
 6001 2745 08       		.uleb128 0x8
 6002 2746 5C0D0000 		.quad	.LVL326
 6002      00000000 
 6003 274e 5A260000 		.long	0x265a
 6004 2752 64270000 		.long	0x2764
 6005 2756 02       		.uleb128 0x2
 6006 2757 01       		.uleb128 0x1
 6007 2758 52       		.byte	0x52
 6008 2759 03       		.uleb128 0x3
 6009 275a A3       		.byte	0xa3
 6010 275b 01       		.uleb128 0x1
 6011 275c 52       		.byte	0x52
 6012 275d 02       		.uleb128 0x2
 6013 275e 01       		.uleb128 0x1
 6014 275f 51       		.byte	0x51
 6015 2760 02       		.uleb128 0x2
 6016 2761 73       		.byte	0x73
 6017 2762 00       		.sleb128 0
 6018 2763 00       		.byte	0
 6019 2764 0B       		.uleb128 0xb
 6020 2765 780D0000 		.quad	.LVL327
 6020      00000000 
 6021 276d 7E270000 		.long	0x277e
 6022 2771 02       		.uleb128 0x2
 6023 2772 01       		.uleb128 0x1
 6024 2773 58       		.byte	0x58
 6025 2774 02       		.uleb128 0x2
 6026 2775 91       		.byte	0x91
 6027 2776 58       		.sleb128 -40
 6028 2777 02       		.uleb128 0x2
 6029 2778 01       		.uleb128 0x1
 6030 2779 59       		.byte	0x59
 6031 277a 02       		.uleb128 0x2
 6032 277b 91       		.byte	0x91
 6033 277c 50       		.sleb128 -48
 6034 277d 00       		.byte	0
 6035 277e 08       		.uleb128 0x8
 6036 277f 8C0D0000 		.quad	.LVL330
 6036      00000000 
 6037 2787 4B3F0000 		.long	0x3f4b
 6038 278b 96270000 		.long	0x2796
 6039 278f 02       		.uleb128 0x2
 6040 2790 01       		.uleb128 0x1
 6041 2791 52       		.byte	0x52
 6042 2792 02       		.uleb128 0x2
 6043 2793 73       		.byte	0x73
 6044 2794 00       		.sleb128 0
 6045 2795 00       		.byte	0
 6046 2796 08       		.uleb128 0x8
 6047 2797 A40D0000 		.quad	.LVL331
 6047      00000000 
 6048 279f 922A0000 		.long	0x2a92
 6049 27a3 B7270000 		.long	0x27b7
 6050 27a7 02       		.uleb128 0x2
 6051 27a8 01       		.uleb128 0x1
 6052 27a9 52       		.byte	0x52
 6053 27aa 02       		.uleb128 0x2
 6054 27ab 73       		.byte	0x73
 6055 27ac 00       		.sleb128 0
 6056 27ad 02       		.uleb128 0x2
 6057 27ae 01       		.uleb128 0x1
 6058 27af 59       		.byte	0x59
 6059 27b0 05       		.uleb128 0x5
 6060 27b1 0C       		.byte	0xc
 6061 27b2 80969800 		.long	0x989680
 6062 27b6 00       		.byte	0
 6063 27b7 08       		.uleb128 0x8
 6064 27b8 C20D0000 		.quad	.LVL333
 6064      00000000 
 6065 27c0 223D0000 		.long	0x3d22
 6066 27c4 DF270000 		.long	0x27df
 6067 27c8 02       		.uleb128 0x2
 6068 27c9 01       		.uleb128 0x1
 6069 27ca 52       		.byte	0x52
 6070 27cb 02       		.uleb128 0x2
 6071 27cc 73       		.byte	0x73
 6072 27cd 00       		.sleb128 0
 6073 27ce 02       		.uleb128 0x2
 6074 27cf 01       		.uleb128 0x1
 6075 27d0 51       		.byte	0x51
 6076 27d1 02       		.uleb128 0x2
 6077 27d2 74       		.byte	0x74
 6078 27d3 00       		.sleb128 0
 6079 27d4 02       		.uleb128 0x2
 6080 27d5 01       		.uleb128 0x1
 6081 27d6 58       		.byte	0x58
 6082 27d7 01       		.uleb128 0x1
 6083 27d8 3A       		.byte	0x3a
 6084 27d9 02       		.uleb128 0x2
 6085 27da 01       		.uleb128 0x1
 6086 27db 59       		.byte	0x59
 6087 27dc 01       		.uleb128 0x1
 6088 27dd 3A       		.byte	0x3a
 6089 27de 00       		.byte	0
 6090 27df 08       		.uleb128 0x8
 6091 27e0 DA0D0000 		.quad	.LVL334
 6091      00000000 
 6092 27e8 922A0000 		.long	0x2a92
 6093 27ec 00280000 		.long	0x2800
 6094 27f0 02       		.uleb128 0x2
 6095 27f1 01       		.uleb128 0x1
 6096 27f2 52       		.byte	0x52
 6097 27f3 02       		.uleb128 0x2
 6098 27f4 73       		.byte	0x73
 6099 27f5 00       		.sleb128 0
 6100 27f6 02       		.uleb128 0x2
 6101 27f7 01       		.uleb128 0x1
 6102 27f8 59       		.byte	0x59
 6103 27f9 05       		.uleb128 0x5
 6104 27fa 0C       		.byte	0xc
 6105 27fb 80969800 		.long	0x989680
 6106 27ff 00       		.byte	0
 6107 2800 08       		.uleb128 0x8
 6108 2801 EC0D0000 		.quad	.LVL335
 6108      00000000 
 6109 2809 E03B0000 		.long	0x3be0
 6110 280d 18280000 		.long	0x2818
 6111 2811 02       		.uleb128 0x2
 6112 2812 01       		.uleb128 0x1
 6113 2813 52       		.byte	0x52
 6114 2814 02       		.uleb128 0x2
 6115 2815 73       		.byte	0x73
 6116 2816 00       		.sleb128 0
 6117 2817 00       		.byte	0
 6118 2818 08       		.uleb128 0x8
 6119 2819 040E0000 		.quad	.LVL336
 6119      00000000 
 6120 2821 922A0000 		.long	0x2a92
 6121 2825 39280000 		.long	0x2839
 6122 2829 02       		.uleb128 0x2
 6123 282a 01       		.uleb128 0x1
 6124 282b 52       		.byte	0x52
 6125 282c 02       		.uleb128 0x2
 6126 282d 73       		.byte	0x73
 6127 282e 00       		.sleb128 0
 6128 282f 02       		.uleb128 0x2
 6129 2830 01       		.uleb128 0x1
 6130 2831 59       		.byte	0x59
 6131 2832 05       		.uleb128 0x5
 6132 2833 0C       		.byte	0xc
 6133 2834 80969800 		.long	0x989680
 6134 2838 00       		.byte	0
 6135 2839 08       		.uleb128 0x8
 6136 283a 240E0000 		.quad	.LVL337
 6136      00000000 
 6137 2842 503A0000 		.long	0x3a50
 6138 2846 67280000 		.long	0x2867
 6139 284a 02       		.uleb128 0x2
 6140 284b 01       		.uleb128 0x1
 6141 284c 52       		.byte	0x52
 6142 284d 02       		.uleb128 0x2
 6143 284e 73       		.byte	0x73
 6144 284f 00       		.sleb128 0
 6145 2850 02       		.uleb128 0x2
 6146 2851 01       		.uleb128 0x1
 6147 2852 51       		.byte	0x51
 6148 2853 02       		.uleb128 0x2
 6149 2854 74       		.byte	0x74
 6150 2855 00       		.sleb128 0
 6151 2856 02       		.uleb128 0x2
 6152 2857 01       		.uleb128 0x1
 6153 2858 58       		.byte	0x58
 6154 2859 01       		.uleb128 0x1
 6155 285a 30       		.byte	0x30
 6156 285b 02       		.uleb128 0x2
 6157 285c 01       		.uleb128 0x1
 6158 285d 59       		.byte	0x59
 6159 285e 01       		.uleb128 0x1
 6160 285f 3A       		.byte	0x3a
 6161 2860 02       		.uleb128 0x2
 6162 2861 02       		.uleb128 0x2
 6163 2862 77       		.byte	0x77
 6164 2863 20       		.sleb128 32
 6165 2864 01       		.uleb128 0x1
 6166 2865 32       		.byte	0x32
 6167 2866 00       		.byte	0
 6168 2867 08       		.uleb128 0x8
 6169 2868 3C0E0000 		.quad	.LVL338
 6169      00000000 
 6170 2870 922A0000 		.long	0x2a92
 6171 2874 88280000 		.long	0x2888
 6172 2878 02       		.uleb128 0x2
 6173 2879 01       		.uleb128 0x1
 6174 287a 52       		.byte	0x52
 6175 287b 02       		.uleb128 0x2
 6176 287c 73       		.byte	0x73
 6177 287d 00       		.sleb128 0
 6178 287e 02       		.uleb128 0x2
 6179 287f 01       		.uleb128 0x1
 6180 2880 59       		.byte	0x59
 6181 2881 05       		.uleb128 0x5
 6182 2882 0C       		.byte	0xc
 6183 2883 80969800 		.long	0x989680
 6184 2887 00       		.byte	0
 6185 2888 08       		.uleb128 0x8
 6186 2889 570E0000 		.quad	.LVL339
 6186      00000000 
 6187 2891 FE380000 		.long	0x38fe
 6188 2895 A6280000 		.long	0x28a6
 6189 2899 02       		.uleb128 0x2
 6190 289a 01       		.uleb128 0x1
 6191 289b 52       		.byte	0x52
 6192 289c 02       		.uleb128 0x2
 6193 289d 73       		.byte	0x73
 6194 289e 00       		.sleb128 0
 6195 289f 02       		.uleb128 0x2
 6196 28a0 01       		.uleb128 0x1
 6197 28a1 51       		.byte	0x51
 6198 28a2 02       		.uleb128 0x2
 6199 28a3 74       		.byte	0x74
 6200 28a4 00       		.sleb128 0
 6201 28a5 00       		.byte	0
 6202 28a6 08       		.uleb128 0x8
 6203 28a7 6F0E0000 		.quad	.LVL340
 6203      00000000 
 6204 28af 922A0000 		.long	0x2a92
 6205 28b3 C7280000 		.long	0x28c7
 6206 28b7 02       		.uleb128 0x2
 6207 28b8 01       		.uleb128 0x1
 6208 28b9 52       		.byte	0x52
 6209 28ba 02       		.uleb128 0x2
 6210 28bb 73       		.byte	0x73
 6211 28bc 00       		.sleb128 0
 6212 28bd 02       		.uleb128 0x2
 6213 28be 01       		.uleb128 0x1
 6214 28bf 59       		.byte	0x59
 6215 28c0 05       		.uleb128 0x5
 6216 28c1 0C       		.byte	0xc
 6217 28c2 80969800 		.long	0x989680
 6218 28c6 00       		.byte	0
 6219 28c7 08       		.uleb128 0x8
 6220 28c8 860E0000 		.quad	.LVL341
 6220      00000000 
 6221 28d0 EF370000 		.long	0x37ef
 6222 28d4 EF280000 		.long	0x28ef
 6223 28d8 02       		.uleb128 0x2
 6224 28d9 01       		.uleb128 0x1
 6225 28da 52       		.byte	0x52
 6226 28db 02       		.uleb128 0x2
 6227 28dc 73       		.byte	0x73
 6228 28dd 00       		.sleb128 0
 6229 28de 02       		.uleb128 0x2
 6230 28df 01       		.uleb128 0x1
 6231 28e0 51       		.byte	0x51
 6232 28e1 02       		.uleb128 0x2
 6233 28e2 74       		.byte	0x74
 6234 28e3 00       		.sleb128 0
 6235 28e4 02       		.uleb128 0x2
 6236 28e5 01       		.uleb128 0x1
 6237 28e6 58       		.byte	0x58
 6238 28e7 01       		.uleb128 0x1
 6239 28e8 35       		.byte	0x35
 6240 28e9 02       		.uleb128 0x2
 6241 28ea 01       		.uleb128 0x1
 6242 28eb 59       		.byte	0x59
 6243 28ec 01       		.uleb128 0x1
 6244 28ed 35       		.byte	0x35
 6245 28ee 00       		.byte	0
 6246 28ef 08       		.uleb128 0x8
 6247 28f0 9E0E0000 		.quad	.LVL342
 6247      00000000 
 6248 28f8 922A0000 		.long	0x2a92
 6249 28fc 10290000 		.long	0x2910
 6250 2900 02       		.uleb128 0x2
 6251 2901 01       		.uleb128 0x1
 6252 2902 52       		.byte	0x52
 6253 2903 02       		.uleb128 0x2
 6254 2904 73       		.byte	0x73
 6255 2905 00       		.sleb128 0
 6256 2906 02       		.uleb128 0x2
 6257 2907 01       		.uleb128 0x1
 6258 2908 59       		.byte	0x59
 6259 2909 05       		.uleb128 0x5
 6260 290a 0C       		.byte	0xc
 6261 290b 80969800 		.long	0x989680
 6262 290f 00       		.byte	0
 6263 2910 08       		.uleb128 0x8
 6264 2911 B00E0000 		.quad	.LVL343
 6264      00000000 
 6265 2919 B7360000 		.long	0x36b7
 6266 291d 28290000 		.long	0x2928
 6267 2921 02       		.uleb128 0x2
 6268 2922 01       		.uleb128 0x1
 6269 2923 52       		.byte	0x52
 6270 2924 02       		.uleb128 0x2
 6271 2925 73       		.byte	0x73
 6272 2926 00       		.sleb128 0
 6273 2927 00       		.byte	0
 6274 2928 08       		.uleb128 0x8
 6275 2929 C80E0000 		.quad	.LVL344
 6275      00000000 
 6276 2931 922A0000 		.long	0x2a92
 6277 2935 49290000 		.long	0x2949
 6278 2939 02       		.uleb128 0x2
 6279 293a 01       		.uleb128 0x1
 6280 293b 52       		.byte	0x52
 6281 293c 02       		.uleb128 0x2
 6282 293d 73       		.byte	0x73
 6283 293e 00       		.sleb128 0
 6284 293f 02       		.uleb128 0x2
 6285 2940 01       		.uleb128 0x1
 6286 2941 59       		.byte	0x59
 6287 2942 05       		.uleb128 0x5
 6288 2943 0C       		.byte	0xc
 6289 2944 80969800 		.long	0x989680
 6290 2948 00       		.byte	0
 6291 2949 08       		.uleb128 0x8
 6292 294a DA0E0000 		.quad	.LVL345
 6292      00000000 
 6293 2952 33350000 		.long	0x3533
 6294 2956 61290000 		.long	0x2961
 6295 295a 02       		.uleb128 0x2
 6296 295b 01       		.uleb128 0x1
 6297 295c 52       		.byte	0x52
 6298 295d 02       		.uleb128 0x2
 6299 295e 73       		.byte	0x73
 6300 295f 00       		.sleb128 0
 6301 2960 00       		.byte	0
 6302 2961 08       		.uleb128 0x8
 6303 2962 F20E0000 		.quad	.LVL346
 6303      00000000 
 6304 296a 922A0000 		.long	0x2a92
 6305 296e 82290000 		.long	0x2982
 6306 2972 02       		.uleb128 0x2
 6307 2973 01       		.uleb128 0x1
 6308 2974 52       		.byte	0x52
 6309 2975 02       		.uleb128 0x2
 6310 2976 73       		.byte	0x73
 6311 2977 00       		.sleb128 0
 6312 2978 02       		.uleb128 0x2
 6313 2979 01       		.uleb128 0x1
 6314 297a 59       		.byte	0x59
 6315 297b 05       		.uleb128 0x5
 6316 297c 0C       		.byte	0xc
 6317 297d 80969800 		.long	0x989680
 6318 2981 00       		.byte	0
 6319 2982 08       		.uleb128 0x8
 6320 2983 FA0E0000 		.quad	.LVL347
 6320      00000000 
 6321 298b 51340000 		.long	0x3451
 6322 298f 9A290000 		.long	0x299a
 6323 2993 02       		.uleb128 0x2
 6324 2994 01       		.uleb128 0x1
 6325 2995 52       		.byte	0x52
 6326 2996 02       		.uleb128 0x2
 6327 2997 73       		.byte	0x73
 6328 2998 00       		.sleb128 0
 6329 2999 00       		.byte	0
 6330 299a 08       		.uleb128 0x8
 6331 299b 120F0000 		.quad	.LVL348
 6331      00000000 
 6332 29a3 922A0000 		.long	0x2a92
 6333 29a7 BB290000 		.long	0x29bb
 6334 29ab 02       		.uleb128 0x2
 6335 29ac 01       		.uleb128 0x1
 6336 29ad 52       		.byte	0x52
 6337 29ae 02       		.uleb128 0x2
 6338 29af 73       		.byte	0x73
 6339 29b0 00       		.sleb128 0
 6340 29b1 02       		.uleb128 0x2
 6341 29b2 01       		.uleb128 0x1
 6342 29b3 59       		.byte	0x59
 6343 29b4 05       		.uleb128 0x5
 6344 29b5 0C       		.byte	0xc
 6345 29b6 80969800 		.long	0x989680
 6346 29ba 00       		.byte	0
 6347 29bb 08       		.uleb128 0x8
 6348 29bc 290F0000 		.quad	.LVL349
 6348      00000000 
 6349 29c4 1C330000 		.long	0x331c
 6350 29c8 E3290000 		.long	0x29e3
 6351 29cc 02       		.uleb128 0x2
 6352 29cd 01       		.uleb128 0x1
 6353 29ce 52       		.byte	0x52
 6354 29cf 02       		.uleb128 0x2
 6355 29d0 73       		.byte	0x73
 6356 29d1 00       		.sleb128 0
 6357 29d2 02       		.uleb128 0x2
 6358 29d3 01       		.uleb128 0x1
 6359 29d4 51       		.byte	0x51
 6360 29d5 02       		.uleb128 0x2
 6361 29d6 74       		.byte	0x74
 6362 29d7 00       		.sleb128 0
 6363 29d8 02       		.uleb128 0x2
 6364 29d9 01       		.uleb128 0x1
 6365 29da 58       		.byte	0x58
 6366 29db 01       		.uleb128 0x1
 6367 29dc 44       		.byte	0x44
 6368 29dd 02       		.uleb128 0x2
 6369 29de 01       		.uleb128 0x1
 6370 29df 59       		.byte	0x59
 6371 29e0 01       		.uleb128 0x1
 6372 29e1 3A       		.byte	0x3a
 6373 29e2 00       		.byte	0
 6374 29e3 08       		.uleb128 0x8
 6375 29e4 410F0000 		.quad	.LVL350
 6375      00000000 
 6376 29ec 922A0000 		.long	0x2a92
 6377 29f0 042A0000 		.long	0x2a04
 6378 29f4 02       		.uleb128 0x2
 6379 29f5 01       		.uleb128 0x1
 6380 29f6 52       		.byte	0x52
 6381 29f7 02       		.uleb128 0x2
 6382 29f8 73       		.byte	0x73
 6383 29f9 00       		.sleb128 0
 6384 29fa 02       		.uleb128 0x2
 6385 29fb 01       		.uleb128 0x1
 6386 29fc 59       		.byte	0x59
 6387 29fd 05       		.uleb128 0x5
 6388 29fe 0C       		.byte	0xc
 6389 29ff 80969800 		.long	0x989680
 6390 2a03 00       		.byte	0
 6391 2a04 08       		.uleb128 0x8
 6392 2a05 530F0000 		.quad	.LVL351
 6392      00000000 
 6393 2a0d 49310000 		.long	0x3149
 6394 2a11 1C2A0000 		.long	0x2a1c
 6395 2a15 02       		.uleb128 0x2
 6396 2a16 01       		.uleb128 0x1
 6397 2a17 52       		.byte	0x52
 6398 2a18 02       		.uleb128 0x2
 6399 2a19 73       		.byte	0x73
 6400 2a1a 00       		.sleb128 0
 6401 2a1b 00       		.byte	0
 6402 2a1c 08       		.uleb128 0x8
 6403 2a1d 6B0F0000 		.quad	.LVL352
 6403      00000000 
 6404 2a25 922A0000 		.long	0x2a92
 6405 2a29 3D2A0000 		.long	0x2a3d
 6406 2a2d 02       		.uleb128 0x2
 6407 2a2e 01       		.uleb128 0x1
 6408 2a2f 52       		.byte	0x52
 6409 2a30 02       		.uleb128 0x2
 6410 2a31 73       		.byte	0x73
 6411 2a32 00       		.sleb128 0
 6412 2a33 02       		.uleb128 0x2
 6413 2a34 01       		.uleb128 0x1
 6414 2a35 59       		.byte	0x59
 6415 2a36 05       		.uleb128 0x5
 6416 2a37 0C       		.byte	0xc
 6417 2a38 80969800 		.long	0x989680
 6418 2a3c 00       		.byte	0
 6419 2a3d 08       		.uleb128 0x8
 6420 2a3e 7D0F0000 		.quad	.LVL353
 6420      00000000 
 6421 2a46 5D2F0000 		.long	0x2f5d
 6422 2a4a 552A0000 		.long	0x2a55
 6423 2a4e 02       		.uleb128 0x2
 6424 2a4f 01       		.uleb128 0x1
 6425 2a50 52       		.byte	0x52
 6426 2a51 02       		.uleb128 0x2
 6427 2a52 73       		.byte	0x73
 6428 2a53 00       		.sleb128 0
 6429 2a54 00       		.byte	0
 6430 2a55 08       		.uleb128 0x8
 6431 2a56 950F0000 		.quad	.LVL354
 6431      00000000 
 6432 2a5e 922A0000 		.long	0x2a92
 6433 2a62 762A0000 		.long	0x2a76
 6434 2a66 02       		.uleb128 0x2
 6435 2a67 01       		.uleb128 0x1
 6436 2a68 52       		.byte	0x52
 6437 2a69 02       		.uleb128 0x2
 6438 2a6a 73       		.byte	0x73
 6439 2a6b 00       		.sleb128 0
 6440 2a6c 02       		.uleb128 0x2
 6441 2a6d 01       		.uleb128 0x1
 6442 2a6e 59       		.byte	0x59
 6443 2a6f 05       		.uleb128 0x5
 6444 2a70 0C       		.byte	0xc
 6445 2a71 80969800 		.long	0x989680
 6446 2a75 00       		.byte	0
 6447 2a76 0F       		.uleb128 0xf
 6448 2a77 B00F0000 		.quad	.LVL358
 6448      00000000 
 6449 2a7f 93260000 		.long	0x2693
 6450 2a83 02       		.uleb128 0x2
 6451 2a84 01       		.uleb128 0x1
 6452 2a85 52       		.byte	0x52
 6453 2a86 09       		.uleb128 0x9
 6454 2a87 03       		.byte	0x3
 6455 2a88 E0000000 		.quad	.LC16
 6455      00000000 
 6456 2a90 00       		.byte	0
 6457 2a91 00       		.byte	0
 6458 2a92 2A       		.uleb128 0x2a
 6459 2a93 6472616D 		.ascii "dramatic_sound_effects\0"
 6459      61746963 
 6459      5F736F75 
 6459      6E645F65 
 6459      66666563 
 6460 2aaa 6901     		.word	0x169
 6461 2aac DD0B0000 		.quad	.LFB22
 6461      00000000 
 6462 2ab4 71010000 		.quad	.LFE22-.LFB22
 6462      00000000 
 6463 2abc 01       		.uleb128 0x1
 6464 2abd 9C       		.byte	0x9c
 6465 2abe 042D0000 		.long	0x2d04
 6466 2ac2 10       		.uleb128 0x10
 6467 2ac3 4D000000 		.secrel32	.LASF5
 6468 2ac7 6901     		.word	0x169
 6469 2ac9 2F       		.byte	0x2f
 6470 2aca 3F260000 		.long	0x263f
 6471 2ace 82000000 		.secrel32	.LLST133
 6472 2ad2 7E000000 		.secrel32	.LVUS133
 6473 2ad6 10       		.uleb128 0x10
 6474 2ad7 59000000 		.secrel32	.LASF6
 6475 2adb 6901     		.word	0x169
 6476 2add 42       		.byte	0x42
 6477 2ade 02030000 		.long	0x302
 6478 2ae2 9A000000 		.secrel32	.LLST134
 6479 2ae6 94000000 		.secrel32	.LVUS134
 6480 2aea 10       		.uleb128 0x10
 6481 2aeb 61000000 		.secrel32	.LASF7
 6482 2aef 6901     		.word	0x169
 6483 2af1 51       		.byte	0x51
 6484 2af2 02030000 		.long	0x302
 6485 2af6 B9000000 		.secrel32	.LLST135
 6486 2afa B3000000 		.secrel32	.LVUS135
 6487 2afe 10       		.uleb128 0x10
 6488 2aff 37000000 		.secrel32	.LASF9
 6489 2b03 6901     		.word	0x169
 6490 2b05 5D       		.byte	0x5d
 6491 2b06 02030000 		.long	0x302
 6492 2b0a D6000000 		.secrel32	.LLST136
 6493 2b0e D2000000 		.secrel32	.LVUS136
 6494 2b12 17       		.uleb128 0x17
 6495 2b13 46000000 		.secrel32	.LASF3
 6496 2b17 6A01     		.word	0x16a
 6497 2b19 23       		.byte	0x23
 6498 2b1a 042D0000 		.long	0x2d04
 6499 2b1e EA000000 		.secrel32	.LLST137
 6500 2b22 E8000000 		.secrel32	.LVUS137
 6501 2b26 11       		.uleb128 0x11
 6502 2b27 69746572 		.ascii "iterations\0"
 6502      6174696F 
 6502      6E7300
 6503 2b32 6B01     		.word	0x16b
 6504 2b34 0B       		.byte	0xb
 6505 2b35 02030000 		.long	0x302
 6506 2b39 F6000000 		.secrel32	.LLST138
 6507 2b3d F2000000 		.secrel32	.LVUS138
 6508 2b41 12       		.uleb128 0x12
 6509 2b42 0E0C0000 		.quad	.LBB79
 6509      00000000 
 6510 2b4a 2F010000 		.quad	.LBE79-.LBB79
 6510      00000000 
 6511 2b52 11       		.uleb128 0x11
 6512 2b53 6900     		.ascii "i\0"
 6513 2b55 6D01     		.word	0x16d
 6514 2b57 10       		.byte	0x10
 6515 2b58 02030000 		.long	0x302
 6516 2b5c 09010000 		.secrel32	.LLST139
 6517 2b60 05010000 		.secrel32	.LVUS139
 6518 2b64 19       		.uleb128 0x19
 6519 2b65 B1000000 		.secrel32	.LLRL140
 6520 2b69 17       		.uleb128 0x17
 6521 2b6a 2A000000 		.secrel32	.LASF10
 6522 2b6e 6F01     		.word	0x16f
 6523 2b70 0F       		.byte	0xf
 6524 2b71 02030000 		.long	0x302
 6525 2b75 1B010000 		.secrel32	.LLST141
 6526 2b79 19010000 		.secrel32	.LVUS141
 6527 2b7d 08       		.uleb128 0x8
 6528 2b7e 2D0C0000 		.quad	.LVL303
 6528      00000000 
 6529 2b86 78420000 		.long	0x4278
 6530 2b8a 982B0000 		.long	0x2b98
 6531 2b8e 02       		.uleb128 0x2
 6532 2b8f 01       		.uleb128 0x1
 6533 2b90 52       		.byte	0x52
 6534 2b91 05       		.uleb128 0x5
 6535 2b92 0C       		.byte	0xc
 6536 2b93 20A10700 		.long	0x7a120
 6537 2b97 00       		.byte	0
 6538 2b98 0B       		.uleb128 0xb
 6539 2b99 4E0C0000 		.quad	.LVL306
 6539      00000000 
 6540 2ba1 AC2B0000 		.long	0x2bac
 6541 2ba5 02       		.uleb128 0x2
 6542 2ba6 01       		.uleb128 0x1
 6543 2ba7 52       		.byte	0x52
 6544 2ba8 02       		.uleb128 0x2
 6545 2ba9 73       		.byte	0x73
 6546 2baa 00       		.sleb128 0
 6547 2bab 00       		.byte	0
 6548 2bac 0B       		.uleb128 0xb
 6549 2bad 540C0000 		.quad	.LVL307
 6549      00000000 
 6550 2bb5 C02B0000 		.long	0x2bc0
 6551 2bb9 02       		.uleb128 0x2
 6552 2bba 01       		.uleb128 0x1
 6553 2bbb 52       		.byte	0x52
 6554 2bbc 02       		.uleb128 0x2
 6555 2bbd 73       		.byte	0x73
 6556 2bbe 00       		.sleb128 0
 6557 2bbf 00       		.byte	0
 6558 2bc0 0B       		.uleb128 0xb
 6559 2bc1 700C0000 		.quad	.LVL308
 6559      00000000 
 6560 2bc9 E02B0000 		.long	0x2be0
 6561 2bcd 02       		.uleb128 0x2
 6562 2bce 01       		.uleb128 0x1
 6563 2bcf 52       		.byte	0x52
 6564 2bd0 02       		.uleb128 0x2
 6565 2bd1 73       		.byte	0x73
 6566 2bd2 00       		.sleb128 0
 6567 2bd3 02       		.uleb128 0x2
 6568 2bd4 01       		.uleb128 0x1
 6569 2bd5 51       		.byte	0x51
 6570 2bd6 02       		.uleb128 0x2
 6571 2bd7 75       		.byte	0x75
 6572 2bd8 00       		.sleb128 0
 6573 2bd9 02       		.uleb128 0x2
 6574 2bda 01       		.uleb128 0x1
 6575 2bdb 58       		.byte	0x58
 6576 2bdc 02       		.uleb128 0x2
 6577 2bdd 76       		.byte	0x76
 6578 2bde 00       		.sleb128 0
 6579 2bdf 00       		.byte	0
 6580 2be0 08       		.uleb128 0x8
 6581 2be1 7C0C0000 		.quad	.LVL309
 6581      00000000 
 6582 2be9 93260000 		.long	0x2693
 6583 2bed FF2B0000 		.long	0x2bff
 6584 2bf1 02       		.uleb128 0x2
 6585 2bf2 01       		.uleb128 0x1
 6586 2bf3 52       		.byte	0x52
 6587 2bf4 09       		.uleb128 0x9
 6588 2bf5 03       		.byte	0x3
 6589 2bf6 88000000 		.quad	.LC13
 6589      00000000 
 6590 2bfe 00       		.byte	0
 6591 2bff 08       		.uleb128 0x8
 6592 2c00 900C0000 		.quad	.LVL310
 6592      00000000 
 6593 2c08 092D0000 		.long	0x2d09
 6594 2c0c 182C0000 		.long	0x2c18
 6595 2c10 02       		.uleb128 0x2
 6596 2c11 01       		.uleb128 0x1
 6597 2c12 51       		.byte	0x51
 6598 2c13 03       		.uleb128 0x3
 6599 2c14 0A       		.byte	0xa
 6600 2c15 50C3     		.word	0xc350
 6601 2c17 00       		.byte	0
 6602 2c18 0B       		.uleb128 0xb
 6603 2c19 C00C0000 		.quad	.LVL311
 6603      00000000 
 6604 2c21 382C0000 		.long	0x2c38
 6605 2c25 02       		.uleb128 0x2
 6606 2c26 01       		.uleb128 0x1
 6607 2c27 52       		.byte	0x52
 6608 2c28 02       		.uleb128 0x2
 6609 2c29 73       		.byte	0x73
 6610 2c2a 00       		.sleb128 0
 6611 2c2b 02       		.uleb128 0x2
 6612 2c2c 01       		.uleb128 0x1
 6613 2c2d 51       		.byte	0x51
 6614 2c2e 02       		.uleb128 0x2
 6615 2c2f 75       		.byte	0x75
 6616 2c30 00       		.sleb128 0
 6617 2c31 02       		.uleb128 0x2
 6618 2c32 01       		.uleb128 0x1
 6619 2c33 58       		.byte	0x58
 6620 2c34 02       		.uleb128 0x2
 6621 2c35 76       		.byte	0x76
 6622 2c36 01       		.sleb128 1
 6623 2c37 00       		.byte	0
 6624 2c38 08       		.uleb128 0x8
 6625 2c39 CC0C0000 		.quad	.LVL312
 6625      00000000 
 6626 2c41 93260000 		.long	0x2693
 6627 2c45 572C0000 		.long	0x2c57
 6628 2c49 02       		.uleb128 0x2
 6629 2c4a 01       		.uleb128 0x1
 6630 2c4b 52       		.byte	0x52
 6631 2c4c 09       		.uleb128 0x9
 6632 2c4d 03       		.byte	0x3
 6633 2c4e B0000000 		.quad	.LC14
 6633      00000000 
 6634 2c56 00       		.byte	0
 6635 2c57 08       		.uleb128 0x8
 6636 2c58 DB0C0000 		.quad	.LVL313
 6636      00000000 
 6637 2c60 092D0000 		.long	0x2d09
 6638 2c64 792C0000 		.long	0x2c79
 6639 2c68 02       		.uleb128 0x2
 6640 2c69 01       		.uleb128 0x1
 6641 2c6a 52       		.byte	0x52
 6642 2c6b 03       		.uleb128 0x3
 6643 2c6c 0A       		.byte	0xa
 6644 2c6d DC05     		.word	0x5dc
 6645 2c6f 02       		.uleb128 0x2
 6646 2c70 01       		.uleb128 0x1
 6647 2c71 51       		.byte	0x51
 6648 2c72 05       		.uleb128 0x5
 6649 2c73 0C       		.byte	0xc
 6650 2c74 A0860100 		.long	0x186a0
 6651 2c78 00       		.byte	0
 6652 2c79 0B       		.uleb128 0xb
 6653 2c7a 0A0D0000 		.quad	.LVL314
 6653      00000000 
 6654 2c82 922C0000 		.long	0x2c92
 6655 2c86 02       		.uleb128 0x2
 6656 2c87 01       		.uleb128 0x1
 6657 2c88 52       		.byte	0x52
 6658 2c89 02       		.uleb128 0x2
 6659 2c8a 73       		.byte	0x73
 6660 2c8b 00       		.sleb128 0
 6661 2c8c 02       		.uleb128 0x2
 6662 2c8d 01       		.uleb128 0x1
 6663 2c8e 51       		.byte	0x51
 6664 2c8f 01       		.uleb128 0x1
 6665 2c90 32       		.byte	0x32
 6666 2c91 00       		.byte	0
 6667 2c92 0B       		.uleb128 0xb
 6668 2c93 100D0000 		.quad	.LVL315
 6668      00000000 
 6669 2c9b A62C0000 		.long	0x2ca6
 6670 2c9f 02       		.uleb128 0x2
 6671 2ca0 01       		.uleb128 0x1
 6672 2ca1 52       		.byte	0x52
 6673 2ca2 02       		.uleb128 0x2
 6674 2ca3 73       		.byte	0x73
 6675 2ca4 00       		.sleb128 0
 6676 2ca5 00       		.byte	0
 6677 2ca6 0B       		.uleb128 0xb
 6678 2ca7 1D0D0000 		.quad	.LVL316
 6678      00000000 
 6679 2caf C62C0000 		.long	0x2cc6
 6680 2cb3 02       		.uleb128 0x2
 6681 2cb4 01       		.uleb128 0x1
 6682 2cb5 52       		.byte	0x52
 6683 2cb6 02       		.uleb128 0x2
 6684 2cb7 73       		.byte	0x73
 6685 2cb8 00       		.sleb128 0
 6686 2cb9 02       		.uleb128 0x2
 6687 2cba 01       		.uleb128 0x1
 6688 2cbb 51       		.byte	0x51
 6689 2cbc 02       		.uleb128 0x2
 6690 2cbd 75       		.byte	0x75
 6691 2cbe 00       		.sleb128 0
 6692 2cbf 02       		.uleb128 0x2
 6693 2cc0 01       		.uleb128 0x1
 6694 2cc1 58       		.byte	0x58
 6695 2cc2 02       		.uleb128 0x2
 6696 2cc3 76       		.byte	0x76
 6697 2cc4 02       		.sleb128 2
 6698 2cc5 00       		.byte	0
 6699 2cc6 08       		.uleb128 0x8
 6700 2cc7 290D0000 		.quad	.LVL317
 6700      00000000 
 6701 2ccf 93260000 		.long	0x2693
 6702 2cd3 E52C0000 		.long	0x2ce5
 6703 2cd7 02       		.uleb128 0x2
 6704 2cd8 01       		.uleb128 0x1
 6705 2cd9 52       		.byte	0x52
 6706 2cda 09       		.uleb128 0x9
 6707 2cdb 03       		.byte	0x3
 6708 2cdc D8000000 		.quad	.LC15
 6708      00000000 
 6709 2ce4 00       		.byte	0
 6710 2ce5 0F       		.uleb128 0xf
 6711 2ce6 380D0000 		.quad	.LVL318
 6711      00000000 
 6712 2cee 092D0000 		.long	0x2d09
 6713 2cf2 02       		.uleb128 0x2
 6714 2cf3 01       		.uleb128 0x1
 6715 2cf4 52       		.byte	0x52
 6716 2cf5 03       		.uleb128 0x3
 6717 2cf6 0A       		.byte	0xa
 6718 2cf7 B80B     		.word	0xbb8
 6719 2cf9 02       		.uleb128 0x2
 6720 2cfa 01       		.uleb128 0x1
 6721 2cfb 51       		.byte	0x51
 6722 2cfc 03       		.uleb128 0x3
 6723 2cfd 0A       		.byte	0xa
 6724 2cfe 50C3     		.word	0xc350
 6725 2d00 00       		.byte	0
 6726 2d01 00       		.byte	0
 6727 2d02 00       		.byte	0
 6728 2d03 00       		.byte	0
 6729 2d04 03       		.uleb128 0x3
 6730 2d05 2B0D0000 		.long	0xd2b
 6731 2d09 2A       		.uleb128 0x2a
 6732 2d0a 706C6179 		.ascii "play_beep\0"
 6732      5F626565 
 6732      7000
 6733 2d14 5401     		.word	0x154
 6734 2d16 990B0000 		.quad	.LFB21
 6734      00000000 
 6735 2d1e 44000000 		.quad	.LFE21-.LFB21
 6735      00000000 
 6736 2d26 01       		.uleb128 0x1
 6737 2d27 9C       		.byte	0x9c
 6738 2d28 5D2F0000 		.long	0x2f5d
 6739 2d2c 30       		.uleb128 0x30
 6740 2d2d 66726571 		.ascii "frequency\0"
 6740      75656E63 
 6740      7900
 6741 2d37 5401     		.word	0x154
 6742 2d39 16       		.byte	0x16
 6743 2d3a 02030000 		.long	0x302
 6744 2d3e 29010000 		.secrel32	.LLST115
 6745 2d42 23010000 		.secrel32	.LVUS115
 6746 2d46 10       		.uleb128 0x10
 6747 2d47 66000000 		.secrel32	.LASF11
 6748 2d4b 5401     		.word	0x154
 6749 2d4d 27       		.byte	0x27
 6750 2d4e 02030000 		.long	0x302
 6751 2d52 48010000 		.secrel32	.LLST116
 6752 2d56 42010000 		.secrel32	.LVUS116
 6753 2d5a 11       		.uleb128 0x11
 6754 2d5b 64697669 		.ascii "divisor\0"
 6754      736F7200 
 6755 2d63 5501     		.word	0x155
 6756 2d65 0B       		.byte	0xb
 6757 2d66 02030000 		.long	0x302
 6758 2d6a 67010000 		.secrel32	.LLST117
 6759 2d6e 61010000 		.secrel32	.LVUS117
 6760 2d72 11       		.uleb128 0x11
 6761 2d73 74656D70 		.ascii "temp\0"
 6761      00
 6762 2d78 5D01     		.word	0x15d
 6763 2d7a 0B       		.byte	0xb
 6764 2d7b D9020000 		.long	0x2d9
 6765 2d7f 92010000 		.secrel32	.LLST118
 6766 2d83 8E010000 		.secrel32	.LVUS118
 6767 2d87 1A       		.uleb128 0x1a
 6768 2d88 96430000 		.long	0x4396
 6769 2d8c B40B0000 		.quad	.LBI65
 6769      00000000 
 6770 2d94 01       		.byte	.LVU504
 6771 2d95 B40B0000 		.quad	.LBB65
 6771      00000000 
 6772 2d9d 07000000 		.quad	.LBE65-.LBB65
 6772      00000000 
 6773 2da5 5801     		.word	0x158
 6774 2da7 05       		.byte	0x5
 6775 2da8 C72D0000 		.long	0x2dc7
 6776 2dac 15       		.uleb128 0x15
 6777 2dad A4430000 		.long	0x43a4
 6778 2db1 A3010000 		.secrel32	.LLST119
 6779 2db5 A1010000 		.secrel32	.LVUS119
 6780 2db9 15       		.uleb128 0x15
 6781 2dba B0430000 		.long	0x43b0
 6782 2dbe AF010000 		.secrel32	.LLST120
 6783 2dc2 AD010000 		.secrel32	.LVUS120
 6784 2dc6 00       		.byte	0
 6785 2dc7 1A       		.uleb128 0x1a
 6786 2dc8 96430000 		.long	0x4396
 6787 2dcc BB0B0000 		.quad	.LBI67
 6787      00000000 
 6788 2dd4 02       		.byte	.LVU509
 6789 2dd5 BB0B0000 		.quad	.LBB67
 6789      00000000 
 6790 2ddd 04000000 		.quad	.LBE67-.LBB67
 6790      00000000 
 6791 2de5 5901     		.word	0x159
 6792 2de7 05       		.byte	0x5
 6793 2de8 072E0000 		.long	0x2e07
 6794 2dec 15       		.uleb128 0x15
 6795 2ded A4430000 		.long	0x43a4
 6796 2df1 BB010000 		.secrel32	.LLST121
 6797 2df5 B9010000 		.secrel32	.LVUS121
 6798 2df9 15       		.uleb128 0x15
 6799 2dfa B0430000 		.long	0x43b0
 6800 2dfe C7010000 		.secrel32	.LLST122
 6801 2e02 C5010000 		.secrel32	.LVUS122
 6802 2e06 00       		.byte	0
 6803 2e07 1A       		.uleb128 0x1a
 6804 2e08 96430000 		.long	0x4396
 6805 2e0c C20B0000 		.quad	.LBI69
 6805      00000000 
 6806 2e14 00       		.byte	.LVU513
 6807 2e15 C20B0000 		.quad	.LBB69
 6807      00000000 
 6808 2e1d 02000000 		.quad	.LBE69-.LBB69
 6808      00000000 
 6809 2e25 5A01     		.word	0x15a
 6810 2e27 05       		.byte	0x5
 6811 2e28 472E0000 		.long	0x2e47
 6812 2e2c 15       		.uleb128 0x15
 6813 2e2d A4430000 		.long	0x43a4
 6814 2e31 D1010000 		.secrel32	.LLST123
 6815 2e35 CF010000 		.secrel32	.LVUS123
 6816 2e39 15       		.uleb128 0x15
 6817 2e3a B0430000 		.long	0x43b0
 6818 2e3e DD010000 		.secrel32	.LLST124
 6819 2e42 DB010000 		.secrel32	.LVUS124
 6820 2e46 00       		.byte	0
 6821 2e47 1A       		.uleb128 0x1a
 6822 2e48 6C430000 		.long	0x436c
 6823 2e4c C40B0000 		.quad	.LBI71
 6823      00000000 
 6824 2e54 02       		.byte	.LVU517
 6825 2e55 C40B0000 		.quad	.LBB71
 6825      00000000 
 6826 2e5d 02000000 		.quad	.LBE71-.LBB71
 6826      00000000 
 6827 2e65 5D01     		.word	0x15d
 6828 2e67 12       		.byte	0x12
 6829 2e68 872E0000 		.long	0x2e87
 6830 2e6c 15       		.uleb128 0x15
 6831 2e6d 7D430000 		.long	0x437d
 6832 2e71 EB010000 		.secrel32	.LLST125
 6833 2e75 E9010000 		.secrel32	.LVUS125
 6834 2e79 32       		.uleb128 0x32
 6835 2e7a 89430000 		.long	0x4389
 6836 2e7e F7010000 		.secrel32	.LLST126
 6837 2e82 F5010000 		.secrel32	.LVUS126
 6838 2e86 00       		.byte	0
 6839 2e87 1A       		.uleb128 0x1a
 6840 2e88 96430000 		.long	0x4396
 6841 2e8c C90B0000 		.quad	.LBI73
 6841      00000000 
 6842 2e94 00       		.byte	.LVU523
 6843 2e95 C90B0000 		.quad	.LBB73
 6843      00000000 
 6844 2e9d 02000000 		.quad	.LBE73-.LBB73
 6844      00000000 
 6845 2ea5 5E01     		.word	0x15e
 6846 2ea7 05       		.byte	0x5
 6847 2ea8 C72E0000 		.long	0x2ec7
 6848 2eac 15       		.uleb128 0x15
 6849 2ead A4430000 		.long	0x43a4
 6850 2eb1 01020000 		.secrel32	.LLST127
 6851 2eb5 FF010000 		.secrel32	.LVUS127
 6852 2eb9 15       		.uleb128 0x15
 6853 2eba B0430000 		.long	0x43b0
 6854 2ebe 0D020000 		.secrel32	.LLST128
 6855 2ec2 0B020000 		.secrel32	.LVUS128
 6856 2ec6 00       		.byte	0
 6857 2ec7 1A       		.uleb128 0x1a
 6858 2ec8 6C430000 		.long	0x436c
 6859 2ecc D00B0000 		.quad	.LBI75
 6859      00000000 
 6860 2ed4 01       		.byte	.LVU528
 6861 2ed5 D00B0000 		.quad	.LBB75
 6861      00000000 
 6862 2edd 02000000 		.quad	.LBE75-.LBB75
 6862      00000000 
 6863 2ee5 6401     		.word	0x164
 6864 2ee7 0C       		.byte	0xc
 6865 2ee8 072F0000 		.long	0x2f07
 6866 2eec 15       		.uleb128 0x15
 6867 2eed 7D430000 		.long	0x437d
 6868 2ef1 17020000 		.secrel32	.LLST129
 6869 2ef5 15020000 		.secrel32	.LVUS129
 6870 2ef9 32       		.uleb128 0x32
 6871 2efa 89430000 		.long	0x4389
 6872 2efe 23020000 		.secrel32	.LLST130
 6873 2f02 21020000 		.secrel32	.LVUS130
 6874 2f06 00       		.byte	0
 6875 2f07 1A       		.uleb128 0x1a
 6876 2f08 96430000 		.long	0x4396
 6877 2f0c D20B0000 		.quad	.LBI77
 6877      00000000 
 6878 2f14 03       		.byte	.LVU534
 6879 2f15 D20B0000 		.quad	.LBB77
 6879      00000000 
 6880 2f1d 05000000 		.quad	.LBE77-.LBB77
 6880      00000000 
 6881 2f25 6501     		.word	0x165
 6882 2f27 05       		.byte	0x5
 6883 2f28 472F0000 		.long	0x2f47
 6884 2f2c 15       		.uleb128 0x15
 6885 2f2d A4430000 		.long	0x43a4
 6886 2f31 2D020000 		.secrel32	.LLST131
 6887 2f35 2B020000 		.secrel32	.LVUS131
 6888 2f39 15       		.uleb128 0x15
 6889 2f3a B0430000 		.long	0x43b0
 6890 2f3e 39020000 		.secrel32	.LLST132
 6891 2f42 37020000 		.secrel32	.LVUS132
 6892 2f46 00       		.byte	0
 6893 2f47 0F       		.uleb128 0xf
 6894 2f48 D00B0000 		.quad	.LVL292
 6894      00000000 
 6895 2f50 78420000 		.long	0x4278
 6896 2f54 02       		.uleb128 0x2
 6897 2f55 01       		.uleb128 0x1
 6898 2f56 52       		.byte	0x52
 6899 2f57 03       		.uleb128 0x3
 6900 2f58 A3       		.byte	0xa3
 6901 2f59 01       		.uleb128 0x1
 6902 2f5a 51       		.byte	0x51
 6903 2f5b 00       		.byte	0
 6904 2f5c 00       		.byte	0
 6905 2f5d 2A       		.uleb128 0x2a
 6906 2f5e 72616E64 		.ascii "random_patterns_symbols\0"
 6906      6F6D5F70 
 6906      61747465 
 6906      726E735F 
 6906      73796D62 
 6907 2f76 4001     		.word	0x140
 6908 2f78 9E0A0000 		.quad	.LFB20
 6908      00000000 
 6909 2f80 FB000000 		.quad	.LFE20-.LFB20
 6909      00000000 
 6910 2f88 01       		.uleb128 0x1
 6911 2f89 9C       		.byte	0x9c
 6912 2f8a 39310000 		.long	0x3139
 6913 2f8e 10       		.uleb128 0x10
 6914 2f8f 4D000000 		.secrel32	.LASF5
 6915 2f93 4001     		.word	0x140
 6916 2f95 30       		.byte	0x30
 6917 2f96 3F260000 		.long	0x263f
 6918 2f9a 4C020000 		.secrel32	.LLST105
 6919 2f9e 46020000 		.secrel32	.LVUS105
 6920 2fa2 10       		.uleb128 0x10
 6921 2fa3 59000000 		.secrel32	.LASF6
 6922 2fa7 4001     		.word	0x140
 6923 2fa9 43       		.byte	0x43
 6924 2faa 02030000 		.long	0x302
 6925 2fae 6B020000 		.secrel32	.LLST106
 6926 2fb2 65020000 		.secrel32	.LVUS106
 6927 2fb6 10       		.uleb128 0x10
 6928 2fb7 61000000 		.secrel32	.LASF7
 6929 2fbb 4001     		.word	0x140
 6930 2fbd 52       		.byte	0x52
 6931 2fbe 02030000 		.long	0x302
 6932 2fc2 8A020000 		.secrel32	.LLST107
 6933 2fc6 84020000 		.secrel32	.LVUS107
 6934 2fca 3C       		.uleb128 0x3c
 6935 2fcb 73796D62 		.ascii "symbols\0"
 6935      6F6C7300 
 6936 2fd3 01       		.byte	0x1
 6937 2fd4 4101     		.word	0x141
 6938 2fd6 0C       		.byte	0xc
 6939 2fd7 39310000 		.long	0x3139
 6940 2fdb 03       		.uleb128 0x3
 6941 2fdc 91       		.byte	0x91
 6942 2fdd A07F     		.sleb128 -96
 6943 2fdf 3D       		.uleb128 0x3d
 6944 2fe0 6E756D5F 		.ascii "num_symbols\0"
 6944      73796D62 
 6944      6F6C7300 
 6945 2fec 01       		.byte	0x1
 6946 2fed 4201     		.word	0x142
 6947 2fef 0B       		.byte	0xb
 6948 2ff0 02030000 		.long	0x302
 6949 2ff4 08       		.byte	0x8
 6950 2ff5 12       		.uleb128 0x12
 6951 2ff6 EF0A0000 		.quad	.LBB61
 6951      00000000 
 6952 2ffe 99000000 		.quad	.LBE61-.LBB61
 6952      00000000 
 6953 3006 11       		.uleb128 0x11
 6954 3007 6900     		.ascii "i\0"
 6955 3009 4401     		.word	0x144
 6956 300b 10       		.byte	0x10
 6957 300c 02030000 		.long	0x302
 6958 3010 A7020000 		.secrel32	.LLST108
 6959 3014 A3020000 		.secrel32	.LVUS108
 6960 3018 18       		.uleb128 0x18
 6961 3019 A6000000 		.secrel32	.LLRL109
 6962 301d 20310000 		.long	0x3120
 6963 3021 11       		.uleb128 0x11
 6964 3022 6A00     		.ascii "j\0"
 6965 3024 4501     		.word	0x145
 6966 3026 14       		.byte	0x14
 6967 3027 02030000 		.long	0x302
 6968 302b BB020000 		.secrel32	.LLST110
 6969 302f B9020000 		.secrel32	.LVUS110
 6970 3033 12       		.uleb128 0x12
 6971 3034 FA0A0000 		.quad	.LBB63
 6971      00000000 
 6972 303c 65000000 		.quad	.LBE63-.LBB63
 6972      00000000 
 6973 3044 11       		.uleb128 0x11
 6974 3045 636F6C00 		.ascii "col\0"
 6975 3049 4601     		.word	0x146
 6976 304b 13       		.byte	0x13
 6977 304c 02030000 		.long	0x302
 6978 3050 C7020000 		.secrel32	.LLST111
 6979 3054 C3020000 		.secrel32	.LVUS111
 6980 3058 11       		.uleb128 0x11
 6981 3059 726F7700 		.ascii "row\0"
 6982 305d 4701     		.word	0x147
 6983 305f 13       		.byte	0x13
 6984 3060 02030000 		.long	0x302
 6985 3064 DA020000 		.secrel32	.LLST112
 6986 3068 D6020000 		.secrel32	.LVUS112
 6987 306c 17       		.uleb128 0x17
 6988 306d 2A000000 		.secrel32	.LASF10
 6989 3071 4801     		.word	0x148
 6990 3073 13       		.byte	0x13
 6991 3074 02030000 		.long	0x302
 6992 3078 ED020000 		.secrel32	.LLST113
 6993 307c E9020000 		.secrel32	.LVUS113
 6994 3080 11       		.uleb128 0x11
 6995 3081 73796D62 		.ascii "symbol\0"
 6995      6F6C00
 6996 3088 4901     		.word	0x149
 6997 308a 14       		.byte	0x14
 6998 308b 7C020000 		.long	0x27c
 6999 308f FE020000 		.secrel32	.LLST114
 7000 3093 FC020000 		.secrel32	.LVUS114
 7001 3097 0D       		.uleb128 0xd
 7002 3098 FF0A0000 		.quad	.LVL263
 7002      00000000 
 7003 30a0 B1420000 		.long	0x42b1
 7004 30a4 0D       		.uleb128 0xd
 7005 30a5 110B0000 		.quad	.LVL265
 7005      00000000 
 7006 30ad B1420000 		.long	0x42b1
 7007 30b1 0D       		.uleb128 0xd
 7008 30b2 230B0000 		.quad	.LVL267
 7008      00000000 
 7009 30ba E0410000 		.long	0x41e0
 7010 30be 0D       		.uleb128 0xd
 7011 30bf 2B0B0000 		.quad	.LVL269
 7011      00000000 
 7012 30c7 B1420000 		.long	0x42b1
 7013 30cb 0B       		.uleb128 0xb
 7014 30cc 400B0000 		.quad	.LVL271
 7014      00000000 
 7015 30d4 DF300000 		.long	0x30df
 7016 30d8 02       		.uleb128 0x2
 7017 30d9 01       		.uleb128 0x1
 7018 30da 51       		.byte	0x51
 7019 30db 02       		.uleb128 0x2
 7020 30dc 74       		.byte	0x74
 7021 30dd 00       		.sleb128 0
 7022 30de 00       		.byte	0
 7023 30df 0B       		.uleb128 0xb
 7024 30e0 500B0000 		.quad	.LVL272
 7024      00000000 
 7025 30e8 F9300000 		.long	0x30f9
 7026 30ec 02       		.uleb128 0x2
 7027 30ed 01       		.uleb128 0x1
 7028 30ee 51       		.byte	0x51
 7029 30ef 02       		.uleb128 0x2
 7030 30f0 7E       		.byte	0x7e
 7031 30f1 00       		.sleb128 0
 7032 30f2 02       		.uleb128 0x2
 7033 30f3 01       		.uleb128 0x1
 7034 30f4 58       		.byte	0x58
 7035 30f5 02       		.uleb128 0x2
 7036 30f6 7F       		.byte	0x7f
 7037 30f7 00       		.sleb128 0
 7038 30f8 00       		.byte	0
 7039 30f9 0F       		.uleb128 0xf
 7040 30fa 5F0B0000 		.quad	.LVL273
 7040      00000000 
 7041 3102 93260000 		.long	0x2693
 7042 3106 02       		.uleb128 0x2
 7043 3107 01       		.uleb128 0x1
 7044 3108 52       		.byte	0x52
 7045 3109 09       		.uleb128 0x9
 7046 310a 03       		.byte	0x3
 7047 310b 3A000000 		.quad	.LC7
 7047      00000000 
 7048 3113 02       		.uleb128 0x2
 7049 3114 01       		.uleb128 0x1
 7050 3115 51       		.byte	0x51
 7051 3116 06       		.uleb128 0x6
 7052 3117 73       		.byte	0x73
 7053 3118 00       		.sleb128 0
 7054 3119 0A       		.byte	0xa
 7055 311a FFFF     		.word	0xffff
 7056 311c 1A       		.byte	0x1a
 7057 311d 00       		.byte	0
 7058 311e 00       		.byte	0
 7059 311f 00       		.byte	0
 7060 3120 0F       		.uleb128 0xf
 7061 3121 730B0000 		.quad	.LVL275
 7061      00000000 
 7062 3129 78420000 		.long	0x4278
 7063 312d 02       		.uleb128 0x2
 7064 312e 01       		.uleb128 0x1
 7065 312f 52       		.byte	0x52
 7066 3130 05       		.uleb128 0x5
 7067 3131 0C       		.byte	0xc
 7068 3132 20A10700 		.long	0x7a120
 7069 3136 00       		.byte	0
 7070 3137 00       		.byte	0
 7071 3138 00       		.byte	0
 7072 3139 1D       		.uleb128 0x1d
 7073 313a 7C020000 		.long	0x27c
 7074 313e 49310000 		.long	0x3149
 7075 3142 1E       		.uleb128 0x1e
 7076 3143 3C010000 		.long	0x13c
 7077 3147 07       		.byte	0x7
 7078 3148 00       		.byte	0
 7079 3149 23       		.uleb128 0x23
 7080 314a 666C6173 		.ascii "flashing_borders\0"
 7080      68696E67 
 7080      5F626F72 
 7080      64657273 
 7080      00
 7081 315b 2A01     		.word	0x12a
 7082 315d A8090000 		.quad	.LFB19
 7082      00000000 
 7083 3165 F6000000 		.quad	.LFE19-.LFB19
 7083      00000000 
 7084 316d 01       		.uleb128 0x1
 7085 316e 9C       		.byte	0x9c
 7086 316f 1C330000 		.long	0x331c
 7087 3173 10       		.uleb128 0x10
 7088 3174 4D000000 		.secrel32	.LASF5
 7089 3178 2A01     		.word	0x12a
 7090 317a 29       		.byte	0x29
 7091 317b 3F260000 		.long	0x263f
 7092 317f 0C030000 		.secrel32	.LLST96
 7093 3183 06030000 		.secrel32	.LVUS96
 7094 3187 10       		.uleb128 0x10
 7095 3188 59000000 		.secrel32	.LASF6
 7096 318c 2A01     		.word	0x12a
 7097 318e 3C       		.byte	0x3c
 7098 318f 02030000 		.long	0x302
 7099 3193 2B030000 		.secrel32	.LLST97
 7100 3197 25030000 		.secrel32	.LVUS97
 7101 319b 10       		.uleb128 0x10
 7102 319c 61000000 		.secrel32	.LASF7
 7103 31a0 2A01     		.word	0x12a
 7104 31a2 4B       		.byte	0x4b
 7105 31a3 02030000 		.long	0x302
 7106 31a7 4A030000 		.secrel32	.LLST98
 7107 31ab 44030000 		.secrel32	.LVUS98
 7108 31af 12       		.uleb128 0x12
 7109 31b0 BD090000 		.quad	.LBB55
 7109      00000000 
 7110 31b8 D4000000 		.quad	.LBE55-.LBB55
 7110      00000000 
 7111 31c0 11       		.uleb128 0x11
 7112 31c1 6900     		.ascii "i\0"
 7113 31c3 2B01     		.word	0x12b
 7114 31c5 10       		.byte	0x10
 7115 31c6 02030000 		.long	0x302
 7116 31ca 67030000 		.secrel32	.LLST99
 7117 31ce 63030000 		.secrel32	.LVUS99
 7118 31d2 19       		.uleb128 0x19
 7119 31d3 90000000 		.secrel32	.LLRL100
 7120 31d7 17       		.uleb128 0x17
 7121 31d8 2A000000 		.secrel32	.LASF10
 7122 31dc 2C01     		.word	0x12c
 7123 31de 0F       		.byte	0xf
 7124 31df 02030000 		.long	0x302
 7125 31e3 7B030000 		.secrel32	.LLST101
 7126 31e7 77030000 		.secrel32	.LVUS101
 7127 31eb 18       		.uleb128 0x18
 7128 31ec 9B000000 		.secrel32	.LLRL102
 7129 31f0 68320000 		.long	0x3268
 7130 31f4 11       		.uleb128 0x11
 7131 31f5 636F6C00 		.ascii "col\0"
 7132 31f9 2E01     		.word	0x12e
 7133 31fb 14       		.byte	0x14
 7134 31fc 02030000 		.long	0x302
 7135 3200 8E030000 		.secrel32	.LLST103
 7136 3204 8A030000 		.secrel32	.LVUS103
 7137 3208 0B       		.uleb128 0xb
 7138 3209 DB090000 		.quad	.LVL236
 7138      00000000 
 7139 3211 21320000 		.long	0x3221
 7140 3215 02       		.uleb128 0x2
 7141 3216 01       		.uleb128 0x1
 7142 3217 51       		.byte	0x51
 7143 3218 02       		.uleb128 0x2
 7144 3219 73       		.byte	0x73
 7145 321a 00       		.sleb128 0
 7146 321b 02       		.uleb128 0x2
 7147 321c 01       		.uleb128 0x1
 7148 321d 58       		.byte	0x58
 7149 321e 01       		.uleb128 0x1
 7150 321f 30       		.byte	0x30
 7151 3220 00       		.byte	0
 7152 3221 08       		.uleb128 0x8
 7153 3222 EA090000 		.quad	.LVL237
 7153      00000000 
 7154 322a 93260000 		.long	0x2693
 7155 322e 39320000 		.long	0x3239
 7156 3232 02       		.uleb128 0x2
 7157 3233 01       		.uleb128 0x1
 7158 3234 52       		.byte	0x52
 7159 3235 02       		.uleb128 0x2
 7160 3236 75       		.byte	0x75
 7161 3237 00       		.sleb128 0
 7162 3238 00       		.byte	0
 7163 3239 0B       		.uleb128 0xb
 7164 323a FB090000 		.quad	.LVL238
 7164      00000000 
 7165 3242 53320000 		.long	0x3253
 7166 3246 02       		.uleb128 0x2
 7167 3247 01       		.uleb128 0x1
 7168 3248 51       		.byte	0x51
 7169 3249 02       		.uleb128 0x2
 7170 324a 73       		.byte	0x73
 7171 324b 00       		.sleb128 0
 7172 324c 02       		.uleb128 0x2
 7173 324d 01       		.uleb128 0x1
 7174 324e 58       		.byte	0x58
 7175 324f 02       		.uleb128 0x2
 7176 3250 76       		.byte	0x76
 7177 3251 7F       		.sleb128 -1
 7178 3252 00       		.byte	0
 7179 3253 0F       		.uleb128 0xf
 7180 3254 030A0000 		.quad	.LVL239
 7180      00000000 
 7181 325c 93260000 		.long	0x2693
 7182 3260 02       		.uleb128 0x2
 7183 3261 01       		.uleb128 0x1
 7184 3262 52       		.byte	0x52
 7185 3263 02       		.uleb128 0x2
 7186 3264 75       		.byte	0x75
 7187 3265 00       		.sleb128 0
 7188 3266 00       		.byte	0
 7189 3267 00       		.byte	0
 7190 3268 33       		.uleb128 0x33
 7191 3269 0C0A0000 		.quad	.LBB58
 7191      00000000 
 7192 3271 4B000000 		.quad	.LBE58-.LBB58
 7192      00000000 
 7193 3279 F1320000 		.long	0x32f1
 7194 327d 11       		.uleb128 0x11
 7195 327e 726F7700 		.ascii "row\0"
 7196 3282 3401     		.word	0x134
 7197 3284 14       		.byte	0x14
 7198 3285 02030000 		.long	0x302
 7199 3289 A0030000 		.secrel32	.LLST104
 7200 328d 9E030000 		.secrel32	.LVUS104
 7201 3291 0B       		.uleb128 0xb
 7202 3292 250A0000 		.quad	.LVL243
 7202      00000000 
 7203 329a AA320000 		.long	0x32aa
 7204 329e 02       		.uleb128 0x2
 7205 329f 01       		.uleb128 0x1
 7206 32a0 51       		.byte	0x51
 7207 32a1 01       		.uleb128 0x1
 7208 32a2 30       		.byte	0x30
 7209 32a3 02       		.uleb128 0x2
 7210 32a4 01       		.uleb128 0x1
 7211 32a5 58       		.byte	0x58
 7212 32a6 02       		.uleb128 0x2
 7213 32a7 73       		.byte	0x73
 7214 32a8 00       		.sleb128 0
 7215 32a9 00       		.byte	0
 7216 32aa 08       		.uleb128 0x8
 7217 32ab 340A0000 		.quad	.LVL244
 7217      00000000 
 7218 32b3 93260000 		.long	0x2693
 7219 32b7 C2320000 		.long	0x32c2
 7220 32bb 02       		.uleb128 0x2
 7221 32bc 01       		.uleb128 0x1
 7222 32bd 52       		.byte	0x52
 7223 32be 02       		.uleb128 0x2
 7224 32bf 75       		.byte	0x75
 7225 32c0 00       		.sleb128 0
 7226 32c1 00       		.byte	0
 7227 32c2 0B       		.uleb128 0xb
 7228 32c3 460A0000 		.quad	.LVL245
 7228      00000000 
 7229 32cb DC320000 		.long	0x32dc
 7230 32cf 02       		.uleb128 0x2
 7231 32d0 01       		.uleb128 0x1
 7232 32d1 51       		.byte	0x51
 7233 32d2 02       		.uleb128 0x2
 7234 32d3 7C       		.byte	0x7c
 7235 32d4 7F       		.sleb128 -1
 7236 32d5 02       		.uleb128 0x2
 7237 32d6 01       		.uleb128 0x1
 7238 32d7 58       		.byte	0x58
 7239 32d8 02       		.uleb128 0x2
 7240 32d9 73       		.byte	0x73
 7241 32da 00       		.sleb128 0
 7242 32db 00       		.byte	0
 7243 32dc 0F       		.uleb128 0xf
 7244 32dd 4E0A0000 		.quad	.LVL246
 7244      00000000 
 7245 32e5 93260000 		.long	0x2693
 7246 32e9 02       		.uleb128 0x2
 7247 32ea 01       		.uleb128 0x1
 7248 32eb 52       		.byte	0x52
 7249 32ec 02       		.uleb128 0x2
 7250 32ed 75       		.byte	0x75
 7251 32ee 00       		.sleb128 0
 7252 32ef 00       		.byte	0
 7253 32f0 00       		.byte	0
 7254 32f1 08       		.uleb128 0x8
 7255 32f2 610A0000 		.quad	.LVL248
 7255      00000000 
 7256 32fa 78420000 		.long	0x4278
 7257 32fe 0C330000 		.long	0x330c
 7258 3302 02       		.uleb128 0x2
 7259 3303 01       		.uleb128 0x1
 7260 3304 52       		.byte	0x52
 7261 3305 05       		.uleb128 0x5
 7262 3306 0C       		.byte	0xc
 7263 3307 20A10700 		.long	0x7a120
 7264 330b 00       		.byte	0
 7265 330c 0D       		.uleb128 0xd
 7266 330d 7A0A0000 		.quad	.LVL251
 7266      00000000 
 7267 3315 E0410000 		.long	0x41e0
 7268 3319 00       		.byte	0
 7269 331a 00       		.byte	0
 7270 331b 00       		.byte	0
 7271 331c 23       		.uleb128 0x23
 7272 331d 666C6963 		.ascii "flickering_text\0"
 7272      6B657269 
 7272      6E675F74 
 7272      65787400 
 7273 332d 1D01     		.word	0x11d
 7274 332f 2E090000 		.quad	.LFB18
 7274      00000000 
 7275 3337 7A000000 		.quad	.LFE18-.LFB18
 7275      00000000 
 7276 333f 01       		.uleb128 0x1
 7277 3340 9C       		.byte	0x9c
 7278 3341 51340000 		.long	0x3451
 7279 3345 10       		.uleb128 0x10
 7280 3346 4D000000 		.secrel32	.LASF5
 7281 334a 1D01     		.word	0x11d
 7282 334c 28       		.byte	0x28
 7283 334d 3F260000 		.long	0x263f
 7284 3351 AE030000 		.secrel32	.LLST90
 7285 3355 A8030000 		.secrel32	.LVUS90
 7286 3359 10       		.uleb128 0x10
 7287 335a 00000000 		.secrel32	.LASF12
 7288 335e 1D01     		.word	0x11d
 7289 3360 3D       		.byte	0x3d
 7290 3361 15080000 		.long	0x815
 7291 3365 CD030000 		.secrel32	.LLST91
 7292 3369 C7030000 		.secrel32	.LVUS91
 7293 336d 10       		.uleb128 0x10
 7294 336e 12000000 		.secrel32	.LASF13
 7295 3372 1D01     		.word	0x11d
 7296 3374 4C       		.byte	0x4c
 7297 3375 02030000 		.long	0x302
 7298 3379 EC030000 		.secrel32	.LLST92
 7299 337d E6030000 		.secrel32	.LVUS92
 7300 3381 10       		.uleb128 0x10
 7301 3382 1E000000 		.secrel32	.LASF14
 7302 3386 1D01     		.word	0x11d
 7303 3388 5F       		.byte	0x5f
 7304 3389 02030000 		.long	0x302
 7305 338d 0B040000 		.secrel32	.LLST93
 7306 3391 05040000 		.secrel32	.LVUS93
 7307 3395 12       		.uleb128 0x12
 7308 3396 44090000 		.quad	.LBB53
 7308      00000000 
 7309 339e 59000000 		.quad	.LBE53-.LBB53
 7309      00000000 
 7310 33a6 11       		.uleb128 0x11
 7311 33a7 6900     		.ascii "i\0"
 7312 33a9 1E01     		.word	0x11e
 7313 33ab 10       		.byte	0x10
 7314 33ac 02030000 		.long	0x302
 7315 33b0 28040000 		.secrel32	.LLST94
 7316 33b4 24040000 		.secrel32	.LVUS94
 7317 33b8 12       		.uleb128 0x12
 7318 33b9 4B090000 		.quad	.LBB54
 7318      00000000 
 7319 33c1 48000000 		.quad	.LBE54-.LBB54
 7319      00000000 
 7320 33c9 17       		.uleb128 0x17
 7321 33ca 2A000000 		.secrel32	.LASF10
 7322 33ce 1F01     		.word	0x11f
 7323 33d0 0F       		.byte	0xf
 7324 33d1 02030000 		.long	0x302
 7325 33d5 3C040000 		.secrel32	.LLST95
 7326 33d9 38040000 		.secrel32	.LVUS95
 7327 33dd 0D       		.uleb128 0xd
 7328 33de 50090000 		.quad	.LVL218
 7328      00000000 
 7329 33e6 E0410000 		.long	0x41e0
 7330 33ea 0B       		.uleb128 0xb
 7331 33eb 6D090000 		.quad	.LVL222
 7331      00000000 
 7332 33f3 04340000 		.long	0x3404
 7333 33f7 02       		.uleb128 0x2
 7334 33f8 01       		.uleb128 0x1
 7335 33f9 51       		.byte	0x51
 7336 33fa 02       		.uleb128 0x2
 7337 33fb 76       		.byte	0x76
 7338 33fc 00       		.sleb128 0
 7339 33fd 02       		.uleb128 0x2
 7340 33fe 01       		.uleb128 0x1
 7341 33ff 58       		.byte	0x58
 7342 3400 02       		.uleb128 0x2
 7343 3401 75       		.byte	0x75
 7344 3402 00       		.sleb128 0
 7345 3403 00       		.byte	0
 7346 3404 08       		.uleb128 0x8
 7347 3405 75090000 		.quad	.LVL223
 7347      00000000 
 7348 340d 93260000 		.long	0x2693
 7349 3411 1C340000 		.long	0x341c
 7350 3415 02       		.uleb128 0x2
 7351 3416 01       		.uleb128 0x1
 7352 3417 52       		.byte	0x52
 7353 3418 02       		.uleb128 0x2
 7354 3419 7C       		.byte	0x7c
 7355 341a 00       		.sleb128 0
 7356 341b 00       		.byte	0
 7357 341c 08       		.uleb128 0x8
 7358 341d 7F090000 		.quad	.LVL224
 7358      00000000 
 7359 3425 78420000 		.long	0x4278
 7360 3429 37340000 		.long	0x3437
 7361 342d 02       		.uleb128 0x2
 7362 342e 01       		.uleb128 0x1
 7363 342f 52       		.byte	0x52
 7364 3430 05       		.uleb128 0x5
 7365 3431 0C       		.byte	0xc
 7366 3432 40420F00 		.long	0xf4240
 7367 3436 00       		.byte	0
 7368 3437 0F       		.uleb128 0xf
 7369 3438 93090000 		.quad	.LVL226
 7369      00000000 
 7370 3440 78420000 		.long	0x4278
 7371 3444 02       		.uleb128 0x2
 7372 3445 01       		.uleb128 0x1
 7373 3446 52       		.byte	0x52
 7374 3447 05       		.uleb128 0x5
 7375 3448 0C       		.byte	0xc
 7376 3449 40420F00 		.long	0xf4240
 7377 344d 00       		.byte	0
 7378 344e 00       		.byte	0
 7379 344f 00       		.byte	0
 7380 3450 00       		.byte	0
 7381 3451 23       		.uleb128 0x23
 7382 3452 636F6C6F 		.ascii "color_shifting\0"
 7382      725F7368 
 7382      69667469 
 7382      6E6700
 7383 3461 1201     		.word	0x112
 7384 3463 D0080000 		.quad	.LFB17
 7384      00000000 
 7385 346b 5E000000 		.quad	.LFE17-.LFB17
 7385      00000000 
 7386 3473 01       		.uleb128 0x1
 7387 3474 9C       		.byte	0x9c
 7388 3475 33350000 		.long	0x3533
 7389 3479 10       		.uleb128 0x10
 7390 347a 4D000000 		.secrel32	.LASF5
 7391 347e 1201     		.word	0x112
 7392 3480 27       		.byte	0x27
 7393 3481 3F260000 		.long	0x263f
 7394 3485 51040000 		.secrel32	.LLST87
 7395 3489 4B040000 		.secrel32	.LVUS87
 7396 348d 12       		.uleb128 0x12
 7397 348e D9080000 		.quad	.LBB51
 7397      00000000 
 7398 3496 4E000000 		.quad	.LBE51-.LBB51
 7398      00000000 
 7399 349e 11       		.uleb128 0x11
 7400 349f 6900     		.ascii "i\0"
 7401 34a1 1301     		.word	0x113
 7402 34a3 10       		.byte	0x10
 7403 34a4 02030000 		.long	0x302
 7404 34a8 6E040000 		.secrel32	.LLST88
 7405 34ac 6A040000 		.secrel32	.LVUS88
 7406 34b0 12       		.uleb128 0x12
 7407 34b1 E0080000 		.quad	.LBB52
 7407      00000000 
 7408 34b9 3D000000 		.quad	.LBE52-.LBB52
 7408      00000000 
 7409 34c1 17       		.uleb128 0x17
 7410 34c2 2A000000 		.secrel32	.LASF10
 7411 34c6 1401     		.word	0x114
 7412 34c8 0F       		.byte	0xf
 7413 34c9 02030000 		.long	0x302
 7414 34cd 82040000 		.secrel32	.LLST89
 7415 34d1 7E040000 		.secrel32	.LVUS89
 7416 34d5 0D       		.uleb128 0xd
 7417 34d6 E5080000 		.quad	.LVL205
 7417      00000000 
 7418 34de E0410000 		.long	0x41e0
 7419 34e2 0B       		.uleb128 0xb
 7420 34e3 07090000 		.quad	.LVL209
 7420      00000000 
 7421 34eb FA340000 		.long	0x34fa
 7422 34ef 02       		.uleb128 0x2
 7423 34f0 01       		.uleb128 0x1
 7424 34f1 51       		.byte	0x51
 7425 34f2 01       		.uleb128 0x1
 7426 34f3 30       		.byte	0x30
 7427 34f4 02       		.uleb128 0x2
 7428 34f5 01       		.uleb128 0x1
 7429 34f6 58       		.byte	0x58
 7430 34f7 01       		.uleb128 0x1
 7431 34f8 30       		.byte	0x30
 7432 34f9 00       		.byte	0
 7433 34fa 08       		.uleb128 0x8
 7434 34fb 13090000 		.quad	.LVL210
 7434      00000000 
 7435 3503 93260000 		.long	0x2693
 7436 3507 19350000 		.long	0x3519
 7437 350b 02       		.uleb128 0x2
 7438 350c 01       		.uleb128 0x1
 7439 350d 52       		.byte	0x52
 7440 350e 09       		.uleb128 0x9
 7441 350f 03       		.byte	0x3
 7442 3510 50000000 		.quad	.LC10
 7442      00000000 
 7443 3518 00       		.byte	0
 7444 3519 0F       		.uleb128 0xf
 7445 351a 1D090000 		.quad	.LVL211
 7445      00000000 
 7446 3522 78420000 		.long	0x4278
 7447 3526 02       		.uleb128 0x2
 7448 3527 01       		.uleb128 0x1
 7449 3528 52       		.byte	0x52
 7450 3529 05       		.uleb128 0x5
 7451 352a 0C       		.byte	0xc
 7452 352b 80841E00 		.long	0x1e8480
 7453 352f 00       		.byte	0
 7454 3530 00       		.byte	0
 7455 3531 00       		.byte	0
 7456 3532 00       		.byte	0
 7457 3533 23       		.uleb128 0x23
 7458 3534 6D617472 		.ascii "matrix_text_fall\0"
 7458      69785F74 
 7458      6578745F 
 7458      66616C6C 
 7458      00
 7459 3545 0201     		.word	0x102
 7460 3547 11080000 		.quad	.LFB16
 7460      00000000 
 7461 354f BF000000 		.quad	.LFE16-.LFB16
 7461      00000000 
 7462 3557 01       		.uleb128 0x1
 7463 3558 9C       		.byte	0x9c
 7464 3559 B7360000 		.long	0x36b7
 7465 355d 10       		.uleb128 0x10
 7466 355e 4D000000 		.secrel32	.LASF5
 7467 3562 0201     		.word	0x102
 7468 3564 29       		.byte	0x29
 7469 3565 3F260000 		.long	0x263f
 7470 3569 97040000 		.secrel32	.LLST76
 7471 356d 91040000 		.secrel32	.LVUS76
 7472 3571 10       		.uleb128 0x10
 7473 3572 59000000 		.secrel32	.LASF6
 7474 3576 0201     		.word	0x102
 7475 3578 3C       		.byte	0x3c
 7476 3579 02030000 		.long	0x302
 7477 357d B6040000 		.secrel32	.LLST77
 7478 3581 B0040000 		.secrel32	.LVUS77
 7479 3585 10       		.uleb128 0x10
 7480 3586 61000000 		.secrel32	.LASF7
 7481 358a 0201     		.word	0x102
 7482 358c 4B       		.byte	0x4b
 7483 358d 02030000 		.long	0x302
 7484 3591 D5040000 		.secrel32	.LLST78
 7485 3595 CF040000 		.secrel32	.LVUS78
 7486 3599 12       		.uleb128 0x12
 7487 359a 28080000 		.quad	.LBB46
 7487      00000000 
 7488 35a2 99000000 		.quad	.LBE46-.LBB46
 7488      00000000 
 7489 35aa 11       		.uleb128 0x11
 7490 35ab 6900     		.ascii "i\0"
 7491 35ad 0301     		.word	0x103
 7492 35af 10       		.byte	0x10
 7493 35b0 02030000 		.long	0x302
 7494 35b4 F2040000 		.secrel32	.LLST79
 7495 35b8 EE040000 		.secrel32	.LVUS79
 7496 35bc 18       		.uleb128 0x18
 7497 35bd 7A000000 		.secrel32	.LLRL80
 7498 35c1 9E360000 		.long	0x369e
 7499 35c5 11       		.uleb128 0x11
 7500 35c6 6A00     		.ascii "j\0"
 7501 35c8 0401     		.word	0x104
 7502 35ca 14       		.byte	0x14
 7503 35cb 02030000 		.long	0x302
 7504 35cf 04050000 		.secrel32	.LLST81
 7505 35d3 02050000 		.secrel32	.LVUS81
 7506 35d7 19       		.uleb128 0x19
 7507 35d8 85000000 		.secrel32	.LLRL82
 7508 35dc 11       		.uleb128 0x11
 7509 35dd 726F7700 		.ascii "row\0"
 7510 35e1 0501     		.word	0x105
 7511 35e3 13       		.byte	0x13
 7512 35e4 02030000 		.long	0x302
 7513 35e8 12050000 		.secrel32	.LLST83
 7514 35ec 0C050000 		.secrel32	.LVUS83
 7515 35f0 11       		.uleb128 0x11
 7516 35f1 636F6C00 		.ascii "col\0"
 7517 35f5 0601     		.word	0x106
 7518 35f7 13       		.byte	0x13
 7519 35f8 02030000 		.long	0x302
 7520 35fc 2E050000 		.secrel32	.LLST84
 7521 3600 28050000 		.secrel32	.LVUS84
 7522 3604 17       		.uleb128 0x17
 7523 3605 2A000000 		.secrel32	.LASF10
 7524 3609 0701     		.word	0x107
 7525 360b 13       		.byte	0x13
 7526 360c 02030000 		.long	0x302
 7527 3610 48050000 		.secrel32	.LLST85
 7528 3614 44050000 		.secrel32	.LVUS85
 7529 3618 11       		.uleb128 0x11
 7530 3619 73796D62 		.ascii "symbol\0"
 7530      6F6C00
 7531 3620 0A01     		.word	0x10a
 7532 3622 14       		.byte	0x14
 7533 3623 7C020000 		.long	0x27c
 7534 3627 59050000 		.secrel32	.LLST86
 7535 362b 57050000 		.secrel32	.LVUS86
 7536 362f 08       		.uleb128 0x8
 7537 3630 47080000 		.quad	.LVL183
 7537      00000000 
 7538 3638 93260000 		.long	0x2693
 7539 363c 4E360000 		.long	0x364e
 7540 3640 02       		.uleb128 0x2
 7541 3641 01       		.uleb128 0x1
 7542 3642 52       		.byte	0x52
 7543 3643 09       		.uleb128 0x9
 7544 3644 03       		.byte	0x3
 7545 3645 3A000000 		.quad	.LC7
 7545      00000000 
 7546 364d 00       		.byte	0
 7547 364e 0D       		.uleb128 0xd
 7548 364f 55080000 		.quad	.LVL185
 7548      00000000 
 7549 3657 B1420000 		.long	0x42b1
 7550 365b 0D       		.uleb128 0xd
 7551 365c 67080000 		.quad	.LVL187
 7551      00000000 
 7552 3664 B1420000 		.long	0x42b1
 7553 3668 0D       		.uleb128 0xd
 7554 3669 79080000 		.quad	.LVL189
 7554      00000000 
 7555 3671 E0410000 		.long	0x41e0
 7556 3675 0B       		.uleb128 0xb
 7557 3676 96080000 		.quad	.LVL193
 7557      00000000 
 7558 367e 8F360000 		.long	0x368f
 7559 3682 02       		.uleb128 0x2
 7560 3683 01       		.uleb128 0x1
 7561 3684 51       		.byte	0x51
 7562 3685 02       		.uleb128 0x2
 7563 3686 7E       		.byte	0x7e
 7564 3687 00       		.sleb128 0
 7565 3688 02       		.uleb128 0x2
 7566 3689 01       		.uleb128 0x1
 7567 368a 58       		.byte	0x58
 7568 368b 02       		.uleb128 0x2
 7569 368c 7C       		.byte	0x7c
 7570 368d 00       		.sleb128 0
 7571 368e 00       		.byte	0
 7572 368f 0D       		.uleb128 0xd
 7573 3690 9B080000 		.quad	.LVL194
 7573      00000000 
 7574 3698 B1420000 		.long	0x42b1
 7575 369c 00       		.byte	0
 7576 369d 00       		.byte	0
 7577 369e 0F       		.uleb128 0xf
 7578 369f B0080000 		.quad	.LVL196
 7578      00000000 
 7579 36a7 78420000 		.long	0x4278
 7580 36ab 02       		.uleb128 0x2
 7581 36ac 01       		.uleb128 0x1
 7582 36ad 52       		.byte	0x52
 7583 36ae 05       		.uleb128 0x5
 7584 36af 0C       		.byte	0xc
 7585 36b0 20A10700 		.long	0x7a120
 7586 36b4 00       		.byte	0
 7587 36b5 00       		.byte	0
 7588 36b6 00       		.byte	0
 7589 36b7 1C       		.uleb128 0x1c
 7590 36b8 67726964 		.ascii "grid_animation\0"
 7590      5F616E69 
 7590      6D617469 
 7590      6F6E00
 7591 36c7 F3       		.byte	0xf3
 7592 36c8 85070000 		.quad	.LFB15
 7592      00000000 
 7593 36d0 8C000000 		.quad	.LFE15-.LFB15
 7593      00000000 
 7594 36d8 01       		.uleb128 0x1
 7595 36d9 9C       		.byte	0x9c
 7596 36da EF370000 		.long	0x37ef
 7597 36de 0E       		.uleb128 0xe
 7598 36df 4D000000 		.secrel32	.LASF5
 7599 36e3 F3       		.byte	0xf3
 7600 36e4 27       		.byte	0x27
 7601 36e5 3F260000 		.long	0x263f
 7602 36e9 67050000 		.secrel32	.LLST67
 7603 36ed 61050000 		.secrel32	.LVUS67
 7604 36f1 0E       		.uleb128 0xe
 7605 36f2 59000000 		.secrel32	.LASF6
 7606 36f6 F3       		.byte	0xf3
 7607 36f7 3A       		.byte	0x3a
 7608 36f8 02030000 		.long	0x302
 7609 36fc 86050000 		.secrel32	.LLST68
 7610 3700 80050000 		.secrel32	.LVUS68
 7611 3704 0E       		.uleb128 0xe
 7612 3705 61000000 		.secrel32	.LASF7
 7613 3709 F3       		.byte	0xf3
 7614 370a 49       		.byte	0x49
 7615 370b 02030000 		.long	0x302
 7616 370f A5050000 		.secrel32	.LLST69
 7617 3713 9F050000 		.secrel32	.LVUS69
 7618 3717 12       		.uleb128 0x12
 7619 3718 9A070000 		.quad	.LBB40
 7619      00000000 
 7620 3720 6A000000 		.quad	.LBE40-.LBB40
 7620      00000000 
 7621 3728 0C       		.uleb128 0xc
 7622 3729 6900     		.ascii "i\0"
 7623 372b F4       		.byte	0xf4
 7624 372c 10       		.byte	0x10
 7625 372d 02030000 		.long	0x302
 7626 3731 C2050000 		.secrel32	.LLST70
 7627 3735 BE050000 		.secrel32	.LVUS70
 7628 3739 18       		.uleb128 0x18
 7629 373a 64000000 		.secrel32	.LLRL71
 7630 373e D6370000 		.long	0x37d6
 7631 3742 0C       		.uleb128 0xc
 7632 3743 726F7700 		.ascii "row\0"
 7633 3747 F5       		.byte	0xf5
 7634 3748 14       		.byte	0x14
 7635 3749 02030000 		.long	0x302
 7636 374d D4050000 		.secrel32	.LLST72
 7637 3751 D2050000 		.secrel32	.LVUS72
 7638 3755 19       		.uleb128 0x19
 7639 3756 6F000000 		.secrel32	.LLRL73
 7640 375a 0C       		.uleb128 0xc
 7641 375b 636F6C00 		.ascii "col\0"
 7642 375f F6       		.byte	0xf6
 7643 3760 18       		.byte	0x18
 7644 3761 02030000 		.long	0x302
 7645 3765 DE050000 		.secrel32	.LLST74
 7646 3769 DC050000 		.secrel32	.LVUS74
 7647 376d 12       		.uleb128 0x12
 7648 376e A2070000 		.quad	.LBB43
 7648      00000000 
 7649 3776 2E000000 		.quad	.LBE43-.LBB43
 7649      00000000 
 7650 377e 16       		.uleb128 0x16
 7651 377f 2A000000 		.secrel32	.LASF10
 7652 3783 F7       		.byte	0xf7
 7653 3784 17       		.byte	0x17
 7654 3785 02030000 		.long	0x302
 7655 3789 EA050000 		.secrel32	.LLST75
 7656 378d E6050000 		.secrel32	.LVUS75
 7657 3791 0D       		.uleb128 0xd
 7658 3792 A7070000 		.quad	.LVL165
 7658      00000000 
 7659 379a E0410000 		.long	0x41e0
 7660 379e 0B       		.uleb128 0xb
 7661 379f C4070000 		.quad	.LVL169
 7661      00000000 
 7662 37a7 B8370000 		.long	0x37b8
 7663 37ab 02       		.uleb128 0x2
 7664 37ac 01       		.uleb128 0x1
 7665 37ad 51       		.byte	0x51
 7666 37ae 02       		.uleb128 0x2
 7667 37af 73       		.byte	0x73
 7668 37b0 00       		.sleb128 0
 7669 37b1 02       		.uleb128 0x2
 7670 37b2 01       		.uleb128 0x1
 7671 37b3 58       		.byte	0x58
 7672 37b4 02       		.uleb128 0x2
 7673 37b5 75       		.byte	0x75
 7674 37b6 00       		.sleb128 0
 7675 37b7 00       		.byte	0
 7676 37b8 0F       		.uleb128 0xf
 7677 37b9 D0070000 		.quad	.LVL170
 7677      00000000 
 7678 37c1 93260000 		.long	0x2693
 7679 37c5 02       		.uleb128 0x2
 7680 37c6 01       		.uleb128 0x1
 7681 37c7 52       		.byte	0x52
 7682 37c8 09       		.uleb128 0x9
 7683 37c9 03       		.byte	0x3
 7684 37ca 44000000 		.quad	.LC9
 7684      00000000 
 7685 37d2 00       		.byte	0
 7686 37d3 00       		.byte	0
 7687 37d4 00       		.byte	0
 7688 37d5 00       		.byte	0
 7689 37d6 0F       		.uleb128 0xf
 7690 37d7 F3070000 		.quad	.LVL173
 7690      00000000 
 7691 37df 78420000 		.long	0x4278
 7692 37e3 02       		.uleb128 0x2
 7693 37e4 01       		.uleb128 0x1
 7694 37e5 52       		.byte	0x52
 7695 37e6 05       		.uleb128 0x5
 7696 37e7 0C       		.byte	0xc
 7697 37e8 40420F00 		.long	0xf4240
 7698 37ec 00       		.byte	0
 7699 37ed 00       		.byte	0
 7700 37ee 00       		.byte	0
 7701 37ef 1C       		.uleb128 0x1c
 7702 37f0 66616469 		.ascii "fading_text\0"
 7702      6E675F74 
 7702      65787400 
 7703 37fc E7       		.byte	0xe7
 7704 37fd 15070000 		.quad	.LFB14
 7704      00000000 
 7705 3805 70000000 		.quad	.LFE14-.LFB14
 7705      00000000 
 7706 380d 01       		.uleb128 0x1
 7707 380e 9C       		.byte	0x9c
 7708 380f FE380000 		.long	0x38fe
 7709 3813 0E       		.uleb128 0xe
 7710 3814 4D000000 		.secrel32	.LASF5
 7711 3818 E7       		.byte	0xe7
 7712 3819 24       		.byte	0x24
 7713 381a 3F260000 		.long	0x263f
 7714 381e FF050000 		.secrel32	.LLST61
 7715 3822 F9050000 		.secrel32	.LVUS61
 7716 3826 0E       		.uleb128 0xe
 7717 3827 00000000 		.secrel32	.LASF12
 7718 382b E7       		.byte	0xe7
 7719 382c 39       		.byte	0x39
 7720 382d 15080000 		.long	0x815
 7721 3831 1E060000 		.secrel32	.LLST62
 7722 3835 18060000 		.secrel32	.LVUS62
 7723 3839 0E       		.uleb128 0xe
 7724 383a 12000000 		.secrel32	.LASF13
 7725 383e E7       		.byte	0xe7
 7726 383f 48       		.byte	0x48
 7727 3840 02030000 		.long	0x302
 7728 3844 3D060000 		.secrel32	.LLST63
 7729 3848 37060000 		.secrel32	.LVUS63
 7730 384c 0E       		.uleb128 0xe
 7731 384d 1E000000 		.secrel32	.LASF14
 7732 3851 E7       		.byte	0xe7
 7733 3852 5B       		.byte	0x5b
 7734 3853 02030000 		.long	0x302
 7735 3857 5C060000 		.secrel32	.LLST64
 7736 385b 56060000 		.secrel32	.LVUS64
 7737 385f 12       		.uleb128 0x12
 7738 3860 2B070000 		.quad	.LBB38
 7738      00000000 
 7739 3868 4F000000 		.quad	.LBE38-.LBB38
 7739      00000000 
 7740 3870 0C       		.uleb128 0xc
 7741 3871 6900     		.ascii "i\0"
 7742 3873 E8       		.byte	0xe8
 7743 3874 10       		.byte	0x10
 7744 3875 02030000 		.long	0x302
 7745 3879 79060000 		.secrel32	.LLST65
 7746 387d 75060000 		.secrel32	.LVUS65
 7747 3881 12       		.uleb128 0x12
 7748 3882 32070000 		.quad	.LBB39
 7748      00000000 
 7749 388a 3E000000 		.quad	.LBE39-.LBB39
 7749      00000000 
 7750 3892 16       		.uleb128 0x16
 7751 3893 2A000000 		.secrel32	.LASF10
 7752 3897 E9       		.byte	0xe9
 7753 3898 0F       		.byte	0xf
 7754 3899 02030000 		.long	0x302
 7755 389d 8D060000 		.secrel32	.LLST66
 7756 38a1 89060000 		.secrel32	.LVUS66
 7757 38a5 0D       		.uleb128 0xd
 7758 38a6 37070000 		.quad	.LVL148
 7758      00000000 
 7759 38ae E0410000 		.long	0x41e0
 7760 38b2 0B       		.uleb128 0xb
 7761 38b3 54070000 		.quad	.LVL152
 7761      00000000 
 7762 38bb CC380000 		.long	0x38cc
 7763 38bf 02       		.uleb128 0x2
 7764 38c0 01       		.uleb128 0x1
 7765 38c1 51       		.byte	0x51
 7766 38c2 02       		.uleb128 0x2
 7767 38c3 76       		.byte	0x76
 7768 38c4 00       		.sleb128 0
 7769 38c5 02       		.uleb128 0x2
 7770 38c6 01       		.uleb128 0x1
 7771 38c7 58       		.byte	0x58
 7772 38c8 02       		.uleb128 0x2
 7773 38c9 75       		.byte	0x75
 7774 38ca 00       		.sleb128 0
 7775 38cb 00       		.byte	0
 7776 38cc 08       		.uleb128 0x8
 7777 38cd 5C070000 		.quad	.LVL153
 7777      00000000 
 7778 38d5 93260000 		.long	0x2693
 7779 38d9 E4380000 		.long	0x38e4
 7780 38dd 02       		.uleb128 0x2
 7781 38de 01       		.uleb128 0x1
 7782 38df 52       		.byte	0x52
 7783 38e0 02       		.uleb128 0x2
 7784 38e1 7C       		.byte	0x7c
 7785 38e2 00       		.sleb128 0
 7786 38e3 00       		.byte	0
 7787 38e4 0F       		.uleb128 0xf
 7788 38e5 66070000 		.quad	.LVL154
 7788      00000000 
 7789 38ed 78420000 		.long	0x4278
 7790 38f1 02       		.uleb128 0x2
 7791 38f2 01       		.uleb128 0x1
 7792 38f3 52       		.byte	0x52
 7793 38f4 05       		.uleb128 0x5
 7794 38f5 0C       		.byte	0xc
 7795 38f6 80841E00 		.long	0x1e8480
 7796 38fa 00       		.byte	0
 7797 38fb 00       		.byte	0
 7798 38fc 00       		.byte	0
 7799 38fd 00       		.byte	0
 7800 38fe 1C       		.uleb128 0x1c
 7801 38ff 74657874 		.ascii "text_explosion\0"
 7801      5F657870 
 7801      6C6F7369 
 7801      6F6E00
 7802 390e DA       		.byte	0xda
 7803 390f 6A060000 		.quad	.LFB13
 7803      00000000 
 7804 3917 AB000000 		.quad	.LFE13-.LFB13
 7804      00000000 
 7805 391f 01       		.uleb128 0x1
 7806 3920 9C       		.byte	0x9c
 7807 3921 503A0000 		.long	0x3a50
 7808 3925 0E       		.uleb128 0xe
 7809 3926 4D000000 		.secrel32	.LASF5
 7810 392a DA       		.byte	0xda
 7811 392b 27       		.byte	0x27
 7812 392c 3F260000 		.long	0x263f
 7813 3930 A2060000 		.secrel32	.LLST53
 7814 3934 9C060000 		.secrel32	.LVUS53
 7815 3938 0E       		.uleb128 0xe
 7816 3939 00000000 		.secrel32	.LASF12
 7817 393d DA       		.byte	0xda
 7818 393e 3C       		.byte	0x3c
 7819 393f 15080000 		.long	0x815
 7820 3943 C1060000 		.secrel32	.LLST54
 7821 3947 BB060000 		.secrel32	.LVUS54
 7822 394b 0E       		.uleb128 0xe
 7823 394c 12000000 		.secrel32	.LASF13
 7824 3950 DA       		.byte	0xda
 7825 3951 4B       		.byte	0x4b
 7826 3952 02030000 		.long	0x302
 7827 3956 E0060000 		.secrel32	.LLST55
 7828 395a DA060000 		.secrel32	.LVUS55
 7829 395e 0E       		.uleb128 0xe
 7830 395f 1E000000 		.secrel32	.LASF14
 7831 3963 DA       		.byte	0xda
 7832 3964 5E       		.byte	0x5e
 7833 3965 02030000 		.long	0x302
 7834 3969 FF060000 		.secrel32	.LLST56
 7835 396d F9060000 		.secrel32	.LVUS56
 7836 3971 12       		.uleb128 0x12
 7837 3972 84060000 		.quad	.LBB36
 7837      00000000 
 7838 397a 82000000 		.quad	.LBE36-.LBB36
 7838      00000000 
 7839 3982 0C       		.uleb128 0xc
 7840 3983 6900     		.ascii "i\0"
 7841 3985 DB       		.byte	0xdb
 7842 3986 10       		.byte	0x10
 7843 3987 02030000 		.long	0x302
 7844 398b 1C070000 		.secrel32	.LLST57
 7845 398f 18070000 		.secrel32	.LVUS57
 7846 3993 12       		.uleb128 0x12
 7847 3994 8B060000 		.quad	.LBB37
 7847      00000000 
 7848 399c 71000000 		.quad	.LBE37-.LBB37
 7848      00000000 
 7849 39a4 0C       		.uleb128 0xc
 7850 39a5 636F6C00 		.ascii "col\0"
 7851 39a9 DC       		.byte	0xdc
 7852 39aa 0F       		.byte	0xf
 7853 39ab 02030000 		.long	0x302
 7854 39af 2E070000 		.secrel32	.LLST58
 7855 39b3 2C070000 		.secrel32	.LVUS58
 7856 39b7 0C       		.uleb128 0xc
 7857 39b8 726F7700 		.ascii "row\0"
 7858 39bc DD       		.byte	0xdd
 7859 39bd 0F       		.byte	0xf
 7860 39be 02030000 		.long	0x302
 7861 39c2 38070000 		.secrel32	.LLST59
 7862 39c6 36070000 		.secrel32	.LVUS59
 7863 39ca 16       		.uleb128 0x16
 7864 39cb 2A000000 		.secrel32	.LASF10
 7865 39cf DE       		.byte	0xde
 7866 39d0 0F       		.byte	0xf
 7867 39d1 02030000 		.long	0x302
 7868 39d5 44070000 		.secrel32	.LLST60
 7869 39d9 40070000 		.secrel32	.LVUS60
 7870 39dd 0D       		.uleb128 0xd
 7871 39de 90060000 		.quad	.LVL128
 7871      00000000 
 7872 39e6 B1420000 		.long	0x42b1
 7873 39ea 0D       		.uleb128 0xd
 7874 39eb AD060000 		.quad	.LVL130
 7874      00000000 
 7875 39f3 B1420000 		.long	0x42b1
 7876 39f7 0D       		.uleb128 0xd
 7877 39f8 CD060000 		.quad	.LVL132
 7877      00000000 
 7878 3a00 E0410000 		.long	0x41e0
 7879 3a04 0B       		.uleb128 0xb
 7880 3a05 EA060000 		.quad	.LVL136
 7880      00000000 
 7881 3a0d 1E3A0000 		.long	0x3a1e
 7882 3a11 02       		.uleb128 0x2
 7883 3a12 01       		.uleb128 0x1
 7884 3a13 51       		.byte	0x51
 7885 3a14 02       		.uleb128 0x2
 7886 3a15 73       		.byte	0x73
 7887 3a16 00       		.sleb128 0
 7888 3a17 02       		.uleb128 0x2
 7889 3a18 01       		.uleb128 0x1
 7890 3a19 58       		.byte	0x58
 7891 3a1a 02       		.uleb128 0x2
 7892 3a1b 7E       		.byte	0x7e
 7893 3a1c 00       		.sleb128 0
 7894 3a1d 00       		.byte	0
 7895 3a1e 08       		.uleb128 0x8
 7896 3a1f F2060000 		.quad	.LVL137
 7896      00000000 
 7897 3a27 93260000 		.long	0x2693
 7898 3a2b 363A0000 		.long	0x3a36
 7899 3a2f 02       		.uleb128 0x2
 7900 3a30 01       		.uleb128 0x1
 7901 3a31 52       		.byte	0x52
 7902 3a32 02       		.uleb128 0x2
 7903 3a33 7D       		.byte	0x7d
 7904 3a34 00       		.sleb128 0
 7905 3a35 00       		.byte	0
 7906 3a36 0F       		.uleb128 0xf
 7907 3a37 FC060000 		.quad	.LVL138
 7907      00000000 
 7908 3a3f 78420000 		.long	0x4278
 7909 3a43 02       		.uleb128 0x2
 7910 3a44 01       		.uleb128 0x1
 7911 3a45 52       		.byte	0x52
 7912 3a46 05       		.uleb128 0x5
 7913 3a47 0C       		.byte	0xc
 7914 3a48 80841E00 		.long	0x1e8480
 7915 3a4c 00       		.byte	0
 7916 3a4d 00       		.byte	0
 7917 3a4e 00       		.byte	0
 7918 3a4f 00       		.byte	0
 7919 3a50 1C       		.uleb128 0x1c
 7920 3a51 77617665 		.ascii "wave_animation\0"
 7920      5F616E69 
 7920      6D617469 
 7920      6F6E00
 7921 3a60 CB       		.byte	0xcb
 7922 3a61 9B050000 		.quad	.LFB12
 7922      00000000 
 7923 3a69 CF000000 		.quad	.LFE12-.LFB12
 7923      00000000 
 7924 3a71 01       		.uleb128 0x1
 7925 3a72 9C       		.byte	0x9c
 7926 3a73 E03B0000 		.long	0x3be0
 7927 3a77 0E       		.uleb128 0xe
 7928 3a78 4D000000 		.secrel32	.LASF5
 7929 3a7c CB       		.byte	0xcb
 7930 3a7d 27       		.byte	0x27
 7931 3a7e 3F260000 		.long	0x263f
 7932 3a82 59070000 		.secrel32	.LLST43
 7933 3a86 53070000 		.secrel32	.LVUS43
 7934 3a8a 0E       		.uleb128 0xe
 7935 3a8b 00000000 		.secrel32	.LASF12
 7936 3a8f CB       		.byte	0xcb
 7937 3a90 3C       		.byte	0x3c
 7938 3a91 15080000 		.long	0x815
 7939 3a95 78070000 		.secrel32	.LLST44
 7940 3a99 72070000 		.secrel32	.LVUS44
 7941 3a9d 0E       		.uleb128 0xe
 7942 3a9e 12000000 		.secrel32	.LASF13
 7943 3aa2 CB       		.byte	0xcb
 7944 3aa3 4B       		.byte	0x4b
 7945 3aa4 02030000 		.long	0x302
 7946 3aa8 97070000 		.secrel32	.LLST45
 7947 3aac 91070000 		.secrel32	.LVUS45
 7948 3ab0 0E       		.uleb128 0xe
 7949 3ab1 1E000000 		.secrel32	.LASF14
 7950 3ab5 CB       		.byte	0xcb
 7951 3ab6 5E       		.byte	0x5e
 7952 3ab7 02030000 		.long	0x302
 7953 3abb B6070000 		.secrel32	.LLST46
 7954 3abf B0070000 		.secrel32	.LVUS46
 7955 3ac3 3E       		.uleb128 0x3e
 7956 3ac4 616D706C 		.ascii "amplitude\0"
 7956      69747564 
 7956      6500
 7957 3ace 01       		.byte	0x1
 7958 3acf CB       		.byte	0xcb
 7959 3ad0 71       		.byte	0x71
 7960 3ad1 02030000 		.long	0x302
 7961 3ad5 02       		.uleb128 0x2
 7962 3ad6 91       		.byte	0x91
 7963 3ad7 20       		.sleb128 32
 7964 3ad8 12       		.uleb128 0x12
 7965 3ad9 B7050000 		.quad	.LBB32
 7965      00000000 
 7966 3ae1 A2000000 		.quad	.LBE32-.LBB32
 7966      00000000 
 7967 3ae9 0C       		.uleb128 0xc
 7968 3aea 7400     		.ascii "t\0"
 7969 3aec CC       		.byte	0xcc
 7970 3aed 10       		.byte	0x10
 7971 3aee 02030000 		.long	0x302
 7972 3af2 D3070000 		.secrel32	.LLST47
 7973 3af6 CF070000 		.secrel32	.LVUS47
 7974 3afa 18       		.uleb128 0x18
 7975 3afb 59000000 		.secrel32	.LLRL48
 7976 3aff C73B0000 		.long	0x3bc7
 7977 3b03 0C       		.uleb128 0xc
 7978 3b04 6900     		.ascii "i\0"
 7979 3b06 CD       		.byte	0xcd
 7980 3b07 14       		.byte	0x14
 7981 3b08 02030000 		.long	0x302
 7982 3b0c E5070000 		.secrel32	.LLST49
 7983 3b10 E3070000 		.secrel32	.LVUS49
 7984 3b14 33       		.uleb128 0x33
 7985 3b15 C2050000 		.quad	.LBB34
 7985      00000000 
 7986 3b1d 6B000000 		.quad	.LBE34-.LBB34
 7986      00000000 
 7987 3b25 B23B0000 		.long	0x3bb2
 7988 3b29 0C       		.uleb128 0xc
 7989 3b2a 636F6C00 		.ascii "col\0"
 7990 3b2e CE       		.byte	0xce
 7991 3b2f 13       		.byte	0x13
 7992 3b30 02030000 		.long	0x302
 7993 3b34 EF070000 		.secrel32	.LLST50
 7994 3b38 ED070000 		.secrel32	.LVUS50
 7995 3b3c 0C       		.uleb128 0xc
 7996 3b3d 726F7700 		.ascii "row\0"
 7997 3b41 CF       		.byte	0xcf
 7998 3b42 13       		.byte	0x13
 7999 3b43 02030000 		.long	0x302
 8000 3b47 F9070000 		.secrel32	.LLST51
 8001 3b4b F7070000 		.secrel32	.LVUS51
 8002 3b4f 16       		.uleb128 0x16
 8003 3b50 2A000000 		.secrel32	.LASF10
 8004 3b54 D0       		.byte	0xd0
 8005 3b55 13       		.byte	0x13
 8006 3b56 02030000 		.long	0x302
 8007 3b5a 05080000 		.secrel32	.LLST52
 8008 3b5e 01080000 		.secrel32	.LVUS52
 8009 3b62 0D       		.uleb128 0xd
 8010 3b63 EE050000 		.quad	.LVL108
 8010      00000000 
 8011 3b6b D3420000 		.long	0x42d3
 8012 3b6f 0D       		.uleb128 0xd
 8013 3b70 00060000 		.quad	.LVL110
 8013      00000000 
 8014 3b78 E0410000 		.long	0x41e0
 8015 3b7c 0B       		.uleb128 0xb
 8016 3b7d 1D060000 		.quad	.LVL114
 8016      00000000 
 8017 3b85 963B0000 		.long	0x3b96
 8018 3b89 02       		.uleb128 0x2
 8019 3b8a 01       		.uleb128 0x1
 8020 3b8b 51       		.byte	0x51
 8021 3b8c 02       		.uleb128 0x2
 8022 3b8d 7C       		.byte	0x7c
 8023 3b8e 00       		.sleb128 0
 8024 3b8f 02       		.uleb128 0x2
 8025 3b90 01       		.uleb128 0x1
 8026 3b91 58       		.byte	0x58
 8027 3b92 02       		.uleb128 0x2
 8028 3b93 74       		.byte	0x74
 8029 3b94 00       		.sleb128 0
 8030 3b95 00       		.byte	0
 8031 3b96 0F       		.uleb128 0xf
 8032 3b97 2D060000 		.quad	.LVL115
 8032      00000000 
 8033 3b9f 93260000 		.long	0x2693
 8034 3ba3 02       		.uleb128 0x2
 8035 3ba4 01       		.uleb128 0x1
 8036 3ba5 52       		.byte	0x52
 8037 3ba6 09       		.uleb128 0x9
 8038 3ba7 03       		.byte	0x3
 8039 3ba8 3A000000 		.quad	.LC7
 8039      00000000 
 8040 3bb0 00       		.byte	0
 8041 3bb1 00       		.byte	0
 8042 3bb2 0F       		.uleb128 0xf
 8043 3bb3 39060000 		.quad	.LVL117
 8043      00000000 
 8044 3bbb 7B260000 		.long	0x267b
 8045 3bbf 02       		.uleb128 0x2
 8046 3bc0 01       		.uleb128 0x1
 8047 3bc1 52       		.byte	0x52
 8048 3bc2 02       		.uleb128 0x2
 8049 3bc3 75       		.byte	0x75
 8050 3bc4 00       		.sleb128 0
 8051 3bc5 00       		.byte	0
 8052 3bc6 00       		.byte	0
 8053 3bc7 0F       		.uleb128 0xf
 8054 3bc8 48060000 		.quad	.LVL118
 8054      00000000 
 8055 3bd0 78420000 		.long	0x4278
 8056 3bd4 02       		.uleb128 0x2
 8057 3bd5 01       		.uleb128 0x1
 8058 3bd6 52       		.byte	0x52
 8059 3bd7 05       		.uleb128 0x5
 8060 3bd8 0C       		.byte	0xc
 8061 3bd9 40420F00 		.long	0xf4240
 8062 3bdd 00       		.byte	0
 8063 3bde 00       		.byte	0
 8064 3bdf 00       		.byte	0
 8065 3be0 1C       		.uleb128 0x1c
 8066 3be1 70697865 		.ascii "pixel_rain\0"
 8066      6C5F7261 
 8066      696E00
 8067 3bec BE       		.byte	0xbe
 8068 3bed 0C050000 		.quad	.LFB11
 8068      00000000 
 8069 3bf5 8F000000 		.quad	.LFE11-.LFB11
 8069      00000000 
 8070 3bfd 01       		.uleb128 0x1
 8071 3bfe 9C       		.byte	0x9c
 8072 3bff 223D0000 		.long	0x3d22
 8073 3c03 0E       		.uleb128 0xe
 8074 3c04 4D000000 		.secrel32	.LASF5
 8075 3c08 BE       		.byte	0xbe
 8076 3c09 23       		.byte	0x23
 8077 3c0a 3F260000 		.long	0x263f
 8078 3c0e 1A080000 		.secrel32	.LLST36
 8079 3c12 14080000 		.secrel32	.LVUS36
 8080 3c16 0E       		.uleb128 0xe
 8081 3c17 59000000 		.secrel32	.LASF6
 8082 3c1b BE       		.byte	0xbe
 8083 3c1c 36       		.byte	0x36
 8084 3c1d 02030000 		.long	0x302
 8085 3c21 39080000 		.secrel32	.LLST37
 8086 3c25 33080000 		.secrel32	.LVUS37
 8087 3c29 0E       		.uleb128 0xe
 8088 3c2a 61000000 		.secrel32	.LASF7
 8089 3c2e BE       		.byte	0xbe
 8090 3c2f 45       		.byte	0x45
 8091 3c30 02030000 		.long	0x302
 8092 3c34 58080000 		.secrel32	.LLST38
 8093 3c38 52080000 		.secrel32	.LVUS38
 8094 3c3c 12       		.uleb128 0x12
 8095 3c3d 21050000 		.quad	.LBB30
 8095      00000000 
 8096 3c45 6D000000 		.quad	.LBE30-.LBB30
 8096      00000000 
 8097 3c4d 0C       		.uleb128 0xc
 8098 3c4e 6900     		.ascii "i\0"
 8099 3c50 BF       		.byte	0xbf
 8100 3c51 10       		.byte	0x10
 8101 3c52 02030000 		.long	0x302
 8102 3c56 75080000 		.secrel32	.LLST39
 8103 3c5a 71080000 		.secrel32	.LVUS39
 8104 3c5e 12       		.uleb128 0x12
 8105 3c5f 28050000 		.quad	.LBB31
 8105      00000000 
 8106 3c67 5C000000 		.quad	.LBE31-.LBB31
 8106      00000000 
 8107 3c6f 0C       		.uleb128 0xc
 8108 3c70 636F6C00 		.ascii "col\0"
 8109 3c74 C0       		.byte	0xc0
 8110 3c75 0F       		.byte	0xf
 8111 3c76 02030000 		.long	0x302
 8112 3c7a 89080000 		.secrel32	.LLST40
 8113 3c7e 85080000 		.secrel32	.LVUS40
 8114 3c82 0C       		.uleb128 0xc
 8115 3c83 726F7700 		.ascii "row\0"
 8116 3c87 C1       		.byte	0xc1
 8117 3c88 0F       		.byte	0xf
 8118 3c89 02030000 		.long	0x302
 8119 3c8d 9C080000 		.secrel32	.LLST41
 8120 3c91 98080000 		.secrel32	.LVUS41
 8121 3c95 16       		.uleb128 0x16
 8122 3c96 2A000000 		.secrel32	.LASF10
 8123 3c9a C2       		.byte	0xc2
 8124 3c9b 0F       		.byte	0xf
 8125 3c9c 02030000 		.long	0x302
 8126 3ca0 AF080000 		.secrel32	.LLST42
 8127 3ca4 AB080000 		.secrel32	.LVUS42
 8128 3ca8 0D       		.uleb128 0xd
 8129 3ca9 2D050000 		.quad	.LVL88
 8129      00000000 
 8130 3cb1 B1420000 		.long	0x42b1
 8131 3cb5 0D       		.uleb128 0xd
 8132 3cb6 3F050000 		.quad	.LVL90
 8132      00000000 
 8133 3cbe B1420000 		.long	0x42b1
 8134 3cc2 0D       		.uleb128 0xd
 8135 3cc3 51050000 		.quad	.LVL92
 8135      00000000 
 8136 3ccb E0410000 		.long	0x41e0
 8137 3ccf 0B       		.uleb128 0xb
 8138 3cd0 6E050000 		.quad	.LVL96
 8138      00000000 
 8139 3cd8 E93C0000 		.long	0x3ce9
 8140 3cdc 02       		.uleb128 0x2
 8141 3cdd 01       		.uleb128 0x1
 8142 3cde 51       		.byte	0x51
 8143 3cdf 02       		.uleb128 0x2
 8144 3ce0 7C       		.byte	0x7c
 8145 3ce1 00       		.sleb128 0
 8146 3ce2 02       		.uleb128 0x2
 8147 3ce3 01       		.uleb128 0x1
 8148 3ce4 58       		.byte	0x58
 8149 3ce5 02       		.uleb128 0x2
 8150 3ce6 7D       		.byte	0x7d
 8151 3ce7 00       		.sleb128 0
 8152 3ce8 00       		.byte	0
 8153 3ce9 08       		.uleb128 0x8
 8154 3cea 7A050000 		.quad	.LVL97
 8154      00000000 
 8155 3cf2 93260000 		.long	0x2693
 8156 3cf6 083D0000 		.long	0x3d08
 8157 3cfa 02       		.uleb128 0x2
 8158 3cfb 01       		.uleb128 0x1
 8159 3cfc 52       		.byte	0x52
 8160 3cfd 09       		.uleb128 0x9
 8161 3cfe 03       		.byte	0x3
 8162 3cff 40000000 		.quad	.LC8
 8162      00000000 
 8163 3d07 00       		.byte	0
 8164 3d08 0F       		.uleb128 0xf
 8165 3d09 84050000 		.quad	.LVL98
 8165      00000000 
 8166 3d11 78420000 		.long	0x4278
 8167 3d15 02       		.uleb128 0x2
 8168 3d16 01       		.uleb128 0x1
 8169 3d17 52       		.byte	0x52
 8170 3d18 05       		.uleb128 0x5
 8171 3d19 0C       		.byte	0xc
 8172 3d1a 20A10700 		.long	0x7a120
 8173 3d1e 00       		.byte	0
 8174 3d1f 00       		.byte	0
 8175 3d20 00       		.byte	0
 8176 3d21 00       		.byte	0
 8177 3d22 2B       		.uleb128 0x2b
 8178 3d23 636F6D70 		.ascii "complex_blur\0"
 8178      6C65785F 
 8178      626C7572 
 8178      00
 8179 3d30 9B       		.byte	0x9b
 8180 3d31 05040000 		.quad	.LFB10
 8180      00000000 
 8181 3d39 07010000 		.quad	.LFE10-.LFB10
 8181      00000000 
 8182 3d41 01       		.uleb128 0x1
 8183 3d42 9C       		.byte	0x9c
 8184 3d43 4B3F0000 		.long	0x3f4b
 8185 3d47 0E       		.uleb128 0xe
 8186 3d48 4D000000 		.secrel32	.LASF5
 8187 3d4c 9B       		.byte	0x9b
 8188 3d4d 25       		.byte	0x25
 8189 3d4e 3F260000 		.long	0x263f
 8190 3d52 C2080000 		.secrel32	.LLST24
 8191 3d56 BE080000 		.secrel32	.LVUS24
 8192 3d5a 0E       		.uleb128 0xe
 8193 3d5b 00000000 		.secrel32	.LASF12
 8194 3d5f 9B       		.byte	0x9b
 8195 3d60 3A       		.byte	0x3a
 8196 3d61 15080000 		.long	0x815
 8197 3d65 DA080000 		.secrel32	.LLST25
 8198 3d69 D4080000 		.secrel32	.LVUS25
 8199 3d6d 0E       		.uleb128 0xe
 8200 3d6e 12000000 		.secrel32	.LASF13
 8201 3d72 9B       		.byte	0x9b
 8202 3d73 49       		.byte	0x49
 8203 3d74 02030000 		.long	0x302
 8204 3d78 F9080000 		.secrel32	.LLST26
 8205 3d7c F3080000 		.secrel32	.LVUS26
 8206 3d80 0E       		.uleb128 0xe
 8207 3d81 1E000000 		.secrel32	.LASF14
 8208 3d85 9B       		.byte	0x9b
 8209 3d86 5C       		.byte	0x5c
 8210 3d87 02030000 		.long	0x302
 8211 3d8b 18090000 		.secrel32	.LLST27
 8212 3d8f 12090000 		.secrel32	.LVUS27
 8213 3d93 16       		.uleb128 0x16
 8214 3d94 46000000 		.secrel32	.LASF3
 8215 3d98 9C       		.byte	0x9c
 8216 3d99 23       		.byte	0x23
 8217 3d9a 042D0000 		.long	0x2d04
 8218 3d9e 33090000 		.secrel32	.LLST28
 8219 3da2 31090000 		.secrel32	.LVUS28
 8220 3da6 0C       		.uleb128 0xc
 8221 3da7 636F6C00 		.ascii "col\0"
 8222 3dab 9D       		.byte	0x9d
 8223 3dac 0B       		.byte	0xb
 8224 3dad 02030000 		.long	0x302
 8225 3db1 3F090000 		.secrel32	.LLST29
 8226 3db5 3B090000 		.secrel32	.LVUS29
 8227 3db9 0C       		.uleb128 0xc
 8228 3dba 726F7700 		.ascii "row\0"
 8229 3dbe 9D       		.byte	0x9d
 8230 3dbf 10       		.byte	0x10
 8231 3dc0 02030000 		.long	0x302
 8232 3dc4 52090000 		.secrel32	.LLST30
 8233 3dc8 4E090000 		.secrel32	.LVUS30
 8234 3dcc 24       		.uleb128 0x24
 8235 3dcd 59000000 		.secrel32	.LASF6
 8236 3dd1 9E       		.byte	0x9e
 8237 3dd2 0B       		.byte	0xb
 8238 3dd3 02030000 		.long	0x302
 8239 3dd7 03       		.uleb128 0x3
 8240 3dd8 91       		.byte	0x91
 8241 3dd9 B87F     		.sleb128 -72
 8242 3ddb 24       		.uleb128 0x24
 8243 3ddc 61000000 		.secrel32	.LASF7
 8244 3de0 9E       		.byte	0x9e
 8245 3de1 14       		.byte	0x14
 8246 3de2 02030000 		.long	0x302
 8247 3de6 03       		.uleb128 0x3
 8248 3de7 91       		.byte	0x91
 8249 3de8 B07F     		.sleb128 -80
 8250 3dea 3F       		.uleb128 0x3f
 8251 3deb 626C7572 		.ascii "blur_intensity\0"
 8251      5F696E74 
 8251      656E7369 
 8251      747900
 8252 3dfa 01       		.byte	0x1
 8253 3dfb 9F       		.byte	0x9f
 8254 3dfc 09       		.byte	0x9
 8255 3dfd 92010000 		.long	0x192
 8256 3e01 06       		.byte	0x6
 8257 3e02 16       		.uleb128 0x16
 8258 3e03 30000000 		.secrel32	.LASF8
 8259 3e07 A0       		.byte	0xa0
 8260 3e08 10       		.byte	0x10
 8261 3e09 2E030000 		.long	0x32e
 8262 3e0d 63090000 		.secrel32	.LLST31
 8263 3e11 61090000 		.secrel32	.LVUS31
 8264 3e15 18       		.uleb128 0x18
 8265 3e16 43000000 		.secrel32	.LLRL32
 8266 3e1a BC3E0000 		.long	0x3ebc
 8267 3e1e 0C       		.uleb128 0xc
 8268 3e1f 6900     		.ascii "i\0"
 8269 3e21 A9       		.byte	0xa9
 8270 3e22 0E       		.byte	0xe
 8271 3e23 92010000 		.long	0x192
 8272 3e27 6D090000 		.secrel32	.LLST33
 8273 3e2b 6B090000 		.secrel32	.LVUS33
 8274 3e2f 19       		.uleb128 0x19
 8275 3e30 4E000000 		.secrel32	.LLRL34
 8276 3e34 16       		.uleb128 0x16
 8277 3e35 2A000000 		.secrel32	.LASF10
 8278 3e39 B1       		.byte	0xb1
 8279 3e3a 0F       		.byte	0xf
 8280 3e3b 02030000 		.long	0x302
 8281 3e3f 77090000 		.secrel32	.LLST35
 8282 3e43 75090000 		.secrel32	.LVUS35
 8283 3e47 0D       		.uleb128 0xd
 8284 3e48 5A040000 		.quad	.LVL65
 8284      00000000 
 8285 3e50 E0410000 		.long	0x41e0
 8286 3e54 0B       		.uleb128 0xb
 8287 3e55 63040000 		.quad	.LVL67
 8287      00000000 
 8288 3e5d 683E0000 		.long	0x3e68
 8289 3e61 02       		.uleb128 0x2
 8290 3e62 01       		.uleb128 0x1
 8291 3e63 52       		.byte	0x52
 8292 3e64 02       		.uleb128 0x2
 8293 3e65 74       		.byte	0x74
 8294 3e66 00       		.sleb128 0
 8295 3e67 00       		.byte	0
 8296 3e68 0B       		.uleb128 0xb
 8297 3e69 6F040000 		.quad	.LVL68
 8297      00000000 
 8298 3e71 883E0000 		.long	0x3e88
 8299 3e75 02       		.uleb128 0x2
 8300 3e76 01       		.uleb128 0x1
 8301 3e77 52       		.byte	0x52
 8302 3e78 02       		.uleb128 0x2
 8303 3e79 74       		.byte	0x74
 8304 3e7a 00       		.sleb128 0
 8305 3e7b 02       		.uleb128 0x2
 8306 3e7c 01       		.uleb128 0x1
 8307 3e7d 51       		.byte	0x51
 8308 3e7e 02       		.uleb128 0x2
 8309 3e7f 73       		.byte	0x73
 8310 3e80 00       		.sleb128 0
 8311 3e81 02       		.uleb128 0x2
 8312 3e82 01       		.uleb128 0x1
 8313 3e83 58       		.byte	0x58
 8314 3e84 02       		.uleb128 0x2
 8315 3e85 7E       		.byte	0x7e
 8316 3e86 00       		.sleb128 0
 8317 3e87 00       		.byte	0
 8318 3e88 08       		.uleb128 0x8
 8319 3e89 77040000 		.quad	.LVL69
 8319      00000000 
 8320 3e91 93260000 		.long	0x2693
 8321 3e95 A03E0000 		.long	0x3ea0
 8322 3e99 02       		.uleb128 0x2
 8323 3e9a 01       		.uleb128 0x1
 8324 3e9b 52       		.byte	0x52
 8325 3e9c 02       		.uleb128 0x2
 8326 3e9d 76       		.byte	0x76
 8327 3e9e 00       		.sleb128 0
 8328 3e9f 00       		.byte	0
 8329 3ea0 0D       		.uleb128 0xd
 8330 3ea1 84040000 		.quad	.LVL71
 8330      00000000 
 8331 3ea9 B1420000 		.long	0x42b1
 8332 3ead 0D       		.uleb128 0xd
 8333 3eae A1040000 		.quad	.LVL73
 8333      00000000 
 8334 3eb6 B1420000 		.long	0x42b1
 8335 3eba 00       		.byte	0
 8336 3ebb 00       		.byte	0
 8337 3ebc 0B       		.uleb128 0xb
 8338 3ebd 38040000 		.quad	.LVL62
 8338      00000000 
 8339 3ec5 DE3E0000 		.long	0x3ede
 8340 3ec9 02       		.uleb128 0x2
 8341 3eca 01       		.uleb128 0x1
 8342 3ecb 52       		.byte	0x52
 8343 3ecc 02       		.uleb128 0x2
 8344 3ecd 74       		.byte	0x74
 8345 3ece 00       		.sleb128 0
 8346 3ecf 02       		.uleb128 0x2
 8347 3ed0 01       		.uleb128 0x1
 8348 3ed1 58       		.byte	0x58
 8349 3ed2 03       		.uleb128 0x3
 8350 3ed3 91       		.byte	0x91
 8351 3ed4 B87F     		.sleb128 -72
 8352 3ed6 02       		.uleb128 0x2
 8353 3ed7 01       		.uleb128 0x1
 8354 3ed8 59       		.byte	0x59
 8355 3ed9 03       		.uleb128 0x3
 8356 3eda 91       		.byte	0x91
 8357 3edb B07F     		.sleb128 -80
 8358 3edd 00       		.byte	0
 8359 3ede 08       		.uleb128 0x8
 8360 3edf 50040000 		.quad	.LVL63
 8360      00000000 
 8361 3ee7 93260000 		.long	0x2693
 8362 3eeb FD3E0000 		.long	0x3efd
 8363 3eef 02       		.uleb128 0x2
 8364 3ef0 01       		.uleb128 0x1
 8365 3ef1 52       		.byte	0x52
 8366 3ef2 09       		.uleb128 0x9
 8367 3ef3 03       		.byte	0x3
 8368 3ef4 00000000 		.quad	.LC6
 8368      00000000 
 8369 3efc 00       		.byte	0
 8370 3efd 0B       		.uleb128 0xb
 8371 3efe E8040000 		.quad	.LVL78
 8371      00000000 
 8372 3f06 163F0000 		.long	0x3f16
 8373 3f0a 02       		.uleb128 0x2
 8374 3f0b 01       		.uleb128 0x1
 8375 3f0c 52       		.byte	0x52
 8376 3f0d 02       		.uleb128 0x2
 8377 3f0e 74       		.byte	0x74
 8378 3f0f 00       		.sleb128 0
 8379 3f10 02       		.uleb128 0x2
 8380 3f11 01       		.uleb128 0x1
 8381 3f12 51       		.byte	0x51
 8382 3f13 01       		.uleb128 0x1
 8383 3f14 3F       		.byte	0x3f
 8384 3f15 00       		.byte	0
 8385 3f16 0B       		.uleb128 0xb
 8386 3f17 F4040000 		.quad	.LVL79
 8386      00000000 
 8387 3f1f 363F0000 		.long	0x3f36
 8388 3f23 02       		.uleb128 0x2
 8389 3f24 01       		.uleb128 0x1
 8390 3f25 52       		.byte	0x52
 8391 3f26 02       		.uleb128 0x2
 8392 3f27 74       		.byte	0x74
 8393 3f28 00       		.sleb128 0
 8394 3f29 02       		.uleb128 0x2
 8395 3f2a 01       		.uleb128 0x1
 8396 3f2b 51       		.byte	0x51
 8397 3f2c 02       		.uleb128 0x2
 8398 3f2d 7C       		.byte	0x7c
 8399 3f2e 00       		.sleb128 0
 8400 3f2f 02       		.uleb128 0x2
 8401 3f30 01       		.uleb128 0x1
 8402 3f31 58       		.byte	0x58
 8403 3f32 02       		.uleb128 0x2
 8404 3f33 7D       		.byte	0x7d
 8405 3f34 00       		.sleb128 0
 8406 3f35 00       		.byte	0
 8407 3f36 0F       		.uleb128 0xf
 8408 3f37 FD040000 		.quad	.LVL80
 8408      00000000 
 8409 3f3f 93260000 		.long	0x2693
 8410 3f43 02       		.uleb128 0x2
 8411 3f44 01       		.uleb128 0x1
 8412 3f45 52       		.byte	0x52
 8413 3f46 02       		.uleb128 0x2
 8414 3f47 76       		.byte	0x76
 8415 3f48 00       		.sleb128 0
 8416 3f49 00       		.byte	0
 8417 3f4a 00       		.byte	0
 8418 3f4b 2B       		.uleb128 0x2b
 8419 3f4c 726F7461 		.ascii "rotating_characters_all_colors\0"
 8419      74696E67 
 8419      5F636861 
 8419      72616374 
 8419      6572735F 
 8420 3f6b 61       		.byte	0x61
 8421 3f6c 3C020000 		.quad	.LFB9
 8421      00000000 
 8422 3f74 C9010000 		.quad	.LFE9-.LFB9
 8422      00000000 
 8423 3f7c 01       		.uleb128 0x1
 8424 3f7d 9C       		.byte	0x9c
 8425 3f7e D0410000 		.long	0x41d0
 8426 3f82 0E       		.uleb128 0xe
 8427 3f83 4D000000 		.secrel32	.LASF5
 8428 3f87 61       		.byte	0x61
 8429 3f88 37       		.byte	0x37
 8430 3f89 3F260000 		.long	0x263f
 8431 3f8d 83090000 		.secrel32	.LLST8
 8432 3f91 7F090000 		.secrel32	.LVUS8
 8433 3f95 16       		.uleb128 0x16
 8434 3f96 46000000 		.secrel32	.LASF3
 8435 3f9a 62       		.byte	0x62
 8436 3f9b 23       		.byte	0x23
 8437 3f9c 042D0000 		.long	0x2d04
 8438 3fa0 97090000 		.secrel32	.LLST9
 8439 3fa4 95090000 		.secrel32	.LVUS9
 8440 3fa8 24       		.uleb128 0x24
 8441 3fa9 59000000 		.secrel32	.LASF6
 8442 3fad 63       		.byte	0x63
 8443 3fae 0B       		.byte	0xb
 8444 3faf 02030000 		.long	0x302
 8445 3fb3 03       		.uleb128 0x3
 8446 3fb4 91       		.byte	0x91
 8447 3fb5 B87F     		.sleb128 -72
 8448 3fb7 24       		.uleb128 0x24
 8449 3fb8 61000000 		.secrel32	.LASF7
 8450 3fbc 63       		.byte	0x63
 8451 3fbd 14       		.byte	0x14
 8452 3fbe 02030000 		.long	0x302
 8453 3fc2 03       		.uleb128 0x3
 8454 3fc3 91       		.byte	0x91
 8455 3fc4 B07F     		.sleb128 -80
 8456 3fc6 16       		.uleb128 0x16
 8457 3fc7 30000000 		.secrel32	.LASF8
 8458 3fcb 64       		.byte	0x64
 8459 3fcc 10       		.byte	0x10
 8460 3fcd 2E030000 		.long	0x32e
 8461 3fd1 A1090000 		.secrel32	.LLST10
 8462 3fd5 9F090000 		.secrel32	.LVUS10
 8463 3fd9 0C       		.uleb128 0xc
 8464 3fda 726F7461 		.ascii "rotatingChar\0"
 8464      74696E67 
 8464      43686172 
 8464      00
 8465 3fe7 6D       		.byte	0x6d
 8466 3fe8 0C       		.byte	0xc
 8467 3fe9 7C020000 		.long	0x27c
 8468 3fed AD090000 		.secrel32	.LLST11
 8469 3ff1 A9090000 		.secrel32	.LVUS11
 8470 3ff5 0C       		.uleb128 0xc
 8471 3ff6 64656661 		.ascii "defaultColor\0"
 8471      756C7443 
 8471      6F6C6F72 
 8471      00
 8472 4003 6E       		.byte	0x6e
 8473 4004 0B       		.byte	0xb
 8474 4005 02030000 		.long	0x302
 8475 4009 C0090000 		.secrel32	.LLST12
 8476 400d BC090000 		.secrel32	.LVUS12
 8477 4011 22       		.uleb128 0x22
 8478 4012 636F6C6F 		.ascii "colors\0"
 8478      727300
 8479 4019 71       		.byte	0x71
 8480 401a 0B       		.byte	0xb
 8481 401b D0410000 		.long	0x41d0
 8482 401f 03       		.uleb128 0x3
 8483 4020 91       		.byte	0x91
 8484 4021 B07E     		.sleb128 -208
 8485 4023 0C       		.uleb128 0xc
 8486 4024 746F7461 		.ascii "totalColors\0"
 8486      6C436F6C 
 8486      6F727300 
 8487 4030 77       		.byte	0x77
 8488 4031 0B       		.byte	0xb
 8489 4032 02030000 		.long	0x302
 8490 4036 D5090000 		.secrel32	.LLST13
 8491 403a D1090000 		.secrel32	.LVUS13
 8492 403e 18       		.uleb128 0x18
 8493 403f 0C000000 		.secrel32	.LLRL14
 8494 4043 76410000 		.long	0x4176
 8495 4047 0C       		.uleb128 0xc
 8496 4048 636F6C6F 		.ascii "colorIndex\0"
 8496      72496E64 
 8496      657800
 8497 4053 7A       		.byte	0x7a
 8498 4054 10       		.byte	0x10
 8499 4055 02030000 		.long	0x302
 8500 4059 EA090000 		.secrel32	.LLST15
 8501 405d E6090000 		.secrel32	.LVUS15
 8502 4061 19       		.uleb128 0x19
 8503 4062 17000000 		.secrel32	.LLRL16
 8504 4066 16       		.uleb128 0x16
 8505 4067 2A000000 		.secrel32	.LASF10
 8506 406b 7B       		.byte	0x7b
 8507 406c 0F       		.byte	0xf
 8508 406d 02030000 		.long	0x302
 8509 4071 000A0000 		.secrel32	.LLST17
 8510 4075 FA090000 		.secrel32	.LVUS17
 8511 4079 18       		.uleb128 0x18
 8512 407a 22000000 		.secrel32	.LLRL18
 8513 407e 3A410000 		.long	0x413a
 8514 4082 0C       		.uleb128 0xc
 8515 4083 6900     		.ascii "i\0"
 8516 4085 7F       		.byte	0x7f
 8517 4086 14       		.byte	0x14
 8518 4087 02030000 		.long	0x302
 8519 408b 2C0A0000 		.secrel32	.LLST19
 8520 408f 280A0000 		.secrel32	.LVUS19
 8521 4093 18       		.uleb128 0x18
 8522 4094 2D000000 		.secrel32	.LLRL20
 8523 4098 0E410000 		.long	0x410e
 8524 409c 0C       		.uleb128 0xc
 8525 409d 726F7700 		.ascii "row\0"
 8526 40a1 87       		.byte	0x87
 8527 40a2 18       		.byte	0x18
 8528 40a3 02030000 		.long	0x302
 8529 40a7 400A0000 		.secrel32	.LLST21
 8530 40ab 3C0A0000 		.secrel32	.LVUS21
 8531 40af 19       		.uleb128 0x19
 8532 40b0 38000000 		.secrel32	.LLRL22
 8533 40b4 0C       		.uleb128 0xc
 8534 40b5 636F6C00 		.ascii "col\0"
 8535 40b9 88       		.byte	0x88
 8536 40ba 1C       		.byte	0x1c
 8537 40bb 02030000 		.long	0x302
 8538 40bf 520A0000 		.secrel32	.LLST23
 8539 40c3 500A0000 		.secrel32	.LVUS23
 8540 40c7 0B       		.uleb128 0xb
 8541 40c8 5A030000 		.quad	.LVL43
 8541      00000000 
 8542 40d0 E7400000 		.long	0x40e7
 8543 40d4 02       		.uleb128 0x2
 8544 40d5 01       		.uleb128 0x1
 8545 40d6 52       		.byte	0x52
 8546 40d7 02       		.uleb128 0x2
 8547 40d8 74       		.byte	0x74
 8548 40d9 00       		.sleb128 0
 8549 40da 02       		.uleb128 0x2
 8550 40db 01       		.uleb128 0x1
 8551 40dc 51       		.byte	0x51
 8552 40dd 02       		.uleb128 0x2
 8553 40de 73       		.byte	0x73
 8554 40df 00       		.sleb128 0
 8555 40e0 02       		.uleb128 0x2
 8556 40e1 01       		.uleb128 0x1
 8557 40e2 58       		.byte	0x58
 8558 40e3 02       		.uleb128 0x2
 8559 40e4 75       		.byte	0x75
 8560 40e5 00       		.sleb128 0
 8561 40e6 00       		.byte	0
 8562 40e7 0F       		.uleb128 0xf
 8563 40e8 69030000 		.quad	.LVL44
 8563      00000000 
 8564 40f0 93260000 		.long	0x2693
 8565 40f4 02       		.uleb128 0x2
 8566 40f5 01       		.uleb128 0x1
 8567 40f6 52       		.byte	0x52
 8568 40f7 09       		.uleb128 0x9
 8569 40f8 03       		.byte	0x3
 8570 40f9 3A000000 		.quad	.LC7
 8570      00000000 
 8571 4101 02       		.uleb128 0x2
 8572 4102 01       		.uleb128 0x1
 8573 4103 51       		.byte	0x51
 8574 4104 06       		.uleb128 0x6
 8575 4105 76       		.byte	0x76
 8576 4106 00       		.sleb128 0
 8577 4107 0A       		.byte	0xa
 8578 4108 FFFF     		.word	0xffff
 8579 410a 1A       		.byte	0x1a
 8580 410b 00       		.byte	0
 8581 410c 00       		.byte	0
 8582 410d 00       		.byte	0
 8583 410e 0B       		.uleb128 0xb
 8584 410f 40030000 		.quad	.LVL40
 8584      00000000 
 8585 4117 22410000 		.long	0x4122
 8586 411b 02       		.uleb128 0x2
 8587 411c 01       		.uleb128 0x1
 8588 411d 52       		.byte	0x52
 8589 411e 02       		.uleb128 0x2
 8590 411f 74       		.byte	0x74
 8591 4120 00       		.sleb128 0
 8592 4121 00       		.byte	0
 8593 4122 0F       		.uleb128 0xf
 8594 4123 96030000 		.quad	.LVL47
 8594      00000000 
 8595 412b 78420000 		.long	0x4278
 8596 412f 02       		.uleb128 0x2
 8597 4130 01       		.uleb128 0x1
 8598 4131 52       		.byte	0x52
 8599 4132 05       		.uleb128 0x5
 8600 4133 0C       		.byte	0xc
 8601 4134 20A10700 		.long	0x7a120
 8602 4138 00       		.byte	0
 8603 4139 00       		.byte	0
 8604 413a 08       		.uleb128 0x8
 8605 413b CC030000 		.quad	.LVL49
 8605      00000000 
 8606 4143 78420000 		.long	0x4278
 8607 4147 55410000 		.long	0x4155
 8608 414b 02       		.uleb128 0x2
 8609 414c 01       		.uleb128 0x1
 8610 414d 52       		.byte	0x52
 8611 414e 05       		.uleb128 0x5
 8612 414f 0C       		.byte	0xc
 8613 4150 20A10700 		.long	0x7a120
 8614 4154 00       		.byte	0
 8615 4155 34       		.uleb128 0x34
 8616 4156 E1030000 		.quad	.LVL52
 8616      00000000 
 8617 415e 02       		.uleb128 0x2
 8618 415f 01       		.uleb128 0x1
 8619 4160 52       		.byte	0x52
 8620 4161 02       		.uleb128 0x2
 8621 4162 74       		.byte	0x74
 8622 4163 00       		.sleb128 0
 8623 4164 02       		.uleb128 0x2
 8624 4165 01       		.uleb128 0x1
 8625 4166 51       		.byte	0x51
 8626 4167 0B       		.uleb128 0xb
 8627 4168 7D       		.byte	0x7d
 8628 4169 00       		.sleb128 0
 8629 416a 33       		.byte	0x33
 8630 416b 24       		.byte	0x24
 8631 416c 91       		.byte	0x91
 8632 416d 00       		.sleb128 0
 8633 416e 22       		.byte	0x22
 8634 416f 08       		.byte	0x8
 8635 4170 D0       		.byte	0xd0
 8636 4171 1C       		.byte	0x1c
 8637 4172 06       		.byte	0x6
 8638 4173 00       		.byte	0
 8639 4174 00       		.byte	0
 8640 4175 00       		.byte	0
 8641 4176 0B       		.uleb128 0xb
 8642 4177 6D020000 		.quad	.LVL33
 8642      00000000 
 8643 417f 98410000 		.long	0x4198
 8644 4183 02       		.uleb128 0x2
 8645 4184 01       		.uleb128 0x1
 8646 4185 52       		.byte	0x52
 8647 4186 02       		.uleb128 0x2
 8648 4187 74       		.byte	0x74
 8649 4188 00       		.sleb128 0
 8650 4189 02       		.uleb128 0x2
 8651 418a 01       		.uleb128 0x1
 8652 418b 58       		.byte	0x58
 8653 418c 03       		.uleb128 0x3
 8654 418d 91       		.byte	0x91
 8655 418e B87F     		.sleb128 -72
 8656 4190 02       		.uleb128 0x2
 8657 4191 01       		.uleb128 0x1
 8658 4192 59       		.byte	0x59
 8659 4193 03       		.uleb128 0x3
 8660 4194 91       		.byte	0x91
 8661 4195 B07F     		.sleb128 -80
 8662 4197 00       		.byte	0
 8663 4198 08       		.uleb128 0x8
 8664 4199 29030000 		.quad	.LVL37
 8664      00000000 
 8665 41a1 93260000 		.long	0x2693
 8666 41a5 B7410000 		.long	0x41b7
 8667 41a9 02       		.uleb128 0x2
 8668 41aa 01       		.uleb128 0x1
 8669 41ab 52       		.byte	0x52
 8670 41ac 09       		.uleb128 0x9
 8671 41ad 03       		.byte	0x3
 8672 41ae 00000000 		.quad	.LC6
 8672      00000000 
 8673 41b6 00       		.byte	0
 8674 41b7 34       		.uleb128 0x34
 8675 41b8 F5030000 		.quad	.LVL54
 8675      00000000 
 8676 41c0 02       		.uleb128 0x2
 8677 41c1 01       		.uleb128 0x1
 8678 41c2 52       		.byte	0x52
 8679 41c3 02       		.uleb128 0x2
 8680 41c4 74       		.byte	0x74
 8681 41c5 00       		.sleb128 0
 8682 41c6 02       		.uleb128 0x2
 8683 41c7 01       		.uleb128 0x1
 8684 41c8 51       		.byte	0x51
 8685 41c9 04       		.uleb128 0x4
 8686 41ca 91       		.byte	0x91
 8687 41cb E87E     		.sleb128 -152
 8688 41cd 06       		.byte	0x6
 8689 41ce 00       		.byte	0
 8690 41cf 00       		.byte	0
 8691 41d0 1D       		.uleb128 0x1d
 8692 41d1 02030000 		.long	0x302
 8693 41d5 E0410000 		.long	0x41e0
 8694 41d9 1E       		.uleb128 0x1e
 8695 41da 3C010000 		.long	0x13c
 8696 41de 0F       		.byte	0xf
 8697 41df 00       		.byte	0
 8698 41e0 40       		.uleb128 0x40
 8699 41e1 72616E64 		.ascii "random_color\0"
 8699      6F6D5F63 
 8699      6F6C6F72 
 8699      00
 8700 41ee 01       		.byte	0x1
 8701 41ef 49       		.byte	0x49
 8702 41f0 07       		.byte	0x7
 8703 41f1 02030000 		.long	0x302
 8704 41f5 3D010000 		.quad	.LFB8
 8704      00000000 
 8705 41fd FF000000 		.quad	.LFE8-.LFB8
 8705      00000000 
 8706 4205 01       		.uleb128 0x1
 8707 4206 9C       		.byte	0x9c
 8708 4207 78420000 		.long	0x4278
 8709 420b 22       		.uleb128 0x22
 8710 420c 66675F63 		.ascii "fg_colors\0"
 8710      6F6C6F72 
 8710      7300
 8711 4216 4B       		.byte	0x4b
 8712 4217 0B       		.byte	0xb
 8713 4218 D0410000 		.long	0x41d0
 8714 421c 03       		.uleb128 0x3
 8715 421d 91       		.byte	0x91
 8716 421e E07E     		.sleb128 -160
 8717 4220 0C       		.uleb128 0xc
 8718 4221 66675F63 		.ascii "fg_color\0"
 8718      6F6C6F72 
 8718      00
 8719 422a 53       		.byte	0x53
 8720 422b 0B       		.byte	0xb
 8721 422c 02030000 		.long	0x302
 8722 4230 5E0A0000 		.secrel32	.LLST6
 8723 4234 5A0A0000 		.secrel32	.LVUS6
 8724 4238 0C       		.uleb128 0xc
 8725 4239 62675F63 		.ascii "bg_color\0"
 8725      6F6C6F72 
 8725      00
 8726 4242 55       		.byte	0x55
 8727 4243 0B       		.byte	0xb
 8728 4244 02030000 		.long	0x302
 8729 4248 710A0000 		.secrel32	.LLST7
 8730 424c 6D0A0000 		.secrel32	.LVUS7
 8731 4250 0D       		.uleb128 0xd
 8732 4251 E7010000 		.quad	.LVL20
 8732      00000000 
 8733 4259 B1420000 		.long	0x42b1
 8734 425d 0D       		.uleb128 0xd
 8735 425e F4010000 		.quad	.LVL22
 8735      00000000 
 8736 4266 B1420000 		.long	0x42b1
 8737 426a 0D       		.uleb128 0xd
 8738 426b 1A020000 		.quad	.LVL28
 8738      00000000 
 8739 4273 B1420000 		.long	0x42b1
 8740 4277 00       		.byte	0
 8741 4278 2B       		.uleb128 0x2b
 8742 4279 64656C61 		.ascii "delay\0"
 8742      7900
 8743 427f 43       		.byte	0x43
 8744 4280 F5000000 		.quad	.LFB7
 8744      00000000 
 8745 4288 48000000 		.quad	.LFE7-.LFB7
 8745      00000000 
 8746 4290 01       		.uleb128 0x1
 8747 4291 9C       		.byte	0x9c
 8748 4292 B1420000 		.long	0x42b1
 8749 4296 41       		.uleb128 0x41
 8750 4297 66000000 		.secrel32	.LASF11
 8751 429b 01       		.byte	0x1
 8752 429c 43       		.byte	0x43
 8753 429d 12       		.byte	0x12
 8754 429e 02030000 		.long	0x302
 8755 42a2 01       		.uleb128 0x1
 8756 42a3 52       		.byte	0x52
 8757 42a4 22       		.uleb128 0x22
 8758 42a5 6900     		.ascii "i\0"
 8759 42a7 44       		.byte	0x44
 8760 42a8 14       		.byte	0x14
 8761 42a9 10030000 		.long	0x310
 8762 42ad 02       		.uleb128 0x2
 8763 42ae 91       		.byte	0x91
 8764 42af 68       		.sleb128 -24
 8765 42b0 00       		.byte	0
 8766 42b1 42       		.uleb128 0x42
 8767 42b2 6D795F72 		.ascii "my_rand\0"
 8767      616E6400 
 8768 42ba 01       		.byte	0x1
 8769 42bb 3D       		.byte	0x3d
 8770 42bc 0E       		.byte	0xe
 8771 42bd 13020000 		.long	0x213
 8772 42c1 DA000000 		.quad	.LFB6
 8772      00000000 
 8773 42c9 1B000000 		.quad	.LFE6-.LFB6
 8773      00000000 
 8774 42d1 01       		.uleb128 0x1
 8775 42d2 9C       		.byte	0x9c
 8776 42d3 43       		.uleb128 0x43
 8777 42d4 53696E00 		.ascii "Sin\0"
 8778 42d8 01       		.byte	0x1
 8779 42d9 29       		.byte	0x29
 8780 42da 06       		.byte	0x6
 8781 42db F5020000 		.long	0x2f5
 8782 42df 15000000 		.quad	.LFB5
 8782      00000000 
 8783 42e7 C5000000 		.quad	.LFE5-.LFB5
 8783      00000000 
 8784 42ef 01       		.uleb128 0x1
 8785 42f0 9C       		.byte	0x9c
 8786 42f1 6C430000 		.long	0x436c
 8787 42f5 35       		.uleb128 0x35
 8788 42f6 616E676C 		.ascii "angle\0"
 8788      6500
 8789 42fc 29       		.byte	0x29
 8790 42fd 10       		.byte	0x10
 8791 42fe 02030000 		.long	0x302
 8792 4302 880A0000 		.secrel32	.LLST1
 8793 4306 800A0000 		.secrel32	.LVUS1
 8794 430a 0C       		.uleb128 0xc
 8795 430b 72616400 		.ascii "rad\0"
 8796 430f 2B       		.byte	0x2b
 8797 4310 0C       		.byte	0xc
 8798 4311 32010000 		.long	0x132
 8799 4315 A80A0000 		.secrel32	.LLST2
 8800 4319 A40A0000 		.secrel32	.LVUS2
 8801 431d 0C       		.uleb128 0xc
 8802 431e 7465726D 		.ascii "term\0"
 8802      00
 8803 4323 2E       		.byte	0x2e
 8804 4324 0C       		.byte	0xc
 8805 4325 32010000 		.long	0x132
 8806 4329 B80A0000 		.secrel32	.LLST3
 8807 432d B40A0000 		.secrel32	.LVUS3
 8808 4331 0C       		.uleb128 0xc
 8809 4332 73756D00 		.ascii "sum\0"
 8810 4336 2F       		.byte	0x2f
 8811 4337 0C       		.byte	0xc
 8812 4338 32010000 		.long	0x132
 8813 433c C80A0000 		.secrel32	.LLST4
 8814 4340 C40A0000 		.secrel32	.LVUS4
 8815 4344 0C       		.uleb128 0xc
 8816 4345 6E00     		.ascii "n\0"
 8817 4347 30       		.byte	0x30
 8818 4348 09       		.byte	0x9
 8819 4349 92010000 		.long	0x192
 8820 434d E50A0000 		.secrel32	.LLST5
 8821 4351 DD0A0000 		.secrel32	.LVUS5
 8822 4355 0F       		.uleb128 0xf
 8823 4356 AC000000 		.quad	.LVL14
 8823      00000000 
 8824 435e BC430000 		.long	0x43bc
 8825 4362 02       		.uleb128 0x2
 8826 4363 01       		.uleb128 0x1
 8827 4364 61       		.byte	0x61
 8828 4365 04       		.uleb128 0x4
 8829 4366 A5       		.byte	0xa5
 8830 4367 17       		.uleb128 0x17
 8831 4368 B202     		.uleb128 0x132
 8832 436a 00       		.byte	0
 8833 436b 00       		.byte	0
 8834 436c 44       		.uleb128 0x44
 8835 436d 696E6200 		.ascii "inb\0"
 8836 4371 01       		.byte	0x1
 8837 4372 21       		.byte	0x21
 8838 4373 15       		.byte	0x15
 8839 4374 D9020000 		.long	0x2d9
 8840 4378 03       		.byte	0x3
 8841 4379 96430000 		.long	0x4396
 8842 437d 2C       		.uleb128 0x2c
 8843 437e 706F7274 		.ascii "port\0"
 8843      00
 8844 4383 21       		.byte	0x21
 8845 4384 20       		.byte	0x20
 8846 4385 BC020000 		.long	0x2bc
 8847 4389 45       		.uleb128 0x45
 8848 438a 72657400 		.ascii "ret\0"
 8849 438e 01       		.byte	0x1
 8850 438f 22       		.byte	0x22
 8851 4390 0B       		.byte	0xb
 8852 4391 D9020000 		.long	0x2d9
 8853 4395 00       		.byte	0
 8854 4396 46       		.uleb128 0x46
 8855 4397 6F757462 		.ascii "outb\0"
 8855      00
 8856 439c 01       		.byte	0x1
 8857 439d 1D       		.byte	0x1d
 8858 439e 14       		.byte	0x14
 8859 439f 03       		.byte	0x3
 8860 43a0 BC430000 		.long	0x43bc
 8861 43a4 2C       		.uleb128 0x2c
 8862 43a5 706F7274 		.ascii "port\0"
 8862      00
 8863 43aa 1D       		.byte	0x1d
 8864 43ab 20       		.byte	0x20
 8865 43ac BC020000 		.long	0x2bc
 8866 43b0 2C       		.uleb128 0x2c
 8867 43b1 76616C00 		.ascii "val\0"
 8868 43b5 1D       		.byte	0x1d
 8869 43b6 2C       		.byte	0x2c
 8870 43b7 D9020000 		.long	0x2d9
 8871 43bb 00       		.byte	0
 8872 43bc 47       		.uleb128 0x47
 8873 43bd 66616273 		.ascii "fabs\0"
 8873      00
 8874 43c2 01       		.byte	0x1
 8875 43c3 19       		.byte	0x19
 8876 43c4 08       		.byte	0x8
 8877 43c5 32010000 		.long	0x132
 8878 43c9 00000000 		.quad	.LFB2
 8878      00000000 
 8879 43d1 15000000 		.quad	.LFE2-.LFB2
 8879      00000000 
 8880 43d9 01       		.uleb128 0x1
 8881 43da 9C       		.byte	0x9c
 8882 43db 35       		.uleb128 0x35
 8883 43dc 7800     		.ascii "x\0"
 8884 43de 19       		.byte	0x19
 8885 43df 14       		.byte	0x14
 8886 43e0 32010000 		.long	0x132
 8887 43e4 060B0000 		.secrel32	.LLST0
 8888 43e8 FE0A0000 		.secrel32	.LVUS0
 8889 43ec 00       		.byte	0
 8890 43ed 00       		.byte	0
 8891              		.section	.debug_abbrev,"dr"
 8892              	.Ldebug_abbrev0:
 8893 0000 01       		.uleb128 0x1
 8894 0001 05       		.uleb128 0x5
 8895 0002 00       		.byte	0
 8896 0003 49       		.uleb128 0x49
 8897 0004 13       		.uleb128 0x13
 8898 0005 00       		.byte	0
 8899 0006 00       		.byte	0
 8900 0007 02       		.uleb128 0x2
 8901 0008 49       		.uleb128 0x49
 8902 0009 00       		.byte	0
 8903 000a 02       		.uleb128 0x2
 8904 000b 18       		.uleb128 0x18
 8905 000c 7E       		.uleb128 0x7e
 8906 000d 18       		.uleb128 0x18
 8907 000e 00       		.byte	0
 8908 000f 00       		.byte	0
 8909 0010 03       		.uleb128 0x3
 8910 0011 0F       		.uleb128 0xf
 8911 0012 00       		.byte	0
 8912 0013 0B       		.uleb128 0xb
 8913 0014 21       		.uleb128 0x21
 8914 0015 08       		.sleb128 8
 8915 0016 49       		.uleb128 0x49
 8916 0017 13       		.uleb128 0x13
 8917 0018 00       		.byte	0
 8918 0019 00       		.byte	0
 8919 001a 04       		.uleb128 0x4
 8920 001b 0D       		.uleb128 0xd
 8921 001c 00       		.byte	0
 8922 001d 03       		.uleb128 0x3
 8923 001e 08       		.uleb128 0x8
 8924 001f 3A       		.uleb128 0x3a
 8925 0020 0B       		.uleb128 0xb
 8926 0021 3B       		.uleb128 0x3b
 8927 0022 05       		.uleb128 0x5
 8928 0023 39       		.uleb128 0x39
 8929 0024 0B       		.uleb128 0xb
 8930 0025 49       		.uleb128 0x49
 8931 0026 13       		.uleb128 0x13
 8932 0027 38       		.uleb128 0x38
 8933 0028 0B       		.uleb128 0xb
 8934 0029 00       		.byte	0
 8935 002a 00       		.byte	0
 8936 002b 05       		.uleb128 0x5
 8937 002c 16       		.uleb128 0x16
 8938 002d 00       		.byte	0
 8939 002e 03       		.uleb128 0x3
 8940 002f 08       		.uleb128 0x8
 8941 0030 3A       		.uleb128 0x3a
 8942 0031 0B       		.uleb128 0xb
 8943 0032 3B       		.uleb128 0x3b
 8944 0033 0B       		.uleb128 0xb
 8945 0034 39       		.uleb128 0x39
 8946 0035 0B       		.uleb128 0xb
 8947 0036 49       		.uleb128 0x49
 8948 0037 13       		.uleb128 0x13
 8949 0038 00       		.byte	0
 8950 0039 00       		.byte	0
 8951 003a 06       		.uleb128 0x6
 8952 003b 15       		.uleb128 0x15
 8953 003c 01       		.byte	0x1
 8954 003d 27       		.uleb128 0x27
 8955 003e 19       		.uleb128 0x19
 8956 003f 49       		.uleb128 0x49
 8957 0040 13       		.uleb128 0x13
 8958 0041 01       		.uleb128 0x1
 8959 0042 13       		.uleb128 0x13
 8960 0043 00       		.byte	0
 8961 0044 00       		.byte	0
 8962 0045 07       		.uleb128 0x7
 8963 0046 16       		.uleb128 0x16
 8964 0047 00       		.byte	0
 8965 0048 03       		.uleb128 0x3
 8966 0049 08       		.uleb128 0x8
 8967 004a 3A       		.uleb128 0x3a
 8968 004b 0B       		.uleb128 0xb
 8969 004c 3B       		.uleb128 0x3b
 8970 004d 05       		.uleb128 0x5
 8971 004e 39       		.uleb128 0x39
 8972 004f 0B       		.uleb128 0xb
 8973 0050 49       		.uleb128 0x49
 8974 0051 13       		.uleb128 0x13
 8975 0052 00       		.byte	0
 8976 0053 00       		.byte	0
 8977 0054 08       		.uleb128 0x8
 8978 0055 48       		.uleb128 0x48
 8979 0056 01       		.byte	0x1
 8980 0057 7D       		.uleb128 0x7d
 8981 0058 01       		.uleb128 0x1
 8982 0059 7F       		.uleb128 0x7f
 8983 005a 13       		.uleb128 0x13
 8984 005b 01       		.uleb128 0x1
 8985 005c 13       		.uleb128 0x13
 8986 005d 00       		.byte	0
 8987 005e 00       		.byte	0
 8988 005f 09       		.uleb128 0x9
 8989 0060 0D       		.uleb128 0xd
 8990 0061 00       		.byte	0
 8991 0062 03       		.uleb128 0x3
 8992 0063 08       		.uleb128 0x8
 8993 0064 3A       		.uleb128 0x3a
 8994 0065 0B       		.uleb128 0xb
 8995 0066 3B       		.uleb128 0x3b
 8996 0067 0B       		.uleb128 0xb
 8997 0068 39       		.uleb128 0x39
 8998 0069 0B       		.uleb128 0xb
 8999 006a 49       		.uleb128 0x49
 9000 006b 13       		.uleb128 0x13
 9001 006c 38       		.uleb128 0x38
 9002 006d 0B       		.uleb128 0xb
 9003 006e 00       		.byte	0
 9004 006f 00       		.byte	0
 9005 0070 0A       		.uleb128 0xa
 9006 0071 28       		.uleb128 0x28
 9007 0072 00       		.byte	0
 9008 0073 03       		.uleb128 0x3
 9009 0074 08       		.uleb128 0x8
 9010 0075 1C       		.uleb128 0x1c
 9011 0076 0B       		.uleb128 0xb
 9012 0077 00       		.byte	0
 9013 0078 00       		.byte	0
 9014 0079 0B       		.uleb128 0xb
 9015 007a 48       		.uleb128 0x48
 9016 007b 01       		.byte	0x1
 9017 007c 7D       		.uleb128 0x7d
 9018 007d 01       		.uleb128 0x1
 9019 007e 01       		.uleb128 0x1
 9020 007f 13       		.uleb128 0x13
 9021 0080 00       		.byte	0
 9022 0081 00       		.byte	0
 9023 0082 0C       		.uleb128 0xc
 9024 0083 34       		.uleb128 0x34
 9025 0084 00       		.byte	0
 9026 0085 03       		.uleb128 0x3
 9027 0086 08       		.uleb128 0x8
 9028 0087 3A       		.uleb128 0x3a
 9029 0088 21       		.uleb128 0x21
 9030 0089 01       		.sleb128 1
 9031 008a 3B       		.uleb128 0x3b
 9032 008b 0B       		.uleb128 0xb
 9033 008c 39       		.uleb128 0x39
 9034 008d 0B       		.uleb128 0xb
 9035 008e 49       		.uleb128 0x49
 9036 008f 13       		.uleb128 0x13
 9037 0090 02       		.uleb128 0x2
 9038 0091 17       		.uleb128 0x17
 9039 0092 B742     		.uleb128 0x2137
 9040 0094 17       		.uleb128 0x17
 9041 0095 00       		.byte	0
 9042 0096 00       		.byte	0
 9043 0097 0D       		.uleb128 0xd
 9044 0098 48       		.uleb128 0x48
 9045 0099 00       		.byte	0
 9046 009a 7D       		.uleb128 0x7d
 9047 009b 01       		.uleb128 0x1
 9048 009c 7F       		.uleb128 0x7f
 9049 009d 13       		.uleb128 0x13
 9050 009e 00       		.byte	0
 9051 009f 00       		.byte	0
 9052 00a0 0E       		.uleb128 0xe
 9053 00a1 05       		.uleb128 0x5
 9054 00a2 00       		.byte	0
 9055 00a3 03       		.uleb128 0x3
 9056 00a4 0E       		.uleb128 0xe
 9057 00a5 3A       		.uleb128 0x3a
 9058 00a6 21       		.uleb128 0x21
 9059 00a7 01       		.sleb128 1
 9060 00a8 3B       		.uleb128 0x3b
 9061 00a9 0B       		.uleb128 0xb
 9062 00aa 39       		.uleb128 0x39
 9063 00ab 0B       		.uleb128 0xb
 9064 00ac 49       		.uleb128 0x49
 9065 00ad 13       		.uleb128 0x13
 9066 00ae 02       		.uleb128 0x2
 9067 00af 17       		.uleb128 0x17
 9068 00b0 B742     		.uleb128 0x2137
 9069 00b2 17       		.uleb128 0x17
 9070 00b3 00       		.byte	0
 9071 00b4 00       		.byte	0
 9072 00b5 0F       		.uleb128 0xf
 9073 00b6 48       		.uleb128 0x48
 9074 00b7 01       		.byte	0x1
 9075 00b8 7D       		.uleb128 0x7d
 9076 00b9 01       		.uleb128 0x1
 9077 00ba 7F       		.uleb128 0x7f
 9078 00bb 13       		.uleb128 0x13
 9079 00bc 00       		.byte	0
 9080 00bd 00       		.byte	0
 9081 00be 10       		.uleb128 0x10
 9082 00bf 05       		.uleb128 0x5
 9083 00c0 00       		.byte	0
 9084 00c1 03       		.uleb128 0x3
 9085 00c2 0E       		.uleb128 0xe
 9086 00c3 3A       		.uleb128 0x3a
 9087 00c4 21       		.uleb128 0x21
 9088 00c5 01       		.sleb128 1
 9089 00c6 3B       		.uleb128 0x3b
 9090 00c7 05       		.uleb128 0x5
 9091 00c8 39       		.uleb128 0x39
 9092 00c9 0B       		.uleb128 0xb
 9093 00ca 49       		.uleb128 0x49
 9094 00cb 13       		.uleb128 0x13
 9095 00cc 02       		.uleb128 0x2
 9096 00cd 17       		.uleb128 0x17
 9097 00ce B742     		.uleb128 0x2137
 9098 00d0 17       		.uleb128 0x17
 9099 00d1 00       		.byte	0
 9100 00d2 00       		.byte	0
 9101 00d3 11       		.uleb128 0x11
 9102 00d4 34       		.uleb128 0x34
 9103 00d5 00       		.byte	0
 9104 00d6 03       		.uleb128 0x3
 9105 00d7 08       		.uleb128 0x8
 9106 00d8 3A       		.uleb128 0x3a
 9107 00d9 21       		.uleb128 0x21
 9108 00da 01       		.sleb128 1
 9109 00db 3B       		.uleb128 0x3b
 9110 00dc 05       		.uleb128 0x5
 9111 00dd 39       		.uleb128 0x39
 9112 00de 0B       		.uleb128 0xb
 9113 00df 49       		.uleb128 0x49
 9114 00e0 13       		.uleb128 0x13
 9115 00e1 02       		.uleb128 0x2
 9116 00e2 17       		.uleb128 0x17
 9117 00e3 B742     		.uleb128 0x2137
 9118 00e5 17       		.uleb128 0x17
 9119 00e6 00       		.byte	0
 9120 00e7 00       		.byte	0
 9121 00e8 12       		.uleb128 0x12
 9122 00e9 0B       		.uleb128 0xb
 9123 00ea 01       		.byte	0x1
 9124 00eb 11       		.uleb128 0x11
 9125 00ec 01       		.uleb128 0x1
 9126 00ed 12       		.uleb128 0x12
 9127 00ee 07       		.uleb128 0x7
 9128 00ef 00       		.byte	0
 9129 00f0 00       		.byte	0
 9130 00f1 13       		.uleb128 0x13
 9131 00f2 0D       		.uleb128 0xd
 9132 00f3 00       		.byte	0
 9133 00f4 03       		.uleb128 0x3
 9134 00f5 08       		.uleb128 0x8
 9135 00f6 3A       		.uleb128 0x3a
 9136 00f7 21       		.uleb128 0x21
 9137 00f8 08       		.sleb128 8
 9138 00f9 3B       		.uleb128 0x3b
 9139 00fa 05       		.uleb128 0x5
 9140 00fb 39       		.uleb128 0x39
 9141 00fc 0B       		.uleb128 0xb
 9142 00fd 49       		.uleb128 0x49
 9143 00fe 13       		.uleb128 0x13
 9144 00ff 38       		.uleb128 0x38
 9145 0100 05       		.uleb128 0x5
 9146 0101 00       		.byte	0
 9147 0102 00       		.byte	0
 9148 0103 14       		.uleb128 0x14
 9149 0104 24       		.uleb128 0x24
 9150 0105 00       		.byte	0
 9151 0106 0B       		.uleb128 0xb
 9152 0107 0B       		.uleb128 0xb
 9153 0108 3E       		.uleb128 0x3e
 9154 0109 0B       		.uleb128 0xb
 9155 010a 03       		.uleb128 0x3
 9156 010b 08       		.uleb128 0x8
 9157 010c 00       		.byte	0
 9158 010d 00       		.byte	0
 9159 010e 15       		.uleb128 0x15
 9160 010f 05       		.uleb128 0x5
 9161 0110 00       		.byte	0
 9162 0111 31       		.uleb128 0x31
 9163 0112 13       		.uleb128 0x13
 9164 0113 02       		.uleb128 0x2
 9165 0114 17       		.uleb128 0x17
 9166 0115 B742     		.uleb128 0x2137
 9167 0117 17       		.uleb128 0x17
 9168 0118 00       		.byte	0
 9169 0119 00       		.byte	0
 9170 011a 16       		.uleb128 0x16
 9171 011b 34       		.uleb128 0x34
 9172 011c 00       		.byte	0
 9173 011d 03       		.uleb128 0x3
 9174 011e 0E       		.uleb128 0xe
 9175 011f 3A       		.uleb128 0x3a
 9176 0120 21       		.uleb128 0x21
 9177 0121 01       		.sleb128 1
 9178 0122 3B       		.uleb128 0x3b
 9179 0123 0B       		.uleb128 0xb
 9180 0124 39       		.uleb128 0x39
 9181 0125 0B       		.uleb128 0xb
 9182 0126 49       		.uleb128 0x49
 9183 0127 13       		.uleb128 0x13
 9184 0128 02       		.uleb128 0x2
 9185 0129 17       		.uleb128 0x17
 9186 012a B742     		.uleb128 0x2137
 9187 012c 17       		.uleb128 0x17
 9188 012d 00       		.byte	0
 9189 012e 00       		.byte	0
 9190 012f 17       		.uleb128 0x17
 9191 0130 34       		.uleb128 0x34
 9192 0131 00       		.byte	0
 9193 0132 03       		.uleb128 0x3
 9194 0133 0E       		.uleb128 0xe
 9195 0134 3A       		.uleb128 0x3a
 9196 0135 21       		.uleb128 0x21
 9197 0136 01       		.sleb128 1
 9198 0137 3B       		.uleb128 0x3b
 9199 0138 05       		.uleb128 0x5
 9200 0139 39       		.uleb128 0x39
 9201 013a 0B       		.uleb128 0xb
 9202 013b 49       		.uleb128 0x49
 9203 013c 13       		.uleb128 0x13
 9204 013d 02       		.uleb128 0x2
 9205 013e 17       		.uleb128 0x17
 9206 013f B742     		.uleb128 0x2137
 9207 0141 17       		.uleb128 0x17
 9208 0142 00       		.byte	0
 9209 0143 00       		.byte	0
 9210 0144 18       		.uleb128 0x18
 9211 0145 0B       		.uleb128 0xb
 9212 0146 01       		.byte	0x1
 9213 0147 55       		.uleb128 0x55
 9214 0148 17       		.uleb128 0x17
 9215 0149 01       		.uleb128 0x1
 9216 014a 13       		.uleb128 0x13
 9217 014b 00       		.byte	0
 9218 014c 00       		.byte	0
 9219 014d 19       		.uleb128 0x19
 9220 014e 0B       		.uleb128 0xb
 9221 014f 01       		.byte	0x1
 9222 0150 55       		.uleb128 0x55
 9223 0151 17       		.uleb128 0x17
 9224 0152 00       		.byte	0
 9225 0153 00       		.byte	0
 9226 0154 1A       		.uleb128 0x1a
 9227 0155 1D       		.uleb128 0x1d
 9228 0156 01       		.byte	0x1
 9229 0157 31       		.uleb128 0x31
 9230 0158 13       		.uleb128 0x13
 9231 0159 52       		.uleb128 0x52
 9232 015a 01       		.uleb128 0x1
 9233 015b B842     		.uleb128 0x2138
 9234 015d 0B       		.uleb128 0xb
 9235 015e 11       		.uleb128 0x11
 9236 015f 01       		.uleb128 0x1
 9237 0160 12       		.uleb128 0x12
 9238 0161 07       		.uleb128 0x7
 9239 0162 58       		.uleb128 0x58
 9240 0163 21       		.uleb128 0x21
 9241 0164 01       		.sleb128 1
 9242 0165 59       		.uleb128 0x59
 9243 0166 05       		.uleb128 0x5
 9244 0167 57       		.uleb128 0x57
 9245 0168 0B       		.uleb128 0xb
 9246 0169 01       		.uleb128 0x1
 9247 016a 13       		.uleb128 0x13
 9248 016b 00       		.byte	0
 9249 016c 00       		.byte	0
 9250 016d 1B       		.uleb128 0x1b
 9251 016e 13       		.uleb128 0x13
 9252 016f 01       		.byte	0x1
 9253 0170 0B       		.uleb128 0xb
 9254 0171 0B       		.uleb128 0xb
 9255 0172 3A       		.uleb128 0x3a
 9256 0173 0B       		.uleb128 0xb
 9257 0174 3B       		.uleb128 0x3b
 9258 0175 0B       		.uleb128 0xb
 9259 0176 39       		.uleb128 0x39
 9260 0177 21       		.uleb128 0x21
 9261 0178 09       		.sleb128 9
 9262 0179 01       		.uleb128 0x1
 9263 017a 13       		.uleb128 0x13
 9264 017b 00       		.byte	0
 9265 017c 00       		.byte	0
 9266 017d 1C       		.uleb128 0x1c
 9267 017e 2E       		.uleb128 0x2e
 9268 017f 01       		.byte	0x1
 9269 0180 3F       		.uleb128 0x3f
 9270 0181 19       		.uleb128 0x19
 9271 0182 03       		.uleb128 0x3
 9272 0183 08       		.uleb128 0x8
 9273 0184 3A       		.uleb128 0x3a
 9274 0185 21       		.uleb128 0x21
 9275 0186 01       		.sleb128 1
 9276 0187 3B       		.uleb128 0x3b
 9277 0188 0B       		.uleb128 0xb
 9278 0189 39       		.uleb128 0x39
 9279 018a 21       		.uleb128 0x21
 9280 018b 06       		.sleb128 6
 9281 018c 27       		.uleb128 0x27
 9282 018d 19       		.uleb128 0x19
 9283 018e 11       		.uleb128 0x11
 9284 018f 01       		.uleb128 0x1
 9285 0190 12       		.uleb128 0x12
 9286 0191 07       		.uleb128 0x7
 9287 0192 40       		.uleb128 0x40
 9288 0193 18       		.uleb128 0x18
 9289 0194 7C       		.uleb128 0x7c
 9290 0195 19       		.uleb128 0x19
 9291 0196 01       		.uleb128 0x1
 9292 0197 13       		.uleb128 0x13
 9293 0198 00       		.byte	0
 9294 0199 00       		.byte	0
 9295 019a 1D       		.uleb128 0x1d
 9296 019b 01       		.uleb128 0x1
 9297 019c 01       		.byte	0x1
 9298 019d 49       		.uleb128 0x49
 9299 019e 13       		.uleb128 0x13
 9300 019f 01       		.uleb128 0x1
 9301 01a0 13       		.uleb128 0x13
 9302 01a1 00       		.byte	0
 9303 01a2 00       		.byte	0
 9304 01a3 1E       		.uleb128 0x1e
 9305 01a4 21       		.uleb128 0x21
 9306 01a5 00       		.byte	0
 9307 01a6 49       		.uleb128 0x49
 9308 01a7 13       		.uleb128 0x13
 9309 01a8 2F       		.uleb128 0x2f
 9310 01a9 0B       		.uleb128 0xb
 9311 01aa 00       		.byte	0
 9312 01ab 00       		.byte	0
 9313 01ac 1F       		.uleb128 0x1f
 9314 01ad 13       		.uleb128 0x13
 9315 01ae 01       		.byte	0x1
 9316 01af 03       		.uleb128 0x3
 9317 01b0 08       		.uleb128 0x8
 9318 01b1 0B       		.uleb128 0xb
 9319 01b2 0B       		.uleb128 0xb
 9320 01b3 3A       		.uleb128 0x3a
 9321 01b4 0B       		.uleb128 0xb
 9322 01b5 3B       		.uleb128 0x3b
 9323 01b6 05       		.uleb128 0x5
 9324 01b7 39       		.uleb128 0x39
 9325 01b8 21       		.uleb128 0x21
 9326 01b9 10       		.sleb128 16
 9327 01ba 01       		.uleb128 0x1
 9328 01bb 13       		.uleb128 0x13
 9329 01bc 00       		.byte	0
 9330 01bd 00       		.byte	0
 9331 01be 20       		.uleb128 0x20
 9332 01bf 15       		.uleb128 0x15
 9333 01c0 01       		.byte	0x1
 9334 01c1 27       		.uleb128 0x27
 9335 01c2 19       		.uleb128 0x19
 9336 01c3 01       		.uleb128 0x1
 9337 01c4 13       		.uleb128 0x13
 9338 01c5 00       		.byte	0
 9339 01c6 00       		.byte	0
 9340 01c7 21       		.uleb128 0x21
 9341 01c8 13       		.uleb128 0x13
 9342 01c9 01       		.byte	0x1
 9343 01ca 0B       		.uleb128 0xb
 9344 01cb 0B       		.uleb128 0xb
 9345 01cc 3A       		.uleb128 0x3a
 9346 01cd 21       		.uleb128 0x21
 9347 01ce 08       		.sleb128 8
 9348 01cf 3B       		.uleb128 0x3b
 9349 01d0 05       		.uleb128 0x5
 9350 01d1 39       		.uleb128 0x39
 9351 01d2 21       		.uleb128 0x21
 9352 01d3 09       		.sleb128 9
 9353 01d4 01       		.uleb128 0x1
 9354 01d5 13       		.uleb128 0x13
 9355 01d6 00       		.byte	0
 9356 01d7 00       		.byte	0
 9357 01d8 22       		.uleb128 0x22
 9358 01d9 34       		.uleb128 0x34
 9359 01da 00       		.byte	0
 9360 01db 03       		.uleb128 0x3
 9361 01dc 08       		.uleb128 0x8
 9362 01dd 3A       		.uleb128 0x3a
 9363 01de 21       		.uleb128 0x21
 9364 01df 01       		.sleb128 1
 9365 01e0 3B       		.uleb128 0x3b
 9366 01e1 0B       		.uleb128 0xb
 9367 01e2 39       		.uleb128 0x39
 9368 01e3 0B       		.uleb128 0xb
 9369 01e4 49       		.uleb128 0x49
 9370 01e5 13       		.uleb128 0x13
 9371 01e6 02       		.uleb128 0x2
 9372 01e7 18       		.uleb128 0x18
 9373 01e8 00       		.byte	0
 9374 01e9 00       		.byte	0
 9375 01ea 23       		.uleb128 0x23
 9376 01eb 2E       		.uleb128 0x2e
 9377 01ec 01       		.byte	0x1
 9378 01ed 3F       		.uleb128 0x3f
 9379 01ee 19       		.uleb128 0x19
 9380 01ef 03       		.uleb128 0x3
 9381 01f0 08       		.uleb128 0x8
 9382 01f1 3A       		.uleb128 0x3a
 9383 01f2 21       		.uleb128 0x21
 9384 01f3 01       		.sleb128 1
 9385 01f4 3B       		.uleb128 0x3b
 9386 01f5 05       		.uleb128 0x5
 9387 01f6 39       		.uleb128 0x39
 9388 01f7 21       		.uleb128 0x21
 9389 01f8 06       		.sleb128 6
 9390 01f9 27       		.uleb128 0x27
 9391 01fa 19       		.uleb128 0x19
 9392 01fb 11       		.uleb128 0x11
 9393 01fc 01       		.uleb128 0x1
 9394 01fd 12       		.uleb128 0x12
 9395 01fe 07       		.uleb128 0x7
 9396 01ff 40       		.uleb128 0x40
 9397 0200 18       		.uleb128 0x18
 9398 0201 7C       		.uleb128 0x7c
 9399 0202 19       		.uleb128 0x19
 9400 0203 01       		.uleb128 0x1
 9401 0204 13       		.uleb128 0x13
 9402 0205 00       		.byte	0
 9403 0206 00       		.byte	0
 9404 0207 24       		.uleb128 0x24
 9405 0208 34       		.uleb128 0x34
 9406 0209 00       		.byte	0
 9407 020a 03       		.uleb128 0x3
 9408 020b 0E       		.uleb128 0xe
 9409 020c 3A       		.uleb128 0x3a
 9410 020d 21       		.uleb128 0x21
 9411 020e 01       		.sleb128 1
 9412 020f 3B       		.uleb128 0x3b
 9413 0210 0B       		.uleb128 0xb
 9414 0211 39       		.uleb128 0x39
 9415 0212 0B       		.uleb128 0xb
 9416 0213 49       		.uleb128 0x49
 9417 0214 13       		.uleb128 0x13
 9418 0215 02       		.uleb128 0x2
 9419 0216 18       		.uleb128 0x18
 9420 0217 00       		.byte	0
 9421 0218 00       		.byte	0
 9422 0219 25       		.uleb128 0x25
 9423 021a 26       		.uleb128 0x26
 9424 021b 00       		.byte	0
 9425 021c 49       		.uleb128 0x49
 9426 021d 13       		.uleb128 0x13
 9427 021e 00       		.byte	0
 9428 021f 00       		.byte	0
 9429 0220 26       		.uleb128 0x26
 9430 0221 04       		.uleb128 0x4
 9431 0222 01       		.byte	0x1
 9432 0223 3E       		.uleb128 0x3e
 9433 0224 21       		.uleb128 0x21
 9434 0225 07       		.sleb128 7
 9435 0226 0B       		.uleb128 0xb
 9436 0227 21       		.uleb128 0x21
 9437 0228 04       		.sleb128 4
 9438 0229 49       		.uleb128 0x49
 9439 022a 13       		.uleb128 0x13
 9440 022b 3A       		.uleb128 0x3a
 9441 022c 0B       		.uleb128 0xb
 9442 022d 3B       		.uleb128 0x3b
 9443 022e 0B       		.uleb128 0xb
 9444 022f 39       		.uleb128 0x39
 9445 0230 21       		.uleb128 0x21
 9446 0231 0E       		.sleb128 14
 9447 0232 01       		.uleb128 0x1
 9448 0233 13       		.uleb128 0x13
 9449 0234 00       		.byte	0
 9450 0235 00       		.byte	0
 9451 0236 27       		.uleb128 0x27
 9452 0237 0D       		.uleb128 0xd
 9453 0238 00       		.byte	0
 9454 0239 03       		.uleb128 0x3
 9455 023a 0E       		.uleb128 0xe
 9456 023b 3A       		.uleb128 0x3a
 9457 023c 21       		.uleb128 0x21
 9458 023d 08       		.sleb128 8
 9459 023e 3B       		.uleb128 0x3b
 9460 023f 05       		.uleb128 0x5
 9461 0240 39       		.uleb128 0x39
 9462 0241 0B       		.uleb128 0xb
 9463 0242 49       		.uleb128 0x49
 9464 0243 13       		.uleb128 0x13
 9465 0244 38       		.uleb128 0x38
 9466 0245 0B       		.uleb128 0xb
 9467 0246 00       		.byte	0
 9468 0247 00       		.byte	0
 9469 0248 28       		.uleb128 0x28
 9470 0249 04       		.uleb128 0x4
 9471 024a 01       		.byte	0x1
 9472 024b 3E       		.uleb128 0x3e
 9473 024c 21       		.uleb128 0x21
 9474 024d 07       		.sleb128 7
 9475 024e 0B       		.uleb128 0xb
 9476 024f 21       		.uleb128 0x21
 9477 0250 04       		.sleb128 4
 9478 0251 49       		.uleb128 0x49
 9479 0252 13       		.uleb128 0x13
 9480 0253 3A       		.uleb128 0x3a
 9481 0254 21       		.uleb128 0x21
 9482 0255 08       		.sleb128 8
 9483 0256 3B       		.uleb128 0x3b
 9484 0257 05       		.uleb128 0x5
 9485 0258 39       		.uleb128 0x39
 9486 0259 21       		.uleb128 0x21
 9487 025a 0E       		.sleb128 14
 9488 025b 01       		.uleb128 0x1
 9489 025c 13       		.uleb128 0x13
 9490 025d 00       		.byte	0
 9491 025e 00       		.byte	0
 9492 025f 29       		.uleb128 0x29
 9493 0260 18       		.uleb128 0x18
 9494 0261 00       		.byte	0
 9495 0262 00       		.byte	0
 9496 0263 00       		.byte	0
 9497 0264 2A       		.uleb128 0x2a
 9498 0265 2E       		.uleb128 0x2e
 9499 0266 01       		.byte	0x1
 9500 0267 3F       		.uleb128 0x3f
 9501 0268 19       		.uleb128 0x19
 9502 0269 03       		.uleb128 0x3
 9503 026a 08       		.uleb128 0x8
 9504 026b 3A       		.uleb128 0x3a
 9505 026c 21       		.uleb128 0x21
 9506 026d 01       		.sleb128 1
 9507 026e 3B       		.uleb128 0x3b
 9508 026f 05       		.uleb128 0x5
 9509 0270 39       		.uleb128 0x39
 9510 0271 21       		.uleb128 0x21
 9511 0272 06       		.sleb128 6
 9512 0273 27       		.uleb128 0x27
 9513 0274 19       		.uleb128 0x19
 9514 0275 11       		.uleb128 0x11
 9515 0276 01       		.uleb128 0x1
 9516 0277 12       		.uleb128 0x12
 9517 0278 07       		.uleb128 0x7
 9518 0279 40       		.uleb128 0x40
 9519 027a 18       		.uleb128 0x18
 9520 027b 7A       		.uleb128 0x7a
 9521 027c 19       		.uleb128 0x19
 9522 027d 01       		.uleb128 0x1
 9523 027e 13       		.uleb128 0x13
 9524 027f 00       		.byte	0
 9525 0280 00       		.byte	0
 9526 0281 2B       		.uleb128 0x2b
 9527 0282 2E       		.uleb128 0x2e
 9528 0283 01       		.byte	0x1
 9529 0284 3F       		.uleb128 0x3f
 9530 0285 19       		.uleb128 0x19
 9531 0286 03       		.uleb128 0x3
 9532 0287 08       		.uleb128 0x8
 9533 0288 3A       		.uleb128 0x3a
 9534 0289 21       		.uleb128 0x21
 9535 028a 01       		.sleb128 1
 9536 028b 3B       		.uleb128 0x3b
 9537 028c 0B       		.uleb128 0xb
 9538 028d 39       		.uleb128 0x39
 9539 028e 21       		.uleb128 0x21
 9540 028f 06       		.sleb128 6
 9541 0290 27       		.uleb128 0x27
 9542 0291 19       		.uleb128 0x19
 9543 0292 11       		.uleb128 0x11
 9544 0293 01       		.uleb128 0x1
 9545 0294 12       		.uleb128 0x12
 9546 0295 07       		.uleb128 0x7
 9547 0296 40       		.uleb128 0x40
 9548 0297 18       		.uleb128 0x18
 9549 0298 7A       		.uleb128 0x7a
 9550 0299 19       		.uleb128 0x19
 9551 029a 01       		.uleb128 0x1
 9552 029b 13       		.uleb128 0x13
 9553 029c 00       		.byte	0
 9554 029d 00       		.byte	0
 9555 029e 2C       		.uleb128 0x2c
 9556 029f 05       		.uleb128 0x5
 9557 02a0 00       		.byte	0
 9558 02a1 03       		.uleb128 0x3
 9559 02a2 08       		.uleb128 0x8
 9560 02a3 3A       		.uleb128 0x3a
 9561 02a4 21       		.uleb128 0x21
 9562 02a5 01       		.sleb128 1
 9563 02a6 3B       		.uleb128 0x3b
 9564 02a7 0B       		.uleb128 0xb
 9565 02a8 39       		.uleb128 0x39
 9566 02a9 0B       		.uleb128 0xb
 9567 02aa 49       		.uleb128 0x49
 9568 02ab 13       		.uleb128 0x13
 9569 02ac 00       		.byte	0
 9570 02ad 00       		.byte	0
 9571 02ae 2D       		.uleb128 0x2d
 9572 02af 0D       		.uleb128 0xd
 9573 02b0 00       		.byte	0
 9574 02b1 03       		.uleb128 0x3
 9575 02b2 0E       		.uleb128 0xe
 9576 02b3 3A       		.uleb128 0x3a
 9577 02b4 0B       		.uleb128 0xb
 9578 02b5 3B       		.uleb128 0x3b
 9579 02b6 0B       		.uleb128 0xb
 9580 02b7 39       		.uleb128 0x39
 9581 02b8 21       		.uleb128 0x21
 9582 02b9 25       		.sleb128 37
 9583 02ba 49       		.uleb128 0x49
 9584 02bb 13       		.uleb128 0x13
 9585 02bc 38       		.uleb128 0x38
 9586 02bd 0B       		.uleb128 0xb
 9587 02be 00       		.byte	0
 9588 02bf 00       		.byte	0
 9589 02c0 2E       		.uleb128 0x2e
 9590 02c1 13       		.uleb128 0x13
 9591 02c2 01       		.byte	0x1
 9592 02c3 03       		.uleb128 0x3
 9593 02c4 08       		.uleb128 0x8
 9594 02c5 0B       		.uleb128 0xb
 9595 02c6 0B       		.uleb128 0xb
 9596 02c7 3A       		.uleb128 0x3a
 9597 02c8 0B       		.uleb128 0xb
 9598 02c9 3B       		.uleb128 0x3b
 9599 02ca 0B       		.uleb128 0xb
 9600 02cb 39       		.uleb128 0x39
 9601 02cc 21       		.uleb128 0x21
 9602 02cd 10       		.sleb128 16
 9603 02ce 01       		.uleb128 0x1
 9604 02cf 13       		.uleb128 0x13
 9605 02d0 00       		.byte	0
 9606 02d1 00       		.byte	0
 9607 02d2 2F       		.uleb128 0x2f
 9608 02d3 2E       		.uleb128 0x2e
 9609 02d4 01       		.byte	0x1
 9610 02d5 3F       		.uleb128 0x3f
 9611 02d6 19       		.uleb128 0x19
 9612 02d7 03       		.uleb128 0x3
 9613 02d8 08       		.uleb128 0x8
 9614 02d9 3A       		.uleb128 0x3a
 9615 02da 21       		.uleb128 0x21
 9616 02db 0A       		.sleb128 10
 9617 02dc 3B       		.uleb128 0x3b
 9618 02dd 05       		.uleb128 0x5
 9619 02de 39       		.uleb128 0x39
 9620 02df 21       		.uleb128 0x21
 9621 02e0 01       		.sleb128 1
 9622 02e1 27       		.uleb128 0x27
 9623 02e2 19       		.uleb128 0x19
 9624 02e3 49       		.uleb128 0x49
 9625 02e4 13       		.uleb128 0x13
 9626 02e5 3C       		.uleb128 0x3c
 9627 02e6 19       		.uleb128 0x19
 9628 02e7 01       		.uleb128 0x1
 9629 02e8 13       		.uleb128 0x13
 9630 02e9 00       		.byte	0
 9631 02ea 00       		.byte	0
 9632 02eb 30       		.uleb128 0x30
 9633 02ec 05       		.uleb128 0x5
 9634 02ed 00       		.byte	0
 9635 02ee 03       		.uleb128 0x3
 9636 02ef 08       		.uleb128 0x8
 9637 02f0 3A       		.uleb128 0x3a
 9638 02f1 21       		.uleb128 0x21
 9639 02f2 01       		.sleb128 1
 9640 02f3 3B       		.uleb128 0x3b
 9641 02f4 05       		.uleb128 0x5
 9642 02f5 39       		.uleb128 0x39
 9643 02f6 0B       		.uleb128 0xb
 9644 02f7 49       		.uleb128 0x49
 9645 02f8 13       		.uleb128 0x13
 9646 02f9 02       		.uleb128 0x2
 9647 02fa 17       		.uleb128 0x17
 9648 02fb B742     		.uleb128 0x2137
 9649 02fd 17       		.uleb128 0x17
 9650 02fe 00       		.byte	0
 9651 02ff 00       		.byte	0
 9652 0300 31       		.uleb128 0x31
 9653 0301 34       		.uleb128 0x34
 9654 0302 00       		.byte	0
 9655 0303 03       		.uleb128 0x3
 9656 0304 0E       		.uleb128 0xe
 9657 0305 3A       		.uleb128 0x3a
 9658 0306 21       		.uleb128 0x21
 9659 0307 01       		.sleb128 1
 9660 0308 3B       		.uleb128 0x3b
 9661 0309 21       		.uleb128 0x21
 9662 030a 9103     		.sleb128 401
 9663 030c 39       		.uleb128 0x39
 9664 030d 0B       		.uleb128 0xb
 9665 030e 49       		.uleb128 0x49
 9666 030f 13       		.uleb128 0x13
 9667 0310 02       		.uleb128 0x2
 9668 0311 18       		.uleb128 0x18
 9669 0312 00       		.byte	0
 9670 0313 00       		.byte	0
 9671 0314 32       		.uleb128 0x32
 9672 0315 34       		.uleb128 0x34
 9673 0316 00       		.byte	0
 9674 0317 31       		.uleb128 0x31
 9675 0318 13       		.uleb128 0x13
 9676 0319 02       		.uleb128 0x2
 9677 031a 17       		.uleb128 0x17
 9678 031b B742     		.uleb128 0x2137
 9679 031d 17       		.uleb128 0x17
 9680 031e 00       		.byte	0
 9681 031f 00       		.byte	0
 9682 0320 33       		.uleb128 0x33
 9683 0321 0B       		.uleb128 0xb
 9684 0322 01       		.byte	0x1
 9685 0323 11       		.uleb128 0x11
 9686 0324 01       		.uleb128 0x1
 9687 0325 12       		.uleb128 0x12
 9688 0326 07       		.uleb128 0x7
 9689 0327 01       		.uleb128 0x1
 9690 0328 13       		.uleb128 0x13
 9691 0329 00       		.byte	0
 9692 032a 00       		.byte	0
 9693 032b 34       		.uleb128 0x34
 9694 032c 48       		.uleb128 0x48
 9695 032d 01       		.byte	0x1
 9696 032e 7D       		.uleb128 0x7d
 9697 032f 01       		.uleb128 0x1
 9698 0330 00       		.byte	0
 9699 0331 00       		.byte	0
 9700 0332 35       		.uleb128 0x35
 9701 0333 05       		.uleb128 0x5
 9702 0334 00       		.byte	0
 9703 0335 03       		.uleb128 0x3
 9704 0336 08       		.uleb128 0x8
 9705 0337 3A       		.uleb128 0x3a
 9706 0338 21       		.uleb128 0x21
 9707 0339 01       		.sleb128 1
 9708 033a 3B       		.uleb128 0x3b
 9709 033b 0B       		.uleb128 0xb
 9710 033c 39       		.uleb128 0x39
 9711 033d 0B       		.uleb128 0xb
 9712 033e 49       		.uleb128 0x49
 9713 033f 13       		.uleb128 0x13
 9714 0340 02       		.uleb128 0x2
 9715 0341 17       		.uleb128 0x17
 9716 0342 B742     		.uleb128 0x2137
 9717 0344 17       		.uleb128 0x17
 9718 0345 00       		.byte	0
 9719 0346 00       		.byte	0
 9720 0347 36       		.uleb128 0x36
 9721 0348 11       		.uleb128 0x11
 9722 0349 01       		.byte	0x1
 9723 034a 25       		.uleb128 0x25
 9724 034b 08       		.uleb128 0x8
 9725 034c 13       		.uleb128 0x13
 9726 034d 0B       		.uleb128 0xb
 9727 034e 03       		.uleb128 0x3
 9728 034f 1F       		.uleb128 0x1f
 9729 0350 1B       		.uleb128 0x1b
 9730 0351 1F       		.uleb128 0x1f
 9731 0352 11       		.uleb128 0x11
 9732 0353 01       		.uleb128 0x1
 9733 0354 12       		.uleb128 0x12
 9734 0355 07       		.uleb128 0x7
 9735 0356 10       		.uleb128 0x10
 9736 0357 17       		.uleb128 0x17
 9737 0358 79       		.uleb128 0x79
 9738 0359 17       		.uleb128 0x17
 9739 035a 00       		.byte	0
 9740 035b 00       		.byte	0
 9741 035c 37       		.uleb128 0x37
 9742 035d 16       		.uleb128 0x16
 9743 035e 00       		.byte	0
 9744 035f 03       		.uleb128 0x3
 9745 0360 08       		.uleb128 0x8
 9746 0361 3A       		.uleb128 0x3a
 9747 0362 0B       		.uleb128 0xb
 9748 0363 3B       		.uleb128 0x3b
 9749 0364 0B       		.uleb128 0xb
 9750 0365 39       		.uleb128 0x39
 9751 0366 0B       		.uleb128 0xb
 9752 0367 00       		.byte	0
 9753 0368 00       		.byte	0
 9754 0369 38       		.uleb128 0x38
 9755 036a 35       		.uleb128 0x35
 9756 036b 00       		.byte	0
 9757 036c 49       		.uleb128 0x49
 9758 036d 13       		.uleb128 0x13
 9759 036e 00       		.byte	0
 9760 036f 00       		.byte	0
 9761 0370 39       		.uleb128 0x39
 9762 0371 13       		.uleb128 0x13
 9763 0372 01       		.byte	0x1
 9764 0373 03       		.uleb128 0x3
 9765 0374 08       		.uleb128 0x8
 9766 0375 0B       		.uleb128 0xb
 9767 0376 05       		.uleb128 0x5
 9768 0377 3A       		.uleb128 0x3a
 9769 0378 0B       		.uleb128 0xb
 9770 0379 3B       		.uleb128 0x3b
 9771 037a 05       		.uleb128 0x5
 9772 037b 39       		.uleb128 0x39
 9773 037c 0B       		.uleb128 0xb
 9774 037d 01       		.uleb128 0x1
 9775 037e 13       		.uleb128 0x13
 9776 037f 00       		.byte	0
 9777 0380 00       		.byte	0
 9778 0381 3A       		.uleb128 0x3a
 9779 0382 2E       		.uleb128 0x2e
 9780 0383 01       		.byte	0x1
 9781 0384 3F       		.uleb128 0x3f
 9782 0385 19       		.uleb128 0x19
 9783 0386 03       		.uleb128 0x3
 9784 0387 08       		.uleb128 0x8
 9785 0388 3A       		.uleb128 0x3a
 9786 0389 0B       		.uleb128 0xb
 9787 038a 3B       		.uleb128 0x3b
 9788 038b 0B       		.uleb128 0xb
 9789 038c 39       		.uleb128 0x39
 9790 038d 0B       		.uleb128 0xb
 9791 038e 27       		.uleb128 0x27
 9792 038f 19       		.uleb128 0x19
 9793 0390 3C       		.uleb128 0x3c
 9794 0391 19       		.uleb128 0x19
 9795 0392 01       		.uleb128 0x1
 9796 0393 13       		.uleb128 0x13
 9797 0394 00       		.byte	0
 9798 0395 00       		.byte	0
 9799 0396 3B       		.uleb128 0x3b
 9800 0397 2E       		.uleb128 0x2e
 9801 0398 01       		.byte	0x1
 9802 0399 3F       		.uleb128 0x3f
 9803 039a 19       		.uleb128 0x19
 9804 039b 03       		.uleb128 0x3
 9805 039c 08       		.uleb128 0x8
 9806 039d 3A       		.uleb128 0x3a
 9807 039e 0B       		.uleb128 0xb
 9808 039f 3B       		.uleb128 0x3b
 9809 03a0 05       		.uleb128 0x5
 9810 03a1 39       		.uleb128 0x39
 9811 03a2 0B       		.uleb128 0xb
 9812 03a3 27       		.uleb128 0x27
 9813 03a4 19       		.uleb128 0x19
 9814 03a5 49       		.uleb128 0x49
 9815 03a6 13       		.uleb128 0x13
 9816 03a7 11       		.uleb128 0x11
 9817 03a8 01       		.uleb128 0x1
 9818 03a9 12       		.uleb128 0x12
 9819 03aa 07       		.uleb128 0x7
 9820 03ab 40       		.uleb128 0x40
 9821 03ac 18       		.uleb128 0x18
 9822 03ad 7A       		.uleb128 0x7a
 9823 03ae 19       		.uleb128 0x19
 9824 03af 01       		.uleb128 0x1
 9825 03b0 13       		.uleb128 0x13
 9826 03b1 00       		.byte	0
 9827 03b2 00       		.byte	0
 9828 03b3 3C       		.uleb128 0x3c
 9829 03b4 34       		.uleb128 0x34
 9830 03b5 00       		.byte	0
 9831 03b6 03       		.uleb128 0x3
 9832 03b7 08       		.uleb128 0x8
 9833 03b8 3A       		.uleb128 0x3a
 9834 03b9 0B       		.uleb128 0xb
 9835 03ba 3B       		.uleb128 0x3b
 9836 03bb 05       		.uleb128 0x5
 9837 03bc 39       		.uleb128 0x39
 9838 03bd 0B       		.uleb128 0xb
 9839 03be 49       		.uleb128 0x49
 9840 03bf 13       		.uleb128 0x13
 9841 03c0 02       		.uleb128 0x2
 9842 03c1 18       		.uleb128 0x18
 9843 03c2 00       		.byte	0
 9844 03c3 00       		.byte	0
 9845 03c4 3D       		.uleb128 0x3d
 9846 03c5 34       		.uleb128 0x34
 9847 03c6 00       		.byte	0
 9848 03c7 03       		.uleb128 0x3
 9849 03c8 08       		.uleb128 0x8
 9850 03c9 3A       		.uleb128 0x3a
 9851 03ca 0B       		.uleb128 0xb
 9852 03cb 3B       		.uleb128 0x3b
 9853 03cc 05       		.uleb128 0x5
 9854 03cd 39       		.uleb128 0x39
 9855 03ce 0B       		.uleb128 0xb
 9856 03cf 49       		.uleb128 0x49
 9857 03d0 13       		.uleb128 0x13
 9858 03d1 1C       		.uleb128 0x1c
 9859 03d2 0B       		.uleb128 0xb
 9860 03d3 00       		.byte	0
 9861 03d4 00       		.byte	0
 9862 03d5 3E       		.uleb128 0x3e
 9863 03d6 05       		.uleb128 0x5
 9864 03d7 00       		.byte	0
 9865 03d8 03       		.uleb128 0x3
 9866 03d9 08       		.uleb128 0x8
 9867 03da 3A       		.uleb128 0x3a
 9868 03db 0B       		.uleb128 0xb
 9869 03dc 3B       		.uleb128 0x3b
 9870 03dd 0B       		.uleb128 0xb
 9871 03de 39       		.uleb128 0x39
 9872 03df 0B       		.uleb128 0xb
 9873 03e0 49       		.uleb128 0x49
 9874 03e1 13       		.uleb128 0x13
 9875 03e2 02       		.uleb128 0x2
 9876 03e3 18       		.uleb128 0x18
 9877 03e4 00       		.byte	0
 9878 03e5 00       		.byte	0
 9879 03e6 3F       		.uleb128 0x3f
 9880 03e7 34       		.uleb128 0x34
 9881 03e8 00       		.byte	0
 9882 03e9 03       		.uleb128 0x3
 9883 03ea 08       		.uleb128 0x8
 9884 03eb 3A       		.uleb128 0x3a
 9885 03ec 0B       		.uleb128 0xb
 9886 03ed 3B       		.uleb128 0x3b
 9887 03ee 0B       		.uleb128 0xb
 9888 03ef 39       		.uleb128 0x39
 9889 03f0 0B       		.uleb128 0xb
 9890 03f1 49       		.uleb128 0x49
 9891 03f2 13       		.uleb128 0x13
 9892 03f3 1C       		.uleb128 0x1c
 9893 03f4 0B       		.uleb128 0xb
 9894 03f5 00       		.byte	0
 9895 03f6 00       		.byte	0
 9896 03f7 40       		.uleb128 0x40
 9897 03f8 2E       		.uleb128 0x2e
 9898 03f9 01       		.byte	0x1
 9899 03fa 3F       		.uleb128 0x3f
 9900 03fb 19       		.uleb128 0x19
 9901 03fc 03       		.uleb128 0x3
 9902 03fd 08       		.uleb128 0x8
 9903 03fe 3A       		.uleb128 0x3a
 9904 03ff 0B       		.uleb128 0xb
 9905 0400 3B       		.uleb128 0x3b
 9906 0401 0B       		.uleb128 0xb
 9907 0402 39       		.uleb128 0x39
 9908 0403 0B       		.uleb128 0xb
 9909 0404 49       		.uleb128 0x49
 9910 0405 13       		.uleb128 0x13
 9911 0406 11       		.uleb128 0x11
 9912 0407 01       		.uleb128 0x1
 9913 0408 12       		.uleb128 0x12
 9914 0409 07       		.uleb128 0x7
 9915 040a 40       		.uleb128 0x40
 9916 040b 18       		.uleb128 0x18
 9917 040c 7A       		.uleb128 0x7a
 9918 040d 19       		.uleb128 0x19
 9919 040e 01       		.uleb128 0x1
 9920 040f 13       		.uleb128 0x13
 9921 0410 00       		.byte	0
 9922 0411 00       		.byte	0
 9923 0412 41       		.uleb128 0x41
 9924 0413 05       		.uleb128 0x5
 9925 0414 00       		.byte	0
 9926 0415 03       		.uleb128 0x3
 9927 0416 0E       		.uleb128 0xe
 9928 0417 3A       		.uleb128 0x3a
 9929 0418 0B       		.uleb128 0xb
 9930 0419 3B       		.uleb128 0x3b
 9931 041a 0B       		.uleb128 0xb
 9932 041b 39       		.uleb128 0x39
 9933 041c 0B       		.uleb128 0xb
 9934 041d 49       		.uleb128 0x49
 9935 041e 13       		.uleb128 0x13
 9936 041f 02       		.uleb128 0x2
 9937 0420 18       		.uleb128 0x18
 9938 0421 00       		.byte	0
 9939 0422 00       		.byte	0
 9940 0423 42       		.uleb128 0x42
 9941 0424 2E       		.uleb128 0x2e
 9942 0425 00       		.byte	0
 9943 0426 3F       		.uleb128 0x3f
 9944 0427 19       		.uleb128 0x19
 9945 0428 03       		.uleb128 0x3
 9946 0429 08       		.uleb128 0x8
 9947 042a 3A       		.uleb128 0x3a
 9948 042b 0B       		.uleb128 0xb
 9949 042c 3B       		.uleb128 0x3b
 9950 042d 0B       		.uleb128 0xb
 9951 042e 39       		.uleb128 0x39
 9952 042f 0B       		.uleb128 0xb
 9953 0430 49       		.uleb128 0x49
 9954 0431 13       		.uleb128 0x13
 9955 0432 11       		.uleb128 0x11
 9956 0433 01       		.uleb128 0x1
 9957 0434 12       		.uleb128 0x12
 9958 0435 07       		.uleb128 0x7
 9959 0436 40       		.uleb128 0x40
 9960 0437 18       		.uleb128 0x18
 9961 0438 7A       		.uleb128 0x7a
 9962 0439 19       		.uleb128 0x19
 9963 043a 00       		.byte	0
 9964 043b 00       		.byte	0
 9965 043c 43       		.uleb128 0x43
 9966 043d 2E       		.uleb128 0x2e
 9967 043e 01       		.byte	0x1
 9968 043f 3F       		.uleb128 0x3f
 9969 0440 19       		.uleb128 0x19
 9970 0441 03       		.uleb128 0x3
 9971 0442 08       		.uleb128 0x8
 9972 0443 3A       		.uleb128 0x3a
 9973 0444 0B       		.uleb128 0xb
 9974 0445 3B       		.uleb128 0x3b
 9975 0446 0B       		.uleb128 0xb
 9976 0447 39       		.uleb128 0x39
 9977 0448 0B       		.uleb128 0xb
 9978 0449 27       		.uleb128 0x27
 9979 044a 19       		.uleb128 0x19
 9980 044b 49       		.uleb128 0x49
 9981 044c 13       		.uleb128 0x13
 9982 044d 11       		.uleb128 0x11
 9983 044e 01       		.uleb128 0x1
 9984 044f 12       		.uleb128 0x12
 9985 0450 07       		.uleb128 0x7
 9986 0451 40       		.uleb128 0x40
 9987 0452 18       		.uleb128 0x18
 9988 0453 7A       		.uleb128 0x7a
 9989 0454 19       		.uleb128 0x19
 9990 0455 01       		.uleb128 0x1
 9991 0456 13       		.uleb128 0x13
 9992 0457 00       		.byte	0
 9993 0458 00       		.byte	0
 9994 0459 44       		.uleb128 0x44
 9995 045a 2E       		.uleb128 0x2e
 9996 045b 01       		.byte	0x1
 9997 045c 03       		.uleb128 0x3
 9998 045d 08       		.uleb128 0x8
 9999 045e 3A       		.uleb128 0x3a
 10000 045f 0B       		.uleb128 0xb
 10001 0460 3B       		.uleb128 0x3b
 10002 0461 0B       		.uleb128 0xb
 10003 0462 39       		.uleb128 0x39
 10004 0463 0B       		.uleb128 0xb
 10005 0464 27       		.uleb128 0x27
 10006 0465 19       		.uleb128 0x19
 10007 0466 49       		.uleb128 0x49
 10008 0467 13       		.uleb128 0x13
 10009 0468 20       		.uleb128 0x20
 10010 0469 0B       		.uleb128 0xb
 10011 046a 01       		.uleb128 0x1
 10012 046b 13       		.uleb128 0x13
 10013 046c 00       		.byte	0
 10014 046d 00       		.byte	0
 10015 046e 45       		.uleb128 0x45
 10016 046f 34       		.uleb128 0x34
 10017 0470 00       		.byte	0
 10018 0471 03       		.uleb128 0x3
 10019 0472 08       		.uleb128 0x8
 10020 0473 3A       		.uleb128 0x3a
 10021 0474 0B       		.uleb128 0xb
 10022 0475 3B       		.uleb128 0x3b
 10023 0476 0B       		.uleb128 0xb
 10024 0477 39       		.uleb128 0x39
 10025 0478 0B       		.uleb128 0xb
 10026 0479 49       		.uleb128 0x49
 10027 047a 13       		.uleb128 0x13
 10028 047b 00       		.byte	0
 10029 047c 00       		.byte	0
 10030 047d 46       		.uleb128 0x46
 10031 047e 2E       		.uleb128 0x2e
 10032 047f 01       		.byte	0x1
 10033 0480 03       		.uleb128 0x3
 10034 0481 08       		.uleb128 0x8
 10035 0482 3A       		.uleb128 0x3a
 10036 0483 0B       		.uleb128 0xb
 10037 0484 3B       		.uleb128 0x3b
 10038 0485 0B       		.uleb128 0xb
 10039 0486 39       		.uleb128 0x39
 10040 0487 0B       		.uleb128 0xb
 10041 0488 27       		.uleb128 0x27
 10042 0489 19       		.uleb128 0x19
 10043 048a 20       		.uleb128 0x20
 10044 048b 0B       		.uleb128 0xb
 10045 048c 01       		.uleb128 0x1
 10046 048d 13       		.uleb128 0x13
 10047 048e 00       		.byte	0
 10048 048f 00       		.byte	0
 10049 0490 47       		.uleb128 0x47
 10050 0491 2E       		.uleb128 0x2e
 10051 0492 01       		.byte	0x1
 10052 0493 3F       		.uleb128 0x3f
 10053 0494 19       		.uleb128 0x19
 10054 0495 03       		.uleb128 0x3
 10055 0496 08       		.uleb128 0x8
 10056 0497 3A       		.uleb128 0x3a
 10057 0498 0B       		.uleb128 0xb
 10058 0499 3B       		.uleb128 0x3b
 10059 049a 0B       		.uleb128 0xb
 10060 049b 39       		.uleb128 0x39
 10061 049c 0B       		.uleb128 0xb
 10062 049d 27       		.uleb128 0x27
 10063 049e 19       		.uleb128 0x19
 10064 049f 49       		.uleb128 0x49
 10065 04a0 13       		.uleb128 0x13
 10066 04a1 11       		.uleb128 0x11
 10067 04a2 01       		.uleb128 0x1
 10068 04a3 12       		.uleb128 0x12
 10069 04a4 07       		.uleb128 0x7
 10070 04a5 40       		.uleb128 0x40
 10071 04a6 18       		.uleb128 0x18
 10072 04a7 7A       		.uleb128 0x7a
 10073 04a8 19       		.uleb128 0x19
 10074 04a9 00       		.byte	0
 10075 04aa 00       		.byte	0
 10076 04ab 00       		.byte	0
 10077              		.section	.debug_loclists,"dr"
 10078 0000 230B0000 		.long	.Ldebug_loc3-.Ldebug_loc2
 10079              	.Ldebug_loc2:
 10080 0004 0500     		.word	0x5
 10081 0006 08       		.byte	0x8
 10082 0007 00       		.byte	0
 10083 0008 00000000 		.long	0
 10084              	.Ldebug_loc0:
 10085              	.LVUS142:
 10086 000c 00       		.uleb128 0
 10087 000d 00       		.uleb128 .LVU590
 10088 000e 00       		.uleb128 .LVU590
 10089 000f 00       		.uleb128 0
 10090              	.LLST142:
 10091 0010 04       		.byte	0x4
 10092 0011 CE1A     		.uleb128 .LVL325-.Ltext0
 10093 0013 DB1A     		.uleb128 .LVL326-1-.Ltext0
 10094 0015 01       		.uleb128 0x1
 10095 0016 52       		.byte	0x52
 10096 0017 04       		.byte	0x4
 10097 0018 DB1A     		.uleb128 .LVL326-1-.Ltext0
 10098 001a B21F     		.uleb128 .LFE23-.Ltext0
 10099 001c 04       		.uleb128 0x4
 10100 001d A3       		.byte	0xa3
 10101 001e 01       		.uleb128 0x1
 10102 001f 52       		.byte	0x52
 10103 0020 9F       		.byte	0x9f
 10104 0021 00       		.byte	0
 10105              	.LVUS143:
 10106 0022 00       		.uleb128 0
 10107 0023 00       		.uleb128 .LVU590
 10108 0024 00       		.uleb128 .LVU590
 10109 0025 00       		.uleb128 .LVU624
 10110 0026 00       		.uleb128 .LVU624
 10111 0027 00       		.uleb128 .LVU625
 10112 0028 00       		.uleb128 .LVU625
 10113 0029 00       		.uleb128 0
 10114              	.LLST143:
 10115 002a 04       		.byte	0x4
 10116 002b CE1A     		.uleb128 .LVL325-.Ltext0
 10117 002d DB1A     		.uleb128 .LVL326-1-.Ltext0
 10118 002f 01       		.uleb128 0x1
 10119 0030 51       		.byte	0x51
 10120 0031 04       		.byte	0x4
 10121 0032 DB1A     		.uleb128 .LVL326-1-.Ltext0
 10122 0034 A21F     		.uleb128 .LVL356-.Ltext0
 10123 0036 01       		.uleb128 0x1
 10124 0037 53       		.byte	0x53
 10125 0038 04       		.byte	0x4
 10126 0039 A21F     		.uleb128 .LVL356-.Ltext0
 10127 003b A41F     		.uleb128 .LVL357-.Ltext0
 10128 003d 04       		.uleb128 0x4
 10129 003e A3       		.byte	0xa3
 10130 003f 01       		.uleb128 0x1
 10131 0040 51       		.byte	0x51
 10132 0041 9F       		.byte	0x9f
 10133 0042 04       		.byte	0x4
 10134 0043 A41F     		.uleb128 .LVL357-.Ltext0
 10135 0045 B21F     		.uleb128 .LFE23-.Ltext0
 10136 0047 01       		.uleb128 0x1
 10137 0048 53       		.byte	0x53
 10138 0049 00       		.byte	0
 10139              	.LVUS144:
 10140 004a 00       		.uleb128 .LVU593
 10141 004b 00       		.uleb128 .LVU597
 10142 004c 00       		.uleb128 .LVU597
 10143 004d 00       		.uleb128 .LVU599
 10144 004e 00       		.uleb128 .LVU625
 10145 004f 00       		.uleb128 .LVU626
 10146 0050 00       		.uleb128 .LVU626
 10147 0051 00       		.uleb128 0
 10148              	.LLST144:
 10149 0052 04       		.byte	0x4
 10150 0053 FB1A     		.uleb128 .LVL328-.Ltext0
 10151 0055 8B1B     		.uleb128 .LVL330-1-.Ltext0
 10152 0057 01       		.uleb128 0x1
 10153 0058 50       		.byte	0x50
 10154 0059 04       		.byte	0x4
 10155 005a 8B1B     		.uleb128 .LVL330-1-.Ltext0
 10156 005c B71B     		.uleb128 .LVL332-.Ltext0
 10157 005e 01       		.uleb128 0x1
 10158 005f 54       		.byte	0x54
 10159 0060 04       		.byte	0x4
 10160 0061 A41F     		.uleb128 .LVL357-.Ltext0
 10161 0063 AF1F     		.uleb128 .LVL358-1-.Ltext0
 10162 0065 01       		.uleb128 0x1
 10163 0066 50       		.byte	0x50
 10164 0067 04       		.byte	0x4
 10165 0068 AF1F     		.uleb128 .LVL358-1-.Ltext0
 10166 006a B21F     		.uleb128 .LFE23-.Ltext0
 10167 006c 01       		.uleb128 0x1
 10168 006d 54       		.byte	0x54
 10169 006e 00       		.byte	0
 10170              	.LVUS145:
 10171 006f 01       		.uleb128 .LVU596
 10172 0070 00       		.uleb128 .LVU623
 10173              	.LLST145:
 10174 0071 04       		.byte	0x4
 10175 0072 841B     		.uleb128 .LVL329-.Ltext0
 10176 0074 9A1F     		.uleb128 .LVL355-.Ltext0
 10177 0076 06       		.uleb128 0x6
 10178 0077 0C       		.byte	0xc
 10179 0078 80969800 		.long	0x989680
 10180 007c 9F       		.byte	0x9f
 10181 007d 00       		.byte	0
 10182              	.LVUS133:
 10183 007e 00       		.uleb128 0
 10184 007f 00       		.uleb128 .LVU551
 10185 0080 00       		.uleb128 .LVU551
 10186 0081 00       		.uleb128 0
 10187              	.LLST133:
 10188 0082 04       		.byte	0x4
 10189 0083 DD17     		.uleb128 .LVL297-.Ltext0
 10190 0085 9518     		.uleb128 .LVL301-.Ltext0
 10191 0087 01       		.uleb128 0x1
 10192 0088 52       		.byte	0x52
 10193 0089 04       		.byte	0x4
 10194 008a 9518     		.uleb128 .LVL301-.Ltext0
 10195 008c CE1A     		.uleb128 .LFE22-.Ltext0
 10196 008e 04       		.uleb128 0x4
 10197 008f A3       		.byte	0xa3
 10198 0090 01       		.uleb128 0x1
 10199 0091 52       		.byte	0x52
 10200 0092 9F       		.byte	0x9f
 10201 0093 00       		.byte	0
 10202              	.LVUS134:
 10203 0094 00       		.uleb128 0
 10204 0095 00       		.uleb128 .LVU546
 10205 0096 00       		.uleb128 .LVU546
 10206 0097 00       		.uleb128 .LVU586
 10207 0098 00       		.uleb128 .LVU586
 10208 0099 00       		.uleb128 0
 10209              	.LLST134:
 10210 009a 04       		.byte	0x4
 10211 009b DD17     		.uleb128 .LVL297-.Ltext0
 10212 009d 8118     		.uleb128 .LVL299-.Ltext0
 10213 009f 01       		.uleb128 0x1
 10214 00a0 51       		.byte	0x51
 10215 00a1 04       		.byte	0x4
 10216 00a2 8118     		.uleb128 .LVL299-.Ltext0
 10217 00a4 CB1A     		.uleb128 .LVL324-.Ltext0
 10218 00a6 01       		.uleb128 0x1
 10219 00a7 5E       		.byte	0x5e
 10220 00a8 04       		.byte	0x4
 10221 00a9 CB1A     		.uleb128 .LVL324-.Ltext0
 10222 00ab CE1A     		.uleb128 .LFE22-.Ltext0
 10223 00ad 04       		.uleb128 0x4
 10224 00ae A3       		.byte	0xa3
 10225 00af 01       		.uleb128 0x1
 10226 00b0 51       		.byte	0x51
 10227 00b1 9F       		.byte	0x9f
 10228 00b2 00       		.byte	0
 10229              	.LVUS135:
 10230 00b3 00       		.uleb128 0
 10231 00b4 00       		.uleb128 .LVU551
 10232 00b5 00       		.uleb128 .LVU551
 10233 00b6 00       		.uleb128 .LVU585
 10234 00b7 00       		.uleb128 .LVU585
 10235 00b8 00       		.uleb128 0
 10236              	.LLST135:
 10237 00b9 04       		.byte	0x4
 10238 00ba DD17     		.uleb128 .LVL297-.Ltext0
 10239 00bc 9518     		.uleb128 .LVL301-.Ltext0
 10240 00be 01       		.uleb128 0x1
 10241 00bf 58       		.byte	0x58
 10242 00c0 04       		.byte	0x4
 10243 00c1 9518     		.uleb128 .LVL301-.Ltext0
 10244 00c3 C91A     		.uleb128 .LVL323-.Ltext0
 10245 00c5 01       		.uleb128 0x1
 10246 00c6 5D       		.byte	0x5d
 10247 00c7 04       		.byte	0x4
 10248 00c8 C91A     		.uleb128 .LVL323-.Ltext0
 10249 00ca CE1A     		.uleb128 .LFE22-.Ltext0
 10250 00cc 04       		.uleb128 0x4
 10251 00cd A3       		.byte	0xa3
 10252 00ce 01       		.uleb128 0x1
 10253 00cf 58       		.byte	0x58
 10254 00d0 9F       		.byte	0x9f
 10255 00d1 00       		.byte	0
 10256              	.LVUS136:
 10257 00d2 00       		.uleb128 0
 10258 00d3 00       		.uleb128 .LVU551
 10259 00d4 00       		.uleb128 .LVU551
 10260 00d5 00       		.uleb128 0
 10261              	.LLST136:
 10262 00d6 04       		.byte	0x4
 10263 00d7 DD17     		.uleb128 .LVL297-.Ltext0
 10264 00d9 9518     		.uleb128 .LVL301-.Ltext0
 10265 00db 01       		.uleb128 0x1
 10266 00dc 59       		.byte	0x59
 10267 00dd 04       		.byte	0x4
 10268 00de 9518     		.uleb128 .LVL301-.Ltext0
 10269 00e0 CE1A     		.uleb128 .LFE22-.Ltext0
 10270 00e2 04       		.uleb128 0x4
 10271 00e3 A3       		.byte	0xa3
 10272 00e4 01       		.uleb128 0x1
 10273 00e5 59       		.byte	0x59
 10274 00e6 9F       		.byte	0x9f
 10275 00e7 00       		.byte	0
 10276              	.LVUS137:
 10277 00e8 00       		.uleb128 .LVU544
 10278 00e9 00       		.uleb128 .LVU582
 10279              	.LLST137:
 10280 00ea 04       		.byte	0x4
 10281 00eb F717     		.uleb128 .LVL298-.Ltext0
 10282 00ed C21A     		.uleb128 .LVL320-.Ltext0
 10283 00ef 01       		.uleb128 0x1
 10284 00f0 53       		.byte	0x53
 10285 00f1 00       		.byte	0
 10286              	.LVUS138:
 10287 00f2 00       		.uleb128 .LVU547
 10288 00f3 00       		.uleb128 .LVU551
 10289 00f4 00       		.uleb128 .LVU551
 10290 00f5 00       		.uleb128 .LVU584
 10291              	.LLST138:
 10292 00f6 04       		.byte	0x4
 10293 00f7 8E18     		.uleb128 .LVL300-.Ltext0
 10294 00f9 9518     		.uleb128 .LVL301-.Ltext0
 10295 00fb 01       		.uleb128 0x1
 10296 00fc 51       		.byte	0x51
 10297 00fd 04       		.byte	0x4
 10298 00fe 9518     		.uleb128 .LVL301-.Ltext0
 10299 0100 C71A     		.uleb128 .LVL322-.Ltext0
 10300 0102 01       		.uleb128 0x1
 10301 0103 5C       		.byte	0x5c
 10302 0104 00       		.byte	0
 10303              	.LVUS139:
 10304 0105 02       		.uleb128 .LVU549
 10305 0106 00       		.uleb128 .LVU551
 10306 0107 00       		.uleb128 .LVU551
 10307 0108 00       		.uleb128 .LVU583
 10308              	.LLST139:
 10309 0109 04       		.byte	0x4
 10310 010a 8E18     		.uleb128 .LVL300-.Ltext0
 10311 010c 9518     		.uleb128 .LVL301-.Ltext0
 10312 010e 02       		.uleb128 0x2
 10313 010f 30       		.byte	0x30
 10314 0110 9F       		.byte	0x9f
 10315 0111 04       		.byte	0x4
 10316 0112 9518     		.uleb128 .LVL301-.Ltext0
 10317 0114 C31A     		.uleb128 .LVL321-.Ltext0
 10318 0116 01       		.uleb128 0x1
 10319 0117 54       		.byte	0x54
 10320 0118 00       		.byte	0
 10321              	.LVUS141:
 10322 0119 00       		.uleb128 .LVU559
 10323 011a 00       		.uleb128 .LVU560
 10324              	.LLST141:
 10325 011b 04       		.byte	0x4
 10326 011c C818     		.uleb128 .LVL305-.Ltext0
 10327 011e CD18     		.uleb128 .LVL306-1-.Ltext0
 10328 0120 01       		.uleb128 0x1
 10329 0121 51       		.byte	0x51
 10330 0122 00       		.byte	0
 10331              	.LVUS115:
 10332 0123 00       		.uleb128 0
 10333 0124 00       		.uleb128 .LVU500
 10334 0125 00       		.uleb128 .LVU500
 10335 0126 00       		.uleb128 .LVU527
 10336 0127 00       		.uleb128 .LVU527
 10337 0128 00       		.uleb128 0
 10338              	.LLST115:
 10339 0129 04       		.byte	0x4
 10340 012a 9917     		.uleb128 .LVL280-.Ltext0
 10341 012c A417     		.uleb128 .LVL281-.Ltext0
 10342 012e 01       		.uleb128 0x1
 10343 012f 52       		.byte	0x52
 10344 0130 04       		.byte	0x4
 10345 0131 A417     		.uleb128 .LVL281-.Ltext0
 10346 0133 CF17     		.uleb128 .LVL292-1-.Ltext0
 10347 0135 01       		.uleb128 0x1
 10348 0136 58       		.byte	0x58
 10349 0137 04       		.byte	0x4
 10350 0138 CF17     		.uleb128 .LVL292-1-.Ltext0
 10351 013a DD17     		.uleb128 .LFE21-.Ltext0
 10352 013c 04       		.uleb128 0x4
 10353 013d A3       		.byte	0xa3
 10354 013e 01       		.uleb128 0x1
 10355 013f 52       		.byte	0x52
 10356 0140 9F       		.byte	0x9f
 10357 0141 00       		.byte	0
 10358              	.LVUS116:
 10359 0142 00       		.uleb128 0
 10360 0143 00       		.uleb128 .LVU502
 10361 0144 00       		.uleb128 .LVU502
 10362 0145 00       		.uleb128 .LVU527
 10363 0146 00       		.uleb128 .LVU527
 10364 0147 00       		.uleb128 0
 10365              	.LLST116:
 10366 0148 04       		.byte	0x4
 10367 0149 9917     		.uleb128 .LVL280-.Ltext0
 10368 014b AE17     		.uleb128 .LVL282-.Ltext0
 10369 014d 01       		.uleb128 0x1
 10370 014e 51       		.byte	0x51
 10371 014f 04       		.byte	0x4
 10372 0150 AE17     		.uleb128 .LVL282-.Ltext0
 10373 0152 CF17     		.uleb128 .LVL292-1-.Ltext0
 10374 0154 01       		.uleb128 0x1
 10375 0155 52       		.byte	0x52
 10376 0156 04       		.byte	0x4
 10377 0157 CF17     		.uleb128 .LVL292-1-.Ltext0
 10378 0159 DD17     		.uleb128 .LFE21-.Ltext0
 10379 015b 04       		.uleb128 0x4
 10380 015c A3       		.byte	0xa3
 10381 015d 01       		.uleb128 0x1
 10382 015e 51       		.byte	0x51
 10383 015f 9F       		.byte	0x9f
 10384 0160 00       		.byte	0
 10385              	.LVUS117:
 10386 0161 00       		.uleb128 .LVU503
 10387 0162 00       		.uleb128 .LVU506
 10388 0163 00       		.uleb128 .LVU506
 10389 0164 00       		.uleb128 .LVU539
 10390 0165 00       		.uleb128 .LVU539
 10391 0166 00       		.uleb128 0
 10392              	.LLST117:
 10393 0167 04       		.byte	0x4
 10394 0168 B417     		.uleb128 .LVL283-.Ltext0
 10395 016a B917     		.uleb128 .LVL284-.Ltext0
 10396 016c 01       		.uleb128 0x1
 10397 016d 50       		.byte	0x50
 10398 016e 04       		.byte	0x4
 10399 016f B917     		.uleb128 .LVL284-.Ltext0
 10400 0171 DC17     		.uleb128 .LVL296-.Ltext0
 10401 0173 01       		.uleb128 0x1
 10402 0174 53       		.byte	0x53
 10403 0175 04       		.byte	0x4
 10404 0176 DC17     		.uleb128 .LVL296-.Ltext0
 10405 0178 DD17     		.uleb128 .LFE21-.Ltext0
 10406 017a 12       		.uleb128 0x12
 10407 017b 0C       		.byte	0xc
 10408 017c DC341200 		.long	0x1234dc
 10409 0180 A8       		.byte	0xa8
 10410 0181 BC02     		.uleb128 0x13c
 10411 0183 A3       		.byte	0xa3
 10412 0184 01       		.uleb128 0x1
 10413 0185 52       		.byte	0x52
 10414 0186 A8       		.byte	0xa8
 10415 0187 BC02     		.uleb128 0x13c
 10416 0189 1B       		.byte	0x1b
 10417 018a A8       		.byte	0xa8
 10418 018b 00       		.uleb128 0
 10419 018c 9F       		.byte	0x9f
 10420 018d 00       		.byte	0
 10421              	.LVUS118:
 10422 018e 01       		.uleb128 .LVU521
 10423 018f 00       		.uleb128 .LVU523
 10424 0190 01       		.uleb128 .LVU532
 10425 0191 00       		.uleb128 .LVU536
 10426              	.LLST118:
 10427 0192 04       		.byte	0x4
 10428 0193 C617     		.uleb128 .LVL289-.Ltext0
 10429 0195 C917     		.uleb128 .LVL290-.Ltext0
 10430 0197 01       		.uleb128 0x1
 10431 0198 50       		.byte	0x50
 10432 0199 04       		.byte	0x4
 10433 019a D217     		.uleb128 .LVL293-.Ltext0
 10434 019c D517     		.uleb128 .LVL294-.Ltext0
 10435 019e 01       		.uleb128 0x1
 10436 019f 50       		.byte	0x50
 10437 01a0 00       		.byte	0
 10438              	.LVUS119:
 10439 01a1 01       		.uleb128 .LVU504
 10440 01a2 00       		.uleb128 .LVU507
 10441              	.LLST119:
 10442 01a3 04       		.byte	0x4
 10443 01a4 B417     		.uleb128 .LVL283-.Ltext0
 10444 01a6 BB17     		.uleb128 .LVL285-.Ltext0
 10445 01a8 03       		.uleb128 0x3
 10446 01a9 08       		.byte	0x8
 10447 01aa 43       		.byte	0x43
 10448 01ab 9F       		.byte	0x9f
 10449 01ac 00       		.byte	0
 10450              	.LVUS120:
 10451 01ad 01       		.uleb128 .LVU504
 10452 01ae 00       		.uleb128 .LVU507
 10453              	.LLST120:
 10454 01af 04       		.byte	0x4
 10455 01b0 B417     		.uleb128 .LVL283-.Ltext0
 10456 01b2 BB17     		.uleb128 .LVL285-.Ltext0
 10457 01b4 03       		.uleb128 0x3
 10458 01b5 09       		.byte	0x9
 10459 01b6 B6       		.byte	0xb6
 10460 01b7 9F       		.byte	0x9f
 10461 01b8 00       		.byte	0
 10462              	.LVUS121:
 10463 01b9 02       		.uleb128 .LVU509
 10464 01ba 00       		.uleb128 .LVU511
 10465              	.LLST121:
 10466 01bb 04       		.byte	0x4
 10467 01bc BB17     		.uleb128 .LVL285-.Ltext0
 10468 01be BF17     		.uleb128 .LVL286-.Ltext0
 10469 01c0 03       		.uleb128 0x3
 10470 01c1 08       		.byte	0x8
 10471 01c2 42       		.byte	0x42
 10472 01c3 9F       		.byte	0x9f
 10473 01c4 00       		.byte	0
 10474              	.LVUS122:
 10475 01c5 02       		.uleb128 .LVU509
 10476 01c6 00       		.uleb128 .LVU511
 10477              	.LLST122:
 10478 01c7 04       		.byte	0x4
 10479 01c8 BB17     		.uleb128 .LVL285-.Ltext0
 10480 01ca BF17     		.uleb128 .LVL286-.Ltext0
 10481 01cc 01       		.uleb128 0x1
 10482 01cd 53       		.byte	0x53
 10483 01ce 00       		.byte	0
 10484              	.LVUS123:
 10485 01cf 00       		.uleb128 .LVU513
 10486 01d0 00       		.uleb128 .LVU515
 10487              	.LLST123:
 10488 01d1 04       		.byte	0x4
 10489 01d2 C217     		.uleb128 .LVL287-.Ltext0
 10490 01d4 C417     		.uleb128 .LVL288-.Ltext0
 10491 01d6 03       		.uleb128 0x3
 10492 01d7 08       		.byte	0x8
 10493 01d8 42       		.byte	0x42
 10494 01d9 9F       		.byte	0x9f
 10495 01da 00       		.byte	0
 10496              	.LVUS124:
 10497 01db 00       		.uleb128 .LVU513
 10498 01dc 00       		.uleb128 .LVU515
 10499              	.LLST124:
 10500 01dd 04       		.byte	0x4
 10501 01de C217     		.uleb128 .LVL287-.Ltext0
 10502 01e0 C417     		.uleb128 .LVL288-.Ltext0
 10503 01e2 05       		.uleb128 0x5
 10504 01e3 73       		.byte	0x73
 10505 01e4 00       		.sleb128 0
 10506 01e5 38       		.byte	0x38
 10507 01e6 25       		.byte	0x25
 10508 01e7 9F       		.byte	0x9f
 10509 01e8 00       		.byte	0
 10510              	.LVUS125:
 10511 01e9 02       		.uleb128 .LVU517
 10512 01ea 01       		.uleb128 .LVU521
 10513              	.LLST125:
 10514 01eb 04       		.byte	0x4
 10515 01ec C417     		.uleb128 .LVL288-.Ltext0
 10516 01ee C617     		.uleb128 .LVL289-.Ltext0
 10517 01f0 03       		.uleb128 0x3
 10518 01f1 08       		.byte	0x8
 10519 01f2 61       		.byte	0x61
 10520 01f3 9F       		.byte	0x9f
 10521 01f4 00       		.byte	0
 10522              	.LVUS126:
 10523 01f5 00       		.uleb128 .LVU520
 10524 01f6 01       		.uleb128 .LVU521
 10525              	.LLST126:
 10526 01f7 04       		.byte	0x4
 10527 01f8 C617     		.uleb128 .LVL289-.Ltext0
 10528 01fa C617     		.uleb128 .LVL289-.Ltext0
 10529 01fc 01       		.uleb128 0x1
 10530 01fd 50       		.byte	0x50
 10531 01fe 00       		.byte	0
 10532              	.LVUS127:
 10533 01ff 00       		.uleb128 .LVU523
 10534 0200 00       		.uleb128 .LVU525
 10535              	.LLST127:
 10536 0201 04       		.byte	0x4
 10537 0202 C917     		.uleb128 .LVL290-.Ltext0
 10538 0204 CB17     		.uleb128 .LVL291-.Ltext0
 10539 0206 03       		.uleb128 0x3
 10540 0207 08       		.byte	0x8
 10541 0208 61       		.byte	0x61
 10542 0209 9F       		.byte	0x9f
 10543 020a 00       		.byte	0
 10544              	.LVUS128:
 10545 020b 00       		.uleb128 .LVU523
 10546 020c 00       		.uleb128 .LVU525
 10547              	.LLST128:
 10548 020d 04       		.byte	0x4
 10549 020e C917     		.uleb128 .LVL290-.Ltext0
 10550 0210 CB17     		.uleb128 .LVL291-.Ltext0
 10551 0212 01       		.uleb128 0x1
 10552 0213 50       		.byte	0x50
 10553 0214 00       		.byte	0
 10554              	.LVUS129:
 10555 0215 01       		.uleb128 .LVU528
 10556 0216 01       		.uleb128 .LVU532
 10557              	.LLST129:
 10558 0217 04       		.byte	0x4
 10559 0218 D017     		.uleb128 .LVL292-.Ltext0
 10560 021a D217     		.uleb128 .LVL293-.Ltext0
 10561 021c 03       		.uleb128 0x3
 10562 021d 08       		.byte	0x8
 10563 021e 61       		.byte	0x61
 10564 021f 9F       		.byte	0x9f
 10565 0220 00       		.byte	0
 10566              	.LVUS130:
 10567 0221 00       		.uleb128 .LVU531
 10568 0222 01       		.uleb128 .LVU532
 10569              	.LLST130:
 10570 0223 04       		.byte	0x4
 10571 0224 D217     		.uleb128 .LVL293-.Ltext0
 10572 0226 D217     		.uleb128 .LVL293-.Ltext0
 10573 0228 01       		.uleb128 0x1
 10574 0229 50       		.byte	0x50
 10575 022a 00       		.byte	0
 10576              	.LVUS131:
 10577 022b 03       		.uleb128 .LVU534
 10578 022c 00       		.uleb128 .LVU537
 10579              	.LLST131:
 10580 022d 04       		.byte	0x4
 10581 022e D217     		.uleb128 .LVL293-.Ltext0
 10582 0230 D717     		.uleb128 .LVL295-.Ltext0
 10583 0232 03       		.uleb128 0x3
 10584 0233 08       		.byte	0x8
 10585 0234 61       		.byte	0x61
 10586 0235 9F       		.byte	0x9f
 10587 0236 00       		.byte	0
 10588              	.LVUS132:
 10589 0237 03       		.uleb128 .LVU534
 10590 0238 00       		.uleb128 .LVU536
 10591              	.LLST132:
 10592 0239 04       		.byte	0x4
 10593 023a D217     		.uleb128 .LVL293-.Ltext0
 10594 023c D517     		.uleb128 .LVL294-.Ltext0
 10595 023e 06       		.uleb128 0x6
 10596 023f 70       		.byte	0x70
 10597 0240 00       		.sleb128 0
 10598 0241 09       		.byte	0x9
 10599 0242 FC       		.byte	0xfc
 10600 0243 1A       		.byte	0x1a
 10601 0244 9F       		.byte	0x9f
 10602 0245 00       		.byte	0
 10603              	.LVUS105:
 10604 0246 00       		.uleb128 0
 10605 0247 00       		.uleb128 .LVU470
 10606 0248 00       		.uleb128 .LVU470
 10607 0249 00       		.uleb128 .LVU497
 10608 024a 00       		.uleb128 .LVU497
 10609 024b 00       		.uleb128 0
 10610              	.LLST105:
 10611 024c 04       		.byte	0x4
 10612 024d 9E15     		.uleb128 .LVL260-.Ltext0
 10613 024f FA15     		.uleb128 .LVL262-.Ltext0
 10614 0251 01       		.uleb128 0x1
 10615 0252 52       		.byte	0x52
 10616 0253 04       		.byte	0x4
 10617 0254 FA15     		.uleb128 .LVL262-.Ltext0
 10618 0256 9417     		.uleb128 .LVL279-.Ltext0
 10619 0258 01       		.uleb128 0x1
 10620 0259 5D       		.byte	0x5d
 10621 025a 04       		.byte	0x4
 10622 025b 9417     		.uleb128 .LVL279-.Ltext0
 10623 025d 9917     		.uleb128 .LFE20-.Ltext0
 10624 025f 04       		.uleb128 0x4
 10625 0260 A3       		.byte	0xa3
 10626 0261 01       		.uleb128 0x1
 10627 0262 52       		.byte	0x52
 10628 0263 9F       		.byte	0x9f
 10629 0264 00       		.byte	0
 10630              	.LVUS106:
 10631 0265 00       		.uleb128 0
 10632 0266 00       		.uleb128 .LVU470
 10633 0267 00       		.uleb128 .LVU470
 10634 0268 00       		.uleb128 .LVU496
 10635 0269 00       		.uleb128 .LVU496
 10636 026a 00       		.uleb128 0
 10637              	.LLST106:
 10638 026b 04       		.byte	0x4
 10639 026c 9E15     		.uleb128 .LVL260-.Ltext0
 10640 026e FA15     		.uleb128 .LVL262-.Ltext0
 10641 0270 01       		.uleb128 0x1
 10642 0271 51       		.byte	0x51
 10643 0272 04       		.byte	0x4
 10644 0273 FA15     		.uleb128 .LVL262-.Ltext0
 10645 0275 9217     		.uleb128 .LVL278-.Ltext0
 10646 0277 01       		.uleb128 0x1
 10647 0278 5C       		.byte	0x5c
 10648 0279 04       		.byte	0x4
 10649 027a 9217     		.uleb128 .LVL278-.Ltext0
 10650 027c 9917     		.uleb128 .LFE20-.Ltext0
 10651 027e 04       		.uleb128 0x4
 10652 027f A3       		.byte	0xa3
 10653 0280 01       		.uleb128 0x1
 10654 0281 51       		.byte	0x51
 10655 0282 9F       		.byte	0x9f
 10656 0283 00       		.byte	0
 10657              	.LVUS107:
 10658 0284 00       		.uleb128 0
 10659 0285 00       		.uleb128 .LVU470
 10660 0286 00       		.uleb128 .LVU470
 10661 0287 00       		.uleb128 .LVU495
 10662 0288 00       		.uleb128 .LVU495
 10663 0289 00       		.uleb128 0
 10664              	.LLST107:
 10665 028a 04       		.byte	0x4
 10666 028b 9E15     		.uleb128 .LVL260-.Ltext0
 10667 028d FA15     		.uleb128 .LVL262-.Ltext0
 10668 028f 01       		.uleb128 0x1
 10669 0290 58       		.byte	0x58
 10670 0291 04       		.byte	0x4
 10671 0292 FA15     		.uleb128 .LVL262-.Ltext0
 10672 0294 9017     		.uleb128 .LVL277-.Ltext0
 10673 0296 01       		.uleb128 0x1
 10674 0297 56       		.byte	0x56
 10675 0298 04       		.byte	0x4
 10676 0299 9017     		.uleb128 .LVL277-.Ltext0
 10677 029b 9917     		.uleb128 .LFE20-.Ltext0
 10678 029d 04       		.uleb128 0x4
 10679 029e A3       		.byte	0xa3
 10680 029f 01       		.uleb128 0x1
 10681 02a0 58       		.byte	0x58
 10682 02a1 9F       		.byte	0x9f
 10683 02a2 00       		.byte	0
 10684              	.LVUS108:
 10685 02a3 03       		.uleb128 .LVU468
 10686 02a4 00       		.uleb128 .LVU470
 10687 02a5 00       		.uleb128 .LVU470
 10688 02a6 00       		.uleb128 0
 10689              	.LLST108:
 10690 02a7 04       		.byte	0x4
 10691 02a8 EF15     		.uleb128 .LVL261-.Ltext0
 10692 02aa FA15     		.uleb128 .LVL262-.Ltext0
 10693 02ac 02       		.uleb128 0x2
 10694 02ad 30       		.byte	0x30
 10695 02ae 9F       		.byte	0x9f
 10696 02af 04       		.byte	0x4
 10697 02b0 FA15     		.uleb128 .LVL262-.Ltext0
 10698 02b2 9917     		.uleb128 .LFE20-.Ltext0
 10699 02b4 03       		.uleb128 0x3
 10700 02b5 91       		.byte	0x91
 10701 02b6 987F     		.sleb128 -104
 10702 02b8 00       		.byte	0
 10703              	.LVUS110:
 10704 02b9 00       		.uleb128 .LVU470
 10705 02ba 00       		.uleb128 .LVU492
 10706              	.LLST110:
 10707 02bb 04       		.byte	0x4
 10708 02bc FA15     		.uleb128 .LVL262-.Ltext0
 10709 02be F916     		.uleb128 .LVL276-.Ltext0
 10710 02c0 01       		.uleb128 0x1
 10711 02c1 55       		.byte	0x55
 10712 02c2 00       		.byte	0
 10713              	.LVUS111:
 10714 02c3 00       		.uleb128 .LVU474
 10715 02c4 00       		.uleb128 .LVU476
 10716 02c5 00       		.uleb128 .LVU476
 10717 02c6 00       		.uleb128 .LVU489
 10718              	.LLST111:
 10719 02c7 04       		.byte	0x4
 10720 02c8 8C16     		.uleb128 .LVL264-.Ltext0
 10721 02ca 9016     		.uleb128 .LVL265-1-.Ltext0
 10722 02cc 01       		.uleb128 0x1
 10723 02cd 51       		.byte	0x51
 10724 02ce 04       		.byte	0x4
 10725 02cf 9016     		.uleb128 .LVL265-1-.Ltext0
 10726 02d1 E316     		.uleb128 .LVL274-.Ltext0
 10727 02d3 01       		.uleb128 0x1
 10728 02d4 5E       		.byte	0x5e
 10729 02d5 00       		.byte	0
 10730              	.LVUS112:
 10731 02d6 00       		.uleb128 .LVU478
 10732 02d7 00       		.uleb128 .LVU480
 10733 02d8 00       		.uleb128 .LVU480
 10734 02d9 00       		.uleb128 .LVU489
 10735              	.LLST112:
 10736 02da 04       		.byte	0x4
 10737 02db 9E16     		.uleb128 .LVL266-.Ltext0
 10738 02dd A216     		.uleb128 .LVL267-1-.Ltext0
 10739 02df 01       		.uleb128 0x1
 10740 02e0 51       		.byte	0x51
 10741 02e1 04       		.byte	0x4
 10742 02e2 A216     		.uleb128 .LVL267-1-.Ltext0
 10743 02e4 E316     		.uleb128 .LVL274-.Ltext0
 10744 02e6 01       		.uleb128 0x1
 10745 02e7 5F       		.byte	0x5f
 10746 02e8 00       		.byte	0
 10747              	.LVUS113:
 10748 02e9 00       		.uleb128 .LVU481
 10749 02ea 00       		.uleb128 .LVU483
 10750 02eb 00       		.uleb128 .LVU483
 10751 02ec 00       		.uleb128 .LVU489
 10752              	.LLST113:
 10753 02ed 04       		.byte	0x4
 10754 02ee A616     		.uleb128 .LVL268-.Ltext0
 10755 02f0 AA16     		.uleb128 .LVL269-1-.Ltext0
 10756 02f2 01       		.uleb128 0x1
 10757 02f3 50       		.byte	0x50
 10758 02f4 04       		.byte	0x4
 10759 02f5 AA16     		.uleb128 .LVL269-1-.Ltext0
 10760 02f7 E316     		.uleb128 .LVL274-.Ltext0
 10761 02f9 01       		.uleb128 0x1
 10762 02fa 54       		.byte	0x54
 10763 02fb 00       		.byte	0
 10764              	.LVUS114:
 10765 02fc 00       		.uleb128 .LVU485
 10766 02fd 00       		.uleb128 .LVU489
 10767              	.LLST114:
 10768 02fe 04       		.byte	0x4
 10769 02ff B316     		.uleb128 .LVL270-.Ltext0
 10770 0301 E316     		.uleb128 .LVL274-.Ltext0
 10771 0303 01       		.uleb128 0x1
 10772 0304 53       		.byte	0x53
 10773 0305 00       		.byte	0
 10774              	.LVUS96:
 10775 0306 00       		.uleb128 0
 10776 0307 00       		.uleb128 .LVU429
 10777 0308 00       		.uleb128 .LVU429
 10778 0309 00       		.uleb128 .LVU457
 10779 030a 00       		.uleb128 .LVU457
 10780 030b 00       		.uleb128 0
 10781              	.LLST96:
 10782 030c 04       		.byte	0x4
 10783 030d A813     		.uleb128 .LVL233-.Ltext0
 10784 030f C813     		.uleb128 .LVL235-.Ltext0
 10785 0311 01       		.uleb128 0x1
 10786 0312 52       		.byte	0x52
 10787 0313 04       		.byte	0x4
 10788 0314 C813     		.uleb128 .LVL235-.Ltext0
 10789 0316 9715     		.uleb128 .LVL256-.Ltext0
 10790 0318 01       		.uleb128 0x1
 10791 0319 54       		.byte	0x54
 10792 031a 04       		.byte	0x4
 10793 031b 9715     		.uleb128 .LVL256-.Ltext0
 10794 031d 9E15     		.uleb128 .LFE19-.Ltext0
 10795 031f 04       		.uleb128 0x4
 10796 0320 A3       		.byte	0xa3
 10797 0321 01       		.uleb128 0x1
 10798 0322 52       		.byte	0x52
 10799 0323 9F       		.byte	0x9f
 10800 0324 00       		.byte	0
 10801              	.LVUS97:
 10802 0325 00       		.uleb128 0
 10803 0326 00       		.uleb128 .LVU429
 10804 0327 00       		.uleb128 .LVU429
 10805 0328 00       		.uleb128 .LVU459
 10806 0329 00       		.uleb128 .LVU459
 10807 032a 00       		.uleb128 0
 10808              	.LLST97:
 10809 032b 04       		.byte	0x4
 10810 032c A813     		.uleb128 .LVL233-.Ltext0
 10811 032e C813     		.uleb128 .LVL235-.Ltext0
 10812 0330 01       		.uleb128 0x1
 10813 0331 51       		.byte	0x51
 10814 0332 04       		.byte	0x4
 10815 0333 C813     		.uleb128 .LVL235-.Ltext0
 10816 0335 9B15     		.uleb128 .LVL258-.Ltext0
 10817 0337 01       		.uleb128 0x1
 10818 0338 5C       		.byte	0x5c
 10819 0339 04       		.byte	0x4
 10820 033a 9B15     		.uleb128 .LVL258-.Ltext0
 10821 033c 9E15     		.uleb128 .LFE19-.Ltext0
 10822 033e 04       		.uleb128 0x4
 10823 033f A3       		.byte	0xa3
 10824 0340 01       		.uleb128 0x1
 10825 0341 51       		.byte	0x51
 10826 0342 9F       		.byte	0x9f
 10827 0343 00       		.byte	0
 10828              	.LVUS98:
 10829 0344 00       		.uleb128 0
 10830 0345 00       		.uleb128 .LVU429
 10831 0346 00       		.uleb128 .LVU429
 10832 0347 00       		.uleb128 .LVU458
 10833 0348 00       		.uleb128 .LVU458
 10834 0349 00       		.uleb128 0
 10835              	.LLST98:
 10836 034a 04       		.byte	0x4
 10837 034b A813     		.uleb128 .LVL233-.Ltext0
 10838 034d C813     		.uleb128 .LVL235-.Ltext0
 10839 034f 01       		.uleb128 0x1
 10840 0350 58       		.byte	0x58
 10841 0351 04       		.byte	0x4
 10842 0352 C813     		.uleb128 .LVL235-.Ltext0
 10843 0354 9915     		.uleb128 .LVL257-.Ltext0
 10844 0356 01       		.uleb128 0x1
 10845 0357 56       		.byte	0x56
 10846 0358 04       		.byte	0x4
 10847 0359 9915     		.uleb128 .LVL257-.Ltext0
 10848 035b 9E15     		.uleb128 .LFE19-.Ltext0
 10849 035d 04       		.uleb128 0x4
 10850 035e A3       		.byte	0xa3
 10851 035f 01       		.uleb128 0x1
 10852 0360 58       		.byte	0x58
 10853 0361 9F       		.byte	0x9f
 10854 0362 00       		.byte	0
 10855              	.LVUS99:
 10856 0363 02       		.uleb128 .LVU427
 10857 0364 00       		.uleb128 .LVU429
 10858 0365 00       		.uleb128 .LVU429
 10859 0366 00       		.uleb128 .LVU460
 10860              	.LLST99:
 10861 0367 04       		.byte	0x4
 10862 0368 BD13     		.uleb128 .LVL234-.Ltext0
 10863 036a C813     		.uleb128 .LVL235-.Ltext0
 10864 036c 02       		.uleb128 0x2
 10865 036d 30       		.byte	0x30
 10866 036e 9F       		.byte	0x9f
 10867 036f 04       		.byte	0x4
 10868 0370 C813     		.uleb128 .LVL235-.Ltext0
 10869 0372 9D15     		.uleb128 .LVL259-.Ltext0
 10870 0374 01       		.uleb128 0x1
 10871 0375 5D       		.byte	0x5d
 10872 0376 00       		.byte	0
 10873              	.LVUS101:
 10874 0377 00       		.uleb128 .LVU449
 10875 0378 00       		.uleb128 .LVU450
 10876 0379 00       		.uleb128 .LVU450
 10877 037a 00       		.uleb128 .LVU451
 10878              	.LLST101:
 10879 037b 04       		.byte	0x4
 10880 037c FD14     		.uleb128 .LVL252-.Ltext0
 10881 037e 8115     		.uleb128 .LVL253-.Ltext0
 10882 0380 01       		.uleb128 0x1
 10883 0381 50       		.byte	0x50
 10884 0382 04       		.byte	0x4
 10885 0383 8115     		.uleb128 .LVL253-.Ltext0
 10886 0385 8615     		.uleb128 .LVL254-1-.Ltext0
 10887 0387 01       		.uleb128 0x1
 10888 0388 51       		.byte	0x51
 10889 0389 00       		.byte	0
 10890              	.LVUS103:
 10891 038a 00       		.uleb128 .LVU429
 10892 038b 00       		.uleb128 .LVU436
 10893 038c 02       		.uleb128 .LVU453
 10894 038d 00       		.uleb128 .LVU455
 10895              	.LLST103:
 10896 038e 04       		.byte	0x4
 10897 038f C813     		.uleb128 .LVL235-.Ltext0
 10898 0391 9114     		.uleb128 .LVL241-.Ltext0
 10899 0393 01       		.uleb128 0x1
 10900 0394 53       		.byte	0x53
 10901 0395 04       		.byte	0x4
 10902 0396 8715     		.uleb128 .LVL254-.Ltext0
 10903 0398 9115     		.uleb128 .LVL255-.Ltext0
 10904 039a 02       		.uleb128 0x2
 10905 039b 30       		.byte	0x30
 10906 039c 9F       		.byte	0x9f
 10907 039d 00       		.byte	0
 10908              	.LVUS104:
 10909 039e 00       		.uleb128 .LVU437
 10910 039f 00       		.uleb128 .LVU446
 10911              	.LLST104:
 10912 03a0 04       		.byte	0x4
 10913 03a1 9314     		.uleb128 .LVL242-.Ltext0
 10914 03a3 EF14     		.uleb128 .LVL250-.Ltext0
 10915 03a5 01       		.uleb128 0x1
 10916 03a6 53       		.byte	0x53
 10917 03a7 00       		.byte	0
 10918              	.LVUS90:
 10919 03a8 00       		.uleb128 0
 10920 03a9 00       		.uleb128 .LVU406
 10921 03aa 00       		.uleb128 .LVU406
 10922 03ab 00       		.uleb128 .LVU418
 10923 03ac 00       		.uleb128 .LVU418
 10924 03ad 00       		.uleb128 0
 10925              	.LLST90:
 10926 03ae 04       		.byte	0x4
 10927 03af AE12     		.uleb128 .LVL215-.Ltext0
 10928 03b1 CB12     		.uleb128 .LVL217-.Ltext0
 10929 03b3 01       		.uleb128 0x1
 10930 03b4 52       		.byte	0x52
 10931 03b5 04       		.byte	0x4
 10932 03b6 CB12     		.uleb128 .LVL217-.Ltext0
 10933 03b8 A213     		.uleb128 .LVL228-.Ltext0
 10934 03ba 01       		.uleb128 0x1
 10935 03bb 53       		.byte	0x53
 10936 03bc 04       		.byte	0x4
 10937 03bd A213     		.uleb128 .LVL228-.Ltext0
 10938 03bf A813     		.uleb128 .LFE18-.Ltext0
 10939 03c1 04       		.uleb128 0x4
 10940 03c2 A3       		.byte	0xa3
 10941 03c3 01       		.uleb128 0x1
 10942 03c4 52       		.byte	0x52
 10943 03c5 9F       		.byte	0x9f
 10944 03c6 00       		.byte	0
 10945              	.LVUS91:
 10946 03c7 00       		.uleb128 0
 10947 03c8 00       		.uleb128 .LVU406
 10948 03c9 00       		.uleb128 .LVU406
 10949 03ca 00       		.uleb128 .LVU422
 10950 03cb 00       		.uleb128 .LVU422
 10951 03cc 00       		.uleb128 0
 10952              	.LLST91:
 10953 03cd 04       		.byte	0x4
 10954 03ce AE12     		.uleb128 .LVL215-.Ltext0
 10955 03d0 CB12     		.uleb128 .LVL217-.Ltext0
 10956 03d2 01       		.uleb128 0x1
 10957 03d3 51       		.byte	0x51
 10958 03d4 04       		.byte	0x4
 10959 03d5 CB12     		.uleb128 .LVL217-.Ltext0
 10960 03d7 A713     		.uleb128 .LVL232-.Ltext0
 10961 03d9 01       		.uleb128 0x1
 10962 03da 5C       		.byte	0x5c
 10963 03db 04       		.byte	0x4
 10964 03dc A713     		.uleb128 .LVL232-.Ltext0
 10965 03de A813     		.uleb128 .LFE18-.Ltext0
 10966 03e0 04       		.uleb128 0x4
 10967 03e1 A3       		.byte	0xa3
 10968 03e2 01       		.uleb128 0x1
 10969 03e3 51       		.byte	0x51
 10970 03e4 9F       		.byte	0x9f
 10971 03e5 00       		.byte	0
 10972              	.LVUS92:
 10973 03e6 00       		.uleb128 0
 10974 03e7 00       		.uleb128 .LVU406
 10975 03e8 00       		.uleb128 .LVU406
 10976 03e9 00       		.uleb128 .LVU421
 10977 03ea 00       		.uleb128 .LVU421
 10978 03eb 00       		.uleb128 0
 10979              	.LLST92:
 10980 03ec 04       		.byte	0x4
 10981 03ed AE12     		.uleb128 .LVL215-.Ltext0
 10982 03ef CB12     		.uleb128 .LVL217-.Ltext0
 10983 03f1 01       		.uleb128 0x1
 10984 03f2 58       		.byte	0x58
 10985 03f3 04       		.byte	0x4
 10986 03f4 CB12     		.uleb128 .LVL217-.Ltext0
 10987 03f6 A513     		.uleb128 .LVL231-.Ltext0
 10988 03f8 01       		.uleb128 0x1
 10989 03f9 56       		.byte	0x56
 10990 03fa 04       		.byte	0x4
 10991 03fb A513     		.uleb128 .LVL231-.Ltext0
 10992 03fd A813     		.uleb128 .LFE18-.Ltext0
 10993 03ff 04       		.uleb128 0x4
 10994 0400 A3       		.byte	0xa3
 10995 0401 01       		.uleb128 0x1
 10996 0402 58       		.byte	0x58
 10997 0403 9F       		.byte	0x9f
 10998 0404 00       		.byte	0
 10999              	.LVUS93:
 11000 0405 00       		.uleb128 0
 11001 0406 00       		.uleb128 .LVU406
 11002 0407 00       		.uleb128 .LVU406
 11003 0408 00       		.uleb128 .LVU420
 11004 0409 00       		.uleb128 .LVU420
 11005 040a 00       		.uleb128 0
 11006              	.LLST93:
 11007 040b 04       		.byte	0x4
 11008 040c AE12     		.uleb128 .LVL215-.Ltext0
 11009 040e CB12     		.uleb128 .LVL217-.Ltext0
 11010 0410 01       		.uleb128 0x1
 11011 0411 59       		.byte	0x59
 11012 0412 04       		.byte	0x4
 11013 0413 CB12     		.uleb128 .LVL217-.Ltext0
 11014 0415 A413     		.uleb128 .LVL230-.Ltext0
 11015 0417 01       		.uleb128 0x1
 11016 0418 55       		.byte	0x55
 11017 0419 04       		.byte	0x4
 11018 041a A413     		.uleb128 .LVL230-.Ltext0
 11019 041c A813     		.uleb128 .LFE18-.Ltext0
 11020 041e 04       		.uleb128 0x4
 11021 041f A3       		.byte	0xa3
 11022 0420 01       		.uleb128 0x1
 11023 0421 59       		.byte	0x59
 11024 0422 9F       		.byte	0x9f
 11025 0423 00       		.byte	0
 11026              	.LVUS94:
 11027 0424 02       		.uleb128 .LVU404
 11028 0425 00       		.uleb128 .LVU406
 11029 0426 00       		.uleb128 .LVU406
 11030 0427 00       		.uleb128 .LVU419
 11031              	.LLST94:
 11032 0428 04       		.byte	0x4
 11033 0429 C412     		.uleb128 .LVL216-.Ltext0
 11034 042b CB12     		.uleb128 .LVL217-.Ltext0
 11035 042d 02       		.uleb128 0x2
 11036 042e 30       		.byte	0x30
 11037 042f 9F       		.byte	0x9f
 11038 0430 04       		.byte	0x4
 11039 0431 CB12     		.uleb128 .LVL217-.Ltext0
 11040 0433 A313     		.uleb128 .LVL229-.Ltext0
 11041 0435 01       		.uleb128 0x1
 11042 0436 54       		.byte	0x54
 11043 0437 00       		.byte	0
 11044              	.LVUS95:
 11045 0438 00       		.uleb128 .LVU408
 11046 0439 00       		.uleb128 .LVU409
 11047 043a 00       		.uleb128 .LVU409
 11048 043b 00       		.uleb128 .LVU410
 11049              	.LLST95:
 11050 043c 04       		.byte	0x4
 11051 043d D312     		.uleb128 .LVL219-.Ltext0
 11052 043f D712     		.uleb128 .LVL220-.Ltext0
 11053 0441 01       		.uleb128 0x1
 11054 0442 50       		.byte	0x50
 11055 0443 04       		.byte	0x4
 11056 0444 D712     		.uleb128 .LVL220-.Ltext0
 11057 0446 DC12     		.uleb128 .LVL221-1-.Ltext0
 11058 0448 01       		.uleb128 0x1
 11059 0449 51       		.byte	0x51
 11060 044a 00       		.byte	0
 11061              	.LVUS87:
 11062 044b 00       		.uleb128 0
 11063 044c 00       		.uleb128 .LVU388
 11064 044d 00       		.uleb128 .LVU388
 11065 044e 00       		.uleb128 .LVU399
 11066 044f 00       		.uleb128 .LVU399
 11067 0450 00       		.uleb128 0
 11068              	.LLST87:
 11069 0451 04       		.byte	0x4
 11070 0452 D011     		.uleb128 .LVL202-.Ltext0
 11071 0454 E011     		.uleb128 .LVL204-.Ltext0
 11072 0456 01       		.uleb128 0x1
 11073 0457 52       		.byte	0x52
 11074 0458 04       		.byte	0x4
 11075 0459 E011     		.uleb128 .LVL204-.Ltext0
 11076 045b AD12     		.uleb128 .LVL214-.Ltext0
 11077 045d 01       		.uleb128 0x1
 11078 045e 54       		.byte	0x54
 11079 045f 04       		.byte	0x4
 11080 0460 AD12     		.uleb128 .LVL214-.Ltext0
 11081 0462 AE12     		.uleb128 .LFE17-.Ltext0
 11082 0464 04       		.uleb128 0x4
 11083 0465 A3       		.byte	0xa3
 11084 0466 01       		.uleb128 0x1
 11085 0467 52       		.byte	0x52
 11086 0468 9F       		.byte	0x9f
 11087 0469 00       		.byte	0
 11088              	.LVUS88:
 11089 046a 02       		.uleb128 .LVU386
 11090 046b 00       		.uleb128 .LVU388
 11091 046c 00       		.uleb128 .LVU388
 11092 046d 00       		.uleb128 .LVU398
 11093              	.LLST88:
 11094 046e 04       		.byte	0x4
 11095 046f D911     		.uleb128 .LVL203-.Ltext0
 11096 0471 E011     		.uleb128 .LVL204-.Ltext0
 11097 0473 02       		.uleb128 0x2
 11098 0474 30       		.byte	0x30
 11099 0475 9F       		.byte	0x9f
 11100 0476 04       		.byte	0x4
 11101 0477 E011     		.uleb128 .LVL204-.Ltext0
 11102 0479 AC12     		.uleb128 .LVL213-.Ltext0
 11103 047b 01       		.uleb128 0x1
 11104 047c 53       		.byte	0x53
 11105 047d 00       		.byte	0
 11106              	.LVUS89:
 11107 047e 00       		.uleb128 .LVU390
 11108 047f 00       		.uleb128 .LVU391
 11109 0480 00       		.uleb128 .LVU391
 11110 0481 00       		.uleb128 .LVU392
 11111              	.LLST89:
 11112 0482 04       		.byte	0x4
 11113 0483 E811     		.uleb128 .LVL206-.Ltext0
 11114 0485 EC11     		.uleb128 .LVL207-.Ltext0
 11115 0487 01       		.uleb128 0x1
 11116 0488 50       		.byte	0x50
 11117 0489 04       		.byte	0x4
 11118 048a EC11     		.uleb128 .LVL207-.Ltext0
 11119 048c F111     		.uleb128 .LVL208-1-.Ltext0
 11120 048e 01       		.uleb128 0x1
 11121 048f 51       		.byte	0x51
 11122 0490 00       		.byte	0
 11123              	.LVUS76:
 11124 0491 00       		.uleb128 0
 11125 0492 00       		.uleb128 .LVU349
 11126 0493 00       		.uleb128 .LVU349
 11127 0494 00       		.uleb128 .LVU380
 11128 0495 00       		.uleb128 .LVU380
 11129 0496 00       		.uleb128 0
 11130              	.LLST76:
 11131 0497 04       		.byte	0x4
 11132 0498 9110     		.uleb128 .LVL179-.Ltext0
 11133 049a B310     		.uleb128 .LVL181-.Ltext0
 11134 049c 01       		.uleb128 0x1
 11135 049d 52       		.byte	0x52
 11136 049e 04       		.byte	0x4
 11137 049f B310     		.uleb128 .LVL181-.Ltext0
 11138 04a1 C911     		.uleb128 .LVL200-.Ltext0
 11139 04a3 01       		.uleb128 0x1
 11140 04a4 56       		.byte	0x56
 11141 04a5 04       		.byte	0x4
 11142 04a6 C911     		.uleb128 .LVL200-.Ltext0
 11143 04a8 D011     		.uleb128 .LFE16-.Ltext0
 11144 04aa 04       		.uleb128 0x4
 11145 04ab A3       		.byte	0xa3
 11146 04ac 01       		.uleb128 0x1
 11147 04ad 52       		.byte	0x52
 11148 04ae 9F       		.byte	0x9f
 11149 04af 00       		.byte	0
 11150              	.LVUS77:
 11151 04b0 00       		.uleb128 0
 11152 04b1 00       		.uleb128 .LVU349
 11153 04b2 00       		.uleb128 .LVU349
 11154 04b3 00       		.uleb128 .LVU378
 11155 04b4 00       		.uleb128 .LVU378
 11156 04b5 00       		.uleb128 0
 11157              	.LLST77:
 11158 04b6 04       		.byte	0x4
 11159 04b7 9110     		.uleb128 .LVL179-.Ltext0
 11160 04b9 B310     		.uleb128 .LVL181-.Ltext0
 11161 04bb 01       		.uleb128 0x1
 11162 04bc 51       		.byte	0x51
 11163 04bd 04       		.byte	0x4
 11164 04be B310     		.uleb128 .LVL181-.Ltext0
 11165 04c0 C711     		.uleb128 .LVL198-.Ltext0
 11166 04c2 01       		.uleb128 0x1
 11167 04c3 54       		.byte	0x54
 11168 04c4 04       		.byte	0x4
 11169 04c5 C711     		.uleb128 .LVL198-.Ltext0
 11170 04c7 D011     		.uleb128 .LFE16-.Ltext0
 11171 04c9 04       		.uleb128 0x4
 11172 04ca A3       		.byte	0xa3
 11173 04cb 01       		.uleb128 0x1
 11174 04cc 51       		.byte	0x51
 11175 04cd 9F       		.byte	0x9f
 11176 04ce 00       		.byte	0
 11177              	.LVUS78:
 11178 04cf 00       		.uleb128 0
 11179 04d0 00       		.uleb128 .LVU349
 11180 04d1 00       		.uleb128 .LVU349
 11181 04d2 00       		.uleb128 .LVU379
 11182 04d3 00       		.uleb128 .LVU379
 11183 04d4 00       		.uleb128 0
 11184              	.LLST78:
 11185 04d5 04       		.byte	0x4
 11186 04d6 9110     		.uleb128 .LVL179-.Ltext0
 11187 04d8 B310     		.uleb128 .LVL181-.Ltext0
 11188 04da 01       		.uleb128 0x1
 11189 04db 58       		.byte	0x58
 11190 04dc 04       		.byte	0x4
 11191 04dd B310     		.uleb128 .LVL181-.Ltext0
 11192 04df C811     		.uleb128 .LVL199-.Ltext0
 11193 04e1 01       		.uleb128 0x1
 11194 04e2 55       		.byte	0x55
 11195 04e3 04       		.byte	0x4
 11196 04e4 C811     		.uleb128 .LVL199-.Ltext0
 11197 04e6 D011     		.uleb128 .LFE16-.Ltext0
 11198 04e8 04       		.uleb128 0x4
 11199 04e9 A3       		.byte	0xa3
 11200 04ea 01       		.uleb128 0x1
 11201 04eb 58       		.byte	0x58
 11202 04ec 9F       		.byte	0x9f
 11203 04ed 00       		.byte	0
 11204              	.LVUS79:
 11205 04ee 02       		.uleb128 .LVU347
 11206 04ef 00       		.uleb128 .LVU349
 11207 04f0 00       		.uleb128 .LVU349
 11208 04f1 00       		.uleb128 .LVU381
 11209              	.LLST79:
 11210 04f2 04       		.byte	0x4
 11211 04f3 A810     		.uleb128 .LVL180-.Ltext0
 11212 04f5 B310     		.uleb128 .LVL181-.Ltext0
 11213 04f7 02       		.uleb128 0x2
 11214 04f8 30       		.byte	0x30
 11215 04f9 9F       		.byte	0x9f
 11216 04fa 04       		.byte	0x4
 11217 04fb B310     		.uleb128 .LVL181-.Ltext0
 11218 04fd CD11     		.uleb128 .LVL201-.Ltext0
 11219 04ff 01       		.uleb128 0x1
 11220 0500 5D       		.byte	0x5d
 11221 0501 00       		.byte	0
 11222              	.LVUS81:
 11223 0502 00       		.uleb128 .LVU349
 11224 0503 00       		.uleb128 .LVU375
 11225              	.LLST81:
 11226 0504 04       		.byte	0x4
 11227 0505 B310     		.uleb128 .LVL181-.Ltext0
 11228 0507 B411     		.uleb128 .LVL197-.Ltext0
 11229 0509 01       		.uleb128 0x1
 11230 050a 53       		.byte	0x53
 11231 050b 00       		.byte	0
 11232              	.LVUS83:
 11233 050c 00       		.uleb128 .LVU349
 11234 050d 00       		.uleb128 .LVU354
 11235 050e 00       		.uleb128 .LVU359
 11236 050f 00       		.uleb128 .LVU361
 11237 0510 00       		.uleb128 .LVU361
 11238 0511 00       		.uleb128 .LVU372
 11239              	.LLST83:
 11240 0512 04       		.byte	0x4
 11241 0513 B310     		.uleb128 .LVL181-.Ltext0
 11242 0515 CB10     		.uleb128 .LVL184-.Ltext0
 11243 0517 01       		.uleb128 0x1
 11244 0518 5C       		.byte	0x5c
 11245 0519 04       		.byte	0x4
 11246 051a E210     		.uleb128 .LVL186-.Ltext0
 11247 051c E610     		.uleb128 .LVL187-1-.Ltext0
 11248 051e 01       		.uleb128 0x1
 11249 051f 51       		.byte	0x51
 11250 0520 04       		.byte	0x4
 11251 0521 E610     		.uleb128 .LVL187-1-.Ltext0
 11252 0523 A611     		.uleb128 .LVL195-.Ltext0
 11253 0525 01       		.uleb128 0x1
 11254 0526 5C       		.byte	0x5c
 11255 0527 00       		.byte	0
 11256              	.LVUS84:
 11257 0528 00       		.uleb128 .LVU349
 11258 0529 00       		.uleb128 .LVU354
 11259 052a 00       		.uleb128 .LVU363
 11260 052b 00       		.uleb128 .LVU365
 11261 052c 00       		.uleb128 .LVU365
 11262 052d 00       		.uleb128 .LVU372
 11263              	.LLST84:
 11264 052e 04       		.byte	0x4
 11265 052f B310     		.uleb128 .LVL181-.Ltext0
 11266 0531 CB10     		.uleb128 .LVL184-.Ltext0
 11267 0533 01       		.uleb128 0x1
 11268 0534 5E       		.byte	0x5e
 11269 0535 04       		.byte	0x4
 11270 0536 F410     		.uleb128 .LVL188-.Ltext0
 11271 0538 F810     		.uleb128 .LVL189-1-.Ltext0
 11272 053a 01       		.uleb128 0x1
 11273 053b 51       		.byte	0x51
 11274 053c 04       		.byte	0x4
 11275 053d F810     		.uleb128 .LVL189-1-.Ltext0
 11276 053f A611     		.uleb128 .LVL195-.Ltext0
 11277 0541 01       		.uleb128 0x1
 11278 0542 5E       		.byte	0x5e
 11279 0543 00       		.byte	0
 11280              	.LVUS85:
 11281 0544 00       		.uleb128 .LVU366
 11282 0545 00       		.uleb128 .LVU367
 11283 0546 00       		.uleb128 .LVU367
 11284 0547 00       		.uleb128 .LVU368
 11285              	.LLST85:
 11286 0548 04       		.byte	0x4
 11287 0549 FC10     		.uleb128 .LVL190-.Ltext0
 11288 054b 8011     		.uleb128 .LVL191-.Ltext0
 11289 054d 01       		.uleb128 0x1
 11290 054e 50       		.byte	0x50
 11291 054f 04       		.byte	0x4
 11292 0550 8011     		.uleb128 .LVL191-.Ltext0
 11293 0552 8511     		.uleb128 .LVL192-1-.Ltext0
 11294 0554 01       		.uleb128 0x1
 11295 0555 51       		.byte	0x51
 11296 0556 00       		.byte	0
 11297              	.LVUS86:
 11298 0557 00       		.uleb128 .LVU350
 11299 0558 00       		.uleb128 .LVU352
 11300              	.LLST86:
 11301 0559 04       		.byte	0x4
 11302 055a B810     		.uleb128 .LVL182-.Ltext0
 11303 055c C610     		.uleb128 .LVL183-1-.Ltext0
 11304 055e 01       		.uleb128 0x1
 11305 055f 51       		.byte	0x51
 11306 0560 00       		.byte	0
 11307              	.LVUS67:
 11308 0561 00       		.uleb128 0
 11309 0562 00       		.uleb128 .LVU323
 11310 0563 00       		.uleb128 .LVU323
 11311 0564 00       		.uleb128 .LVU339
 11312 0565 00       		.uleb128 .LVU339
 11313 0566 00       		.uleb128 0
 11314              	.LLST67:
 11315 0567 04       		.byte	0x4
 11316 0568 850F     		.uleb128 .LVL162-.Ltext0
 11317 056a A20F     		.uleb128 .LVL164-.Ltext0
 11318 056c 01       		.uleb128 0x1
 11319 056d 52       		.byte	0x52
 11320 056e 04       		.byte	0x4
 11321 056f A20F     		.uleb128 .LVL164-.Ltext0
 11322 0571 8A10     		.uleb128 .LVL175-.Ltext0
 11323 0573 01       		.uleb128 0x1
 11324 0574 54       		.byte	0x54
 11325 0575 04       		.byte	0x4
 11326 0576 8A10     		.uleb128 .LVL175-.Ltext0
 11327 0578 9110     		.uleb128 .LFE15-.Ltext0
 11328 057a 04       		.uleb128 0x4
 11329 057b A3       		.byte	0xa3
 11330 057c 01       		.uleb128 0x1
 11331 057d 52       		.byte	0x52
 11332 057e 9F       		.byte	0x9f
 11333 057f 00       		.byte	0
 11334              	.LVUS68:
 11335 0580 00       		.uleb128 0
 11336 0581 00       		.uleb128 .LVU323
 11337 0582 00       		.uleb128 .LVU323
 11338 0583 00       		.uleb128 .LVU340
 11339 0584 00       		.uleb128 .LVU340
 11340 0585 00       		.uleb128 0
 11341              	.LLST68:
 11342 0586 04       		.byte	0x4
 11343 0587 850F     		.uleb128 .LVL162-.Ltext0
 11344 0589 A20F     		.uleb128 .LVL164-.Ltext0
 11345 058b 01       		.uleb128 0x1
 11346 058c 51       		.byte	0x51
 11347 058d 04       		.byte	0x4
 11348 058e A20F     		.uleb128 .LVL164-.Ltext0
 11349 0590 8C10     		.uleb128 .LVL176-.Ltext0
 11350 0592 01       		.uleb128 0x1
 11351 0593 56       		.byte	0x56
 11352 0594 04       		.byte	0x4
 11353 0595 8C10     		.uleb128 .LVL176-.Ltext0
 11354 0597 9110     		.uleb128 .LFE15-.Ltext0
 11355 0599 04       		.uleb128 0x4
 11356 059a A3       		.byte	0xa3
 11357 059b 01       		.uleb128 0x1
 11358 059c 51       		.byte	0x51
 11359 059d 9F       		.byte	0x9f
 11360 059e 00       		.byte	0
 11361              	.LVUS69:
 11362 059f 00       		.uleb128 0
 11363 05a0 00       		.uleb128 .LVU323
 11364 05a1 00       		.uleb128 .LVU323
 11365 05a2 00       		.uleb128 .LVU341
 11366 05a3 00       		.uleb128 .LVU341
 11367 05a4 00       		.uleb128 0
 11368              	.LLST69:
 11369 05a5 04       		.byte	0x4
 11370 05a6 850F     		.uleb128 .LVL162-.Ltext0
 11371 05a8 A20F     		.uleb128 .LVL164-.Ltext0
 11372 05aa 01       		.uleb128 0x1
 11373 05ab 58       		.byte	0x58
 11374 05ac 04       		.byte	0x4
 11375 05ad A20F     		.uleb128 .LVL164-.Ltext0
 11376 05af 8E10     		.uleb128 .LVL177-.Ltext0
 11377 05b1 01       		.uleb128 0x1
 11378 05b2 5C       		.byte	0x5c
 11379 05b3 04       		.byte	0x4
 11380 05b4 8E10     		.uleb128 .LVL177-.Ltext0
 11381 05b6 9110     		.uleb128 .LFE15-.Ltext0
 11382 05b8 04       		.uleb128 0x4
 11383 05b9 A3       		.byte	0xa3
 11384 05ba 01       		.uleb128 0x1
 11385 05bb 58       		.byte	0x58
 11386 05bc 9F       		.byte	0x9f
 11387 05bd 00       		.byte	0
 11388              	.LVUS70:
 11389 05be 02       		.uleb128 .LVU321
 11390 05bf 00       		.uleb128 .LVU323
 11391 05c0 00       		.uleb128 .LVU323
 11392 05c1 00       		.uleb128 .LVU342
 11393              	.LLST70:
 11394 05c2 04       		.byte	0x4
 11395 05c3 9A0F     		.uleb128 .LVL163-.Ltext0
 11396 05c5 A20F     		.uleb128 .LVL164-.Ltext0
 11397 05c7 02       		.uleb128 0x2
 11398 05c8 30       		.byte	0x30
 11399 05c9 9F       		.byte	0x9f
 11400 05ca 04       		.byte	0x4
 11401 05cb A20F     		.uleb128 .LVL164-.Ltext0
 11402 05cd 9010     		.uleb128 .LVL178-.Ltext0
 11403 05cf 01       		.uleb128 0x1
 11404 05d0 5D       		.byte	0x5d
 11405 05d1 00       		.byte	0
 11406              	.LVUS72:
 11407 05d2 00       		.uleb128 .LVU323
 11408 05d3 00       		.uleb128 .LVU336
 11409              	.LLST72:
 11410 05d4 04       		.byte	0x4
 11411 05d5 A20F     		.uleb128 .LVL164-.Ltext0
 11412 05d7 F70F     		.uleb128 .LVL174-.Ltext0
 11413 05d9 01       		.uleb128 0x1
 11414 05da 55       		.byte	0x55
 11415 05db 00       		.byte	0
 11416              	.LVUS74:
 11417 05dc 00       		.uleb128 .LVU323
 11418 05dd 00       		.uleb128 .LVU332
 11419              	.LLST74:
 11420 05de 04       		.byte	0x4
 11421 05df A20F     		.uleb128 .LVL164-.Ltext0
 11422 05e1 DD0F     		.uleb128 .LVL172-.Ltext0
 11423 05e3 01       		.uleb128 0x1
 11424 05e4 53       		.byte	0x53
 11425 05e5 00       		.byte	0
 11426              	.LVUS75:
 11427 05e6 00       		.uleb128 .LVU325
 11428 05e7 00       		.uleb128 .LVU326
 11429 05e8 00       		.uleb128 .LVU326
 11430 05e9 00       		.uleb128 .LVU327
 11431              	.LLST75:
 11432 05ea 04       		.byte	0x4
 11433 05eb AA0F     		.uleb128 .LVL166-.Ltext0
 11434 05ed AE0F     		.uleb128 .LVL167-.Ltext0
 11435 05ef 01       		.uleb128 0x1
 11436 05f0 50       		.byte	0x50
 11437 05f1 04       		.byte	0x4
 11438 05f2 AE0F     		.uleb128 .LVL167-.Ltext0
 11439 05f4 B30F     		.uleb128 .LVL168-1-.Ltext0
 11440 05f6 01       		.uleb128 0x1
 11441 05f7 51       		.byte	0x51
 11442 05f8 00       		.byte	0
 11443              	.LVUS61:
 11444 05f9 00       		.uleb128 0
 11445 05fa 00       		.uleb128 .LVU301
 11446 05fb 00       		.uleb128 .LVU301
 11447 05fc 00       		.uleb128 .LVU312
 11448 05fd 00       		.uleb128 .LVU312
 11449 05fe 00       		.uleb128 0
 11450              	.LLST61:
 11451 05ff 04       		.byte	0x4
 11452 0600 950E     		.uleb128 .LVL145-.Ltext0
 11453 0602 B20E     		.uleb128 .LVL147-.Ltext0
 11454 0604 01       		.uleb128 0x1
 11455 0605 52       		.byte	0x52
 11456 0606 04       		.byte	0x4
 11457 0607 B20E     		.uleb128 .LVL147-.Ltext0
 11458 0609 FF0E     		.uleb128 .LVL157-.Ltext0
 11459 060b 01       		.uleb128 0x1
 11460 060c 53       		.byte	0x53
 11461 060d 04       		.byte	0x4
 11462 060e FF0E     		.uleb128 .LVL157-.Ltext0
 11463 0610 850F     		.uleb128 .LFE14-.Ltext0
 11464 0612 04       		.uleb128 0x4
 11465 0613 A3       		.byte	0xa3
 11466 0614 01       		.uleb128 0x1
 11467 0615 52       		.byte	0x52
 11468 0616 9F       		.byte	0x9f
 11469 0617 00       		.byte	0
 11470              	.LVUS62:
 11471 0618 00       		.uleb128 0
 11472 0619 00       		.uleb128 .LVU301
 11473 061a 00       		.uleb128 .LVU301
 11474 061b 00       		.uleb128 .LVU316
 11475 061c 00       		.uleb128 .LVU316
 11476 061d 00       		.uleb128 0
 11477              	.LLST62:
 11478 061e 04       		.byte	0x4
 11479 061f 950E     		.uleb128 .LVL145-.Ltext0
 11480 0621 B20E     		.uleb128 .LVL147-.Ltext0
 11481 0623 01       		.uleb128 0x1
 11482 0624 51       		.byte	0x51
 11483 0625 04       		.byte	0x4
 11484 0626 B20E     		.uleb128 .LVL147-.Ltext0
 11485 0628 840F     		.uleb128 .LVL161-.Ltext0
 11486 062a 01       		.uleb128 0x1
 11487 062b 5C       		.byte	0x5c
 11488 062c 04       		.byte	0x4
 11489 062d 840F     		.uleb128 .LVL161-.Ltext0
 11490 062f 850F     		.uleb128 .LFE14-.Ltext0
 11491 0631 04       		.uleb128 0x4
 11492 0632 A3       		.byte	0xa3
 11493 0633 01       		.uleb128 0x1
 11494 0634 51       		.byte	0x51
 11495 0635 9F       		.byte	0x9f
 11496 0636 00       		.byte	0
 11497              	.LVUS63:
 11498 0637 00       		.uleb128 0
 11499 0638 00       		.uleb128 .LVU301
 11500 0639 00       		.uleb128 .LVU301
 11501 063a 00       		.uleb128 .LVU315
 11502 063b 00       		.uleb128 .LVU315
 11503 063c 00       		.uleb128 0
 11504              	.LLST63:
 11505 063d 04       		.byte	0x4
 11506 063e 950E     		.uleb128 .LVL145-.Ltext0
 11507 0640 B20E     		.uleb128 .LVL147-.Ltext0
 11508 0642 01       		.uleb128 0x1
 11509 0643 58       		.byte	0x58
 11510 0644 04       		.byte	0x4
 11511 0645 B20E     		.uleb128 .LVL147-.Ltext0
 11512 0647 820F     		.uleb128 .LVL160-.Ltext0
 11513 0649 01       		.uleb128 0x1
 11514 064a 56       		.byte	0x56
 11515 064b 04       		.byte	0x4
 11516 064c 820F     		.uleb128 .LVL160-.Ltext0
 11517 064e 850F     		.uleb128 .LFE14-.Ltext0
 11518 0650 04       		.uleb128 0x4
 11519 0651 A3       		.byte	0xa3
 11520 0652 01       		.uleb128 0x1
 11521 0653 58       		.byte	0x58
 11522 0654 9F       		.byte	0x9f
 11523 0655 00       		.byte	0
 11524              	.LVUS64:
 11525 0656 00       		.uleb128 0
 11526 0657 00       		.uleb128 .LVU301
 11527 0658 00       		.uleb128 .LVU301
 11528 0659 00       		.uleb128 .LVU314
 11529 065a 00       		.uleb128 .LVU314
 11530 065b 00       		.uleb128 0
 11531              	.LLST64:
 11532 065c 04       		.byte	0x4
 11533 065d 950E     		.uleb128 .LVL145-.Ltext0
 11534 065f B20E     		.uleb128 .LVL147-.Ltext0
 11535 0661 01       		.uleb128 0x1
 11536 0662 59       		.byte	0x59
 11537 0663 04       		.byte	0x4
 11538 0664 B20E     		.uleb128 .LVL147-.Ltext0
 11539 0666 810F     		.uleb128 .LVL159-.Ltext0
 11540 0668 01       		.uleb128 0x1
 11541 0669 55       		.byte	0x55
 11542 066a 04       		.byte	0x4
 11543 066b 810F     		.uleb128 .LVL159-.Ltext0
 11544 066d 850F     		.uleb128 .LFE14-.Ltext0
 11545 066f 04       		.uleb128 0x4
 11546 0670 A3       		.byte	0xa3
 11547 0671 01       		.uleb128 0x1
 11548 0672 59       		.byte	0x59
 11549 0673 9F       		.byte	0x9f
 11550 0674 00       		.byte	0
 11551              	.LVUS65:
 11552 0675 02       		.uleb128 .LVU299
 11553 0676 00       		.uleb128 .LVU301
 11554 0677 00       		.uleb128 .LVU301
 11555 0678 00       		.uleb128 .LVU313
 11556              	.LLST65:
 11557 0679 04       		.byte	0x4
 11558 067a AB0E     		.uleb128 .LVL146-.Ltext0
 11559 067c B20E     		.uleb128 .LVL147-.Ltext0
 11560 067e 02       		.uleb128 0x2
 11561 067f 30       		.byte	0x30
 11562 0680 9F       		.byte	0x9f
 11563 0681 04       		.byte	0x4
 11564 0682 B20E     		.uleb128 .LVL147-.Ltext0
 11565 0684 800F     		.uleb128 .LVL158-.Ltext0
 11566 0686 01       		.uleb128 0x1
 11567 0687 54       		.byte	0x54
 11568 0688 00       		.byte	0
 11569              	.LVUS66:
 11570 0689 00       		.uleb128 .LVU303
 11571 068a 00       		.uleb128 .LVU304
 11572 068b 00       		.uleb128 .LVU304
 11573 068c 00       		.uleb128 .LVU305
 11574              	.LLST66:
 11575 068d 04       		.byte	0x4
 11576 068e BA0E     		.uleb128 .LVL149-.Ltext0
 11577 0690 BE0E     		.uleb128 .LVL150-.Ltext0
 11578 0692 01       		.uleb128 0x1
 11579 0693 50       		.byte	0x50
 11580 0694 04       		.byte	0x4
 11581 0695 BE0E     		.uleb128 .LVL150-.Ltext0
 11582 0697 C30E     		.uleb128 .LVL151-1-.Ltext0
 11583 0699 01       		.uleb128 0x1
 11584 069a 51       		.byte	0x51
 11585 069b 00       		.byte	0
 11586              	.LVUS53:
 11587 069c 00       		.uleb128 0
 11588 069d 00       		.uleb128 .LVU270
 11589 069e 00       		.uleb128 .LVU270
 11590 069f 00       		.uleb128 .LVU291
 11591 06a0 00       		.uleb128 .LVU291
 11592 06a1 00       		.uleb128 0
 11593              	.LLST53:
 11594 06a2 04       		.byte	0x4
 11595 06a3 EA0C     		.uleb128 .LVL125-.Ltext0
 11596 06a5 8B0D     		.uleb128 .LVL127-.Ltext0
 11597 06a7 01       		.uleb128 0x1
 11598 06a8 52       		.byte	0x52
 11599 06a9 04       		.byte	0x4
 11600 06aa 8B0D     		.uleb128 .LVL127-.Ltext0
 11601 06ac 8D0E     		.uleb128 .LVL141-.Ltext0
 11602 06ae 01       		.uleb128 0x1
 11603 06af 55       		.byte	0x55
 11604 06b0 04       		.byte	0x4
 11605 06b1 8D0E     		.uleb128 .LVL141-.Ltext0
 11606 06b3 950E     		.uleb128 .LFE13-.Ltext0
 11607 06b5 04       		.uleb128 0x4
 11608 06b6 A3       		.byte	0xa3
 11609 06b7 01       		.uleb128 0x1
 11610 06b8 52       		.byte	0x52
 11611 06b9 9F       		.byte	0x9f
 11612 06ba 00       		.byte	0
 11613              	.LVUS54:
 11614 06bb 00       		.uleb128 0
 11615 06bc 00       		.uleb128 .LVU270
 11616 06bd 00       		.uleb128 .LVU270
 11617 06be 00       		.uleb128 .LVU294
 11618 06bf 00       		.uleb128 .LVU294
 11619 06c0 00       		.uleb128 0
 11620              	.LLST54:
 11621 06c1 04       		.byte	0x4
 11622 06c2 EA0C     		.uleb128 .LVL125-.Ltext0
 11623 06c4 8B0D     		.uleb128 .LVL127-.Ltext0
 11624 06c6 01       		.uleb128 0x1
 11625 06c7 51       		.byte	0x51
 11626 06c8 04       		.byte	0x4
 11627 06c9 8B0D     		.uleb128 .LVL127-.Ltext0
 11628 06cb 920E     		.uleb128 .LVL144-.Ltext0
 11629 06cd 01       		.uleb128 0x1
 11630 06ce 5D       		.byte	0x5d
 11631 06cf 04       		.byte	0x4
 11632 06d0 920E     		.uleb128 .LVL144-.Ltext0
 11633 06d2 950E     		.uleb128 .LFE13-.Ltext0
 11634 06d4 04       		.uleb128 0x4
 11635 06d5 A3       		.byte	0xa3
 11636 06d6 01       		.uleb128 0x1
 11637 06d7 51       		.byte	0x51
 11638 06d8 9F       		.byte	0x9f
 11639 06d9 00       		.byte	0
 11640              	.LVUS55:
 11641 06da 00       		.uleb128 0
 11642 06db 00       		.uleb128 .LVU270
 11643 06dc 00       		.uleb128 .LVU270
 11644 06dd 00       		.uleb128 .LVU293
 11645 06de 00       		.uleb128 .LVU293
 11646 06df 00       		.uleb128 0
 11647              	.LLST55:
 11648 06e0 04       		.byte	0x4
 11649 06e1 EA0C     		.uleb128 .LVL125-.Ltext0
 11650 06e3 8B0D     		.uleb128 .LVL127-.Ltext0
 11651 06e5 01       		.uleb128 0x1
 11652 06e6 58       		.byte	0x58
 11653 06e7 04       		.byte	0x4
 11654 06e8 8B0D     		.uleb128 .LVL127-.Ltext0
 11655 06ea 900E     		.uleb128 .LVL143-.Ltext0
 11656 06ec 01       		.uleb128 0x1
 11657 06ed 5C       		.byte	0x5c
 11658 06ee 04       		.byte	0x4
 11659 06ef 900E     		.uleb128 .LVL143-.Ltext0
 11660 06f1 950E     		.uleb128 .LFE13-.Ltext0
 11661 06f3 04       		.uleb128 0x4
 11662 06f4 A3       		.byte	0xa3
 11663 06f5 01       		.uleb128 0x1
 11664 06f6 58       		.byte	0x58
 11665 06f7 9F       		.byte	0x9f
 11666 06f8 00       		.byte	0
 11667              	.LVUS56:
 11668 06f9 00       		.uleb128 0
 11669 06fa 00       		.uleb128 .LVU270
 11670 06fb 00       		.uleb128 .LVU270
 11671 06fc 00       		.uleb128 .LVU292
 11672 06fd 00       		.uleb128 .LVU292
 11673 06fe 00       		.uleb128 0
 11674              	.LLST56:
 11675 06ff 04       		.byte	0x4
 11676 0700 EA0C     		.uleb128 .LVL125-.Ltext0
 11677 0702 8B0D     		.uleb128 .LVL127-.Ltext0
 11678 0704 01       		.uleb128 0x1
 11679 0705 59       		.byte	0x59
 11680 0706 04       		.byte	0x4
 11681 0707 8B0D     		.uleb128 .LVL127-.Ltext0
 11682 0709 8E0E     		.uleb128 .LVL142-.Ltext0
 11683 070b 01       		.uleb128 0x1
 11684 070c 56       		.byte	0x56
 11685 070d 04       		.byte	0x4
 11686 070e 8E0E     		.uleb128 .LVL142-.Ltext0
 11687 0710 950E     		.uleb128 .LFE13-.Ltext0
 11688 0712 04       		.uleb128 0x4
 11689 0713 A3       		.byte	0xa3
 11690 0714 01       		.uleb128 0x1
 11691 0715 59       		.byte	0x59
 11692 0716 9F       		.byte	0x9f
 11693 0717 00       		.byte	0
 11694              	.LVUS57:
 11695 0718 02       		.uleb128 .LVU268
 11696 0719 00       		.uleb128 .LVU270
 11697 071a 00       		.uleb128 .LVU270
 11698 071b 00       		.uleb128 .LVU290
 11699              	.LLST57:
 11700 071c 04       		.byte	0x4
 11701 071d 840D     		.uleb128 .LVL126-.Ltext0
 11702 071f 8B0D     		.uleb128 .LVL127-.Ltext0
 11703 0721 02       		.uleb128 0x2
 11704 0722 30       		.byte	0x30
 11705 0723 9F       		.byte	0x9f
 11706 0724 04       		.byte	0x4
 11707 0725 8B0D     		.uleb128 .LVL127-.Ltext0
 11708 0727 8C0E     		.uleb128 .LVL140-.Ltext0
 11709 0729 01       		.uleb128 0x1
 11710 072a 54       		.byte	0x54
 11711 072b 00       		.byte	0
 11712              	.LVUS58:
 11713 072c 00       		.uleb128 .LVU275
 11714 072d 00       		.uleb128 .LVU288
 11715              	.LLST58:
 11716 072e 04       		.byte	0x4
 11717 072f A80D     		.uleb128 .LVL129-.Ltext0
 11718 0731 800E     		.uleb128 .LVL139-.Ltext0
 11719 0733 01       		.uleb128 0x1
 11720 0734 53       		.byte	0x53
 11721 0735 00       		.byte	0
 11722              	.LVUS59:
 11723 0736 00       		.uleb128 .LVU280
 11724 0737 00       		.uleb128 .LVU288
 11725              	.LLST59:
 11726 0738 04       		.byte	0x4
 11727 0739 C80D     		.uleb128 .LVL131-.Ltext0
 11728 073b 800E     		.uleb128 .LVL139-.Ltext0
 11729 073d 01       		.uleb128 0x1
 11730 073e 5E       		.byte	0x5e
 11731 073f 00       		.byte	0
 11732              	.LVUS60:
 11733 0740 00       		.uleb128 .LVU282
 11734 0741 00       		.uleb128 .LVU283
 11735 0742 00       		.uleb128 .LVU283
 11736 0743 00       		.uleb128 .LVU284
 11737              	.LLST60:
 11738 0744 04       		.byte	0x4
 11739 0745 D00D     		.uleb128 .LVL133-.Ltext0
 11740 0747 D40D     		.uleb128 .LVL134-.Ltext0
 11741 0749 01       		.uleb128 0x1
 11742 074a 50       		.byte	0x50
 11743 074b 04       		.byte	0x4
 11744 074c D40D     		.uleb128 .LVL134-.Ltext0
 11745 074e D90D     		.uleb128 .LVL135-1-.Ltext0
 11746 0750 01       		.uleb128 0x1
 11747 0751 51       		.byte	0x51
 11748 0752 00       		.byte	0
 11749              	.LVUS43:
 11750 0753 00       		.uleb128 0
 11751 0754 00       		.uleb128 .LVU237
 11752 0755 00       		.uleb128 .LVU237
 11753 0756 00       		.uleb128 .LVU260
 11754 0757 00       		.uleb128 .LVU260
 11755 0758 00       		.uleb128 0
 11756              	.LLST43:
 11757 0759 04       		.byte	0x4
 11758 075a 9B0B     		.uleb128 .LVL104-.Ltext0
 11759 075c C20B     		.uleb128 .LVL106-.Ltext0
 11760 075e 01       		.uleb128 0x1
 11761 075f 52       		.byte	0x52
 11762 0760 04       		.byte	0x4
 11763 0761 C20B     		.uleb128 .LVL106-.Ltext0
 11764 0763 E10C     		.uleb128 .LVL121-.Ltext0
 11765 0765 01       		.uleb128 0x1
 11766 0766 56       		.byte	0x56
 11767 0767 04       		.byte	0x4
 11768 0768 E10C     		.uleb128 .LVL121-.Ltext0
 11769 076a EA0C     		.uleb128 .LFE12-.Ltext0
 11770 076c 04       		.uleb128 0x4
 11771 076d A3       		.byte	0xa3
 11772 076e 01       		.uleb128 0x1
 11773 076f 52       		.byte	0x52
 11774 0770 9F       		.byte	0x9f
 11775 0771 00       		.byte	0
 11776              	.LVUS44:
 11777 0772 00       		.uleb128 0
 11778 0773 00       		.uleb128 .LVU237
 11779 0774 00       		.uleb128 .LVU237
 11780 0775 00       		.uleb128 .LVU259
 11781 0776 00       		.uleb128 .LVU259
 11782 0777 00       		.uleb128 0
 11783              	.LLST44:
 11784 0778 04       		.byte	0x4
 11785 0779 9B0B     		.uleb128 .LVL104-.Ltext0
 11786 077b C20B     		.uleb128 .LVL106-.Ltext0
 11787 077d 01       		.uleb128 0x1
 11788 077e 51       		.byte	0x51
 11789 077f 04       		.byte	0x4
 11790 0780 C20B     		.uleb128 .LVL106-.Ltext0
 11791 0782 E00C     		.uleb128 .LVL120-.Ltext0
 11792 0784 01       		.uleb128 0x1
 11793 0785 55       		.byte	0x55
 11794 0786 04       		.byte	0x4
 11795 0787 E00C     		.uleb128 .LVL120-.Ltext0
 11796 0789 EA0C     		.uleb128 .LFE12-.Ltext0
 11797 078b 04       		.uleb128 0x4
 11798 078c A3       		.byte	0xa3
 11799 078d 01       		.uleb128 0x1
 11800 078e 51       		.byte	0x51
 11801 078f 9F       		.byte	0x9f
 11802 0790 00       		.byte	0
 11803              	.LVUS45:
 11804 0791 00       		.uleb128 0
 11805 0792 00       		.uleb128 .LVU237
 11806 0793 00       		.uleb128 .LVU237
 11807 0794 00       		.uleb128 .LVU263
 11808 0795 00       		.uleb128 .LVU263
 11809 0796 00       		.uleb128 0
 11810              	.LLST45:
 11811 0797 04       		.byte	0x4
 11812 0798 9B0B     		.uleb128 .LVL104-.Ltext0
 11813 079a C20B     		.uleb128 .LVL106-.Ltext0
 11814 079c 01       		.uleb128 0x1
 11815 079d 58       		.byte	0x58
 11816 079e 04       		.byte	0x4
 11817 079f C20B     		.uleb128 .LVL106-.Ltext0
 11818 07a1 E90C     		.uleb128 .LVL124-.Ltext0
 11819 07a3 01       		.uleb128 0x1
 11820 07a4 5F       		.byte	0x5f
 11821 07a5 04       		.byte	0x4
 11822 07a6 E90C     		.uleb128 .LVL124-.Ltext0
 11823 07a8 EA0C     		.uleb128 .LFE12-.Ltext0
 11824 07aa 04       		.uleb128 0x4
 11825 07ab A3       		.byte	0xa3
 11826 07ac 01       		.uleb128 0x1
 11827 07ad 58       		.byte	0x58
 11828 07ae 9F       		.byte	0x9f
 11829 07af 00       		.byte	0
 11830              	.LVUS46:
 11831 07b0 00       		.uleb128 0
 11832 07b1 00       		.uleb128 .LVU237
 11833 07b2 00       		.uleb128 .LVU237
 11834 07b3 00       		.uleb128 .LVU262
 11835 07b4 00       		.uleb128 .LVU262
 11836 07b5 00       		.uleb128 0
 11837              	.LLST46:
 11838 07b6 04       		.byte	0x4
 11839 07b7 9B0B     		.uleb128 .LVL104-.Ltext0
 11840 07b9 C20B     		.uleb128 .LVL106-.Ltext0
 11841 07bb 01       		.uleb128 0x1
 11842 07bc 59       		.byte	0x59
 11843 07bd 04       		.byte	0x4
 11844 07be C20B     		.uleb128 .LVL106-.Ltext0
 11845 07c0 E70C     		.uleb128 .LVL123-.Ltext0
 11846 07c2 01       		.uleb128 0x1
 11847 07c3 5E       		.byte	0x5e
 11848 07c4 04       		.byte	0x4
 11849 07c5 E70C     		.uleb128 .LVL123-.Ltext0
 11850 07c7 EA0C     		.uleb128 .LFE12-.Ltext0
 11851 07c9 04       		.uleb128 0x4
 11852 07ca A3       		.byte	0xa3
 11853 07cb 01       		.uleb128 0x1
 11854 07cc 59       		.byte	0x59
 11855 07cd 9F       		.byte	0x9f
 11856 07ce 00       		.byte	0
 11857              	.LVUS47:
 11858 07cf 02       		.uleb128 .LVU235
 11859 07d0 00       		.uleb128 .LVU237
 11860 07d1 00       		.uleb128 .LVU237
 11861 07d2 00       		.uleb128 .LVU261
 11862              	.LLST47:
 11863 07d3 04       		.byte	0x4
 11864 07d4 B70B     		.uleb128 .LVL105-.Ltext0
 11865 07d6 C20B     		.uleb128 .LVL106-.Ltext0
 11866 07d8 02       		.uleb128 0x2
 11867 07d9 30       		.byte	0x30
 11868 07da 9F       		.byte	0x9f
 11869 07db 04       		.byte	0x4
 11870 07dc C20B     		.uleb128 .LVL106-.Ltext0
 11871 07de E50C     		.uleb128 .LVL122-.Ltext0
 11872 07e0 01       		.uleb128 0x1
 11873 07e1 5D       		.byte	0x5d
 11874 07e2 00       		.byte	0
 11875              	.LVUS49:
 11876 07e3 00       		.uleb128 .LVU237
 11877 07e4 00       		.uleb128 .LVU256
 11878              	.LLST49:
 11879 07e5 04       		.byte	0x4
 11880 07e6 C20B     		.uleb128 .LVL106-.Ltext0
 11881 07e8 CC0C     		.uleb128 .LVL119-.Ltext0
 11882 07ea 01       		.uleb128 0x1
 11883 07eb 53       		.byte	0x53
 11884 07ec 00       		.byte	0
 11885              	.LVUS50:
 11886 07ed 00       		.uleb128 .LVU239
 11887 07ee 00       		.uleb128 .LVU251
 11888              	.LLST50:
 11889 07ef 04       		.byte	0x4
 11890 07f0 C60B     		.uleb128 .LVL107-.Ltext0
 11891 07f2 B10C     		.uleb128 .LVL116-.Ltext0
 11892 07f4 01       		.uleb128 0x1
 11893 07f5 5C       		.byte	0x5c
 11894 07f6 00       		.byte	0
 11895              	.LVUS51:
 11896 07f7 00       		.uleb128 .LVU244
 11897 07f8 00       		.uleb128 .LVU251
 11898              	.LLST51:
 11899 07f9 04       		.byte	0x4
 11900 07fa FB0B     		.uleb128 .LVL109-.Ltext0
 11901 07fc B10C     		.uleb128 .LVL116-.Ltext0
 11902 07fe 01       		.uleb128 0x1
 11903 07ff 54       		.byte	0x54
 11904 0800 00       		.byte	0
 11905              	.LVUS52:
 11906 0801 00       		.uleb128 .LVU246
 11907 0802 00       		.uleb128 .LVU247
 11908 0803 00       		.uleb128 .LVU247
 11909 0804 00       		.uleb128 .LVU248
 11910              	.LLST52:
 11911 0805 04       		.byte	0x4
 11912 0806 830C     		.uleb128 .LVL111-.Ltext0
 11913 0808 870C     		.uleb128 .LVL112-.Ltext0
 11914 080a 01       		.uleb128 0x1
 11915 080b 50       		.byte	0x50
 11916 080c 04       		.byte	0x4
 11917 080d 870C     		.uleb128 .LVL112-.Ltext0
 11918 080f 8C0C     		.uleb128 .LVL113-1-.Ltext0
 11919 0811 01       		.uleb128 0x1
 11920 0812 51       		.byte	0x51
 11921 0813 00       		.byte	0
 11922              	.LVUS36:
 11923 0814 00       		.uleb128 0
 11924 0815 00       		.uleb128 .LVU208
 11925 0816 00       		.uleb128 .LVU208
 11926 0817 00       		.uleb128 .LVU230
 11927 0818 00       		.uleb128 .LVU230
 11928 0819 00       		.uleb128 0
 11929              	.LLST36:
 11930 081a 04       		.byte	0x4
 11931 081b 8C0A     		.uleb128 .LVL85-.Ltext0
 11932 081d A80A     		.uleb128 .LVL87-.Ltext0
 11933 081f 01       		.uleb128 0x1
 11934 0820 52       		.byte	0x52
 11935 0821 04       		.byte	0x4
 11936 0822 A80A     		.uleb128 .LVL87-.Ltext0
 11937 0824 960B     		.uleb128 .LVL103-.Ltext0
 11938 0826 01       		.uleb128 0x1
 11939 0827 56       		.byte	0x56
 11940 0828 04       		.byte	0x4
 11941 0829 960B     		.uleb128 .LVL103-.Ltext0
 11942 082b 9B0B     		.uleb128 .LFE11-.Ltext0
 11943 082d 04       		.uleb128 0x4
 11944 082e A3       		.byte	0xa3
 11945 082f 01       		.uleb128 0x1
 11946 0830 52       		.byte	0x52
 11947 0831 9F       		.byte	0x9f
 11948 0832 00       		.byte	0
 11949              	.LVUS37:
 11950 0833 00       		.uleb128 0
 11951 0834 00       		.uleb128 .LVU208
 11952 0835 00       		.uleb128 .LVU208
 11953 0836 00       		.uleb128 .LVU229
 11954 0837 00       		.uleb128 .LVU229
 11955 0838 00       		.uleb128 0
 11956              	.LLST37:
 11957 0839 04       		.byte	0x4
 11958 083a 8C0A     		.uleb128 .LVL85-.Ltext0
 11959 083c A80A     		.uleb128 .LVL87-.Ltext0
 11960 083e 01       		.uleb128 0x1
 11961 083f 51       		.byte	0x51
 11962 0840 04       		.byte	0x4
 11963 0841 A80A     		.uleb128 .LVL87-.Ltext0
 11964 0843 950B     		.uleb128 .LVL102-.Ltext0
 11965 0845 01       		.uleb128 0x1
 11966 0846 55       		.byte	0x55
 11967 0847 04       		.byte	0x4
 11968 0848 950B     		.uleb128 .LVL102-.Ltext0
 11969 084a 9B0B     		.uleb128 .LFE11-.Ltext0
 11970 084c 04       		.uleb128 0x4
 11971 084d A3       		.byte	0xa3
 11972 084e 01       		.uleb128 0x1
 11973 084f 51       		.byte	0x51
 11974 0850 9F       		.byte	0x9f
 11975 0851 00       		.byte	0
 11976              	.LVUS38:
 11977 0852 00       		.uleb128 0
 11978 0853 00       		.uleb128 .LVU208
 11979 0854 00       		.uleb128 .LVU208
 11980 0855 00       		.uleb128 .LVU228
 11981 0856 00       		.uleb128 .LVU228
 11982 0857 00       		.uleb128 0
 11983              	.LLST38:
 11984 0858 04       		.byte	0x4
 11985 0859 8C0A     		.uleb128 .LVL85-.Ltext0
 11986 085b A80A     		.uleb128 .LVL87-.Ltext0
 11987 085d 01       		.uleb128 0x1
 11988 085e 58       		.byte	0x58
 11989 085f 04       		.byte	0x4
 11990 0860 A80A     		.uleb128 .LVL87-.Ltext0
 11991 0862 940B     		.uleb128 .LVL101-.Ltext0
 11992 0864 01       		.uleb128 0x1
 11993 0865 54       		.byte	0x54
 11994 0866 04       		.byte	0x4
 11995 0867 940B     		.uleb128 .LVL101-.Ltext0
 11996 0869 9B0B     		.uleb128 .LFE11-.Ltext0
 11997 086b 04       		.uleb128 0x4
 11998 086c A3       		.byte	0xa3
 11999 086d 01       		.uleb128 0x1
 12000 086e 58       		.byte	0x58
 12001 086f 9F       		.byte	0x9f
 12002 0870 00       		.byte	0
 12003              	.LVUS39:
 12004 0871 02       		.uleb128 .LVU206
 12005 0872 00       		.uleb128 .LVU208
 12006 0873 00       		.uleb128 .LVU208
 12007 0874 00       		.uleb128 .LVU227
 12008              	.LLST39:
 12009 0875 04       		.byte	0x4
 12010 0876 A10A     		.uleb128 .LVL86-.Ltext0
 12011 0878 A80A     		.uleb128 .LVL87-.Ltext0
 12012 087a 02       		.uleb128 0x2
 12013 087b 30       		.byte	0x30
 12014 087c 9F       		.byte	0x9f
 12015 087d 04       		.byte	0x4
 12016 087e A80A     		.uleb128 .LVL87-.Ltext0
 12017 0880 930B     		.uleb128 .LVL100-.Ltext0
 12018 0882 01       		.uleb128 0x1
 12019 0883 53       		.byte	0x53
 12020 0884 00       		.byte	0
 12021              	.LVUS40:
 12022 0885 00       		.uleb128 .LVU212
 12023 0886 00       		.uleb128 .LVU214
 12024 0887 00       		.uleb128 .LVU214
 12025 0888 00       		.uleb128 .LVU225
 12026              	.LLST40:
 12027 0889 04       		.byte	0x4
 12028 088a BA0A     		.uleb128 .LVL89-.Ltext0
 12029 088c BE0A     		.uleb128 .LVL90-1-.Ltext0
 12030 088e 01       		.uleb128 0x1
 12031 088f 51       		.byte	0x51
 12032 0890 04       		.byte	0x4
 12033 0891 BE0A     		.uleb128 .LVL90-1-.Ltext0
 12034 0893 880B     		.uleb128 .LVL99-.Ltext0
 12035 0895 01       		.uleb128 0x1
 12036 0896 5C       		.byte	0x5c
 12037 0897 00       		.byte	0
 12038              	.LVUS41:
 12039 0898 00       		.uleb128 .LVU216
 12040 0899 00       		.uleb128 .LVU218
 12041 089a 00       		.uleb128 .LVU218
 12042 089b 00       		.uleb128 .LVU225
 12043              	.LLST41:
 12044 089c 04       		.byte	0x4
 12045 089d CC0A     		.uleb128 .LVL91-.Ltext0
 12046 089f D00A     		.uleb128 .LVL92-1-.Ltext0
 12047 08a1 01       		.uleb128 0x1
 12048 08a2 51       		.byte	0x51
 12049 08a3 04       		.byte	0x4
 12050 08a4 D00A     		.uleb128 .LVL92-1-.Ltext0
 12051 08a6 880B     		.uleb128 .LVL99-.Ltext0
 12052 08a8 01       		.uleb128 0x1
 12053 08a9 5D       		.byte	0x5d
 12054 08aa 00       		.byte	0
 12055              	.LVUS42:
 12056 08ab 00       		.uleb128 .LVU219
 12057 08ac 00       		.uleb128 .LVU220
 12058 08ad 00       		.uleb128 .LVU220
 12059 08ae 00       		.uleb128 .LVU221
 12060              	.LLST42:
 12061 08af 04       		.byte	0x4
 12062 08b0 D40A     		.uleb128 .LVL93-.Ltext0
 12063 08b2 D80A     		.uleb128 .LVL94-.Ltext0
 12064 08b4 01       		.uleb128 0x1
 12065 08b5 50       		.byte	0x50
 12066 08b6 04       		.byte	0x4
 12067 08b7 D80A     		.uleb128 .LVL94-.Ltext0
 12068 08b9 DD0A     		.uleb128 .LVL95-1-.Ltext0
 12069 08bb 01       		.uleb128 0x1
 12070 08bc 51       		.byte	0x51
 12071 08bd 00       		.byte	0
 12072              	.LVUS24:
 12073 08be 00       		.uleb128 0
 12074 08bf 00       		.uleb128 .LVU159
 12075 08c0 00       		.uleb128 .LVU159
 12076 08c1 00       		.uleb128 0
 12077              	.LLST24:
 12078 08c2 04       		.byte	0x4
 12079 08c3 8508     		.uleb128 .LVL56-.Ltext0
 12080 08c5 B508     		.uleb128 .LVL61-.Ltext0
 12081 08c7 01       		.uleb128 0x1
 12082 08c8 52       		.byte	0x52
 12083 08c9 04       		.byte	0x4
 12084 08ca B508     		.uleb128 .LVL61-.Ltext0
 12085 08cc 8C0A     		.uleb128 .LFE10-.Ltext0
 12086 08ce 04       		.uleb128 0x4
 12087 08cf A3       		.byte	0xa3
 12088 08d0 01       		.uleb128 0x1
 12089 08d1 52       		.byte	0x52
 12090 08d2 9F       		.byte	0x9f
 12091 08d3 00       		.byte	0
 12092              	.LVUS25:
 12093 08d4 00       		.uleb128 0
 12094 08d5 00       		.uleb128 .LVU156
 12095 08d6 00       		.uleb128 .LVU156
 12096 08d7 00       		.uleb128 .LVU199
 12097 08d8 00       		.uleb128 .LVU199
 12098 08d9 00       		.uleb128 0
 12099              	.LLST25:
 12100 08da 04       		.byte	0x4
 12101 08db 8508     		.uleb128 .LVL56-.Ltext0
 12102 08dd A808     		.uleb128 .LVL58-.Ltext0
 12103 08df 01       		.uleb128 0x1
 12104 08e0 51       		.byte	0x51
 12105 08e1 04       		.byte	0x4
 12106 08e2 A808     		.uleb128 .LVL58-.Ltext0
 12107 08e4 850A     		.uleb128 .LVL82-.Ltext0
 12108 08e6 01       		.uleb128 0x1
 12109 08e7 56       		.byte	0x56
 12110 08e8 04       		.byte	0x4
 12111 08e9 850A     		.uleb128 .LVL82-.Ltext0
 12112 08eb 8C0A     		.uleb128 .LFE10-.Ltext0
 12113 08ed 04       		.uleb128 0x4
 12114 08ee A3       		.byte	0xa3
 12115 08ef 01       		.uleb128 0x1
 12116 08f0 51       		.byte	0x51
 12117 08f1 9F       		.byte	0x9f
 12118 08f2 00       		.byte	0
 12119              	.LVUS26:
 12120 08f3 00       		.uleb128 0
 12121 08f4 00       		.uleb128 .LVU158
 12122 08f5 00       		.uleb128 .LVU158
 12123 08f6 00       		.uleb128 .LVU200
 12124 08f7 00       		.uleb128 .LVU200
 12125 08f8 00       		.uleb128 0
 12126              	.LLST26:
 12127 08f9 04       		.byte	0x4
 12128 08fa 8508     		.uleb128 .LVL56-.Ltext0
 12129 08fc B208     		.uleb128 .LVL60-.Ltext0
 12130 08fe 01       		.uleb128 0x1
 12131 08ff 58       		.byte	0x58
 12132 0900 04       		.byte	0x4
 12133 0901 B208     		.uleb128 .LVL60-.Ltext0
 12134 0903 870A     		.uleb128 .LVL83-.Ltext0
 12135 0905 01       		.uleb128 0x1
 12136 0906 5C       		.byte	0x5c
 12137 0907 04       		.byte	0x4
 12138 0908 870A     		.uleb128 .LVL83-.Ltext0
 12139 090a 8C0A     		.uleb128 .LFE10-.Ltext0
 12140 090c 04       		.uleb128 0x4
 12141 090d A3       		.byte	0xa3
 12142 090e 01       		.uleb128 0x1
 12143 090f 58       		.byte	0x58
 12144 0910 9F       		.byte	0x9f
 12145 0911 00       		.byte	0
 12146              	.LVUS27:
 12147 0912 00       		.uleb128 0
 12148 0913 00       		.uleb128 .LVU157
 12149 0914 00       		.uleb128 .LVU157
 12150 0915 00       		.uleb128 .LVU201
 12151 0916 00       		.uleb128 .LVU201
 12152 0917 00       		.uleb128 0
 12153              	.LLST27:
 12154 0918 04       		.byte	0x4
 12155 0919 8508     		.uleb128 .LVL56-.Ltext0
 12156 091b AD08     		.uleb128 .LVL59-.Ltext0
 12157 091d 01       		.uleb128 0x1
 12158 091e 59       		.byte	0x59
 12159 091f 04       		.byte	0x4
 12160 0920 AD08     		.uleb128 .LVL59-.Ltext0
 12161 0922 890A     		.uleb128 .LVL84-.Ltext0
 12162 0924 01       		.uleb128 0x1
 12163 0925 5D       		.byte	0x5d
 12164 0926 04       		.byte	0x4
 12165 0927 890A     		.uleb128 .LVL84-.Ltext0
 12166 0929 8C0A     		.uleb128 .LFE10-.Ltext0
 12167 092b 04       		.uleb128 0x4
 12168 092c A3       		.byte	0xa3
 12169 092d 01       		.uleb128 0x1
 12170 092e 59       		.byte	0x59
 12171 092f 9F       		.byte	0x9f
 12172 0930 00       		.byte	0
 12173              	.LVUS28:
 12174 0931 00       		.uleb128 .LVU150
 12175 0932 00       		.uleb128 .LVU198
 12176              	.LLST28:
 12177 0933 04       		.byte	0x4
 12178 0934 A008     		.uleb128 .LVL57-.Ltext0
 12179 0936 830A     		.uleb128 .LVL81-.Ltext0
 12180 0938 01       		.uleb128 0x1
 12181 0939 54       		.byte	0x54
 12182 093a 00       		.byte	0
 12183              	.LVUS29:
 12184 093b 00       		.uleb128 .LVU165
 12185 093c 00       		.uleb128 .LVU171
 12186 093d 00       		.uleb128 .LVU177
 12187 093e 00       		.uleb128 .LVU193
 12188              	.LLST29:
 12189 093f 04       		.byte	0x4
 12190 0940 D508     		.uleb128 .LVL64-.Ltext0
 12191 0942 FA08     		.uleb128 .LVL70-.Ltext0
 12192 0944 01       		.uleb128 0x1
 12193 0945 53       		.byte	0x53
 12194 0946 04       		.byte	0x4
 12195 0947 9C09     		.uleb128 .LVL72-.Ltext0
 12196 0949 DD09     		.uleb128 .LVL77-.Ltext0
 12197 094b 01       		.uleb128 0x1
 12198 094c 53       		.byte	0x53
 12199 094d 00       		.byte	0
 12200              	.LVUS30:
 12201 094e 00       		.uleb128 .LVU165
 12202 094f 00       		.uleb128 .LVU171
 12203 0950 00       		.uleb128 .LVU182
 12204 0951 00       		.uleb128 .LVU192
 12205              	.LLST30:
 12206 0952 04       		.byte	0x4
 12207 0953 D508     		.uleb128 .LVL64-.Ltext0
 12208 0955 FA08     		.uleb128 .LVL70-.Ltext0
 12209 0957 01       		.uleb128 0x1
 12210 0958 5E       		.byte	0x5e
 12211 0959 04       		.byte	0x4
 12212 095a BC09     		.uleb128 .LVL74-.Ltext0
 12213 095c D809     		.uleb128 .LVL76-.Ltext0
 12214 095e 01       		.uleb128 0x1
 12215 095f 5E       		.byte	0x5e
 12216 0960 00       		.byte	0
 12217              	.LVUS31:
 12218 0961 00       		.uleb128 .LVU160
 12219 0962 00       		.uleb128 .LVU164
 12220              	.LLST31:
 12221 0963 04       		.byte	0x4
 12222 0964 B808     		.uleb128 .LVL62-.Ltext0
 12223 0966 CF08     		.uleb128 .LVL63-1-.Ltext0
 12224 0968 01       		.uleb128 0x1
 12225 0969 50       		.byte	0x50
 12226 096a 00       		.byte	0
 12227              	.LVUS33:
 12228 096b 00       		.uleb128 .LVU165
 12229 096c 00       		.uleb128 .LVU197
 12230              	.LLST33:
 12231 096d 04       		.byte	0x4
 12232 096e D508     		.uleb128 .LVL64-.Ltext0
 12233 0970 FD09     		.uleb128 .LVL80-.Ltext0
 12234 0972 01       		.uleb128 0x1
 12235 0973 55       		.byte	0x55
 12236 0974 00       		.byte	0
 12237              	.LVUS35:
 12238 0975 00       		.uleb128 .LVU167
 12239 0976 00       		.uleb128 .LVU168
 12240              	.LLST35:
 12241 0977 04       		.byte	0x4
 12242 0978 DD08     		.uleb128 .LVL66-.Ltext0
 12243 097a E208     		.uleb128 .LVL67-1-.Ltext0
 12244 097c 01       		.uleb128 0x1
 12245 097d 50       		.byte	0x50
 12246 097e 00       		.byte	0
 12247              	.LVUS8:
 12248 097f 00       		.uleb128 0
 12249 0980 00       		.uleb128 .LVU93
 12250 0981 00       		.uleb128 .LVU93
 12251 0982 00       		.uleb128 0
 12252              	.LLST8:
 12253 0983 04       		.byte	0x4
 12254 0984 BC04     		.uleb128 .LVL30-.Ltext0
 12255 0986 EA04     		.uleb128 .LVL32-.Ltext0
 12256 0988 01       		.uleb128 0x1
 12257 0989 52       		.byte	0x52
 12258 098a 04       		.byte	0x4
 12259 098b EA04     		.uleb128 .LVL32-.Ltext0
 12260 098d 8508     		.uleb128 .LFE9-.Ltext0
 12261 098f 04       		.uleb128 0x4
 12262 0990 A3       		.byte	0xa3
 12263 0991 01       		.uleb128 0x1
 12264 0992 52       		.byte	0x52
 12265 0993 9F       		.byte	0x9f
 12266 0994 00       		.byte	0
 12267              	.LVUS9:
 12268 0995 00       		.uleb128 .LVU89
 12269 0996 00       		.uleb128 .LVU145
 12270              	.LLST9:
 12271 0997 04       		.byte	0x4
 12272 0998 CF04     		.uleb128 .LVL31-.Ltext0
 12273 099a FE07     		.uleb128 .LVL55-.Ltext0
 12274 099c 01       		.uleb128 0x1
 12275 099d 54       		.byte	0x54
 12276 099e 00       		.byte	0
 12277              	.LVUS10:
 12278 099f 00       		.uleb128 .LVU94
 12279 09a0 00       		.uleb128 .LVU107
 12280              	.LLST10:
 12281 09a1 04       		.byte	0x4
 12282 09a2 ED04     		.uleb128 .LVL33-.Ltext0
 12283 09a4 A806     		.uleb128 .LVL37-1-.Ltext0
 12284 09a6 01       		.uleb128 0x1
 12285 09a7 50       		.byte	0x50
 12286 09a8 00       		.byte	0
 12287              	.LVUS11:
 12288 09a9 00       		.uleb128 .LVU110
 12289 09aa 00       		.uleb128 .LVU115
 12290 09ab 00       		.uleb128 .LVU117
 12291 09ac 00       		.uleb128 .LVU126
 12292              	.LLST11:
 12293 09ad 04       		.byte	0x4
 12294 09ae BA06     		.uleb128 .LVL39-.Ltext0
 12295 09b0 C706     		.uleb128 .LVL41-.Ltext0
 12296 09b2 01       		.uleb128 0x1
 12297 09b3 56       		.byte	0x56
 12298 09b4 04       		.byte	0x4
 12299 09b5 CE06     		.uleb128 .LVL42-.Ltext0
 12300 09b7 9A07     		.uleb128 .LVL48-.Ltext0
 12301 09b9 01       		.uleb128 0x1
 12302 09ba 56       		.byte	0x56
 12303 09bb 00       		.byte	0
 12304              	.LVUS12:
 12305 09bc 02       		.uleb128 .LVU98
 12306 09bd 00       		.uleb128 .LVU105
 12307 09be 00       		.uleb128 .LVU108
 12308 09bf 00       		.uleb128 .LVU144
 12309              	.LLST12:
 12310 09c0 04       		.byte	0x4
 12311 09c1 F604     		.uleb128 .LVL34-.Ltext0
 12312 09c3 9D06     		.uleb128 .LVL36-.Ltext0
 12313 09c5 02       		.uleb128 0x2
 12314 09c6 37       		.byte	0x37
 12315 09c7 9F       		.byte	0x9f
 12316 09c8 04       		.byte	0x4
 12317 09c9 AE06     		.uleb128 .LVL38-.Ltext0
 12318 09cb F507     		.uleb128 .LVL54-.Ltext0
 12319 09cd 02       		.uleb128 0x2
 12320 09ce 37       		.byte	0x37
 12321 09cf 9F       		.byte	0x9f
 12322 09d0 00       		.byte	0
 12323              	.LVUS13:
 12324 09d1 01       		.uleb128 .LVU101
 12325 09d2 00       		.uleb128 .LVU105
 12326 09d3 00       		.uleb128 .LVU108
 12327 09d4 00       		.uleb128 .LVU144
 12328              	.LLST13:
 12329 09d5 04       		.byte	0x4
 12330 09d6 9206     		.uleb128 .LVL35-.Ltext0
 12331 09d8 9D06     		.uleb128 .LVL36-.Ltext0
 12332 09da 02       		.uleb128 0x2
 12333 09db 40       		.byte	0x40
 12334 09dc 9F       		.byte	0x9f
 12335 09dd 04       		.byte	0x4
 12336 09de AE06     		.uleb128 .LVL38-.Ltext0
 12337 09e0 F507     		.uleb128 .LVL54-.Ltext0
 12338 09e2 02       		.uleb128 0x2
 12339 09e3 40       		.byte	0x40
 12340 09e4 9F       		.byte	0x9f
 12341 09e5 00       		.byte	0
 12342              	.LVUS15:
 12343 09e6 03       		.uleb128 .LVU103
 12344 09e7 00       		.uleb128 .LVU105
 12345 09e8 00       		.uleb128 .LVU108
 12346 09e9 00       		.uleb128 .LVU144
 12347              	.LLST15:
 12348 09ea 04       		.byte	0x4
 12349 09eb 9206     		.uleb128 .LVL35-.Ltext0
 12350 09ed 9D06     		.uleb128 .LVL36-.Ltext0
 12351 09ef 02       		.uleb128 0x2
 12352 09f0 30       		.byte	0x30
 12353 09f1 9F       		.byte	0x9f
 12354 09f2 04       		.byte	0x4
 12355 09f3 AE06     		.uleb128 .LVL38-.Ltext0
 12356 09f5 F507     		.uleb128 .LVL54-.Ltext0
 12357 09f7 01       		.uleb128 0x1
 12358 09f8 5D       		.byte	0x5d
 12359 09f9 00       		.byte	0
 12360              	.LVUS17:
 12361 09fa 00       		.uleb128 .LVU108
 12362 09fb 00       		.uleb128 .LVU134
 12363 09fc 00       		.uleb128 .LVU137
 12364 09fd 00       		.uleb128 .LVU138
 12365 09fe 00       		.uleb128 .LVU138
 12366 09ff 00       		.uleb128 .LVU142
 12367              	.LLST17:
 12368 0a00 04       		.byte	0x4
 12369 0a01 AE06     		.uleb128 .LVL38-.Ltext0
 12370 0a03 D007     		.uleb128 .LVL50-.Ltext0
 12371 0a05 0A       		.uleb128 0xa
 12372 0a06 7D       		.byte	0x7d
 12373 0a07 00       		.sleb128 0
 12374 0a08 33       		.byte	0x33
 12375 0a09 24       		.byte	0x24
 12376 0a0a 91       		.byte	0x91
 12377 0a0b 00       		.sleb128 0
 12378 0a0c 22       		.byte	0x22
 12379 0a0d 08       		.byte	0x8
 12380 0a0e D0       		.byte	0xd0
 12381 0a0f 1C       		.byte	0x1c
 12382 0a10 04       		.byte	0x4
 12383 0a11 DB07     		.uleb128 .LVL51-.Ltext0
 12384 0a13 E007     		.uleb128 .LVL52-1-.Ltext0
 12385 0a15 01       		.uleb128 0x1
 12386 0a16 51       		.byte	0x51
 12387 0a17 04       		.byte	0x4
 12388 0a18 E007     		.uleb128 .LVL52-1-.Ltext0
 12389 0a1a E907     		.uleb128 .LVL53-.Ltext0
 12390 0a1c 0A       		.uleb128 0xa
 12391 0a1d 7D       		.byte	0x7d
 12392 0a1e 00       		.sleb128 0
 12393 0a1f 33       		.byte	0x33
 12394 0a20 24       		.byte	0x24
 12395 0a21 91       		.byte	0x91
 12396 0a22 00       		.sleb128 0
 12397 0a23 22       		.byte	0x22
 12398 0a24 08       		.byte	0x8
 12399 0a25 D0       		.byte	0xd0
 12400 0a26 1C       		.byte	0x1c
 12401 0a27 00       		.byte	0
 12402              	.LVUS19:
 12403 0a28 00       		.uleb128 .LVU108
 12404 0a29 00       		.uleb128 .LVU134
 12405 0a2a 02       		.uleb128 .LVU140
 12406 0a2b 00       		.uleb128 .LVU142
 12407              	.LLST19:
 12408 0a2c 04       		.byte	0x4
 12409 0a2d AE06     		.uleb128 .LVL38-.Ltext0
 12410 0a2f D007     		.uleb128 .LVL50-.Ltext0
 12411 0a31 01       		.uleb128 0x1
 12412 0a32 5C       		.byte	0x5c
 12413 0a33 04       		.byte	0x4
 12414 0a34 E107     		.uleb128 .LVL52-.Ltext0
 12415 0a36 E907     		.uleb128 .LVL53-.Ltext0
 12416 0a38 02       		.uleb128 0x2
 12417 0a39 30       		.byte	0x30
 12418 0a3a 9F       		.byte	0x9f
 12419 0a3b 00       		.byte	0
 12420              	.LVUS21:
 12421 0a3c 02       		.uleb128 .LVU113
 12422 0a3d 00       		.uleb128 .LVU115
 12423 0a3e 00       		.uleb128 .LVU117
 12424 0a3f 00       		.uleb128 .LVU126
 12425              	.LLST21:
 12426 0a40 04       		.byte	0x4
 12427 0a41 C006     		.uleb128 .LVL40-.Ltext0
 12428 0a43 C706     		.uleb128 .LVL41-.Ltext0
 12429 0a45 02       		.uleb128 0x2
 12430 0a46 30       		.byte	0x30
 12431 0a47 9F       		.byte	0x9f
 12432 0a48 04       		.byte	0x4
 12433 0a49 CE06     		.uleb128 .LVL42-.Ltext0
 12434 0a4b 9A07     		.uleb128 .LVL48-.Ltext0
 12435 0a4d 01       		.uleb128 0x1
 12436 0a4e 55       		.byte	0x55
 12437 0a4f 00       		.byte	0
 12438              	.LVUS23:
 12439 0a50 00       		.uleb128 .LVU117
 12440 0a51 00       		.uleb128 .LVU122
 12441              	.LLST23:
 12442 0a52 04       		.byte	0x4
 12443 0a53 CE06     		.uleb128 .LVL42-.Ltext0
 12444 0a55 FB06     		.uleb128 .LVL46-.Ltext0
 12445 0a57 01       		.uleb128 0x1
 12446 0a58 53       		.byte	0x53
 12447 0a59 00       		.byte	0
 12448              	.LVUS6:
 12449 0a5a 00       		.uleb128 .LVU69
 12450 0a5b 00       		.uleb128 .LVU79
 12451 0a5c 00       		.uleb128 .LVU80
 12452 0a5d 00       		.uleb128 .LVU84
 12453              	.LLST6:
 12454 0a5e 04       		.byte	0x4
 12455 0a5f EF03     		.uleb128 .LVL21-.Ltext0
 12456 0a61 9404     		.uleb128 .LVL26-.Ltext0
 12457 0a63 01       		.uleb128 0x1
 12458 0a64 54       		.byte	0x54
 12459 0a65 04       		.byte	0x4
 12460 0a66 9504     		.uleb128 .LVL27-.Ltext0
 12461 0a68 BA04     		.uleb128 .LVL29-.Ltext0
 12462 0a6a 01       		.uleb128 0x1
 12463 0a6b 54       		.byte	0x54
 12464 0a6c 00       		.byte	0
 12465              	.LVUS7:
 12466 0a6d 00       		.uleb128 .LVU72
 12467 0a6e 00       		.uleb128 .LVU78
 12468 0a6f 00       		.uleb128 .LVU80
 12469 0a70 00       		.uleb128 0
 12470              	.LLST7:
 12471 0a71 04       		.byte	0x4
 12472 0a72 FC03     		.uleb128 .LVL23-.Ltext0
 12473 0a74 9304     		.uleb128 .LVL25-.Ltext0
 12474 0a76 01       		.uleb128 0x1
 12475 0a77 53       		.byte	0x53
 12476 0a78 04       		.byte	0x4
 12477 0a79 9504     		.uleb128 .LVL27-.Ltext0
 12478 0a7b BC04     		.uleb128 .LFE8-.Ltext0
 12479 0a7d 01       		.uleb128 0x1
 12480 0a7e 53       		.byte	0x53
 12481 0a7f 00       		.byte	0
 12482              	.LVUS1:
 12483 0a80 00       		.uleb128 0
 12484 0a81 00       		.uleb128 .LVU11
 12485 0a82 00       		.uleb128 .LVU11
 12486 0a83 00       		.uleb128 .LVU21
 12487 0a84 00       		.uleb128 .LVU21
 12488 0a85 00       		.uleb128 .LVU22
 12489 0a86 00       		.uleb128 .LVU22
 12490 0a87 00       		.uleb128 0
 12491              	.LLST1:
 12492 0a88 04       		.byte	0x4
 12493 0a89 15       		.uleb128 .LVL4-.Ltext0
 12494 0a8a 38       		.uleb128 .LVL5-.Ltext0
 12495 0a8b 01       		.uleb128 0x1
 12496 0a8c 52       		.byte	0x52
 12497 0a8d 04       		.byte	0x4
 12498 0a8e 38       		.uleb128 .LVL5-.Ltext0
 12499 0a8f 58       		.uleb128 .LVL7-.Ltext0
 12500 0a90 04       		.uleb128 0x4
 12501 0a91 A3       		.byte	0xa3
 12502 0a92 01       		.uleb128 0x1
 12503 0a93 52       		.byte	0x52
 12504 0a94 9F       		.byte	0x9f
 12505 0a95 04       		.byte	0x4
 12506 0a96 58       		.uleb128 .LVL7-.Ltext0
 12507 0a97 61       		.uleb128 .LVL8-.Ltext0
 12508 0a98 01       		.uleb128 0x1
 12509 0a99 52       		.byte	0x52
 12510 0a9a 04       		.byte	0x4
 12511 0a9b 61       		.uleb128 .LVL8-.Ltext0
 12512 0a9c DA01     		.uleb128 .LFE5-.Ltext0
 12513 0a9e 04       		.uleb128 0x4
 12514 0a9f A3       		.byte	0xa3
 12515 0aa0 01       		.uleb128 0x1
 12516 0aa1 52       		.byte	0x52
 12517 0aa2 9F       		.byte	0x9f
 12518 0aa3 00       		.byte	0
 12519              	.LVUS2:
 12520 0aa4 00       		.uleb128 .LVU13
 12521 0aa5 00       		.uleb128 .LVU21
 12522 0aa6 00       		.uleb128 .LVU23
 12523 0aa7 00       		.uleb128 .LVU43
 12524              	.LLST2:
 12525 0aa8 04       		.byte	0x4
 12526 0aa9 48       		.uleb128 .LVL6-.Ltext0
 12527 0aaa 58       		.uleb128 .LVL7-.Ltext0
 12528 0aab 01       		.uleb128 0x1
 12529 0aac 68       		.byte	0x68
 12530 0aad 04       		.byte	0x4
 12531 0aae 73       		.uleb128 .LVL9-.Ltext0
 12532 0aaf CE01     		.uleb128 .LVL17-.Ltext0
 12533 0ab1 01       		.uleb128 0x1
 12534 0ab2 68       		.byte	0x68
 12535 0ab3 00       		.byte	0
 12536              	.LVUS3:
 12537 0ab4 01       		.uleb128 .LVU14
 12538 0ab5 00       		.uleb128 .LVU21
 12539 0ab6 00       		.uleb128 .LVU23
 12540 0ab7 00       		.uleb128 .LVU42
 12541              	.LLST3:
 12542 0ab8 04       		.byte	0x4
 12543 0ab9 48       		.uleb128 .LVL6-.Ltext0
 12544 0aba 58       		.uleb128 .LVL7-.Ltext0
 12545 0abb 01       		.uleb128 0x1
 12546 0abc 68       		.byte	0x68
 12547 0abd 04       		.byte	0x4
 12548 0abe 73       		.uleb128 .LVL9-.Ltext0
 12549 0abf C901     		.uleb128 .LVL16-.Ltext0
 12550 0ac1 01       		.uleb128 0x1
 12551 0ac2 67       		.byte	0x67
 12552 0ac3 00       		.byte	0
 12553              	.LVUS4:
 12554 0ac4 02       		.uleb128 .LVU15
 12555 0ac5 00       		.uleb128 .LVU21
 12556 0ac6 00       		.uleb128 .LVU23
 12557 0ac7 00       		.uleb128 .LVU40
 12558              	.LLST4:
 12559 0ac8 04       		.byte	0x4
 12560 0ac9 48       		.uleb128 .LVL6-.Ltext0
 12561 0aca 58       		.uleb128 .LVL7-.Ltext0
 12562 0acb 0A       		.uleb128 0xa
 12563 0acc 9E       		.byte	0x9e
 12564 0acd 08       		.uleb128 0x8
 12565 0ace 00000000 		.long	0
 12566 0ad2 00000000 		.long	0
 12567 0ad6 04       		.byte	0x4
 12568 0ad7 73       		.uleb128 .LVL9-.Ltext0
 12569 0ad8 BF01     		.uleb128 .LVL15-.Ltext0
 12570 0ada 01       		.uleb128 0x1
 12571 0adb 69       		.byte	0x69
 12572 0adc 00       		.byte	0
 12573              	.LVUS5:
 12574 0add 03       		.uleb128 .LVU16
 12575 0ade 00       		.uleb128 .LVU21
 12576 0adf 00       		.uleb128 .LVU23
 12577 0ae0 00       		.uleb128 .LVU27
 12578 0ae1 00       		.uleb128 .LVU27
 12579 0ae2 00       		.uleb128 .LVU35
 12580 0ae3 00       		.uleb128 .LVU35
 12581 0ae4 00       		.uleb128 .LVU44
 12582              	.LLST5:
 12583 0ae5 04       		.byte	0x4
 12584 0ae6 48       		.uleb128 .LVL6-.Ltext0
 12585 0ae7 58       		.uleb128 .LVL7-.Ltext0
 12586 0ae8 02       		.uleb128 0x2
 12587 0ae9 31       		.byte	0x31
 12588 0aea 9F       		.byte	0x9f
 12589 0aeb 04       		.byte	0x4
 12590 0aec 73       		.uleb128 .LVL9-.Ltext0
 12591 0aed 7B       		.uleb128 .LVL11-.Ltext0
 12592 0aee 01       		.uleb128 0x1
 12593 0aef 53       		.byte	0x53
 12594 0af0 04       		.byte	0x4
 12595 0af1 7B       		.uleb128 .LVL11-.Ltext0
 12596 0af2 A301     		.uleb128 .LVL13-.Ltext0
 12597 0af4 01       		.uleb128 0x1
 12598 0af5 50       		.byte	0x50
 12599 0af6 04       		.byte	0x4
 12600 0af7 A301     		.uleb128 .LVL13-.Ltext0
 12601 0af9 D901     		.uleb128 .LVL18-.Ltext0
 12602 0afb 01       		.uleb128 0x1
 12603 0afc 53       		.byte	0x53
 12604 0afd 00       		.byte	0
 12605              	.LVUS0:
 12606 0afe 00       		.uleb128 0
 12607 0aff 00       		.uleb128 .LVU4
 12608 0b00 00       		.uleb128 .LVU4
 12609 0b01 00       		.uleb128 .LVU5
 12610 0b02 00       		.uleb128 .LVU5
 12611 0b03 00       		.uleb128 .LVU6
 12612 0b04 00       		.uleb128 .LVU6
 12613 0b05 00       		.uleb128 0
 12614              	.LLST0:
 12615 0b06 04       		.byte	0x4
 12616 0b07 00       		.uleb128 .LVL0-.Ltext0
 12617 0b08 0A       		.uleb128 .LVL1-.Ltext0
 12618 0b09 01       		.uleb128 0x1
 12619 0b0a 61       		.byte	0x61
 12620 0b0b 04       		.byte	0x4
 12621 0b0c 0A       		.uleb128 .LVL1-.Ltext0
 12622 0b0d 0B       		.uleb128 .LVL2-.Ltext0
 12623 0b0e 07       		.uleb128 0x7
 12624 0b0f A3       		.byte	0xa3
 12625 0b10 04       		.uleb128 0x4
 12626 0b11 A5       		.byte	0xa5
 12627 0b12 11       		.uleb128 0x11
 12628 0b13 B202     		.uleb128 0x132
 12629 0b15 9F       		.byte	0x9f
 12630 0b16 04       		.byte	0x4
 12631 0b17 0B       		.uleb128 .LVL2-.Ltext0
 12632 0b18 13       		.uleb128 .LVL3-.Ltext0
 12633 0b19 01       		.uleb128 0x1
 12634 0b1a 61       		.byte	0x61
 12635 0b1b 04       		.byte	0x4
 12636 0b1c 13       		.uleb128 .LVL3-.Ltext0
 12637 0b1d 15       		.uleb128 .LFE2-.Ltext0
 12638 0b1e 07       		.uleb128 0x7
 12639 0b1f A3       		.byte	0xa3
 12640 0b20 04       		.uleb128 0x4
 12641 0b21 A5       		.byte	0xa5
 12642 0b22 11       		.uleb128 0x11
 12643 0b23 B202     		.uleb128 0x132
 12644 0b25 9F       		.byte	0x9f
 12645 0b26 00       		.byte	0
 12646              	.Ldebug_loc3:
 12647              		.section	.debug_aranges,"dr"
 12648 0000 2C000000 		.long	0x2c
 12649 0004 0200     		.word	0x2
 12650 0006 00000000 		.secrel32	.Ldebug_info0
 12651 000a 08       		.byte	0x8
 12652 000b 00       		.byte	0
 12653 000c 0000     		.word	0
 12654 000e 0000     		.word	0
 12655 0010 00000000 		.quad	.Ltext0
 12655      00000000 
 12656 0018 B20F0000 		.quad	.Letext0-.Ltext0
 12656      00000000 
 12657 0020 00000000 		.quad	0
 12657      00000000 
 12658 0028 00000000 		.quad	0
 12658      00000000 
 12659              		.section	.debug_rnglists,"dr"
 12660              	.Ldebug_ranges0:
 12661 0000 B8000000 		.long	.Ldebug_ranges3-.Ldebug_ranges2
 12662              	.Ldebug_ranges2:
 12663 0004 0500     		.word	0x5
 12664 0006 08       		.byte	0x8
 12665 0007 00       		.byte	0
 12666 0008 00000000 		.long	0
 12667              	.LLRL14:
 12668 000c 04       		.byte	0x4
 12669 000d 9206     		.uleb128 .LBB16-.Ltext0
 12670 000f 9D06     		.uleb128 .LBE16-.Ltext0
 12671 0011 04       		.byte	0x4
 12672 0012 AE06     		.uleb128 .LBB25-.Ltext0
 12673 0014 E907     		.uleb128 .LBE25-.Ltext0
 12674 0016 00       		.byte	0
 12675              	.LLRL16:
 12676 0017 04       		.byte	0x4
 12677 0018 AE06     		.uleb128 .LBB17-.Ltext0
 12678 001a CC07     		.uleb128 .LBE17-.Ltext0
 12679 001c 04       		.byte	0x4
 12680 001d D607     		.uleb128 .LBB24-.Ltext0
 12681 001f E907     		.uleb128 .LBE24-.Ltext0
 12682 0021 00       		.byte	0
 12683              	.LLRL18:
 12684 0022 04       		.byte	0x4
 12685 0023 AE06     		.uleb128 .LBB18-.Ltext0
 12686 0025 C207     		.uleb128 .LBE18-.Ltext0
 12687 0027 04       		.byte	0x4
 12688 0028 E107     		.uleb128 .LBB23-.Ltext0
 12689 002a E907     		.uleb128 .LBE23-.Ltext0
 12690 002c 00       		.byte	0
 12691              	.LLRL20:
 12692 002d 04       		.byte	0x4
 12693 002e C006     		.uleb128 .LBB19-.Ltext0
 12694 0030 C706     		.uleb128 .LBE19-.Ltext0
 12695 0032 04       		.byte	0x4
 12696 0033 CE06     		.uleb128 .LBB22-.Ltext0
 12697 0035 8C07     		.uleb128 .LBE22-.Ltext0
 12698 0037 00       		.byte	0
 12699              	.LLRL22:
 12700 0038 04       		.byte	0x4
 12701 0039 CE06     		.uleb128 .LBB20-.Ltext0
 12702 003b F706     		.uleb128 .LBE20-.Ltext0
 12703 003d 04       		.byte	0x4
 12704 003e 8507     		.uleb128 .LBB21-.Ltext0
 12705 0040 8C07     		.uleb128 .LBE21-.Ltext0
 12706 0042 00       		.byte	0
 12707              	.LLRL32:
 12708 0043 04       		.byte	0x4
 12709 0044 BD08     		.uleb128 .LBB26-.Ltext0
 12710 0046 C408     		.uleb128 .LBE26-.Ltext0
 12711 0048 04       		.byte	0x4
 12712 0049 D508     		.uleb128 .LBB29-.Ltext0
 12713 004b DD09     		.uleb128 .LBE29-.Ltext0
 12714 004d 00       		.byte	0
 12715              	.LLRL34:
 12716 004e 04       		.byte	0x4
 12717 004f D508     		.uleb128 .LBB27-.Ltext0
 12718 0051 F708     		.uleb128 .LBE27-.Ltext0
 12719 0053 04       		.byte	0x4
 12720 0054 FF08     		.uleb128 .LBB28-.Ltext0
 12721 0056 DD09     		.uleb128 .LBE28-.Ltext0
 12722 0058 00       		.byte	0
 12723              	.LLRL48:
 12724 0059 04       		.byte	0x4
 12725 005a C20B     		.uleb128 .LBB33-.Ltext0
 12726 005c BE0C     		.uleb128 .LBE33-.Ltext0
 12727 005e 04       		.byte	0x4
 12728 005f D20C     		.uleb128 .LBB35-.Ltext0
 12729 0061 D90C     		.uleb128 .LBE35-.Ltext0
 12730 0063 00       		.byte	0
 12731              	.LLRL71:
 12732 0064 04       		.byte	0x4
 12733 0065 A20F     		.uleb128 .LBB41-.Ltext0
 12734 0067 E90F     		.uleb128 .LBE41-.Ltext0
 12735 0069 04       		.byte	0x4
 12736 006a FD0F     		.uleb128 .LBB45-.Ltext0
 12737 006c 8410     		.uleb128 .LBE45-.Ltext0
 12738 006e 00       		.byte	0
 12739              	.LLRL73:
 12740 006f 04       		.byte	0x4
 12741 0070 A20F     		.uleb128 .LBB42-.Ltext0
 12742 0072 D90F     		.uleb128 .LBE42-.Ltext0
 12743 0074 04       		.byte	0x4
 12744 0075 E20F     		.uleb128 .LBB44-.Ltext0
 12745 0077 E90F     		.uleb128 .LBE44-.Ltext0
 12746 0079 00       		.byte	0
 12747              	.LLRL80:
 12748 007a 04       		.byte	0x4
 12749 007b B310     		.uleb128 .LBB47-.Ltext0
 12750 007d A611     		.uleb128 .LBE47-.Ltext0
 12751 007f 04       		.byte	0x4
 12752 0080 BA11     		.uleb128 .LBB50-.Ltext0
 12753 0082 C111     		.uleb128 .LBE50-.Ltext0
 12754 0084 00       		.byte	0
 12755              	.LLRL82:
 12756 0085 04       		.byte	0x4
 12757 0086 B310     		.uleb128 .LBB48-.Ltext0
 12758 0088 C710     		.uleb128 .LBE48-.Ltext0
 12759 008a 04       		.byte	0x4
 12760 008b D010     		.uleb128 .LBB49-.Ltext0
 12761 008d A611     		.uleb128 .LBE49-.Ltext0
 12762 008f 00       		.byte	0
 12763              	.LLRL100:
 12764 0090 04       		.byte	0x4
 12765 0091 C813     		.uleb128 .LBB56-.Ltext0
 12766 0093 EB14     		.uleb128 .LBE56-.Ltext0
 12767 0095 04       		.byte	0x4
 12768 0096 F514     		.uleb128 .LBB60-.Ltext0
 12769 0098 9115     		.uleb128 .LBE60-.Ltext0
 12770 009a 00       		.byte	0
 12771              	.LLRL102:
 12772 009b 04       		.byte	0x4
 12773 009c C813     		.uleb128 .LBB57-.Ltext0
 12774 009e 8C14     		.uleb128 .LBE57-.Ltext0
 12775 00a0 04       		.byte	0x4
 12776 00a1 8715     		.uleb128 .LBB59-.Ltext0
 12777 00a3 9115     		.uleb128 .LBE59-.Ltext0
 12778 00a5 00       		.byte	0
 12779              	.LLRL109:
 12780 00a6 04       		.byte	0x4
 12781 00a7 FA15     		.uleb128 .LBB62-.Ltext0
 12782 00a9 E916     		.uleb128 .LBE62-.Ltext0
 12783 00ab 04       		.byte	0x4
 12784 00ac 8117     		.uleb128 .LBB64-.Ltext0
 12785 00ae 8817     		.uleb128 .LBE64-.Ltext0
 12786 00b0 00       		.byte	0
 12787              	.LLRL140:
 12788 00b1 04       		.byte	0x4
 12789 00b2 9518     		.uleb128 .LBB80-.Ltext0
 12790 00b4 AD18     		.uleb128 .LBE80-.Ltext0
 12791 00b6 04       		.byte	0x4
 12792 00b7 BA18     		.uleb128 .LBB81-.Ltext0
 12793 00b9 BD1A     		.uleb128 .LBE81-.Ltext0
 12794 00bb 00       		.byte	0
 12795              	.Ldebug_ranges3:
 12796              		.section	.debug_macro,"dr"
 12797              	.Ldebug_macro0:
 12798 0000 0500     		.word	0x5
 12799 0002 02       		.byte	0x2
 12800 0003 00000000 		.secrel32	.Ldebug_line0
 12801 0007 01       		.byte	0x1
 12802 0008 00       		.uleb128 0
 12803 0009 5F5F5354 		.ascii "__STDC__ 1\0"
 12803      44435F5F 
 12803      203100
 12804 0014 01       		.byte	0x1
 12805 0015 00       		.uleb128 0
 12806 0016 5F5F5354 		.ascii "__STDC_VERSION__ 201112L\0"
 12806      44435F56 
 12806      45525349 
 12806      4F4E5F5F 
 12806      20323031 
 12807 002f 01       		.byte	0x1
 12808 0030 00       		.uleb128 0
 12809 0031 5F5F5354 		.ascii "__STDC_UTF_16__ 1\0"
 12809      44435F55 
 12809      54465F31 
 12809      365F5F20 
 12809      3100
 12810 0043 01       		.byte	0x1
 12811 0044 00       		.uleb128 0
 12812 0045 5F5F5354 		.ascii "__STDC_UTF_32__ 1\0"
 12812      44435F55 
 12812      54465F33 
 12812      325F5F20 
 12812      3100
 12813 0057 01       		.byte	0x1
 12814 0058 00       		.uleb128 0
 12815 0059 5F5F5354 		.ascii "__STDC_HOSTED__ 0\0"
 12815      44435F48 
 12815      4F535445 
 12815      445F5F20 
 12815      3000
 12816 006b 01       		.byte	0x1
 12817 006c 00       		.uleb128 0
 12818 006d 5F5F474E 		.ascii "__GNUC__ 14\0"
 12818      55435F5F 
 12818      20313400 
 12819 0079 01       		.byte	0x1
 12820 007a 00       		.uleb128 0
 12821 007b 5F5F474E 		.ascii "__GNUC_MINOR__ 2\0"
 12821      55435F4D 
 12821      494E4F52 
 12821      5F5F2032 
 12821      00
 12822 008c 01       		.byte	0x1
 12823 008d 00       		.uleb128 0
 12824 008e 5F5F474E 		.ascii "__GNUC_PATCHLEVEL__ 0\0"
 12824      55435F50 
 12824      41544348 
 12824      4C455645 
 12824      4C5F5F20 
 12825 00a4 01       		.byte	0x1
 12826 00a5 00       		.uleb128 0
 12827 00a6 5F5F5645 		.ascii "__VERSION__ \"14.2.0\"\0"
 12827      5253494F 
 12827      4E5F5F20 
 12827      2231342E 
 12827      322E3022 
 12828 00bb 01       		.byte	0x1
 12829 00bc 00       		.uleb128 0
 12830 00bd 5F5F4154 		.ascii "__ATOMIC_RELAXED 0\0"
 12830      4F4D4943 
 12830      5F52454C 
 12830      41584544 
 12830      203000
 12831 00d0 01       		.byte	0x1
 12832 00d1 00       		.uleb128 0
 12833 00d2 5F5F4154 		.ascii "__ATOMIC_SEQ_CST 5\0"
 12833      4F4D4943 
 12833      5F534551 
 12833      5F435354 
 12833      203500
 12834 00e5 01       		.byte	0x1
 12835 00e6 00       		.uleb128 0
 12836 00e7 5F5F4154 		.ascii "__ATOMIC_ACQUIRE 2\0"
 12836      4F4D4943 
 12836      5F414351 
 12836      55495245 
 12836      203200
 12837 00fa 01       		.byte	0x1
 12838 00fb 00       		.uleb128 0
 12839 00fc 5F5F4154 		.ascii "__ATOMIC_RELEASE 3\0"
 12839      4F4D4943 
 12839      5F52454C 
 12839      45415345 
 12839      203300
 12840 010f 01       		.byte	0x1
 12841 0110 00       		.uleb128 0
 12842 0111 5F5F4154 		.ascii "__ATOMIC_ACQ_REL 4\0"
 12842      4F4D4943 
 12842      5F414351 
 12842      5F52454C 
 12842      203400
 12843 0124 01       		.byte	0x1
 12844 0125 00       		.uleb128 0
 12845 0126 5F5F4154 		.ascii "__ATOMIC_CONSUME 1\0"
 12845      4F4D4943 
 12845      5F434F4E 
 12845      53554D45 
 12845      203100
 12846 0139 01       		.byte	0x1
 12847 013a 00       		.uleb128 0
 12848 013b 5F5F7069 		.ascii "__pic__ 1\0"
 12848      635F5F20 
 12848      3100
 12849 0145 01       		.byte	0x1
 12850 0146 00       		.uleb128 0
 12851 0147 5F5F5049 		.ascii "__PIC__ 1\0"
 12851      435F5F20 
 12851      3100
 12852 0151 01       		.byte	0x1
 12853 0152 00       		.uleb128 0
 12854 0153 5F5F4F50 		.ascii "__OPTIMIZE__ 1\0"
 12854      54494D49 
 12854      5A455F5F 
 12854      203100
 12855 0162 01       		.byte	0x1
 12856 0163 00       		.uleb128 0
 12857 0164 5F5F4649 		.ascii "__FINITE_MATH_ONLY__ 0\0"
 12857      4E495445 
 12857      5F4D4154 
 12857      485F4F4E 
 12857      4C595F5F 
 12858 017b 01       		.byte	0x1
 12859 017c 00       		.uleb128 0
 12860 017d 5F5F5349 		.ascii "__SIZEOF_INT__ 4\0"
 12860      5A454F46 
 12860      5F494E54 
 12860      5F5F2034 
 12860      00
 12861 018e 01       		.byte	0x1
 12862 018f 00       		.uleb128 0
 12863 0190 5F5F5349 		.ascii "__SIZEOF_LONG__ 4\0"
 12863      5A454F46 
 12863      5F4C4F4E 
 12863      475F5F20 
 12863      3400
 12864 01a2 01       		.byte	0x1
 12865 01a3 00       		.uleb128 0
 12866 01a4 5F5F5349 		.ascii "__SIZEOF_LONG_LONG__ 8\0"
 12866      5A454F46 
 12866      5F4C4F4E 
 12866      475F4C4F 
 12866      4E475F5F 
 12867 01bb 01       		.byte	0x1
 12868 01bc 00       		.uleb128 0
 12869 01bd 5F5F5349 		.ascii "__SIZEOF_SHORT__ 2\0"
 12869      5A454F46 
 12869      5F53484F 
 12869      52545F5F 
 12869      203200
 12870 01d0 01       		.byte	0x1
 12871 01d1 00       		.uleb128 0
 12872 01d2 5F5F5349 		.ascii "__SIZEOF_FLOAT__ 4\0"
 12872      5A454F46 
 12872      5F464C4F 
 12872      41545F5F 
 12872      203400
 12873 01e5 01       		.byte	0x1
 12874 01e6 00       		.uleb128 0
 12875 01e7 5F5F5349 		.ascii "__SIZEOF_DOUBLE__ 8\0"
 12875      5A454F46 
 12875      5F444F55 
 12875      424C455F 
 12875      5F203800 
 12876 01fb 01       		.byte	0x1
 12877 01fc 00       		.uleb128 0
 12878 01fd 5F5F5349 		.ascii "__SIZEOF_LONG_DOUBLE__ 16\0"
 12878      5A454F46 
 12878      5F4C4F4E 
 12878      475F444F 
 12878      55424C45 
 12879 0217 01       		.byte	0x1
 12880 0218 00       		.uleb128 0
 12881 0219 5F5F5349 		.ascii "__SIZEOF_SIZE_T__ 8\0"
 12881      5A454F46 
 12881      5F53495A 
 12881      455F545F 
 12881      5F203800 
 12882 022d 01       		.byte	0x1
 12883 022e 00       		.uleb128 0
 12884 022f 5F5F4348 		.ascii "__CHAR_BIT__ 8\0"
 12884      41525F42 
 12884      49545F5F 
 12884      203800
 12885 023e 01       		.byte	0x1
 12886 023f 00       		.uleb128 0
 12887 0240 5F5F4249 		.ascii "__BIGGEST_ALIGNMENT__ 16\0"
 12887      47474553 
 12887      545F414C 
 12887      49474E4D 
 12887      454E545F 
 12888 0259 01       		.byte	0x1
 12889 025a 00       		.uleb128 0
 12890 025b 5F5F4F52 		.ascii "__ORDER_LITTLE_ENDIAN__ 1234\0"
 12890      4445525F 
 12890      4C495454 
 12890      4C455F45 
 12890      4E444941 
 12891 0278 01       		.byte	0x1
 12892 0279 00       		.uleb128 0
 12893 027a 5F5F4F52 		.ascii "__ORDER_BIG_ENDIAN__ 4321\0"
 12893      4445525F 
 12893      4249475F 
 12893      454E4449 
 12893      414E5F5F 
 12894 0294 01       		.byte	0x1
 12895 0295 00       		.uleb128 0
 12896 0296 5F5F4F52 		.ascii "__ORDER_PDP_ENDIAN__ 3412\0"
 12896      4445525F 
 12896      5044505F 
 12896      454E4449 
 12896      414E5F5F 
 12897 02b0 01       		.byte	0x1
 12898 02b1 00       		.uleb128 0
 12899 02b2 5F5F4259 		.ascii "__BYTE_ORDER__ __ORDER_LITTLE_ENDIAN__\0"
 12899      54455F4F 
 12899      52444552 
 12899      5F5F205F 
 12899      5F4F5244 
 12900 02d9 01       		.byte	0x1
 12901 02da 00       		.uleb128 0
 12902 02db 5F5F464C 		.ascii "__FLOAT_WORD_ORDER__ __ORDER_LITTLE_ENDIAN__\0"
 12902      4F41545F 
 12902      574F5244 
 12902      5F4F5244 
 12902      45525F5F 
 12903 0308 01       		.byte	0x1
 12904 0309 00       		.uleb128 0
 12905 030a 5F5F5349 		.ascii "__SIZEOF_POINTER__ 8\0"
 12905      5A454F46 
 12905      5F504F49 
 12905      4E544552 
 12905      5F5F2038 
 12906 031f 01       		.byte	0x1
 12907 0320 00       		.uleb128 0
 12908 0321 5F5F474E 		.ascii "__GNUC_EXECUTION_CHARSET_NAME \"UTF-8\"\0"
 12908      55435F45 
 12908      58454355 
 12908      54494F4E 
 12908      5F434841 
 12909 0347 01       		.byte	0x1
 12910 0348 00       		.uleb128 0
 12911 0349 5F5F474E 		.ascii "__GNUC_WIDE_EXECUTION_CHARSET_NAME \"UTF-16LE\"\0"
 12911      55435F57 
 12911      4944455F 
 12911      45584543 
 12911      5554494F 
 12912 0377 01       		.byte	0x1
 12913 0378 00       		.uleb128 0
 12914 0379 5F5F5349 		.ascii "__SIZE_TYPE__ long long unsigned int\0"
 12914      5A455F54 
 12914      5950455F 
 12914      5F206C6F 
 12914      6E67206C 
 12915 039e 01       		.byte	0x1
 12916 039f 00       		.uleb128 0
 12917 03a0 5F5F5054 		.ascii "__PTRDIFF_TYPE__ long long int\0"
 12917      52444946 
 12917      465F5459 
 12917      50455F5F 
 12917      206C6F6E 
 12918 03bf 01       		.byte	0x1
 12919 03c0 00       		.uleb128 0
 12920 03c1 5F5F5743 		.ascii "__WCHAR_TYPE__ short unsigned int\0"
 12920      4841525F 
 12920      54595045 
 12920      5F5F2073 
 12920      686F7274 
 12921 03e3 01       		.byte	0x1
 12922 03e4 00       		.uleb128 0
 12923 03e5 5F5F5749 		.ascii "__WINT_TYPE__ short unsigned int\0"
 12923      4E545F54 
 12923      5950455F 
 12923      5F207368 
 12923      6F727420 
 12924 0406 01       		.byte	0x1
 12925 0407 00       		.uleb128 0
 12926 0408 5F5F494E 		.ascii "__INTMAX_TYPE__ long long int\0"
 12926      544D4158 
 12926      5F545950 
 12926      455F5F20 
 12926      6C6F6E67 
 12927 0426 01       		.byte	0x1
 12928 0427 00       		.uleb128 0
 12929 0428 5F5F5549 		.ascii "__UINTMAX_TYPE__ long long unsigned int\0"
 12929      4E544D41 
 12929      585F5459 
 12929      50455F5F 
 12929      206C6F6E 
 12930 0450 01       		.byte	0x1
 12931 0451 00       		.uleb128 0
 12932 0452 5F5F4348 		.ascii "__CHAR16_TYPE__ short unsigned int\0"
 12932      41523136 
 12932      5F545950 
 12932      455F5F20 
 12932      73686F72 
 12933 0475 01       		.byte	0x1
 12934 0476 00       		.uleb128 0
 12935 0477 5F5F4348 		.ascii "__CHAR32_TYPE__ unsigned int\0"
 12935      41523332 
 12935      5F545950 
 12935      455F5F20 
 12935      756E7369 
 12936 0494 01       		.byte	0x1
 12937 0495 00       		.uleb128 0
 12938 0496 5F5F5349 		.ascii "__SIG_ATOMIC_TYPE__ int\0"
 12938      475F4154 
 12938      4F4D4943 
 12938      5F545950 
 12938      455F5F20 
 12939 04ae 01       		.byte	0x1
 12940 04af 00       		.uleb128 0
 12941 04b0 5F5F494E 		.ascii "__INT8_TYPE__ signed char\0"
 12941      54385F54 
 12941      5950455F 
 12941      5F207369 
 12941      676E6564 
 12942 04ca 01       		.byte	0x1
 12943 04cb 00       		.uleb128 0
 12944 04cc 5F5F494E 		.ascii "__INT16_TYPE__ short int\0"
 12944      5431365F 
 12944      54595045 
 12944      5F5F2073 
 12944      686F7274 
 12945 04e5 01       		.byte	0x1
 12946 04e6 00       		.uleb128 0
 12947 04e7 5F5F494E 		.ascii "__INT32_TYPE__ int\0"
 12947      5433325F 
 12947      54595045 
 12947      5F5F2069 
 12947      6E7400
 12948 04fa 01       		.byte	0x1
 12949 04fb 00       		.uleb128 0
 12950 04fc 5F5F494E 		.ascii "__INT64_TYPE__ long long int\0"
 12950      5436345F 
 12950      54595045 
 12950      5F5F206C 
 12950      6F6E6720 
 12951 0519 01       		.byte	0x1
 12952 051a 00       		.uleb128 0
 12953 051b 5F5F5549 		.ascii "__UINT8_TYPE__ unsigned char\0"
 12953      4E54385F 
 12953      54595045 
 12953      5F5F2075 
 12953      6E736967 
 12954 0538 01       		.byte	0x1
 12955 0539 00       		.uleb128 0
 12956 053a 5F5F5549 		.ascii "__UINT16_TYPE__ short unsigned int\0"
 12956      4E543136 
 12956      5F545950 
 12956      455F5F20 
 12956      73686F72 
 12957 055d 01       		.byte	0x1
 12958 055e 00       		.uleb128 0
 12959 055f 5F5F5549 		.ascii "__UINT32_TYPE__ unsigned int\0"
 12959      4E543332 
 12959      5F545950 
 12959      455F5F20 
 12959      756E7369 
 12960 057c 01       		.byte	0x1
 12961 057d 00       		.uleb128 0
 12962 057e 5F5F5549 		.ascii "__UINT64_TYPE__ long long unsigned int\0"
 12962      4E543634 
 12962      5F545950 
 12962      455F5F20 
 12962      6C6F6E67 
 12963 05a5 01       		.byte	0x1
 12964 05a6 00       		.uleb128 0
 12965 05a7 5F5F494E 		.ascii "__INT_LEAST8_TYPE__ signed char\0"
 12965      545F4C45 
 12965      41535438 
 12965      5F545950 
 12965      455F5F20 
 12966 05c7 01       		.byte	0x1
 12967 05c8 00       		.uleb128 0
 12968 05c9 5F5F494E 		.ascii "__INT_LEAST16_TYPE__ short int\0"
 12968      545F4C45 
 12968      41535431 
 12968      365F5459 
 12968      50455F5F 
 12969 05e8 01       		.byte	0x1
 12970 05e9 00       		.uleb128 0
 12971 05ea 5F5F494E 		.ascii "__INT_LEAST32_TYPE__ int\0"
 12971      545F4C45 
 12971      41535433 
 12971      325F5459 
 12971      50455F5F 
 12972 0603 01       		.byte	0x1
 12973 0604 00       		.uleb128 0
 12974 0605 5F5F494E 		.ascii "__INT_LEAST64_TYPE__ long long int\0"
 12974      545F4C45 
 12974      41535436 
 12974      345F5459 
 12974      50455F5F 
 12975 0628 01       		.byte	0x1
 12976 0629 00       		.uleb128 0
 12977 062a 5F5F5549 		.ascii "__UINT_LEAST8_TYPE__ unsigned char\0"
 12977      4E545F4C 
 12977      45415354 
 12977      385F5459 
 12977      50455F5F 
 12978 064d 01       		.byte	0x1
 12979 064e 00       		.uleb128 0
 12980 064f 5F5F5549 		.ascii "__UINT_LEAST16_TYPE__ short unsigned int\0"
 12980      4E545F4C 
 12980      45415354 
 12980      31365F54 
 12980      5950455F 
 12981 0678 01       		.byte	0x1
 12982 0679 00       		.uleb128 0
 12983 067a 5F5F5549 		.ascii "__UINT_LEAST32_TYPE__ unsigned int\0"
 12983      4E545F4C 
 12983      45415354 
 12983      33325F54 
 12983      5950455F 
 12984 069d 01       		.byte	0x1
 12985 069e 00       		.uleb128 0
 12986 069f 5F5F5549 		.ascii "__UINT_LEAST64_TYPE__ long long unsigned int\0"
 12986      4E545F4C 
 12986      45415354 
 12986      36345F54 
 12986      5950455F 
 12987 06cc 01       		.byte	0x1
 12988 06cd 00       		.uleb128 0
 12989 06ce 5F5F494E 		.ascii "__INT_FAST8_TYPE__ signed char\0"
 12989      545F4641 
 12989      5354385F 
 12989      54595045 
 12989      5F5F2073 
 12990 06ed 01       		.byte	0x1
 12991 06ee 00       		.uleb128 0
 12992 06ef 5F5F494E 		.ascii "__INT_FAST16_TYPE__ short int\0"
 12992      545F4641 
 12992      53543136 
 12992      5F545950 
 12992      455F5F20 
 12993 070d 01       		.byte	0x1
 12994 070e 00       		.uleb128 0
 12995 070f 5F5F494E 		.ascii "__INT_FAST32_TYPE__ int\0"
 12995      545F4641 
 12995      53543332 
 12995      5F545950 
 12995      455F5F20 
 12996 0727 01       		.byte	0x1
 12997 0728 00       		.uleb128 0
 12998 0729 5F5F494E 		.ascii "__INT_FAST64_TYPE__ long long int\0"
 12998      545F4641 
 12998      53543634 
 12998      5F545950 
 12998      455F5F20 
 12999 074b 01       		.byte	0x1
 13000 074c 00       		.uleb128 0
 13001 074d 5F5F5549 		.ascii "__UINT_FAST8_TYPE__ unsigned char\0"
 13001      4E545F46 
 13001      41535438 
 13001      5F545950 
 13001      455F5F20 
 13002 076f 01       		.byte	0x1
 13003 0770 00       		.uleb128 0
 13004 0771 5F5F5549 		.ascii "__UINT_FAST16_TYPE__ short unsigned int\0"
 13004      4E545F46 
 13004      41535431 
 13004      365F5459 
 13004      50455F5F 
 13005 0799 01       		.byte	0x1
 13006 079a 00       		.uleb128 0
 13007 079b 5F5F5549 		.ascii "__UINT_FAST32_TYPE__ unsigned int\0"
 13007      4E545F46 
 13007      41535433 
 13007      325F5459 
 13007      50455F5F 
 13008 07bd 01       		.byte	0x1
 13009 07be 00       		.uleb128 0
 13010 07bf 5F5F5549 		.ascii "__UINT_FAST64_TYPE__ long long unsigned int\0"
 13010      4E545F46 
 13010      41535436 
 13010      345F5459 
 13010      50455F5F 
 13011 07eb 01       		.byte	0x1
 13012 07ec 00       		.uleb128 0
 13013 07ed 5F5F494E 		.ascii "__INTPTR_TYPE__ long long int\0"
 13013      54505452 
 13013      5F545950 
 13013      455F5F20 
 13013      6C6F6E67 
 13014 080b 01       		.byte	0x1
 13015 080c 00       		.uleb128 0
 13016 080d 5F5F5549 		.ascii "__UINTPTR_TYPE__ long long unsigned int\0"
 13016      4E545054 
 13016      525F5459 
 13016      50455F5F 
 13016      206C6F6E 
 13017 0835 01       		.byte	0x1
 13018 0836 00       		.uleb128 0
 13019 0837 5F5F4758 		.ascii "__GXX_ABI_VERSION 1019\0"
 13019      585F4142 
 13019      495F5645 
 13019      5253494F 
 13019      4E203130 
 13020 084e 01       		.byte	0x1
 13021 084f 00       		.uleb128 0
 13022 0850 5F5F5343 		.ascii "__SCHAR_MAX__ 0x7f\0"
 13022      4841525F 
 13022      4D41585F 
 13022      5F203078 
 13022      376600
 13023 0863 01       		.byte	0x1
 13024 0864 00       		.uleb128 0
 13025 0865 5F5F5348 		.ascii "__SHRT_MAX__ 0x7fff\0"
 13025      52545F4D 
 13025      41585F5F 
 13025      20307837 
 13025      66666600 
 13026 0879 01       		.byte	0x1
 13027 087a 00       		.uleb128 0
 13028 087b 5F5F494E 		.ascii "__INT_MAX__ 0x7fffffff\0"
 13028      545F4D41 
 13028      585F5F20 
 13028      30783766 
 13028      66666666 
 13029 0892 01       		.byte	0x1
 13030 0893 00       		.uleb128 0
 13031 0894 5F5F4C4F 		.ascii "__LONG_MAX__ 0x7fffffffL\0"
 13031      4E475F4D 
 13031      41585F5F 
 13031      20307837 
 13031      66666666 
 13032 08ad 01       		.byte	0x1
 13033 08ae 00       		.uleb128 0
 13034 08af 5F5F4C4F 		.ascii "__LONG_LONG_MAX__ 0x7fffffffffffffffLL\0"
 13034      4E475F4C 
 13034      4F4E475F 
 13034      4D41585F 
 13034      5F203078 
 13035 08d6 01       		.byte	0x1
 13036 08d7 00       		.uleb128 0
 13037 08d8 5F5F5743 		.ascii "__WCHAR_MAX__ 0xffff\0"
 13037      4841525F 
 13037      4D41585F 
 13037      5F203078 
 13037      66666666 
 13038 08ed 01       		.byte	0x1
 13039 08ee 00       		.uleb128 0
 13040 08ef 5F5F5743 		.ascii "__WCHAR_MIN__ 0\0"
 13040      4841525F 
 13040      4D494E5F 
 13040      5F203000 
 13041 08ff 01       		.byte	0x1
 13042 0900 00       		.uleb128 0
 13043 0901 5F5F5749 		.ascii "__WINT_MAX__ 0xffff\0"
 13043      4E545F4D 
 13043      41585F5F 
 13043      20307866 
 13043      66666600 
 13044 0915 01       		.byte	0x1
 13045 0916 00       		.uleb128 0
 13046 0917 5F5F5749 		.ascii "__WINT_MIN__ 0\0"
 13046      4E545F4D 
 13046      494E5F5F 
 13046      203000
 13047 0926 01       		.byte	0x1
 13048 0927 00       		.uleb128 0
 13049 0928 5F5F5054 		.ascii "__PTRDIFF_MAX__ 0x7fffffffffffffffLL\0"
 13049      52444946 
 13049      465F4D41 
 13049      585F5F20 
 13049      30783766 
 13050 094d 01       		.byte	0x1
 13051 094e 00       		.uleb128 0
 13052 094f 5F5F5349 		.ascii "__SIZE_MAX__ 0xffffffffffffffffULL\0"
 13052      5A455F4D 
 13052      41585F5F 
 13052      20307866 
 13052      66666666 
 13053 0972 01       		.byte	0x1
 13054 0973 00       		.uleb128 0
 13055 0974 5F5F5343 		.ascii "__SCHAR_WIDTH__ 8\0"
 13055      4841525F 
 13055      57494454 
 13055      485F5F20 
 13055      3800
 13056 0986 01       		.byte	0x1
 13057 0987 00       		.uleb128 0
 13058 0988 5F5F5348 		.ascii "__SHRT_WIDTH__ 16\0"
 13058      52545F57 
 13058      49445448 
 13058      5F5F2031 
 13058      3600
 13059 099a 01       		.byte	0x1
 13060 099b 00       		.uleb128 0
 13061 099c 5F5F494E 		.ascii "__INT_WIDTH__ 32\0"
 13061      545F5749 
 13061      4454485F 
 13061      5F203332 
 13061      00
 13062 09ad 01       		.byte	0x1
 13063 09ae 00       		.uleb128 0
 13064 09af 5F5F4C4F 		.ascii "__LONG_WIDTH__ 32\0"
 13064      4E475F57 
 13064      49445448 
 13064      5F5F2033 
 13064      3200
 13065 09c1 01       		.byte	0x1
 13066 09c2 00       		.uleb128 0
 13067 09c3 5F5F4C4F 		.ascii "__LONG_LONG_WIDTH__ 64\0"
 13067      4E475F4C 
 13067      4F4E475F 
 13067      57494454 
 13067      485F5F20 
 13068 09da 01       		.byte	0x1
 13069 09db 00       		.uleb128 0
 13070 09dc 5F5F5743 		.ascii "__WCHAR_WIDTH__ 16\0"
 13070      4841525F 
 13070      57494454 
 13070      485F5F20 
 13070      313600
 13071 09ef 01       		.byte	0x1
 13072 09f0 00       		.uleb128 0
 13073 09f1 5F5F5749 		.ascii "__WINT_WIDTH__ 16\0"
 13073      4E545F57 
 13073      49445448 
 13073      5F5F2031 
 13073      3600
 13074 0a03 01       		.byte	0x1
 13075 0a04 00       		.uleb128 0
 13076 0a05 5F5F5054 		.ascii "__PTRDIFF_WIDTH__ 64\0"
 13076      52444946 
 13076      465F5749 
 13076      4454485F 
 13076      5F203634 
 13077 0a1a 01       		.byte	0x1
 13078 0a1b 00       		.uleb128 0
 13079 0a1c 5F5F5349 		.ascii "__SIZE_WIDTH__ 64\0"
 13079      5A455F57 
 13079      49445448 
 13079      5F5F2036 
 13079      3400
 13080 0a2e 01       		.byte	0x1
 13081 0a2f 00       		.uleb128 0
 13082 0a30 5F5F4249 		.ascii "__BITINT_MAXWIDTH__ 65535\0"
 13082      54494E54 
 13082      5F4D4158 
 13082      57494454 
 13082      485F5F20 
 13083 0a4a 01       		.byte	0x1
 13084 0a4b 00       		.uleb128 0
 13085 0a4c 5F5F494E 		.ascii "__INTMAX_MAX__ 0x7fffffffffffffffLL\0"
 13085      544D4158 
 13085      5F4D4158 
 13085      5F5F2030 
 13085      78376666 
 13086 0a70 01       		.byte	0x1
 13087 0a71 00       		.uleb128 0
 13088 0a72 5F5F494E 		.ascii "__INTMAX_C(c) c ## LL\0"
 13088      544D4158 
 13088      5F432863 
 13088      29206320 
 13088      2323204C 
 13089 0a88 01       		.byte	0x1
 13090 0a89 00       		.uleb128 0
 13091 0a8a 5F5F5549 		.ascii "__UINTMAX_MAX__ 0xffffffffffffffffULL\0"
 13091      4E544D41 
 13091      585F4D41 
 13091      585F5F20 
 13091      30786666 
 13092 0ab0 01       		.byte	0x1
 13093 0ab1 00       		.uleb128 0
 13094 0ab2 5F5F5549 		.ascii "__UINTMAX_C(c) c ## ULL\0"
 13094      4E544D41 
 13094      585F4328 
 13094      63292063 
 13094      20232320 
 13095 0aca 01       		.byte	0x1
 13096 0acb 00       		.uleb128 0
 13097 0acc 5F5F494E 		.ascii "__INTMAX_WIDTH__ 64\0"
 13097      544D4158 
 13097      5F574944 
 13097      54485F5F 
 13097      20363400 
 13098 0ae0 01       		.byte	0x1
 13099 0ae1 00       		.uleb128 0
 13100 0ae2 5F5F5349 		.ascii "__SIG_ATOMIC_MAX__ 0x7fffffff\0"
 13100      475F4154 
 13100      4F4D4943 
 13100      5F4D4158 
 13100      5F5F2030 
 13101 0b00 01       		.byte	0x1
 13102 0b01 00       		.uleb128 0
 13103 0b02 5F5F5349 		.ascii "__SIG_ATOMIC_MIN__ (-__SIG_ATOMIC_MAX__ - 1)\0"
 13103      475F4154 
 13103      4F4D4943 
 13103      5F4D494E 
 13103      5F5F2028 
 13104 0b2f 01       		.byte	0x1
 13105 0b30 00       		.uleb128 0
 13106 0b31 5F5F5349 		.ascii "__SIG_ATOMIC_WIDTH__ 32\0"
 13106      475F4154 
 13106      4F4D4943 
 13106      5F574944 
 13106      54485F5F 
 13107 0b49 01       		.byte	0x1
 13108 0b4a 00       		.uleb128 0
 13109 0b4b 5F5F494E 		.ascii "__INT8_MAX__ 0x7f\0"
 13109      54385F4D 
 13109      41585F5F 
 13109      20307837 
 13109      6600
 13110 0b5d 01       		.byte	0x1
 13111 0b5e 00       		.uleb128 0
 13112 0b5f 5F5F494E 		.ascii "__INT16_MAX__ 0x7fff\0"
 13112      5431365F 
 13112      4D41585F 
 13112      5F203078 
 13112      37666666 
 13113 0b74 01       		.byte	0x1
 13114 0b75 00       		.uleb128 0
 13115 0b76 5F5F494E 		.ascii "__INT32_MAX__ 0x7fffffff\0"
 13115      5433325F 
 13115      4D41585F 
 13115      5F203078 
 13115      37666666 
 13116 0b8f 01       		.byte	0x1
 13117 0b90 00       		.uleb128 0
 13118 0b91 5F5F494E 		.ascii "__INT64_MAX__ 0x7fffffffffffffffLL\0"
 13118      5436345F 
 13118      4D41585F 
 13118      5F203078 
 13118      37666666 
 13119 0bb4 01       		.byte	0x1
 13120 0bb5 00       		.uleb128 0
 13121 0bb6 5F5F5549 		.ascii "__UINT8_MAX__ 0xff\0"
 13121      4E54385F 
 13121      4D41585F 
 13121      5F203078 
 13121      666600
 13122 0bc9 01       		.byte	0x1
 13123 0bca 00       		.uleb128 0
 13124 0bcb 5F5F5549 		.ascii "__UINT16_MAX__ 0xffff\0"
 13124      4E543136 
 13124      5F4D4158 
 13124      5F5F2030 
 13124      78666666 
 13125 0be1 01       		.byte	0x1
 13126 0be2 00       		.uleb128 0
 13127 0be3 5F5F5549 		.ascii "__UINT32_MAX__ 0xffffffffU\0"
 13127      4E543332 
 13127      5F4D4158 
 13127      5F5F2030 
 13127      78666666 
 13128 0bfe 01       		.byte	0x1
 13129 0bff 00       		.uleb128 0
 13130 0c00 5F5F5549 		.ascii "__UINT64_MAX__ 0xffffffffffffffffULL\0"
 13130      4E543634 
 13130      5F4D4158 
 13130      5F5F2030 
 13130      78666666 
 13131 0c25 01       		.byte	0x1
 13132 0c26 00       		.uleb128 0
 13133 0c27 5F5F494E 		.ascii "__INT_LEAST8_MAX__ 0x7f\0"
 13133      545F4C45 
 13133      41535438 
 13133      5F4D4158 
 13133      5F5F2030 
 13134 0c3f 01       		.byte	0x1
 13135 0c40 00       		.uleb128 0
 13136 0c41 5F5F494E 		.ascii "__INT8_C(c) c\0"
 13136      54385F43 
 13136      28632920 
 13136      6300
 13137 0c4f 01       		.byte	0x1
 13138 0c50 00       		.uleb128 0
 13139 0c51 5F5F494E 		.ascii "__INT_LEAST8_WIDTH__ 8\0"
 13139      545F4C45 
 13139      41535438 
 13139      5F574944 
 13139      54485F5F 
 13140 0c68 01       		.byte	0x1
 13141 0c69 00       		.uleb128 0
 13142 0c6a 5F5F494E 		.ascii "__INT_LEAST16_MAX__ 0x7fff\0"
 13142      545F4C45 
 13142      41535431 
 13142      365F4D41 
 13142      585F5F20 
 13143 0c85 01       		.byte	0x1
 13144 0c86 00       		.uleb128 0
 13145 0c87 5F5F494E 		.ascii "__INT16_C(c) c\0"
 13145      5431365F 
 13145      43286329 
 13145      206300
 13146 0c96 01       		.byte	0x1
 13147 0c97 00       		.uleb128 0
 13148 0c98 5F5F494E 		.ascii "__INT_LEAST16_WIDTH__ 16\0"
 13148      545F4C45 
 13148      41535431 
 13148      365F5749 
 13148      4454485F 
 13149 0cb1 01       		.byte	0x1
 13150 0cb2 00       		.uleb128 0
 13151 0cb3 5F5F494E 		.ascii "__INT_LEAST32_MAX__ 0x7fffffff\0"
 13151      545F4C45 
 13151      41535433 
 13151      325F4D41 
 13151      585F5F20 
 13152 0cd2 01       		.byte	0x1
 13153 0cd3 00       		.uleb128 0
 13154 0cd4 5F5F494E 		.ascii "__INT32_C(c) c\0"
 13154      5433325F 
 13154      43286329 
 13154      206300
 13155 0ce3 01       		.byte	0x1
 13156 0ce4 00       		.uleb128 0
 13157 0ce5 5F5F494E 		.ascii "__INT_LEAST32_WIDTH__ 32\0"
 13157      545F4C45 
 13157      41535433 
 13157      325F5749 
 13157      4454485F 
 13158 0cfe 01       		.byte	0x1
 13159 0cff 00       		.uleb128 0
 13160 0d00 5F5F494E 		.ascii "__INT_LEAST64_MAX__ 0x7fffffffffffffffLL\0"
 13160      545F4C45 
 13160      41535436 
 13160      345F4D41 
 13160      585F5F20 
 13161 0d29 01       		.byte	0x1
 13162 0d2a 00       		.uleb128 0
 13163 0d2b 5F5F494E 		.ascii "__INT64_C(c) c ## LL\0"
 13163      5436345F 
 13163      43286329 
 13163      20632023 
 13163      23204C4C 
 13164 0d40 01       		.byte	0x1
 13165 0d41 00       		.uleb128 0
 13166 0d42 5F5F494E 		.ascii "__INT_LEAST64_WIDTH__ 64\0"
 13166      545F4C45 
 13166      41535436 
 13166      345F5749 
 13166      4454485F 
 13167 0d5b 01       		.byte	0x1
 13168 0d5c 00       		.uleb128 0
 13169 0d5d 5F5F5549 		.ascii "__UINT_LEAST8_MAX__ 0xff\0"
 13169      4E545F4C 
 13169      45415354 
 13169      385F4D41 
 13169      585F5F20 
 13170 0d76 01       		.byte	0x1
 13171 0d77 00       		.uleb128 0
 13172 0d78 5F5F5549 		.ascii "__UINT8_C(c) c\0"
 13172      4E54385F 
 13172      43286329 
 13172      206300
 13173 0d87 01       		.byte	0x1
 13174 0d88 00       		.uleb128 0
 13175 0d89 5F5F5549 		.ascii "__UINT_LEAST16_MAX__ 0xffff\0"
 13175      4E545F4C 
 13175      45415354 
 13175      31365F4D 
 13175      41585F5F 
 13176 0da5 01       		.byte	0x1
 13177 0da6 00       		.uleb128 0
 13178 0da7 5F5F5549 		.ascii "__UINT16_C(c) c\0"
 13178      4E543136 
 13178      5F432863 
 13178      29206300 
 13179 0db7 01       		.byte	0x1
 13180 0db8 00       		.uleb128 0
 13181 0db9 5F5F5549 		.ascii "__UINT_LEAST32_MAX__ 0xffffffffU\0"
 13181      4E545F4C 
 13181      45415354 
 13181      33325F4D 
 13181      41585F5F 
 13182 0dda 01       		.byte	0x1
 13183 0ddb 00       		.uleb128 0
 13184 0ddc 5F5F5549 		.ascii "__UINT32_C(c) c ## U\0"
 13184      4E543332 
 13184      5F432863 
 13184      29206320 
 13184      23232055 
 13185 0df1 01       		.byte	0x1
 13186 0df2 00       		.uleb128 0
 13187 0df3 5F5F5549 		.ascii "__UINT_LEAST64_MAX__ 0xffffffffffffffffULL\0"
 13187      4E545F4C 
 13187      45415354 
 13187      36345F4D 
 13187      41585F5F 
 13188 0e1e 01       		.byte	0x1
 13189 0e1f 00       		.uleb128 0
 13190 0e20 5F5F5549 		.ascii "__UINT64_C(c) c ## ULL\0"
 13190      4E543634 
 13190      5F432863 
 13190      29206320 
 13190      23232055 
 13191 0e37 01       		.byte	0x1
 13192 0e38 00       		.uleb128 0
 13193 0e39 5F5F494E 		.ascii "__INT_FAST8_MAX__ 0x7f\0"
 13193      545F4641 
 13193      5354385F 
 13193      4D41585F 
 13193      5F203078 
 13194 0e50 01       		.byte	0x1
 13195 0e51 00       		.uleb128 0
 13196 0e52 5F5F494E 		.ascii "__INT_FAST8_WIDTH__ 8\0"
 13196      545F4641 
 13196      5354385F 
 13196      57494454 
 13196      485F5F20 
 13197 0e68 01       		.byte	0x1
 13198 0e69 00       		.uleb128 0
 13199 0e6a 5F5F494E 		.ascii "__INT_FAST16_MAX__ 0x7fff\0"
 13199      545F4641 
 13199      53543136 
 13199      5F4D4158 
 13199      5F5F2030 
 13200 0e84 01       		.byte	0x1
 13201 0e85 00       		.uleb128 0
 13202 0e86 5F5F494E 		.ascii "__INT_FAST16_WIDTH__ 16\0"
 13202      545F4641 
 13202      53543136 
 13202      5F574944 
 13202      54485F5F 
 13203 0e9e 01       		.byte	0x1
 13204 0e9f 00       		.uleb128 0
 13205 0ea0 5F5F494E 		.ascii "__INT_FAST32_MAX__ 0x7fffffff\0"
 13205      545F4641 
 13205      53543332 
 13205      5F4D4158 
 13205      5F5F2030 
 13206 0ebe 01       		.byte	0x1
 13207 0ebf 00       		.uleb128 0
 13208 0ec0 5F5F494E 		.ascii "__INT_FAST32_WIDTH__ 32\0"
 13208      545F4641 
 13208      53543332 
 13208      5F574944 
 13208      54485F5F 
 13209 0ed8 01       		.byte	0x1
 13210 0ed9 00       		.uleb128 0
 13211 0eda 5F5F494E 		.ascii "__INT_FAST64_MAX__ 0x7fffffffffffffffLL\0"
 13211      545F4641 
 13211      53543634 
 13211      5F4D4158 
 13211      5F5F2030 
 13212 0f02 01       		.byte	0x1
 13213 0f03 00       		.uleb128 0
 13214 0f04 5F5F494E 		.ascii "__INT_FAST64_WIDTH__ 64\0"
 13214      545F4641 
 13214      53543634 
 13214      5F574944 
 13214      54485F5F 
 13215 0f1c 01       		.byte	0x1
 13216 0f1d 00       		.uleb128 0
 13217 0f1e 5F5F5549 		.ascii "__UINT_FAST8_MAX__ 0xff\0"
 13217      4E545F46 
 13217      41535438 
 13217      5F4D4158 
 13217      5F5F2030 
 13218 0f36 01       		.byte	0x1
 13219 0f37 00       		.uleb128 0
 13220 0f38 5F5F5549 		.ascii "__UINT_FAST16_MAX__ 0xffff\0"
 13220      4E545F46 
 13220      41535431 
 13220      365F4D41 
 13220      585F5F20 
 13221 0f53 01       		.byte	0x1
 13222 0f54 00       		.uleb128 0
 13223 0f55 5F5F5549 		.ascii "__UINT_FAST32_MAX__ 0xffffffffU\0"
 13223      4E545F46 
 13223      41535433 
 13223      325F4D41 
 13223      585F5F20 
 13224 0f75 01       		.byte	0x1
 13225 0f76 00       		.uleb128 0
 13226 0f77 5F5F5549 		.ascii "__UINT_FAST64_MAX__ 0xffffffffffffffffULL\0"
 13226      4E545F46 
 13226      41535436 
 13226      345F4D41 
 13226      585F5F20 
 13227 0fa1 01       		.byte	0x1
 13228 0fa2 00       		.uleb128 0
 13229 0fa3 5F5F494E 		.ascii "__INTPTR_MAX__ 0x7fffffffffffffffLL\0"
 13229      54505452 
 13229      5F4D4158 
 13229      5F5F2030 
 13229      78376666 
 13230 0fc7 01       		.byte	0x1
 13231 0fc8 00       		.uleb128 0
 13232 0fc9 5F5F494E 		.ascii "__INTPTR_WIDTH__ 64\0"
 13232      54505452 
 13232      5F574944 
 13232      54485F5F 
 13232      20363400 
 13233 0fdd 01       		.byte	0x1
 13234 0fde 00       		.uleb128 0
 13235 0fdf 5F5F5549 		.ascii "__UINTPTR_MAX__ 0xffffffffffffffffULL\0"
 13235      4E545054 
 13235      525F4D41 
 13235      585F5F20 
 13235      30786666 
 13236 1005 01       		.byte	0x1
 13237 1006 00       		.uleb128 0
 13238 1007 5F5F4743 		.ascii "__GCC_IEC_559 2\0"
 13238      435F4945 
 13238      435F3535 
 13238      39203200 
 13239 1017 01       		.byte	0x1
 13240 1018 00       		.uleb128 0
 13241 1019 5F5F4743 		.ascii "__GCC_IEC_559_COMPLEX 2\0"
 13241      435F4945 
 13241      435F3535 
 13241      395F434F 
 13241      4D504C45 
 13242 1031 01       		.byte	0x1
 13243 1032 00       		.uleb128 0
 13244 1033 5F5F464C 		.ascii "__FLT_EVAL_METHOD__ 0\0"
 13244      545F4556 
 13244      414C5F4D 
 13244      4554484F 
 13244      445F5F20 
 13245 1049 01       		.byte	0x1
 13246 104a 00       		.uleb128 0
 13247 104b 5F5F464C 		.ascii "__FLT_EVAL_METHOD_TS_18661_3__ 0\0"
 13247      545F4556 
 13247      414C5F4D 
 13247      4554484F 
 13247      445F5453 
 13248 106c 01       		.byte	0x1
 13249 106d 00       		.uleb128 0
 13250 106e 5F5F4445 		.ascii "__DEC_EVAL_METHOD__ 2\0"
 13250      435F4556 
 13250      414C5F4D 
 13250      4554484F 
 13250      445F5F20 
 13251 1084 01       		.byte	0x1
 13252 1085 00       		.uleb128 0
 13253 1086 5F5F464C 		.ascii "__FLT_RADIX__ 2\0"
 13253      545F5241 
 13253      4449585F 
 13253      5F203200 
 13254 1096 01       		.byte	0x1
 13255 1097 00       		.uleb128 0
 13256 1098 5F5F464C 		.ascii "__FLT_MANT_DIG__ 24\0"
 13256      545F4D41 
 13256      4E545F44 
 13256      49475F5F 
 13256      20323400 
 13257 10ac 01       		.byte	0x1
 13258 10ad 00       		.uleb128 0
 13259 10ae 5F5F464C 		.ascii "__FLT_DIG__ 6\0"
 13259      545F4449 
 13259      475F5F20 
 13259      3600
 13260 10bc 01       		.byte	0x1
 13261 10bd 00       		.uleb128 0
 13262 10be 5F5F464C 		.ascii "__FLT_MIN_EXP__ (-125)\0"
 13262      545F4D49 
 13262      4E5F4558 
 13262      505F5F20 
 13262      282D3132 
 13263 10d5 01       		.byte	0x1
 13264 10d6 00       		.uleb128 0
 13265 10d7 5F5F464C 		.ascii "__FLT_MIN_10_EXP__ (-37)\0"
 13265      545F4D49 
 13265      4E5F3130 
 13265      5F455850 
 13265      5F5F2028 
 13266 10f0 01       		.byte	0x1
 13267 10f1 00       		.uleb128 0
 13268 10f2 5F5F464C 		.ascii "__FLT_MAX_EXP__ 128\0"
 13268      545F4D41 
 13268      585F4558 
 13268      505F5F20 
 13268      31323800 
 13269 1106 01       		.byte	0x1
 13270 1107 00       		.uleb128 0
 13271 1108 5F5F464C 		.ascii "__FLT_MAX_10_EXP__ 38\0"
 13271      545F4D41 
 13271      585F3130 
 13271      5F455850 
 13271      5F5F2033 
 13272 111e 01       		.byte	0x1
 13273 111f 00       		.uleb128 0
 13274 1120 5F5F464C 		.ascii "__FLT_DECIMAL_DIG__ 9\0"
 13274      545F4445 
 13274      43494D41 
 13274      4C5F4449 
 13274      475F5F20 
 13275 1136 01       		.byte	0x1
 13276 1137 00       		.uleb128 0
 13277 1138 5F5F464C 		.ascii "__FLT_MAX__ 3.40282346638528859811704183484516925e+38F\0"
 13277      545F4D41 
 13277      585F5F20 
 13277      332E3430 
 13277      32383233 
 13278 116f 01       		.byte	0x1
 13279 1170 00       		.uleb128 0
 13280 1171 5F5F464C 		.ascii "__FLT_NORM_MAX__ 3.40282346638528859811704183484516925e+38F\0"
 13280      545F4E4F 
 13280      524D5F4D 
 13280      41585F5F 
 13280      20332E34 
 13281 11ad 01       		.byte	0x1
 13282 11ae 00       		.uleb128 0
 13283 11af 5F5F464C 		.ascii "__FLT_MIN__ 1.17549435082228750796873653722224568e-38F\0"
 13283      545F4D49 
 13283      4E5F5F20 
 13283      312E3137 
 13283      35343934 
 13284 11e6 01       		.byte	0x1
 13285 11e7 00       		.uleb128 0
 13286 11e8 5F5F464C 		.ascii "__FLT_EPSILON__ 1.19209289550781250000000000000000000e-7F\0"
 13286      545F4550 
 13286      53494C4F 
 13286      4E5F5F20 
 13286      312E3139 
 13287 1222 01       		.byte	0x1
 13288 1223 00       		.uleb128 0
 13289 1224 5F5F464C 		.ascii "__FLT_DENORM_MIN__ 1.40129846432481707092372958328991613e-45F\0"
 13289      545F4445 
 13289      4E4F524D 
 13289      5F4D494E 
 13289      5F5F2031 
 13290 1262 01       		.byte	0x1
 13291 1263 00       		.uleb128 0
 13292 1264 5F5F464C 		.ascii "__FLT_HAS_DENORM__ 1\0"
 13292      545F4841 
 13292      535F4445 
 13292      4E4F524D 
 13292      5F5F2031 
 13293 1279 01       		.byte	0x1
 13294 127a 00       		.uleb128 0
 13295 127b 5F5F464C 		.ascii "__FLT_HAS_INFINITY__ 1\0"
 13295      545F4841 
 13295      535F494E 
 13295      46494E49 
 13295      54595F5F 
 13296 1292 01       		.byte	0x1
 13297 1293 00       		.uleb128 0
 13298 1294 5F5F464C 		.ascii "__FLT_HAS_QUIET_NAN__ 1\0"
 13298      545F4841 
 13298      535F5155 
 13298      4945545F 
 13298      4E414E5F 
 13299 12ac 01       		.byte	0x1
 13300 12ad 00       		.uleb128 0
 13301 12ae 5F5F464C 		.ascii "__FLT_IS_IEC_60559__ 1\0"
 13301      545F4953 
 13301      5F494543 
 13301      5F363035 
 13301      35395F5F 
 13302 12c5 01       		.byte	0x1
 13303 12c6 00       		.uleb128 0
 13304 12c7 5F5F4442 		.ascii "__DBL_MANT_DIG__ 53\0"
 13304      4C5F4D41 
 13304      4E545F44 
 13304      49475F5F 
 13304      20353300 
 13305 12db 01       		.byte	0x1
 13306 12dc 00       		.uleb128 0
 13307 12dd 5F5F4442 		.ascii "__DBL_DIG__ 15\0"
 13307      4C5F4449 
 13307      475F5F20 
 13307      313500
 13308 12ec 01       		.byte	0x1
 13309 12ed 00       		.uleb128 0
 13310 12ee 5F5F4442 		.ascii "__DBL_MIN_EXP__ (-1021)\0"
 13310      4C5F4D49 
 13310      4E5F4558 
 13310      505F5F20 
 13310      282D3130 
 13311 1306 01       		.byte	0x1
 13312 1307 00       		.uleb128 0
 13313 1308 5F5F4442 		.ascii "__DBL_MIN_10_EXP__ (-307)\0"
 13313      4C5F4D49 
 13313      4E5F3130 
 13313      5F455850 
 13313      5F5F2028 
 13314 1322 01       		.byte	0x1
 13315 1323 00       		.uleb128 0
 13316 1324 5F5F4442 		.ascii "__DBL_MAX_EXP__ 1024\0"
 13316      4C5F4D41 
 13316      585F4558 
 13316      505F5F20 
 13316      31303234 
 13317 1339 01       		.byte	0x1
 13318 133a 00       		.uleb128 0
 13319 133b 5F5F4442 		.ascii "__DBL_MAX_10_EXP__ 308\0"
 13319      4C5F4D41 
 13319      585F3130 
 13319      5F455850 
 13319      5F5F2033 
 13320 1352 01       		.byte	0x1
 13321 1353 00       		.uleb128 0
 13322 1354 5F5F4442 		.ascii "__DBL_DECIMAL_DIG__ 17\0"
 13322      4C5F4445 
 13322      43494D41 
 13322      4C5F4449 
 13322      475F5F20 
 13323 136b 01       		.byte	0x1
 13324 136c 00       		.uleb128 0
 13325 136d 5F5F4442 		.ascii "__DBL_MAX__ ((double)1.79769313486231570814527423731704357e+308L)\0"
 13325      4C5F4D41 
 13325      585F5F20 
 13325      2828646F 
 13325      75626C65 
 13326 13af 01       		.byte	0x1
 13327 13b0 00       		.uleb128 0
 13328 13b1 5F5F4442 		.ascii "__DBL_NORM_MAX__ ((double)1.79769313486231570814527423731704357e+308L)\0"
 13328      4C5F4E4F 
 13328      524D5F4D 
 13328      41585F5F 
 13328      20282864 
 13329 13f8 01       		.byte	0x1
 13330 13f9 00       		.uleb128 0
 13331 13fa 5F5F4442 		.ascii "__DBL_MIN__ ((double)2.22507385850720138309023271733240406e-308L)\0"
 13331      4C5F4D49 
 13331      4E5F5F20 
 13331      2828646F 
 13331      75626C65 
 13332 143c 01       		.byte	0x1
 13333 143d 00       		.uleb128 0
 13334 143e 5F5F4442 		.ascii "__DBL_EPSILON__ ((double)2.22044604925031308084726333618164062e-16L)\0"
 13334      4C5F4550 
 13334      53494C4F 
 13334      4E5F5F20 
 13334      2828646F 
 13335 1483 01       		.byte	0x1
 13336 1484 00       		.uleb128 0
 13337 1485 5F5F4442 		.ascii "__DBL_DENORM_MIN__ ((double)4.94065645841246544176568792868221372e-324L)\0"
 13337      4C5F4445 
 13337      4E4F524D 
 13337      5F4D494E 
 13337      5F5F2028 
 13338 14ce 01       		.byte	0x1
 13339 14cf 00       		.uleb128 0
 13340 14d0 5F5F4442 		.ascii "__DBL_HAS_DENORM__ 1\0"
 13340      4C5F4841 
 13340      535F4445 
 13340      4E4F524D 
 13340      5F5F2031 
 13341 14e5 01       		.byte	0x1
 13342 14e6 00       		.uleb128 0
 13343 14e7 5F5F4442 		.ascii "__DBL_HAS_INFINITY__ 1\0"
 13343      4C5F4841 
 13343      535F494E 
 13343      46494E49 
 13343      54595F5F 
 13344 14fe 01       		.byte	0x1
 13345 14ff 00       		.uleb128 0
 13346 1500 5F5F4442 		.ascii "__DBL_HAS_QUIET_NAN__ 1\0"
 13346      4C5F4841 
 13346      535F5155 
 13346      4945545F 
 13346      4E414E5F 
 13347 1518 01       		.byte	0x1
 13348 1519 00       		.uleb128 0
 13349 151a 5F5F4442 		.ascii "__DBL_IS_IEC_60559__ 1\0"
 13349      4C5F4953 
 13349      5F494543 
 13349      5F363035 
 13349      35395F5F 
 13350 1531 01       		.byte	0x1
 13351 1532 00       		.uleb128 0
 13352 1533 5F5F4C44 		.ascii "__LDBL_MANT_DIG__ 64\0"
 13352      424C5F4D 
 13352      414E545F 
 13352      4449475F 
 13352      5F203634 
 13353 1548 01       		.byte	0x1
 13354 1549 00       		.uleb128 0
 13355 154a 5F5F4C44 		.ascii "__LDBL_DIG__ 18\0"
 13355      424C5F44 
 13355      49475F5F 
 13355      20313800 
 13356 155a 01       		.byte	0x1
 13357 155b 00       		.uleb128 0
 13358 155c 5F5F4C44 		.ascii "__LDBL_MIN_EXP__ (-16381)\0"
 13358      424C5F4D 
 13358      494E5F45 
 13358      58505F5F 
 13358      20282D31 
 13359 1576 01       		.byte	0x1
 13360 1577 00       		.uleb128 0
 13361 1578 5F5F4C44 		.ascii "__LDBL_MIN_10_EXP__ (-4931)\0"
 13361      424C5F4D 
 13361      494E5F31 
 13361      305F4558 
 13361      505F5F20 
 13362 1594 01       		.byte	0x1
 13363 1595 00       		.uleb128 0
 13364 1596 5F5F4C44 		.ascii "__LDBL_MAX_EXP__ 16384\0"
 13364      424C5F4D 
 13364      41585F45 
 13364      58505F5F 
 13364      20313633 
 13365 15ad 01       		.byte	0x1
 13366 15ae 00       		.uleb128 0
 13367 15af 5F5F4C44 		.ascii "__LDBL_MAX_10_EXP__ 4932\0"
 13367      424C5F4D 
 13367      41585F31 
 13367      305F4558 
 13367      505F5F20 
 13368 15c8 01       		.byte	0x1
 13369 15c9 00       		.uleb128 0
 13370 15ca 5F5F4445 		.ascii "__DECIMAL_DIG__ 21\0"
 13370      43494D41 
 13370      4C5F4449 
 13370      475F5F20 
 13370      323100
 13371 15dd 01       		.byte	0x1
 13372 15de 00       		.uleb128 0
 13373 15df 5F5F4C44 		.ascii "__LDBL_DECIMAL_DIG__ 21\0"
 13373      424C5F44 
 13373      4543494D 
 13373      414C5F44 
 13373      49475F5F 
 13374 15f7 01       		.byte	0x1
 13375 15f8 00       		.uleb128 0
 13376 15f9 5F5F4C44 		.ascii "__LDBL_MAX__ 1.18973149535723176502126385303097021e+4932L\0"
 13376      424C5F4D 
 13376      41585F5F 
 13376      20312E31 
 13376      38393733 
 13377 1633 01       		.byte	0x1
 13378 1634 00       		.uleb128 0
 13379 1635 5F5F4C44 		.ascii "__LDBL_NORM_MAX__ 1.18973149535723176502126385303097021e+4932L\0"
 13379      424C5F4E 
 13379      4F524D5F 
 13379      4D41585F 
 13379      5F20312E 
 13380 1674 01       		.byte	0x1
 13381 1675 00       		.uleb128 0
 13382 1676 5F5F4C44 		.ascii "__LDBL_MIN__ 3.36210314311209350626267781732175260e-4932L\0"
 13382      424C5F4D 
 13382      494E5F5F 
 13382      20332E33 
 13382      36323130 
 13383 16b0 01       		.byte	0x1
 13384 16b1 00       		.uleb128 0
 13385 16b2 5F5F4C44 		.ascii "__LDBL_EPSILON__ 1.08420217248550443400745280086994171e-19L\0"
 13385      424C5F45 
 13385      5053494C 
 13385      4F4E5F5F 
 13385      20312E30 
 13386 16ee 01       		.byte	0x1
 13387 16ef 00       		.uleb128 0
 13388 16f0 5F5F4C44 		.ascii "__LDBL_DENORM_MIN__ 3.64519953188247460252840593361941982e-4951L\0"
 13388      424C5F44 
 13388      454E4F52 
 13388      4D5F4D49 
 13388      4E5F5F20 
 13389 1731 01       		.byte	0x1
 13390 1732 00       		.uleb128 0
 13391 1733 5F5F4C44 		.ascii "__LDBL_HAS_DENORM__ 1\0"
 13391      424C5F48 
 13391      41535F44 
 13391      454E4F52 
 13391      4D5F5F20 
 13392 1749 01       		.byte	0x1
 13393 174a 00       		.uleb128 0
 13394 174b 5F5F4C44 		.ascii "__LDBL_HAS_INFINITY__ 1\0"
 13394      424C5F48 
 13394      41535F49 
 13394      4E46494E 
 13394      4954595F 
 13395 1763 01       		.byte	0x1
 13396 1764 00       		.uleb128 0
 13397 1765 5F5F4C44 		.ascii "__LDBL_HAS_QUIET_NAN__ 1\0"
 13397      424C5F48 
 13397      41535F51 
 13397      55494554 
 13397      5F4E414E 
 13398 177e 01       		.byte	0x1
 13399 177f 00       		.uleb128 0
 13400 1780 5F5F4C44 		.ascii "__LDBL_IS_IEC_60559__ 1\0"
 13400      424C5F49 
 13400      535F4945 
 13400      435F3630 
 13400      3535395F 
 13401 1798 01       		.byte	0x1
 13402 1799 00       		.uleb128 0
 13403 179a 5F5F464C 		.ascii "__FLT16_MANT_DIG__ 11\0"
 13403      5431365F 
 13403      4D414E54 
 13403      5F444947 
 13403      5F5F2031 
 13404 17b0 01       		.byte	0x1
 13405 17b1 00       		.uleb128 0
 13406 17b2 5F5F464C 		.ascii "__FLT16_DIG__ 3\0"
 13406      5431365F 
 13406      4449475F 
 13406      5F203300 
 13407 17c2 01       		.byte	0x1
 13408 17c3 00       		.uleb128 0
 13409 17c4 5F5F464C 		.ascii "__FLT16_MIN_EXP__ (-13)\0"
 13409      5431365F 
 13409      4D494E5F 
 13409      4558505F 
 13409      5F20282D 
 13410 17dc 01       		.byte	0x1
 13411 17dd 00       		.uleb128 0
 13412 17de 5F5F464C 		.ascii "__FLT16_MIN_10_EXP__ (-4)\0"
 13412      5431365F 
 13412      4D494E5F 
 13412      31305F45 
 13412      58505F5F 
 13413 17f8 01       		.byte	0x1
 13414 17f9 00       		.uleb128 0
 13415 17fa 5F5F464C 		.ascii "__FLT16_MAX_EXP__ 16\0"
 13415      5431365F 
 13415      4D41585F 
 13415      4558505F 
 13415      5F203136 
 13416 180f 01       		.byte	0x1
 13417 1810 00       		.uleb128 0
 13418 1811 5F5F464C 		.ascii "__FLT16_MAX_10_EXP__ 4\0"
 13418      5431365F 
 13418      4D41585F 
 13418      31305F45 
 13418      58505F5F 
 13419 1828 01       		.byte	0x1
 13420 1829 00       		.uleb128 0
 13421 182a 5F5F464C 		.ascii "__FLT16_DECIMAL_DIG__ 5\0"
 13421      5431365F 
 13421      44454349 
 13421      4D414C5F 
 13421      4449475F 
 13422 1842 01       		.byte	0x1
 13423 1843 00       		.uleb128 0
 13424 1844 5F5F464C 		.ascii "__FLT16_MAX__ 6.55040000000000000000000000000000000e+4F16\0"
 13424      5431365F 
 13424      4D41585F 
 13424      5F20362E 
 13424      35353034 
 13425 187e 01       		.byte	0x1
 13426 187f 00       		.uleb128 0
 13427 1880 5F5F464C 		.ascii "__FLT16_NORM_MAX__ 6.55040000000000000000000000000000000e+4F16\0"
 13427      5431365F 
 13427      4E4F524D 
 13427      5F4D4158 
 13427      5F5F2036 
 13428 18bf 01       		.byte	0x1
 13429 18c0 00       		.uleb128 0
 13430 18c1 5F5F464C 		.ascii "__FLT16_MIN__ 6.10351562500000000000000000000000000e-5F16\0"
 13430      5431365F 
 13430      4D494E5F 
 13430      5F20362E 
 13430      31303335 
 13431 18fb 01       		.byte	0x1
 13432 18fc 00       		.uleb128 0
 13433 18fd 5F5F464C 		.ascii "__FLT16_EPSILON__ 9.76562500000000000000000000000000000e-4F16\0"
 13433      5431365F 
 13433      45505349 
 13433      4C4F4E5F 
 13433      5F20392E 
 13434 193b 01       		.byte	0x1
 13435 193c 00       		.uleb128 0
 13436 193d 5F5F464C 		.ascii "__FLT16_DENORM_MIN__ 5.96046447753906250000000000000000000e-8F16\0"
 13436      5431365F 
 13436      44454E4F 
 13436      524D5F4D 
 13436      494E5F5F 
 13437 197e 01       		.byte	0x1
 13438 197f 00       		.uleb128 0
 13439 1980 5F5F464C 		.ascii "__FLT16_HAS_DENORM__ 1\0"
 13439      5431365F 
 13439      4841535F 
 13439      44454E4F 
 13439      524D5F5F 
 13440 1997 01       		.byte	0x1
 13441 1998 00       		.uleb128 0
 13442 1999 5F5F464C 		.ascii "__FLT16_HAS_INFINITY__ 1\0"
 13442      5431365F 
 13442      4841535F 
 13442      494E4649 
 13442      4E495459 
 13443 19b2 01       		.byte	0x1
 13444 19b3 00       		.uleb128 0
 13445 19b4 5F5F464C 		.ascii "__FLT16_HAS_QUIET_NAN__ 1\0"
 13445      5431365F 
 13445      4841535F 
 13445      51554945 
 13445      545F4E41 
 13446 19ce 01       		.byte	0x1
 13447 19cf 00       		.uleb128 0
 13448 19d0 5F5F464C 		.ascii "__FLT16_IS_IEC_60559__ 1\0"
 13448      5431365F 
 13448      49535F49 
 13448      45435F36 
 13448      30353539 
 13449 19e9 01       		.byte	0x1
 13450 19ea 00       		.uleb128 0
 13451 19eb 5F5F464C 		.ascii "__FLT32_MANT_DIG__ 24\0"
 13451      5433325F 
 13451      4D414E54 
 13451      5F444947 
 13451      5F5F2032 
 13452 1a01 01       		.byte	0x1
 13453 1a02 00       		.uleb128 0
 13454 1a03 5F5F464C 		.ascii "__FLT32_DIG__ 6\0"
 13454      5433325F 
 13454      4449475F 
 13454      5F203600 
 13455 1a13 01       		.byte	0x1
 13456 1a14 00       		.uleb128 0
 13457 1a15 5F5F464C 		.ascii "__FLT32_MIN_EXP__ (-125)\0"
 13457      5433325F 
 13457      4D494E5F 
 13457      4558505F 
 13457      5F20282D 
 13458 1a2e 01       		.byte	0x1
 13459 1a2f 00       		.uleb128 0
 13460 1a30 5F5F464C 		.ascii "__FLT32_MIN_10_EXP__ (-37)\0"
 13460      5433325F 
 13460      4D494E5F 
 13460      31305F45 
 13460      58505F5F 
 13461 1a4b 01       		.byte	0x1
 13462 1a4c 00       		.uleb128 0
 13463 1a4d 5F5F464C 		.ascii "__FLT32_MAX_EXP__ 128\0"
 13463      5433325F 
 13463      4D41585F 
 13463      4558505F 
 13463      5F203132 
 13464 1a63 01       		.byte	0x1
 13465 1a64 00       		.uleb128 0
 13466 1a65 5F5F464C 		.ascii "__FLT32_MAX_10_EXP__ 38\0"
 13466      5433325F 
 13466      4D41585F 
 13466      31305F45 
 13466      58505F5F 
 13467 1a7d 01       		.byte	0x1
 13468 1a7e 00       		.uleb128 0
 13469 1a7f 5F5F464C 		.ascii "__FLT32_DECIMAL_DIG__ 9\0"
 13469      5433325F 
 13469      44454349 
 13469      4D414C5F 
 13469      4449475F 
 13470 1a97 01       		.byte	0x1
 13471 1a98 00       		.uleb128 0
 13472 1a99 5F5F464C 		.ascii "__FLT32_MAX__ 3.40282346638528859811704183484516925e+38F32\0"
 13472      5433325F 
 13472      4D41585F 
 13472      5F20332E 
 13472      34303238 
 13473 1ad4 01       		.byte	0x1
 13474 1ad5 00       		.uleb128 0
 13475 1ad6 5F5F464C 		.ascii "__FLT32_NORM_MAX__ 3.40282346638528859811704183484516925e+38F32\0"
 13475      5433325F 
 13475      4E4F524D 
 13475      5F4D4158 
 13475      5F5F2033 
 13476 1b16 01       		.byte	0x1
 13477 1b17 00       		.uleb128 0
 13478 1b18 5F5F464C 		.ascii "__FLT32_MIN__ 1.17549435082228750796873653722224568e-38F32\0"
 13478      5433325F 
 13478      4D494E5F 
 13478      5F20312E 
 13478      31373534 
 13479 1b53 01       		.byte	0x1
 13480 1b54 00       		.uleb128 0
 13481 1b55 5F5F464C 		.ascii "__FLT32_EPSILON__ 1.19209289550781250000000000000000000e-7F32\0"
 13481      5433325F 
 13481      45505349 
 13481      4C4F4E5F 
 13481      5F20312E 
 13482 1b93 01       		.byte	0x1
 13483 1b94 00       		.uleb128 0
 13484 1b95 5F5F464C 		.ascii "__FLT32_DENORM_MIN__ 1.40129846432481707092372958328991613e-45F32\0"
 13484      5433325F 
 13484      44454E4F 
 13484      524D5F4D 
 13484      494E5F5F 
 13485 1bd7 01       		.byte	0x1
 13486 1bd8 00       		.uleb128 0
 13487 1bd9 5F5F464C 		.ascii "__FLT32_HAS_DENORM__ 1\0"
 13487      5433325F 
 13487      4841535F 
 13487      44454E4F 
 13487      524D5F5F 
 13488 1bf0 01       		.byte	0x1
 13489 1bf1 00       		.uleb128 0
 13490 1bf2 5F5F464C 		.ascii "__FLT32_HAS_INFINITY__ 1\0"
 13490      5433325F 
 13490      4841535F 
 13490      494E4649 
 13490      4E495459 
 13491 1c0b 01       		.byte	0x1
 13492 1c0c 00       		.uleb128 0
 13493 1c0d 5F5F464C 		.ascii "__FLT32_HAS_QUIET_NAN__ 1\0"
 13493      5433325F 
 13493      4841535F 
 13493      51554945 
 13493      545F4E41 
 13494 1c27 01       		.byte	0x1
 13495 1c28 00       		.uleb128 0
 13496 1c29 5F5F464C 		.ascii "__FLT32_IS_IEC_60559__ 1\0"
 13496      5433325F 
 13496      49535F49 
 13496      45435F36 
 13496      30353539 
 13497 1c42 01       		.byte	0x1
 13498 1c43 00       		.uleb128 0
 13499 1c44 5F5F464C 		.ascii "__FLT64_MANT_DIG__ 53\0"
 13499      5436345F 
 13499      4D414E54 
 13499      5F444947 
 13499      5F5F2035 
 13500 1c5a 01       		.byte	0x1
 13501 1c5b 00       		.uleb128 0
 13502 1c5c 5F5F464C 		.ascii "__FLT64_DIG__ 15\0"
 13502      5436345F 
 13502      4449475F 
 13502      5F203135 
 13502      00
 13503 1c6d 01       		.byte	0x1
 13504 1c6e 00       		.uleb128 0
 13505 1c6f 5F5F464C 		.ascii "__FLT64_MIN_EXP__ (-1021)\0"
 13505      5436345F 
 13505      4D494E5F 
 13505      4558505F 
 13505      5F20282D 
 13506 1c89 01       		.byte	0x1
 13507 1c8a 00       		.uleb128 0
 13508 1c8b 5F5F464C 		.ascii "__FLT64_MIN_10_EXP__ (-307)\0"
 13508      5436345F 
 13508      4D494E5F 
 13508      31305F45 
 13508      58505F5F 
 13509 1ca7 01       		.byte	0x1
 13510 1ca8 00       		.uleb128 0
 13511 1ca9 5F5F464C 		.ascii "__FLT64_MAX_EXP__ 1024\0"
 13511      5436345F 
 13511      4D41585F 
 13511      4558505F 
 13511      5F203130 
 13512 1cc0 01       		.byte	0x1
 13513 1cc1 00       		.uleb128 0
 13514 1cc2 5F5F464C 		.ascii "__FLT64_MAX_10_EXP__ 308\0"
 13514      5436345F 
 13514      4D41585F 
 13514      31305F45 
 13514      58505F5F 
 13515 1cdb 01       		.byte	0x1
 13516 1cdc 00       		.uleb128 0
 13517 1cdd 5F5F464C 		.ascii "__FLT64_DECIMAL_DIG__ 17\0"
 13517      5436345F 
 13517      44454349 
 13517      4D414C5F 
 13517      4449475F 
 13518 1cf6 01       		.byte	0x1
 13519 1cf7 00       		.uleb128 0
 13520 1cf8 5F5F464C 		.ascii "__FLT64_MAX__ 1.79769313486231570814527423731704357e+308F64\0"
 13520      5436345F 
 13520      4D41585F 
 13520      5F20312E 
 13520      37393736 
 13521 1d34 01       		.byte	0x1
 13522 1d35 00       		.uleb128 0
 13523 1d36 5F5F464C 		.ascii "__FLT64_NORM_MAX__ 1.79769313486231570814527423731704357e+308F64\0"
 13523      5436345F 
 13523      4E4F524D 
 13523      5F4D4158 
 13523      5F5F2031 
 13524 1d77 01       		.byte	0x1
 13525 1d78 00       		.uleb128 0
 13526 1d79 5F5F464C 		.ascii "__FLT64_MIN__ 2.22507385850720138309023271733240406e-308F64\0"
 13526      5436345F 
 13526      4D494E5F 
 13526      5F20322E 
 13526      32323530 
 13527 1db5 01       		.byte	0x1
 13528 1db6 00       		.uleb128 0
 13529 1db7 5F5F464C 		.ascii "__FLT64_EPSILON__ 2.22044604925031308084726333618164062e-16F64\0"
 13529      5436345F 
 13529      45505349 
 13529      4C4F4E5F 
 13529      5F20322E 
 13530 1df6 01       		.byte	0x1
 13531 1df7 00       		.uleb128 0
 13532 1df8 5F5F464C 		.ascii "__FLT64_DENORM_MIN__ 4.94065645841246544176568792868221372e-324F64\0"
 13532      5436345F 
 13532      44454E4F 
 13532      524D5F4D 
 13532      494E5F5F 
 13533 1e3b 01       		.byte	0x1
 13534 1e3c 00       		.uleb128 0
 13535 1e3d 5F5F464C 		.ascii "__FLT64_HAS_DENORM__ 1\0"
 13535      5436345F 
 13535      4841535F 
 13535      44454E4F 
 13535      524D5F5F 
 13536 1e54 01       		.byte	0x1
 13537 1e55 00       		.uleb128 0
 13538 1e56 5F5F464C 		.ascii "__FLT64_HAS_INFINITY__ 1\0"
 13538      5436345F 
 13538      4841535F 
 13538      494E4649 
 13538      4E495459 
 13539 1e6f 01       		.byte	0x1
 13540 1e70 00       		.uleb128 0
 13541 1e71 5F5F464C 		.ascii "__FLT64_HAS_QUIET_NAN__ 1\0"
 13541      5436345F 
 13541      4841535F 
 13541      51554945 
 13541      545F4E41 
 13542 1e8b 01       		.byte	0x1
 13543 1e8c 00       		.uleb128 0
 13544 1e8d 5F5F464C 		.ascii "__FLT64_IS_IEC_60559__ 1\0"
 13544      5436345F 
 13544      49535F49 
 13544      45435F36 
 13544      30353539 
 13545 1ea6 01       		.byte	0x1
 13546 1ea7 00       		.uleb128 0
 13547 1ea8 5F5F464C 		.ascii "__FLT128_MANT_DIG__ 113\0"
 13547      54313238 
 13547      5F4D414E 
 13547      545F4449 
 13547      475F5F20 
 13548 1ec0 01       		.byte	0x1
 13549 1ec1 00       		.uleb128 0
 13550 1ec2 5F5F464C 		.ascii "__FLT128_DIG__ 33\0"
 13550      54313238 
 13550      5F444947 
 13550      5F5F2033 
 13550      3300
 13551 1ed4 01       		.byte	0x1
 13552 1ed5 00       		.uleb128 0
 13553 1ed6 5F5F464C 		.ascii "__FLT128_MIN_EXP__ (-16381)\0"
 13553      54313238 
 13553      5F4D494E 
 13553      5F455850 
 13553      5F5F2028 
 13554 1ef2 01       		.byte	0x1
 13555 1ef3 00       		.uleb128 0
 13556 1ef4 5F5F464C 		.ascii "__FLT128_MIN_10_EXP__ (-4931)\0"
 13556      54313238 
 13556      5F4D494E 
 13556      5F31305F 
 13556      4558505F 
 13557 1f12 01       		.byte	0x1
 13558 1f13 00       		.uleb128 0
 13559 1f14 5F5F464C 		.ascii "__FLT128_MAX_EXP__ 16384\0"
 13559      54313238 
 13559      5F4D4158 
 13559      5F455850 
 13559      5F5F2031 
 13560 1f2d 01       		.byte	0x1
 13561 1f2e 00       		.uleb128 0
 13562 1f2f 5F5F464C 		.ascii "__FLT128_MAX_10_EXP__ 4932\0"
 13562      54313238 
 13562      5F4D4158 
 13562      5F31305F 
 13562      4558505F 
 13563 1f4a 01       		.byte	0x1
 13564 1f4b 00       		.uleb128 0
 13565 1f4c 5F5F464C 		.ascii "__FLT128_DECIMAL_DIG__ 36\0"
 13565      54313238 
 13565      5F444543 
 13565      494D414C 
 13565      5F444947 
 13566 1f66 01       		.byte	0x1
 13567 1f67 00       		.uleb128 0
 13568 1f68 5F5F464C 		.ascii "__FLT128_MAX__ 1.18973149535723176508575932662800702e+4932F128\0"
 13568      54313238 
 13568      5F4D4158 
 13568      5F5F2031 
 13568      2E313839 
 13569 1fa7 01       		.byte	0x1
 13570 1fa8 00       		.uleb128 0
 13571 1fa9 5F5F464C 		.ascii "__FLT128_NORM_MAX__ 1.18973149535723176508575932662800702e+4932F128\0"
 13571      54313238 
 13571      5F4E4F52 
 13571      4D5F4D41 
 13571      585F5F20 
 13572 1fed 01       		.byte	0x1
 13573 1fee 00       		.uleb128 0
 13574 1fef 5F5F464C 		.ascii "__FLT128_MIN__ 3.36210314311209350626267781732175260e-4932F128\0"
 13574      54313238 
 13574      5F4D494E 
 13574      5F5F2033 
 13574      2E333632 
 13575 202e 01       		.byte	0x1
 13576 202f 00       		.uleb128 0
 13577 2030 5F5F464C 		.ascii "__FLT128_EPSILON__ 1.92592994438723585305597794258492732e-34F128\0"
 13577      54313238 
 13577      5F455053 
 13577      494C4F4E 
 13577      5F5F2031 
 13578 2071 01       		.byte	0x1
 13579 2072 00       		.uleb128 0
 13580 2073 5F5F464C 		.ascii "__FLT128_DENORM_MIN__ 6.47517511943802511092443895822764655e-4966F128\0"
 13580      54313238 
 13580      5F44454E 
 13580      4F524D5F 
 13580      4D494E5F 
 13581 20b9 01       		.byte	0x1
 13582 20ba 00       		.uleb128 0
 13583 20bb 5F5F464C 		.ascii "__FLT128_HAS_DENORM__ 1\0"
 13583      54313238 
 13583      5F484153 
 13583      5F44454E 
 13583      4F524D5F 
 13584 20d3 01       		.byte	0x1
 13585 20d4 00       		.uleb128 0
 13586 20d5 5F5F464C 		.ascii "__FLT128_HAS_INFINITY__ 1\0"
 13586      54313238 
 13586      5F484153 
 13586      5F494E46 
 13586      494E4954 
 13587 20ef 01       		.byte	0x1
 13588 20f0 00       		.uleb128 0
 13589 20f1 5F5F464C 		.ascii "__FLT128_HAS_QUIET_NAN__ 1\0"
 13589      54313238 
 13589      5F484153 
 13589      5F515549 
 13589      45545F4E 
 13590 210c 01       		.byte	0x1
 13591 210d 00       		.uleb128 0
 13592 210e 5F5F464C 		.ascii "__FLT128_IS_IEC_60559__ 1\0"
 13592      54313238 
 13592      5F49535F 
 13592      4945435F 
 13592      36303535 
 13593 2128 01       		.byte	0x1
 13594 2129 00       		.uleb128 0
 13595 212a 5F5F464C 		.ascii "__FLT32X_MANT_DIG__ 53\0"
 13595      54333258 
 13595      5F4D414E 
 13595      545F4449 
 13595      475F5F20 
 13596 2141 01       		.byte	0x1
 13597 2142 00       		.uleb128 0
 13598 2143 5F5F464C 		.ascii "__FLT32X_DIG__ 15\0"
 13598      54333258 
 13598      5F444947 
 13598      5F5F2031 
 13598      3500
 13599 2155 01       		.byte	0x1
 13600 2156 00       		.uleb128 0
 13601 2157 5F5F464C 		.ascii "__FLT32X_MIN_EXP__ (-1021)\0"
 13601      54333258 
 13601      5F4D494E 
 13601      5F455850 
 13601      5F5F2028 
 13602 2172 01       		.byte	0x1
 13603 2173 00       		.uleb128 0
 13604 2174 5F5F464C 		.ascii "__FLT32X_MIN_10_EXP__ (-307)\0"
 13604      54333258 
 13604      5F4D494E 
 13604      5F31305F 
 13604      4558505F 
 13605 2191 01       		.byte	0x1
 13606 2192 00       		.uleb128 0
 13607 2193 5F5F464C 		.ascii "__FLT32X_MAX_EXP__ 1024\0"
 13607      54333258 
 13607      5F4D4158 
 13607      5F455850 
 13607      5F5F2031 
 13608 21ab 01       		.byte	0x1
 13609 21ac 00       		.uleb128 0
 13610 21ad 5F5F464C 		.ascii "__FLT32X_MAX_10_EXP__ 308\0"
 13610      54333258 
 13610      5F4D4158 
 13610      5F31305F 
 13610      4558505F 
 13611 21c7 01       		.byte	0x1
 13612 21c8 00       		.uleb128 0
 13613 21c9 5F5F464C 		.ascii "__FLT32X_DECIMAL_DIG__ 17\0"
 13613      54333258 
 13613      5F444543 
 13613      494D414C 
 13613      5F444947 
 13614 21e3 01       		.byte	0x1
 13615 21e4 00       		.uleb128 0
 13616 21e5 5F5F464C 		.ascii "__FLT32X_MAX__ 1.79769313486231570814527423731704357e+308F32x\0"
 13616      54333258 
 13616      5F4D4158 
 13616      5F5F2031 
 13616      2E373937 
 13617 2223 01       		.byte	0x1
 13618 2224 00       		.uleb128 0
 13619 2225 5F5F464C 		.ascii "__FLT32X_NORM_MAX__ 1.79769313486231570814527423731704357e+308F32x\0"
 13619      54333258 
 13619      5F4E4F52 
 13619      4D5F4D41 
 13619      585F5F20 
 13620 2268 01       		.byte	0x1
 13621 2269 00       		.uleb128 0
 13622 226a 5F5F464C 		.ascii "__FLT32X_MIN__ 2.22507385850720138309023271733240406e-308F32x\0"
 13622      54333258 
 13622      5F4D494E 
 13622      5F5F2032 
 13622      2E323235 
 13623 22a8 01       		.byte	0x1
 13624 22a9 00       		.uleb128 0
 13625 22aa 5F5F464C 		.ascii "__FLT32X_EPSILON__ 2.22044604925031308084726333618164062e-16F32x\0"
 13625      54333258 
 13625      5F455053 
 13625      494C4F4E 
 13625      5F5F2032 
 13626 22eb 01       		.byte	0x1
 13627 22ec 00       		.uleb128 0
 13628 22ed 5F5F464C 		.ascii "__FLT32X_DENORM_MIN__ 4.94065645841246544176568792868221372e-324F32x\0"
 13628      54333258 
 13628      5F44454E 
 13628      4F524D5F 
 13628      4D494E5F 
 13629 2332 01       		.byte	0x1
 13630 2333 00       		.uleb128 0
 13631 2334 5F5F464C 		.ascii "__FLT32X_HAS_DENORM__ 1\0"
 13631      54333258 
 13631      5F484153 
 13631      5F44454E 
 13631      4F524D5F 
 13632 234c 01       		.byte	0x1
 13633 234d 00       		.uleb128 0
 13634 234e 5F5F464C 		.ascii "__FLT32X_HAS_INFINITY__ 1\0"
 13634      54333258 
 13634      5F484153 
 13634      5F494E46 
 13634      494E4954 
 13635 2368 01       		.byte	0x1
 13636 2369 00       		.uleb128 0
 13637 236a 5F5F464C 		.ascii "__FLT32X_HAS_QUIET_NAN__ 1\0"
 13637      54333258 
 13637      5F484153 
 13637      5F515549 
 13637      45545F4E 
 13638 2385 01       		.byte	0x1
 13639 2386 00       		.uleb128 0
 13640 2387 5F5F464C 		.ascii "__FLT32X_IS_IEC_60559__ 1\0"
 13640      54333258 
 13640      5F49535F 
 13640      4945435F 
 13640      36303535 
 13641 23a1 01       		.byte	0x1
 13642 23a2 00       		.uleb128 0
 13643 23a3 5F5F464C 		.ascii "__FLT64X_MANT_DIG__ 64\0"
 13643      54363458 
 13643      5F4D414E 
 13643      545F4449 
 13643      475F5F20 
 13644 23ba 01       		.byte	0x1
 13645 23bb 00       		.uleb128 0
 13646 23bc 5F5F464C 		.ascii "__FLT64X_DIG__ 18\0"
 13646      54363458 
 13646      5F444947 
 13646      5F5F2031 
 13646      3800
 13647 23ce 01       		.byte	0x1
 13648 23cf 00       		.uleb128 0
 13649 23d0 5F5F464C 		.ascii "__FLT64X_MIN_EXP__ (-16381)\0"
 13649      54363458 
 13649      5F4D494E 
 13649      5F455850 
 13649      5F5F2028 
 13650 23ec 01       		.byte	0x1
 13651 23ed 00       		.uleb128 0
 13652 23ee 5F5F464C 		.ascii "__FLT64X_MIN_10_EXP__ (-4931)\0"
 13652      54363458 
 13652      5F4D494E 
 13652      5F31305F 
 13652      4558505F 
 13653 240c 01       		.byte	0x1
 13654 240d 00       		.uleb128 0
 13655 240e 5F5F464C 		.ascii "__FLT64X_MAX_EXP__ 16384\0"
 13655      54363458 
 13655      5F4D4158 
 13655      5F455850 
 13655      5F5F2031 
 13656 2427 01       		.byte	0x1
 13657 2428 00       		.uleb128 0
 13658 2429 5F5F464C 		.ascii "__FLT64X_MAX_10_EXP__ 4932\0"
 13658      54363458 
 13658      5F4D4158 
 13658      5F31305F 
 13658      4558505F 
 13659 2444 01       		.byte	0x1
 13660 2445 00       		.uleb128 0
 13661 2446 5F5F464C 		.ascii "__FLT64X_DECIMAL_DIG__ 21\0"
 13661      54363458 
 13661      5F444543 
 13661      494D414C 
 13661      5F444947 
 13662 2460 01       		.byte	0x1
 13663 2461 00       		.uleb128 0
 13664 2462 5F5F464C 		.ascii "__FLT64X_MAX__ 1.18973149535723176502126385303097021e+4932F64x\0"
 13664      54363458 
 13664      5F4D4158 
 13664      5F5F2031 
 13664      2E313839 
 13665 24a1 01       		.byte	0x1
 13666 24a2 00       		.uleb128 0
 13667 24a3 5F5F464C 		.ascii "__FLT64X_NORM_MAX__ 1.18973149535723176502126385303097021e+4932F64x\0"
 13667      54363458 
 13667      5F4E4F52 
 13667      4D5F4D41 
 13667      585F5F20 
 13668 24e7 01       		.byte	0x1
 13669 24e8 00       		.uleb128 0
 13670 24e9 5F5F464C 		.ascii "__FLT64X_MIN__ 3.36210314311209350626267781732175260e-4932F64x\0"
 13670      54363458 
 13670      5F4D494E 
 13670      5F5F2033 
 13670      2E333632 
 13671 2528 01       		.byte	0x1
 13672 2529 00       		.uleb128 0
 13673 252a 5F5F464C 		.ascii "__FLT64X_EPSILON__ 1.08420217248550443400745280086994171e-19F64x\0"
 13673      54363458 
 13673      5F455053 
 13673      494C4F4E 
 13673      5F5F2031 
 13674 256b 01       		.byte	0x1
 13675 256c 00       		.uleb128 0
 13676 256d 5F5F464C 		.ascii "__FLT64X_DENORM_MIN__ 3.64519953188247460252840593361941982e-4951F64x\0"
 13676      54363458 
 13676      5F44454E 
 13676      4F524D5F 
 13676      4D494E5F 
 13677 25b3 01       		.byte	0x1
 13678 25b4 00       		.uleb128 0
 13679 25b5 5F5F464C 		.ascii "__FLT64X_HAS_DENORM__ 1\0"
 13679      54363458 
 13679      5F484153 
 13679      5F44454E 
 13679      4F524D5F 
 13680 25cd 01       		.byte	0x1
 13681 25ce 00       		.uleb128 0
 13682 25cf 5F5F464C 		.ascii "__FLT64X_HAS_INFINITY__ 1\0"
 13682      54363458 
 13682      5F484153 
 13682      5F494E46 
 13682      494E4954 
 13683 25e9 01       		.byte	0x1
 13684 25ea 00       		.uleb128 0
 13685 25eb 5F5F464C 		.ascii "__FLT64X_HAS_QUIET_NAN__ 1\0"
 13685      54363458 
 13685      5F484153 
 13685      5F515549 
 13685      45545F4E 
 13686 2606 01       		.byte	0x1
 13687 2607 00       		.uleb128 0
 13688 2608 5F5F464C 		.ascii "__FLT64X_IS_IEC_60559__ 1\0"
 13688      54363458 
 13688      5F49535F 
 13688      4945435F 
 13688      36303535 
 13689 2622 01       		.byte	0x1
 13690 2623 00       		.uleb128 0
 13691 2624 5F5F4246 		.ascii "__BFLT16_MANT_DIG__ 8\0"
 13691      4C543136 
 13691      5F4D414E 
 13691      545F4449 
 13691      475F5F20 
 13692 263a 01       		.byte	0x1
 13693 263b 00       		.uleb128 0
 13694 263c 5F5F4246 		.ascii "__BFLT16_DIG__ 2\0"
 13694      4C543136 
 13694      5F444947 
 13694      5F5F2032 
 13694      00
 13695 264d 01       		.byte	0x1
 13696 264e 00       		.uleb128 0
 13697 264f 5F5F4246 		.ascii "__BFLT16_MIN_EXP__ (-125)\0"
 13697      4C543136 
 13697      5F4D494E 
 13697      5F455850 
 13697      5F5F2028 
 13698 2669 01       		.byte	0x1
 13699 266a 00       		.uleb128 0
 13700 266b 5F5F4246 		.ascii "__BFLT16_MIN_10_EXP__ (-37)\0"
 13700      4C543136 
 13700      5F4D494E 
 13700      5F31305F 
 13700      4558505F 
 13701 2687 01       		.byte	0x1
 13702 2688 00       		.uleb128 0
 13703 2689 5F5F4246 		.ascii "__BFLT16_MAX_EXP__ 128\0"
 13703      4C543136 
 13703      5F4D4158 
 13703      5F455850 
 13703      5F5F2031 
 13704 26a0 01       		.byte	0x1
 13705 26a1 00       		.uleb128 0
 13706 26a2 5F5F4246 		.ascii "__BFLT16_MAX_10_EXP__ 38\0"
 13706      4C543136 
 13706      5F4D4158 
 13706      5F31305F 
 13706      4558505F 
 13707 26bb 01       		.byte	0x1
 13708 26bc 00       		.uleb128 0
 13709 26bd 5F5F4246 		.ascii "__BFLT16_DECIMAL_DIG__ 4\0"
 13709      4C543136 
 13709      5F444543 
 13709      494D414C 
 13709      5F444947 
 13710 26d6 01       		.byte	0x1
 13711 26d7 00       		.uleb128 0
 13712 26d8 5F5F4246 		.ascii "__BFLT16_MAX__ 3.38953138925153547590470800371487867e+38BF16\0"
 13712      4C543136 
 13712      5F4D4158 
 13712      5F5F2033 
 13712      2E333839 
 13713 2715 01       		.byte	0x1
 13714 2716 00       		.uleb128 0
 13715 2717 5F5F4246 		.ascii "__BFLT16_NORM_MAX__ 3.38953138925153547590470800371487867e+38BF16\0"
 13715      4C543136 
 13715      5F4E4F52 
 13715      4D5F4D41 
 13715      585F5F20 
 13716 2759 01       		.byte	0x1
 13717 275a 00       		.uleb128 0
 13718 275b 5F5F4246 		.ascii "__BFLT16_MIN__ 1.17549435082228750796873653722224568e-38BF16\0"
 13718      4C543136 
 13718      5F4D494E 
 13718      5F5F2031 
 13718      2E313735 
 13719 2798 01       		.byte	0x1
 13720 2799 00       		.uleb128 0
 13721 279a 5F5F4246 		.ascii "__BFLT16_EPSILON__ 7.81250000000000000000000000000000000e-3BF16\0"
 13721      4C543136 
 13721      5F455053 
 13721      494C4F4E 
 13721      5F5F2037 
 13722 27da 01       		.byte	0x1
 13723 27db 00       		.uleb128 0
 13724 27dc 5F5F4246 		.ascii "__BFLT16_DENORM_MIN__ 9.18354961579912115600575419704879436e-41BF16\0"
 13724      4C543136 
 13724      5F44454E 
 13724      4F524D5F 
 13724      4D494E5F 
 13725 2820 01       		.byte	0x1
 13726 2821 00       		.uleb128 0
 13727 2822 5F5F4246 		.ascii "__BFLT16_HAS_DENORM__ 1\0"
 13727      4C543136 
 13727      5F484153 
 13727      5F44454E 
 13727      4F524D5F 
 13728 283a 01       		.byte	0x1
 13729 283b 00       		.uleb128 0
 13730 283c 5F5F4246 		.ascii "__BFLT16_HAS_INFINITY__ 1\0"
 13730      4C543136 
 13730      5F484153 
 13730      5F494E46 
 13730      494E4954 
 13731 2856 01       		.byte	0x1
 13732 2857 00       		.uleb128 0
 13733 2858 5F5F4246 		.ascii "__BFLT16_HAS_QUIET_NAN__ 1\0"
 13733      4C543136 
 13733      5F484153 
 13733      5F515549 
 13733      45545F4E 
 13734 2873 01       		.byte	0x1
 13735 2874 00       		.uleb128 0
 13736 2875 5F5F4246 		.ascii "__BFLT16_IS_IEC_60559__ 0\0"
 13736      4C543136 
 13736      5F49535F 
 13736      4945435F 
 13736      36303535 
 13737 288f 01       		.byte	0x1
 13738 2890 00       		.uleb128 0
 13739 2891 5F5F4445 		.ascii "__DEC32_MANT_DIG__ 7\0"
 13739      4333325F 
 13739      4D414E54 
 13739      5F444947 
 13739      5F5F2037 
 13740 28a6 01       		.byte	0x1
 13741 28a7 00       		.uleb128 0
 13742 28a8 5F5F4445 		.ascii "__DEC32_MIN_EXP__ (-94)\0"
 13742      4333325F 
 13742      4D494E5F 
 13742      4558505F 
 13742      5F20282D 
 13743 28c0 01       		.byte	0x1
 13744 28c1 00       		.uleb128 0
 13745 28c2 5F5F4445 		.ascii "__DEC32_MAX_EXP__ 97\0"
 13745      4333325F 
 13745      4D41585F 
 13745      4558505F 
 13745      5F203937 
 13746 28d7 01       		.byte	0x1
 13747 28d8 00       		.uleb128 0
 13748 28d9 5F5F4445 		.ascii "__DEC32_MIN__ 1E-95DF\0"
 13748      4333325F 
 13748      4D494E5F 
 13748      5F203145 
 13748      2D393544 
 13749 28ef 01       		.byte	0x1
 13750 28f0 00       		.uleb128 0
 13751 28f1 5F5F4445 		.ascii "__DEC32_MAX__ 9.999999E96DF\0"
 13751      4333325F 
 13751      4D41585F 
 13751      5F20392E 
 13751      39393939 
 13752 290d 01       		.byte	0x1
 13753 290e 00       		.uleb128 0
 13754 290f 5F5F4445 		.ascii "__DEC32_EPSILON__ 1E-6DF\0"
 13754      4333325F 
 13754      45505349 
 13754      4C4F4E5F 
 13754      5F203145 
 13755 2928 01       		.byte	0x1
 13756 2929 00       		.uleb128 0
 13757 292a 5F5F4445 		.ascii "__DEC32_SUBNORMAL_MIN__ 0.000001E-95DF\0"
 13757      4333325F 
 13757      5355424E 
 13757      4F524D41 
 13757      4C5F4D49 
 13758 2951 01       		.byte	0x1
 13759 2952 00       		.uleb128 0
 13760 2953 5F5F4445 		.ascii "__DEC64_MANT_DIG__ 16\0"
 13760      4336345F 
 13760      4D414E54 
 13760      5F444947 
 13760      5F5F2031 
 13761 2969 01       		.byte	0x1
 13762 296a 00       		.uleb128 0
 13763 296b 5F5F4445 		.ascii "__DEC64_MIN_EXP__ (-382)\0"
 13763      4336345F 
 13763      4D494E5F 
 13763      4558505F 
 13763      5F20282D 
 13764 2984 01       		.byte	0x1
 13765 2985 00       		.uleb128 0
 13766 2986 5F5F4445 		.ascii "__DEC64_MAX_EXP__ 385\0"
 13766      4336345F 
 13766      4D41585F 
 13766      4558505F 
 13766      5F203338 
 13767 299c 01       		.byte	0x1
 13768 299d 00       		.uleb128 0
 13769 299e 5F5F4445 		.ascii "__DEC64_MIN__ 1E-383DD\0"
 13769      4336345F 
 13769      4D494E5F 
 13769      5F203145 
 13769      2D333833 
 13770 29b5 01       		.byte	0x1
 13771 29b6 00       		.uleb128 0
 13772 29b7 5F5F4445 		.ascii "__DEC64_MAX__ 9.999999999999999E384DD\0"
 13772      4336345F 
 13772      4D41585F 
 13772      5F20392E 
 13772      39393939 
 13773 29dd 01       		.byte	0x1
 13774 29de 00       		.uleb128 0
 13775 29df 5F5F4445 		.ascii "__DEC64_EPSILON__ 1E-15DD\0"
 13775      4336345F 
 13775      45505349 
 13775      4C4F4E5F 
 13775      5F203145 
 13776 29f9 01       		.byte	0x1
 13777 29fa 00       		.uleb128 0
 13778 29fb 5F5F4445 		.ascii "__DEC64_SUBNORMAL_MIN__ 0.000000000000001E-383DD\0"
 13778      4336345F 
 13778      5355424E 
 13778      4F524D41 
 13778      4C5F4D49 
 13779 2a2c 01       		.byte	0x1
 13780 2a2d 00       		.uleb128 0
 13781 2a2e 5F5F4445 		.ascii "__DEC128_MANT_DIG__ 34\0"
 13781      43313238 
 13781      5F4D414E 
 13781      545F4449 
 13781      475F5F20 
 13782 2a45 01       		.byte	0x1
 13783 2a46 00       		.uleb128 0
 13784 2a47 5F5F4445 		.ascii "__DEC128_MIN_EXP__ (-6142)\0"
 13784      43313238 
 13784      5F4D494E 
 13784      5F455850 
 13784      5F5F2028 
 13785 2a62 01       		.byte	0x1
 13786 2a63 00       		.uleb128 0
 13787 2a64 5F5F4445 		.ascii "__DEC128_MAX_EXP__ 6145\0"
 13787      43313238 
 13787      5F4D4158 
 13787      5F455850 
 13787      5F5F2036 
 13788 2a7c 01       		.byte	0x1
 13789 2a7d 00       		.uleb128 0
 13790 2a7e 5F5F4445 		.ascii "__DEC128_MIN__ 1E-6143DL\0"
 13790      43313238 
 13790      5F4D494E 
 13790      5F5F2031 
 13790      452D3631 
 13791 2a97 01       		.byte	0x1
 13792 2a98 00       		.uleb128 0
 13793 2a99 5F5F4445 		.ascii "__DEC128_MAX__ 9.999999999999999999999999999999999E6144DL\0"
 13793      43313238 
 13793      5F4D4158 
 13793      5F5F2039 
 13793      2E393939 
 13794 2ad3 01       		.byte	0x1
 13795 2ad4 00       		.uleb128 0
 13796 2ad5 5F5F4445 		.ascii "__DEC128_EPSILON__ 1E-33DL\0"
 13796      43313238 
 13796      5F455053 
 13796      494C4F4E 
 13796      5F5F2031 
 13797 2af0 01       		.byte	0x1
 13798 2af1 00       		.uleb128 0
 13799 2af2 5F5F4445 		.ascii "__DEC128_SUBNORMAL_MIN__ 0.000000000000000000000000000000001E-6143DL\0"
 13799      43313238 
 13799      5F535542 
 13799      4E4F524D 
 13799      414C5F4D 
 13800 2b37 01       		.byte	0x1
 13801 2b38 00       		.uleb128 0
 13802 2b39 5F5F5245 		.ascii "__REGISTER_PREFIX__ \0"
 13802      47495354 
 13802      45525F50 
 13802      52454649 
 13802      585F5F20 
 13803 2b4e 01       		.byte	0x1
 13804 2b4f 00       		.uleb128 0
 13805 2b50 5F5F5553 		.ascii "__USER_LABEL_PREFIX__ \0"
 13805      45525F4C 
 13805      4142454C 
 13805      5F505245 
 13805      4649585F 
 13806 2b67 01       		.byte	0x1
 13807 2b68 00       		.uleb128 0
 13808 2b69 5F5F474E 		.ascii "__GNUC_STDC_INLINE__ 1\0"
 13808      55435F53 
 13808      5444435F 
 13808      494E4C49 
 13808      4E455F5F 
 13809 2b80 01       		.byte	0x1
 13810 2b81 00       		.uleb128 0
 13811 2b82 5F5F5354 		.ascii "__STRICT_ANSI__ 1\0"
 13811      52494354 
 13811      5F414E53 
 13811      495F5F20 
 13811      3100
 13812 2b94 01       		.byte	0x1
 13813 2b95 00       		.uleb128 0
 13814 2b96 5F5F4743 		.ascii "__GCC_HAVE_SYNC_COMPARE_AND_SWAP_1 1\0"
 13814      435F4841 
 13814      56455F53 
 13814      594E435F 
 13814      434F4D50 
 13815 2bbb 01       		.byte	0x1
 13816 2bbc 00       		.uleb128 0
 13817 2bbd 5F5F4743 		.ascii "__GCC_HAVE_SYNC_COMPARE_AND_SWAP_2 1\0"
 13817      435F4841 
 13817      56455F53 
 13817      594E435F 
 13817      434F4D50 
 13818 2be2 01       		.byte	0x1
 13819 2be3 00       		.uleb128 0
 13820 2be4 5F5F4743 		.ascii "__GCC_HAVE_SYNC_COMPARE_AND_SWAP_4 1\0"
 13820      435F4841 
 13820      56455F53 
 13820      594E435F 
 13820      434F4D50 
 13821 2c09 01       		.byte	0x1
 13822 2c0a 00       		.uleb128 0
 13823 2c0b 5F5F4743 		.ascii "__GCC_HAVE_SYNC_COMPARE_AND_SWAP_8 1\0"
 13823      435F4841 
 13823      56455F53 
 13823      594E435F 
 13823      434F4D50 
 13824 2c30 01       		.byte	0x1
 13825 2c31 00       		.uleb128 0
 13826 2c32 5F5F4743 		.ascii "__GCC_HAVE_SYNC_COMPARE_AND_SWAP_16 1\0"
 13826      435F4841 
 13826      56455F53 
 13826      594E435F 
 13826      434F4D50 
 13827 2c58 01       		.byte	0x1
 13828 2c59 00       		.uleb128 0
 13829 2c5a 5F5F4743 		.ascii "__GCC_ATOMIC_BOOL_LOCK_FREE 2\0"
 13829      435F4154 
 13829      4F4D4943 
 13829      5F424F4F 
 13829      4C5F4C4F 
 13830 2c78 01       		.byte	0x1
 13831 2c79 00       		.uleb128 0
 13832 2c7a 5F5F4743 		.ascii "__GCC_ATOMIC_CHAR_LOCK_FREE 2\0"
 13832      435F4154 
 13832      4F4D4943 
 13832      5F434841 
 13832      525F4C4F 
 13833 2c98 01       		.byte	0x1
 13834 2c99 00       		.uleb128 0
 13835 2c9a 5F5F4743 		.ascii "__GCC_ATOMIC_CHAR16_T_LOCK_FREE 2\0"
 13835      435F4154 
 13835      4F4D4943 
 13835      5F434841 
 13835      5231365F 
 13836 2cbc 01       		.byte	0x1
 13837 2cbd 00       		.uleb128 0
 13838 2cbe 5F5F4743 		.ascii "__GCC_ATOMIC_CHAR32_T_LOCK_FREE 2\0"
 13838      435F4154 
 13838      4F4D4943 
 13838      5F434841 
 13838      5233325F 
 13839 2ce0 01       		.byte	0x1
 13840 2ce1 00       		.uleb128 0
 13841 2ce2 5F5F4743 		.ascii "__GCC_ATOMIC_WCHAR_T_LOCK_FREE 2\0"
 13841      435F4154 
 13841      4F4D4943 
 13841      5F574348 
 13841      41525F54 
 13842 2d03 01       		.byte	0x1
 13843 2d04 00       		.uleb128 0
 13844 2d05 5F5F4743 		.ascii "__GCC_ATOMIC_SHORT_LOCK_FREE 2\0"
 13844      435F4154 
 13844      4F4D4943 
 13844      5F53484F 
 13844      52545F4C 
 13845 2d24 01       		.byte	0x1
 13846 2d25 00       		.uleb128 0
 13847 2d26 5F5F4743 		.ascii "__GCC_ATOMIC_INT_LOCK_FREE 2\0"
 13847      435F4154 
 13847      4F4D4943 
 13847      5F494E54 
 13847      5F4C4F43 
 13848 2d43 01       		.byte	0x1
 13849 2d44 00       		.uleb128 0
 13850 2d45 5F5F4743 		.ascii "__GCC_ATOMIC_LONG_LOCK_FREE 2\0"
 13850      435F4154 
 13850      4F4D4943 
 13850      5F4C4F4E 
 13850      475F4C4F 
 13851 2d63 01       		.byte	0x1
 13852 2d64 00       		.uleb128 0
 13853 2d65 5F5F4743 		.ascii "__GCC_ATOMIC_LLONG_LOCK_FREE 2\0"
 13853      435F4154 
 13853      4F4D4943 
 13853      5F4C4C4F 
 13853      4E475F4C 
 13854 2d84 01       		.byte	0x1
 13855 2d85 00       		.uleb128 0
 13856 2d86 5F5F4743 		.ascii "__GCC_ATOMIC_TEST_AND_SET_TRUEVAL 1\0"
 13856      435F4154 
 13856      4F4D4943 
 13856      5F544553 
 13856      545F414E 
 13857 2daa 01       		.byte	0x1
 13858 2dab 00       		.uleb128 0
 13859 2dac 5F5F4743 		.ascii "__GCC_DESTRUCTIVE_SIZE 64\0"
 13859      435F4445 
 13859      53545255 
 13859      43544956 
 13859      455F5349 
 13860 2dc6 01       		.byte	0x1
 13861 2dc7 00       		.uleb128 0
 13862 2dc8 5F5F4743 		.ascii "__GCC_CONSTRUCTIVE_SIZE 64\0"
 13862      435F434F 
 13862      4E535452 
 13862      55435449 
 13862      56455F53 
 13863 2de3 01       		.byte	0x1
 13864 2de4 00       		.uleb128 0
 13865 2de5 5F5F4743 		.ascii "__GCC_ATOMIC_POINTER_LOCK_FREE 2\0"
 13865      435F4154 
 13865      4F4D4943 
 13865      5F504F49 
 13865      4E544552 
 13866 2e06 01       		.byte	0x1
 13867 2e07 00       		.uleb128 0
 13868 2e08 5F5F4841 		.ascii "__HAVE_SPECULATION_SAFE_VALUE 1\0"
 13868      56455F53 
 13868      50454355 
 13868      4C415449 
 13868      4F4E5F53 
 13869 2e28 01       		.byte	0x1
 13870 2e29 00       		.uleb128 0
 13871 2e2a 5F5F4743 		.ascii "__GCC_HAVE_DWARF2_CFI_ASM 1\0"
 13871      435F4841 
 13871      56455F44 
 13871      57415246 
 13871      325F4346 
 13872 2e46 01       		.byte	0x1
 13873 2e47 00       		.uleb128 0
 13874 2e48 5F5F5052 		.ascii "__PRAGMA_REDEFINE_EXTNAME 1\0"
 13874      41474D41 
 13874      5F524544 
 13874      4546494E 
 13874      455F4558 
 13875 2e64 01       		.byte	0x1
 13876 2e65 00       		.uleb128 0
 13877 2e66 5F5F5349 		.ascii "__SIZEOF_INT128__ 16\0"
 13877      5A454F46 
 13877      5F494E54 
 13877      3132385F 
 13877      5F203136 
 13878 2e7b 01       		.byte	0x1
 13879 2e7c 00       		.uleb128 0
 13880 2e7d 5F5F5349 		.ascii "__SIZEOF_WCHAR_T__ 2\0"
 13880      5A454F46 
 13880      5F574348 
 13880      41525F54 
 13880      5F5F2032 
 13881 2e92 01       		.byte	0x1
 13882 2e93 00       		.uleb128 0
 13883 2e94 5F5F5349 		.ascii "__SIZEOF_WINT_T__ 2\0"
 13883      5A454F46 
 13883      5F57494E 
 13883      545F545F 
 13883      5F203200 
 13884 2ea8 01       		.byte	0x1
 13885 2ea9 00       		.uleb128 0
 13886 2eaa 5F5F5349 		.ascii "__SIZEOF_PTRDIFF_T__ 8\0"
 13886      5A454F46 
 13886      5F505452 
 13886      44494646 
 13886      5F545F5F 
 13887 2ec1 01       		.byte	0x1
 13888 2ec2 00       		.uleb128 0
 13889 2ec3 5F5F616D 		.ascii "__amd64 1\0"
 13889      64363420 
 13889      3100
 13890 2ecd 01       		.byte	0x1
 13891 2ece 00       		.uleb128 0
 13892 2ecf 5F5F616D 		.ascii "__amd64__ 1\0"
 13892      6436345F 
 13892      5F203100 
 13893 2edb 01       		.byte	0x1
 13894 2edc 00       		.uleb128 0
 13895 2edd 5F5F7838 		.ascii "__x86_64 1\0"
 13895      365F3634 
 13895      203100
 13896 2ee8 01       		.byte	0x1
 13897 2ee9 00       		.uleb128 0
 13898 2eea 5F5F7838 		.ascii "__x86_64__ 1\0"
 13898      365F3634 
 13898      5F5F2031 
 13898      00
 13899 2ef7 01       		.byte	0x1
 13900 2ef8 00       		.uleb128 0
 13901 2ef9 5F5F5349 		.ascii "__SIZEOF_FLOAT80__ 16\0"
 13901      5A454F46 
 13901      5F464C4F 
 13901      41543830 
 13901      5F5F2031 
 13902 2f0f 01       		.byte	0x1
 13903 2f10 00       		.uleb128 0
 13904 2f11 5F5F5349 		.ascii "__SIZEOF_FLOAT128__ 16\0"
 13904      5A454F46 
 13904      5F464C4F 
 13904      41543132 
 13904      385F5F20 
 13905 2f28 01       		.byte	0x1
 13906 2f29 00       		.uleb128 0
 13907 2f2a 5F5F4154 		.ascii "__ATOMIC_HLE_ACQUIRE 65536\0"
 13907      4F4D4943 
 13907      5F484C45 
 13907      5F414351 
 13907      55495245 
 13908 2f45 01       		.byte	0x1
 13909 2f46 00       		.uleb128 0
 13910 2f47 5F5F4154 		.ascii "__ATOMIC_HLE_RELEASE 131072\0"
 13910      4F4D4943 
 13910      5F484C45 
 13910      5F52454C 
 13910      45415345 
 13911 2f63 01       		.byte	0x1
 13912 2f64 00       		.uleb128 0
 13913 2f65 5F5F4743 		.ascii "__GCC_ASM_FLAG_OUTPUTS__ 1\0"
 13913      435F4153 
 13913      4D5F464C 
 13913      41475F4F 
 13913      55545055 
 13914 2f80 01       		.byte	0x1
 13915 2f81 00       		.uleb128 0
 13916 2f82 5F5F6E6F 		.ascii "__nocona 1\0"
 13916      636F6E61 
 13916      203100
 13917 2f8d 01       		.byte	0x1
 13918 2f8e 00       		.uleb128 0
 13919 2f8f 5F5F6E6F 		.ascii "__nocona__ 1\0"
 13919      636F6E61 
 13919      5F5F2031 
 13919      00
 13920 2f9c 01       		.byte	0x1
 13921 2f9d 00       		.uleb128 0
 13922 2f9e 5F5F636F 		.ascii "__code_model_medium__ 1\0"
 13922      64655F6D 
 13922      6F64656C 
 13922      5F6D6564 
 13922      69756D5F 
 13923 2fb6 01       		.byte	0x1
 13924 2fb7 00       		.uleb128 0
 13925 2fb8 5F5F4D4D 		.ascii "__MMX__ 1\0"
 13925      585F5F20 
 13925      3100
 13926 2fc2 01       		.byte	0x1
 13927 2fc3 00       		.uleb128 0
 13928 2fc4 5F5F5353 		.ascii "__SSE__ 1\0"
 13928      455F5F20 
 13928      3100
 13929 2fce 01       		.byte	0x1
 13930 2fcf 00       		.uleb128 0
 13931 2fd0 5F5F5353 		.ascii "__SSE2__ 1\0"
 13931      45325F5F 
 13931      203100
 13932 2fdb 01       		.byte	0x1
 13933 2fdc 00       		.uleb128 0
 13934 2fdd 5F5F5353 		.ascii "__SSE3__ 1\0"
 13934      45335F5F 
 13934      203100
 13935 2fe8 01       		.byte	0x1
 13936 2fe9 00       		.uleb128 0
 13937 2fea 5F5F4658 		.ascii "__FXSR__ 1\0"
 13937      53525F5F 
 13937      203100
 13938 2ff5 01       		.byte	0x1
 13939 2ff6 00       		.uleb128 0
 13940 2ff7 5F5F5353 		.ascii "__SSE_MATH__ 1\0"
 13940      455F4D41 
 13940      54485F5F 
 13940      203100
 13941 3006 01       		.byte	0x1
 13942 3007 00       		.uleb128 0
 13943 3008 5F5F5353 		.ascii "__SSE2_MATH__ 1\0"
 13943      45325F4D 
 13943      4154485F 
 13943      5F203100 
 13944 3018 01       		.byte	0x1
 13945 3019 00       		.uleb128 0
 13946 301a 5F5F4D4D 		.ascii "__MMX_WITH_SSE__ 1\0"
 13946      585F5749 
 13946      54485F53 
 13946      53455F5F 
 13946      203100
 13947 302d 01       		.byte	0x1
 13948 302e 00       		.uleb128 0
 13949 302f 5F5F5345 		.ascii "__SEG_FS 1\0"
 13949      475F4653 
 13949      203100
 13950 303a 01       		.byte	0x1
 13951 303b 00       		.uleb128 0
 13952 303c 5F5F5345 		.ascii "__SEG_GS 1\0"
 13952      475F4753 
 13952      203100
 13953 3047 01       		.byte	0x1
 13954 3048 00       		.uleb128 0
 13955 3049 5F5F5345 		.ascii "__SEH__ 1\0"
 13955      485F5F20 
 13955      3100
 13956 3053 01       		.byte	0x1
 13957 3054 00       		.uleb128 0
 13958 3055 5F5F7374 		.ascii "__stdcall __attribute__((__stdcall__))\0"
 13958      6463616C 
 13958      6C205F5F 
 13958      61747472 
 13958      69627574 
 13959 307c 01       		.byte	0x1
 13960 307d 00       		.uleb128 0
 13961 307e 5F5F6661 		.ascii "__fastcall __attribute__((__fastcall__))\0"
 13961      73746361 
 13961      6C6C205F 
 13961      5F617474 
 13961      72696275 
 13962 30a7 01       		.byte	0x1
 13963 30a8 00       		.uleb128 0
 13964 30a9 5F5F7468 		.ascii "__thiscall __attribute__((__thiscall__))\0"
 13964      69736361 
 13964      6C6C205F 
 13964      5F617474 
 13964      72696275 
 13965 30d2 01       		.byte	0x1
 13966 30d3 00       		.uleb128 0
 13967 30d4 5F5F6364 		.ascii "__cdecl __attribute__((__cdecl__))\0"
 13967      65636C20 
 13967      5F5F6174 
 13967      74726962 
 13967      7574655F 
 13968 30f7 01       		.byte	0x1
 13969 30f8 00       		.uleb128 0
 13970 30f9 5F5F4758 		.ascii "__GXX_MERGED_TYPEINFO_NAMES 0\0"
 13970      585F4D45 
 13970      52474544 
 13970      5F545950 
 13970      45494E46 
 13971 3117 01       		.byte	0x1
 13972 3118 00       		.uleb128 0
 13973 3119 5F5F4758 		.ascii "__GXX_TYPEINFO_EQUALITY_INLINE 0\0"
 13973      585F5459 
 13973      5045494E 
 13973      464F5F45 
 13973      5155414C 
 13974 313a 01       		.byte	0x1
 13975 313b 00       		.uleb128 0
 13976 313c 5F5F4D53 		.ascii "__MSVCRT__ 1\0"
 13976      56435254 
 13976      5F5F2031 
 13976      00
 13977 3149 01       		.byte	0x1
 13978 314a 00       		.uleb128 0
 13979 314b 5F5F4D49 		.ascii "__MINGW32__ 1\0"
 13979      4E475733 
 13979      325F5F20 
 13979      3100
 13980 3159 01       		.byte	0x1
 13981 315a 00       		.uleb128 0
 13982 315b 5F57494E 		.ascii "_WIN32 1\0"
 13982      33322031 
 13982      00
 13983 3164 01       		.byte	0x1
 13984 3165 00       		.uleb128 0
 13985 3166 5F5F5749 		.ascii "__WIN32 1\0"
 13985      4E333220 
 13985      3100
 13986 3170 01       		.byte	0x1
 13987 3171 00       		.uleb128 0
 13988 3172 5F5F5749 		.ascii "__WIN32__ 1\0"
 13988      4E33325F 
 13988      5F203100 
 13989 317e 01       		.byte	0x1
 13990 317f 00       		.uleb128 0
 13991 3180 5F5F5749 		.ascii "__WINNT 1\0"
 13991      4E4E5420 
 13991      3100
 13992 318a 01       		.byte	0x1
 13993 318b 00       		.uleb128 0
 13994 318c 5F5F5749 		.ascii "__WINNT__ 1\0"
 13994      4E4E545F 
 13994      5F203100 
 13995 3198 01       		.byte	0x1
 13996 3199 00       		.uleb128 0
 13997 319a 5F494E54 		.ascii "_INTEGRAL_MAX_BITS 64\0"
 13997      45475241 
 13997      4C5F4D41 
 13997      585F4249 
 13997      54532036 
 13998 31b0 01       		.byte	0x1
 13999 31b1 00       		.uleb128 0
 14000 31b2 5F5F4D49 		.ascii "__MINGW64__ 1\0"
 14000      4E475736 
 14000      345F5F20 
 14000      3100
 14001 31c0 01       		.byte	0x1
 14002 31c1 00       		.uleb128 0
 14003 31c2 5F5F5749 		.ascii "__WIN64 1\0"
 14003      4E363420 
 14003      3100
 14004 31cc 01       		.byte	0x1
 14005 31cd 00       		.uleb128 0
 14006 31ce 5F5F5749 		.ascii "__WIN64__ 1\0"
 14006      4E36345F 
 14006      5F203100 
 14007 31da 01       		.byte	0x1
 14008 31db 00       		.uleb128 0
 14009 31dc 5F57494E 		.ascii "_WIN64 1\0"
 14009      36342031 
 14009      00
 14010 31e5 01       		.byte	0x1
 14011 31e6 00       		.uleb128 0
 14012 31e7 5F5F6465 		.ascii "__declspec(x) __attribute__((x))\0"
 14012      636C7370 
 14012      65632878 
 14012      29205F5F 
 14012      61747472 
 14013 3208 01       		.byte	0x1
 14014 3209 00       		.uleb128 0
 14015 320a 5F5F4445 		.ascii "__DECIMAL_BID_FORMAT__ 1\0"
 14015      43494D41 
 14015      4C5F4249 
 14015      445F464F 
 14015      524D4154 
 14016 3223 01       		.byte	0x1
 14017 3224 00       		.uleb128 0
 14018 3225 5F524545 		.ascii "_REENTRANT 1\0"
 14018      4E545241 
 14018      4E542031 
 14018      00
 14019 3232 01       		.byte	0x1
 14020 3233 00       		.uleb128 0
 14021 3234 474E555F 		.ascii "GNU_EFI_USE_MS_ABI 1\0"
 14021      4546495F 
 14021      5553455F 
 14021      4D535F41 
 14021      42492031 
 14022 3249 03       		.byte	0x3
 14023 324a 00       		.uleb128 0
 14024 324b 01       		.uleb128 0x1
 14025              		.file 11 "gnu-efi-3.0.18/inc/efi.h"
 14026 324c 03       		.byte	0x3
 14027 324d 01       		.uleb128 0x1
 14028 324e 0B       		.uleb128 0xb
 14029 324f 01       		.byte	0x1
 14030 3250 16       		.uleb128 0x16
 14031 3251 5F474E55 		.ascii "_GNU_EFI \0"
 14031      5F454649 
 14031      2000
 14032 325b 01       		.byte	0x1
 14033 325c 22       		.uleb128 0x22
 14034 325d 5F454649 		.ascii "_EFI_INCLUDE_ \0"
 14034      5F494E43 
 14034      4C554445 
 14034      5F2000
 14035 326c 01       		.byte	0x1
 14036 326d 28       		.uleb128 0x28
 14037 326e 4546495F 		.ascii "EFI_FIRMWARE_VENDOR L\"INTEL\"\0"
 14037      4649524D 
 14037      57415245 
 14037      5F56454E 
 14037      444F5220 
 14038 328b 01       		.byte	0x1
 14039 328c 29       		.uleb128 0x29
 14040 328d 4546495F 		.ascii "EFI_FIRMWARE_MAJOR_REVISION 12\0"
 14040      4649524D 
 14040      57415245 
 14040      5F4D414A 
 14040      4F525F52 
 14041 32ac 01       		.byte	0x1
 14042 32ad 2A       		.uleb128 0x2a
 14043 32ae 4546495F 		.ascii "EFI_FIRMWARE_MINOR_REVISION 33\0"
 14043      4649524D 
 14043      57415245 
 14043      5F4D494E 
 14043      4F525F52 
 14044 32cd 01       		.byte	0x1
 14045 32ce 2B       		.uleb128 0x2b
 14046 32cf 4546495F 		.ascii "EFI_FIRMWARE_REVISION ((EFI_FIRMWARE_MAJOR_REVISION <<16) | (EFI_FIRMWARE_MINOR_REVISION))
 14046      4649524D 
 14046      57415245 
 14046      5F524556 
 14046      4953494F 
 14047 332a 03       		.byte	0x3
 14048 332b 2E       		.uleb128 0x2e
 14049 332c 04       		.uleb128 0x4
 14050 332d 01       		.byte	0x1
 14051 332e 14       		.uleb128 0x14
 14052 332f 5838365F 		.ascii "X86_64_EFI_BIND \0"
 14052      36345F45 
 14052      46495F42 
 14052      494E4420 
 14052      00
 14053 3340 01       		.byte	0x1
 14054 3341 1D       		.uleb128 0x1d
 14055 3342 48415645 		.ascii "HAVE_USE_MS_ABI 1\0"
 14055      5F555345 
 14055      5F4D535F 
 14055      41424920 
 14055      3100
 14056              		.file 12 "C:/Users/victim/source/repos/Paranyok/UEFI/Backend/mingw64/lib/gcc/x86_64-w64-mingw32/14
 14057 3354 03       		.byte	0x3
 14058 3355 5C       		.uleb128 0x5c
 14059 3356 0C       		.uleb128 0xc
 14060 3357 03       		.byte	0x3
 14061 3358 0B       		.uleb128 0xb
 14062 3359 02       		.uleb128 0x2
 14063 335a 01       		.byte	0x1
 14064 335b 1D       		.uleb128 0x1d
 14065 335c 5F474343 		.ascii "_GCC_STDINT_H \0"
 14065      5F535444 
 14065      494E545F 
 14065      482000
 14066 336b 02       		.byte	0x2
 14067 336c 64       		.uleb128 0x64
 14068 336d 494E5438 		.ascii "INT8_MAX\0"
 14068      5F4D4158 
 14068      00
 14069 3376 01       		.byte	0x1
 14070 3377 65       		.uleb128 0x65
 14071 3378 494E5438 		.ascii "INT8_MAX __INT8_MAX__\0"
 14071      5F4D4158 
 14071      205F5F49 
 14071      4E54385F 
 14071      4D41585F 
 14072 338e 02       		.byte	0x2
 14073 338f 66       		.uleb128 0x66
 14074 3390 494E5438 		.ascii "INT8_MIN\0"
 14074      5F4D494E 
 14074      00
 14075 3399 01       		.byte	0x1
 14076 339a 67       		.uleb128 0x67
 14077 339b 494E5438 		.ascii "INT8_MIN (-INT8_MAX - 1)\0"
 14077      5F4D494E 
 14077      20282D49 
 14077      4E54385F 
 14077      4D415820 
 14078 33b4 02       		.byte	0x2
 14079 33b5 6A       		.uleb128 0x6a
 14080 33b6 55494E54 		.ascii "UINT8_MAX\0"
 14080      385F4D41 
 14080      5800
 14081 33c0 01       		.byte	0x1
 14082 33c1 6B       		.uleb128 0x6b
 14083 33c2 55494E54 		.ascii "UINT8_MAX __UINT8_MAX__\0"
 14083      385F4D41 
 14083      58205F5F 
 14083      55494E54 
 14083      385F4D41 
 14084 33da 02       		.byte	0x2
 14085 33db 6E       		.uleb128 0x6e
 14086 33dc 494E5431 		.ascii "INT16_MAX\0"
 14086      365F4D41 
 14086      5800
 14087 33e6 01       		.byte	0x1
 14088 33e7 6F       		.uleb128 0x6f
 14089 33e8 494E5431 		.ascii "INT16_MAX __INT16_MAX__\0"
 14089      365F4D41 
 14089      58205F5F 
 14089      494E5431 
 14089      365F4D41 
 14090 3400 02       		.byte	0x2
 14091 3401 70       		.uleb128 0x70
 14092 3402 494E5431 		.ascii "INT16_MIN\0"
 14092      365F4D49 
 14092      4E00
 14093 340c 01       		.byte	0x1
 14094 340d 71       		.uleb128 0x71
 14095 340e 494E5431 		.ascii "INT16_MIN (-INT16_MAX - 1)\0"
 14095      365F4D49 
 14095      4E20282D 
 14095      494E5431 
 14095      365F4D41 
 14096 3429 02       		.byte	0x2
 14097 342a 74       		.uleb128 0x74
 14098 342b 55494E54 		.ascii "UINT16_MAX\0"
 14098      31365F4D 
 14098      415800
 14099 3436 01       		.byte	0x1
 14100 3437 75       		.uleb128 0x75
 14101 3438 55494E54 		.ascii "UINT16_MAX __UINT16_MAX__\0"
 14101      31365F4D 
 14101      4158205F 
 14101      5F55494E 
 14101      5431365F 
 14102 3452 02       		.byte	0x2
 14103 3453 78       		.uleb128 0x78
 14104 3454 494E5433 		.ascii "INT32_MAX\0"
 14104      325F4D41 
 14104      5800
 14105 345e 01       		.byte	0x1
 14106 345f 79       		.uleb128 0x79
 14107 3460 494E5433 		.ascii "INT32_MAX __INT32_MAX__\0"
 14107      325F4D41 
 14107      58205F5F 
 14107      494E5433 
 14107      325F4D41 
 14108 3478 02       		.byte	0x2
 14109 3479 7A       		.uleb128 0x7a
 14110 347a 494E5433 		.ascii "INT32_MIN\0"
 14110      325F4D49 
 14110      4E00
 14111 3484 01       		.byte	0x1
 14112 3485 7B       		.uleb128 0x7b
 14113 3486 494E5433 		.ascii "INT32_MIN (-INT32_MAX - 1)\0"
 14113      325F4D49 
 14113      4E20282D 
 14113      494E5433 
 14113      325F4D41 
 14114 34a1 02       		.byte	0x2
 14115 34a2 7E       		.uleb128 0x7e
 14116 34a3 55494E54 		.ascii "UINT32_MAX\0"
 14116      33325F4D 
 14116      415800
 14117 34ae 01       		.byte	0x1
 14118 34af 7F       		.uleb128 0x7f
 14119 34b0 55494E54 		.ascii "UINT32_MAX __UINT32_MAX__\0"
 14119      33325F4D 
 14119      4158205F 
 14119      5F55494E 
 14119      5433325F 
 14120 34ca 02       		.byte	0x2
 14121 34cb 8201     		.uleb128 0x82
 14122 34cd 494E5436 		.ascii "INT64_MAX\0"
 14122      345F4D41 
 14122      5800
 14123 34d7 01       		.byte	0x1
 14124 34d8 8301     		.uleb128 0x83
 14125 34da 494E5436 		.ascii "INT64_MAX __INT64_MAX__\0"
 14125      345F4D41 
 14125      58205F5F 
 14125      494E5436 
 14125      345F4D41 
 14126 34f2 02       		.byte	0x2
 14127 34f3 8401     		.uleb128 0x84
 14128 34f5 494E5436 		.ascii "INT64_MIN\0"
 14128      345F4D49 
 14128      4E00
 14129 34ff 01       		.byte	0x1
 14130 3500 8501     		.uleb128 0x85
 14131 3502 494E5436 		.ascii "INT64_MIN (-INT64_MAX - 1)\0"
 14131      345F4D49 
 14131      4E20282D 
 14131      494E5436 
 14131      345F4D41 
 14132 351d 02       		.byte	0x2
 14133 351e 8801     		.uleb128 0x88
 14134 3520 55494E54 		.ascii "UINT64_MAX\0"
 14134      36345F4D 
 14134      415800
 14135 352b 01       		.byte	0x1
 14136 352c 8901     		.uleb128 0x89
 14137 352e 55494E54 		.ascii "UINT64_MAX __UINT64_MAX__\0"
 14137      36345F4D 
 14137      4158205F 
 14137      5F55494E 
 14137      5436345F 
 14138 3548 02       		.byte	0x2
 14139 3549 8C01     		.uleb128 0x8c
 14140 354b 494E545F 		.ascii "INT_LEAST8_MAX\0"
 14140      4C454153 
 14140      54385F4D 
 14140      415800
 14141 355a 01       		.byte	0x1
 14142 355b 8D01     		.uleb128 0x8d
 14143 355d 494E545F 		.ascii "INT_LEAST8_MAX __INT_LEAST8_MAX__\0"
 14143      4C454153 
 14143      54385F4D 
 14143      4158205F 
 14143      5F494E54 
 14144 357f 02       		.byte	0x2
 14145 3580 8E01     		.uleb128 0x8e
 14146 3582 494E545F 		.ascii "INT_LEAST8_MIN\0"
 14146      4C454153 
 14146      54385F4D 
 14146      494E00
 14147 3591 01       		.byte	0x1
 14148 3592 8F01     		.uleb128 0x8f
 14149 3594 494E545F 		.ascii "INT_LEAST8_MIN (-INT_LEAST8_MAX - 1)\0"
 14149      4C454153 
 14149      54385F4D 
 14149      494E2028 
 14149      2D494E54 
 14150 35b9 02       		.byte	0x2
 14151 35ba 9001     		.uleb128 0x90
 14152 35bc 55494E54 		.ascii "UINT_LEAST8_MAX\0"
 14152      5F4C4541 
 14152      5354385F 
 14152      4D415800 
 14153 35cc 01       		.byte	0x1
 14154 35cd 9101     		.uleb128 0x91
 14155 35cf 55494E54 		.ascii "UINT_LEAST8_MAX __UINT_LEAST8_MAX__\0"
 14155      5F4C4541 
 14155      5354385F 
 14155      4D415820 
 14155      5F5F5549 
 14156 35f3 02       		.byte	0x2
 14157 35f4 9201     		.uleb128 0x92
 14158 35f6 494E545F 		.ascii "INT_LEAST16_MAX\0"
 14158      4C454153 
 14158      5431365F 
 14158      4D415800 
 14159 3606 01       		.byte	0x1
 14160 3607 9301     		.uleb128 0x93
 14161 3609 494E545F 		.ascii "INT_LEAST16_MAX __INT_LEAST16_MAX__\0"
 14161      4C454153 
 14161      5431365F 
 14161      4D415820 
 14161      5F5F494E 
 14162 362d 02       		.byte	0x2
 14163 362e 9401     		.uleb128 0x94
 14164 3630 494E545F 		.ascii "INT_LEAST16_MIN\0"
 14164      4C454153 
 14164      5431365F 
 14164      4D494E00 
 14165 3640 01       		.byte	0x1
 14166 3641 9501     		.uleb128 0x95
 14167 3643 494E545F 		.ascii "INT_LEAST16_MIN (-INT_LEAST16_MAX - 1)\0"
 14167      4C454153 
 14167      5431365F 
 14167      4D494E20 
 14167      282D494E 
 14168 366a 02       		.byte	0x2
 14169 366b 9601     		.uleb128 0x96
 14170 366d 55494E54 		.ascii "UINT_LEAST16_MAX\0"
 14170      5F4C4541 
 14170      53543136 
 14170      5F4D4158 
 14170      00
 14171 367e 01       		.byte	0x1
 14172 367f 9701     		.uleb128 0x97
 14173 3681 55494E54 		.ascii "UINT_LEAST16_MAX __UINT_LEAST16_MAX__\0"
 14173      5F4C4541 
 14173      53543136 
 14173      5F4D4158 
 14173      205F5F55 
 14174 36a7 02       		.byte	0x2
 14175 36a8 9801     		.uleb128 0x98
 14176 36aa 494E545F 		.ascii "INT_LEAST32_MAX\0"
 14176      4C454153 
 14176      5433325F 
 14176      4D415800 
 14177 36ba 01       		.byte	0x1
 14178 36bb 9901     		.uleb128 0x99
 14179 36bd 494E545F 		.ascii "INT_LEAST32_MAX __INT_LEAST32_MAX__\0"
 14179      4C454153 
 14179      5433325F 
 14179      4D415820 
 14179      5F5F494E 
 14180 36e1 02       		.byte	0x2
 14181 36e2 9A01     		.uleb128 0x9a
 14182 36e4 494E545F 		.ascii "INT_LEAST32_MIN\0"
 14182      4C454153 
 14182      5433325F 
 14182      4D494E00 
 14183 36f4 01       		.byte	0x1
 14184 36f5 9B01     		.uleb128 0x9b
 14185 36f7 494E545F 		.ascii "INT_LEAST32_MIN (-INT_LEAST32_MAX - 1)\0"
 14185      4C454153 
 14185      5433325F 
 14185      4D494E20 
 14185      282D494E 
 14186 371e 02       		.byte	0x2
 14187 371f 9C01     		.uleb128 0x9c
 14188 3721 55494E54 		.ascii "UINT_LEAST32_MAX\0"
 14188      5F4C4541 
 14188      53543332 
 14188      5F4D4158 
 14188      00
 14189 3732 01       		.byte	0x1
 14190 3733 9D01     		.uleb128 0x9d
 14191 3735 55494E54 		.ascii "UINT_LEAST32_MAX __UINT_LEAST32_MAX__\0"
 14191      5F4C4541 
 14191      53543332 
 14191      5F4D4158 
 14191      205F5F55 
 14192 375b 02       		.byte	0x2
 14193 375c 9E01     		.uleb128 0x9e
 14194 375e 494E545F 		.ascii "INT_LEAST64_MAX\0"
 14194      4C454153 
 14194      5436345F 
 14194      4D415800 
 14195 376e 01       		.byte	0x1
 14196 376f 9F01     		.uleb128 0x9f
 14197 3771 494E545F 		.ascii "INT_LEAST64_MAX __INT_LEAST64_MAX__\0"
 14197      4C454153 
 14197      5436345F 
 14197      4D415820 
 14197      5F5F494E 
 14198 3795 02       		.byte	0x2
 14199 3796 A001     		.uleb128 0xa0
 14200 3798 494E545F 		.ascii "INT_LEAST64_MIN\0"
 14200      4C454153 
 14200      5436345F 
 14200      4D494E00 
 14201 37a8 01       		.byte	0x1
 14202 37a9 A101     		.uleb128 0xa1
 14203 37ab 494E545F 		.ascii "INT_LEAST64_MIN (-INT_LEAST64_MAX - 1)\0"
 14203      4C454153 
 14203      5436345F 
 14203      4D494E20 
 14203      282D494E 
 14204 37d2 02       		.byte	0x2
 14205 37d3 A201     		.uleb128 0xa2
 14206 37d5 55494E54 		.ascii "UINT_LEAST64_MAX\0"
 14206      5F4C4541 
 14206      53543634 
 14206      5F4D4158 
 14206      00
 14207 37e6 01       		.byte	0x1
 14208 37e7 A301     		.uleb128 0xa3
 14209 37e9 55494E54 		.ascii "UINT_LEAST64_MAX __UINT_LEAST64_MAX__\0"
 14209      5F4C4541 
 14209      53543634 
 14209      5F4D4158 
 14209      205F5F55 
 14210 380f 02       		.byte	0x2
 14211 3810 A501     		.uleb128 0xa5
 14212 3812 494E545F 		.ascii "INT_FAST8_MAX\0"
 14212      46415354 
 14212      385F4D41 
 14212      5800
 14213 3820 01       		.byte	0x1
 14214 3821 A601     		.uleb128 0xa6
 14215 3823 494E545F 		.ascii "INT_FAST8_MAX __INT_FAST8_MAX__\0"
 14215      46415354 
 14215      385F4D41 
 14215      58205F5F 
 14215      494E545F 
 14216 3843 02       		.byte	0x2
 14217 3844 A701     		.uleb128 0xa7
 14218 3846 494E545F 		.ascii "INT_FAST8_MIN\0"
 14218      46415354 
 14218      385F4D49 
 14218      4E00
 14219 3854 01       		.byte	0x1
 14220 3855 A801     		.uleb128 0xa8
 14221 3857 494E545F 		.ascii "INT_FAST8_MIN (-INT_FAST8_MAX - 1)\0"
 14221      46415354 
 14221      385F4D49 
 14221      4E20282D 
 14221      494E545F 
 14222 387a 02       		.byte	0x2
 14223 387b A901     		.uleb128 0xa9
 14224 387d 55494E54 		.ascii "UINT_FAST8_MAX\0"
 14224      5F464153 
 14224      54385F4D 
 14224      415800
 14225 388c 01       		.byte	0x1
 14226 388d AA01     		.uleb128 0xaa
 14227 388f 55494E54 		.ascii "UINT_FAST8_MAX __UINT_FAST8_MAX__\0"
 14227      5F464153 
 14227      54385F4D 
 14227      4158205F 
 14227      5F55494E 
 14228 38b1 02       		.byte	0x2
 14229 38b2 AB01     		.uleb128 0xab
 14230 38b4 494E545F 		.ascii "INT_FAST16_MAX\0"
 14230      46415354 
 14230      31365F4D 
 14230      415800
 14231 38c3 01       		.byte	0x1
 14232 38c4 AC01     		.uleb128 0xac
 14233 38c6 494E545F 		.ascii "INT_FAST16_MAX __INT_FAST16_MAX__\0"
 14233      46415354 
 14233      31365F4D 
 14233      4158205F 
 14233      5F494E54 
 14234 38e8 02       		.byte	0x2
 14235 38e9 AD01     		.uleb128 0xad
 14236 38eb 494E545F 		.ascii "INT_FAST16_MIN\0"
 14236      46415354 
 14236      31365F4D 
 14236      494E00
 14237 38fa 01       		.byte	0x1
 14238 38fb AE01     		.uleb128 0xae
 14239 38fd 494E545F 		.ascii "INT_FAST16_MIN (-INT_FAST16_MAX - 1)\0"
 14239      46415354 
 14239      31365F4D 
 14239      494E2028 
 14239      2D494E54 
 14240 3922 02       		.byte	0x2
 14241 3923 AF01     		.uleb128 0xaf
 14242 3925 55494E54 		.ascii "UINT_FAST16_MAX\0"
 14242      5F464153 
 14242      5431365F 
 14242      4D415800 
 14243 3935 01       		.byte	0x1
 14244 3936 B001     		.uleb128 0xb0
 14245 3938 55494E54 		.ascii "UINT_FAST16_MAX __UINT_FAST16_MAX__\0"
 14245      5F464153 
 14245      5431365F 
 14245      4D415820 
 14245      5F5F5549 
 14246 395c 02       		.byte	0x2
 14247 395d B101     		.uleb128 0xb1
 14248 395f 494E545F 		.ascii "INT_FAST32_MAX\0"
 14248      46415354 
 14248      33325F4D 
 14248      415800
 14249 396e 01       		.byte	0x1
 14250 396f B201     		.uleb128 0xb2
 14251 3971 494E545F 		.ascii "INT_FAST32_MAX __INT_FAST32_MAX__\0"
 14251      46415354 
 14251      33325F4D 
 14251      4158205F 
 14251      5F494E54 
 14252 3993 02       		.byte	0x2
 14253 3994 B301     		.uleb128 0xb3
 14254 3996 494E545F 		.ascii "INT_FAST32_MIN\0"
 14254      46415354 
 14254      33325F4D 
 14254      494E00
 14255 39a5 01       		.byte	0x1
 14256 39a6 B401     		.uleb128 0xb4
 14257 39a8 494E545F 		.ascii "INT_FAST32_MIN (-INT_FAST32_MAX - 1)\0"
 14257      46415354 
 14257      33325F4D 
 14257      494E2028 
 14257      2D494E54 
 14258 39cd 02       		.byte	0x2
 14259 39ce B501     		.uleb128 0xb5
 14260 39d0 55494E54 		.ascii "UINT_FAST32_MAX\0"
 14260      5F464153 
 14260      5433325F 
 14260      4D415800 
 14261 39e0 01       		.byte	0x1
 14262 39e1 B601     		.uleb128 0xb6
 14263 39e3 55494E54 		.ascii "UINT_FAST32_MAX __UINT_FAST32_MAX__\0"
 14263      5F464153 
 14263      5433325F 
 14263      4D415820 
 14263      5F5F5549 
 14264 3a07 02       		.byte	0x2
 14265 3a08 B701     		.uleb128 0xb7
 14266 3a0a 494E545F 		.ascii "INT_FAST64_MAX\0"
 14266      46415354 
 14266      36345F4D 
 14266      415800
 14267 3a19 01       		.byte	0x1
 14268 3a1a B801     		.uleb128 0xb8
 14269 3a1c 494E545F 		.ascii "INT_FAST64_MAX __INT_FAST64_MAX__\0"
 14269      46415354 
 14269      36345F4D 
 14269      4158205F 
 14269      5F494E54 
 14270 3a3e 02       		.byte	0x2
 14271 3a3f B901     		.uleb128 0xb9
 14272 3a41 494E545F 		.ascii "INT_FAST64_MIN\0"
 14272      46415354 
 14272      36345F4D 
 14272      494E00
 14273 3a50 01       		.byte	0x1
 14274 3a51 BA01     		.uleb128 0xba
 14275 3a53 494E545F 		.ascii "INT_FAST64_MIN (-INT_FAST64_MAX - 1)\0"
 14275      46415354 
 14275      36345F4D 
 14275      494E2028 
 14275      2D494E54 
 14276 3a78 02       		.byte	0x2
 14277 3a79 BB01     		.uleb128 0xbb
 14278 3a7b 55494E54 		.ascii "UINT_FAST64_MAX\0"
 14278      5F464153 
 14278      5436345F 
 14278      4D415800 
 14279 3a8b 01       		.byte	0x1
 14280 3a8c BC01     		.uleb128 0xbc
 14281 3a8e 55494E54 		.ascii "UINT_FAST64_MAX __UINT_FAST64_MAX__\0"
 14281      5F464153 
 14281      5436345F 
 14281      4D415820 
 14281      5F5F5549 
 14282 3ab2 02       		.byte	0x2
 14283 3ab3 BF01     		.uleb128 0xbf
 14284 3ab5 494E5450 		.ascii "INTPTR_MAX\0"
 14284      54525F4D 
 14284      415800
 14285 3ac0 01       		.byte	0x1
 14286 3ac1 C001     		.uleb128 0xc0
 14287 3ac3 494E5450 		.ascii "INTPTR_MAX __INTPTR_MAX__\0"
 14287      54525F4D 
 14287      4158205F 
 14287      5F494E54 
 14287      5054525F 
 14288 3add 02       		.byte	0x2
 14289 3ade C101     		.uleb128 0xc1
 14290 3ae0 494E5450 		.ascii "INTPTR_MIN\0"
 14290      54525F4D 
 14290      494E00
 14291 3aeb 01       		.byte	0x1
 14292 3aec C201     		.uleb128 0xc2
 14293 3aee 494E5450 		.ascii "INTPTR_MIN (-INTPTR_MAX - 1)\0"
 14293      54525F4D 
 14293      494E2028 
 14293      2D494E54 
 14293      5054525F 
 14294 3b0b 02       		.byte	0x2
 14295 3b0c C501     		.uleb128 0xc5
 14296 3b0e 55494E54 		.ascii "UINTPTR_MAX\0"
 14296      5054525F 
 14296      4D415800 
 14297 3b1a 01       		.byte	0x1
 14298 3b1b C601     		.uleb128 0xc6
 14299 3b1d 55494E54 		.ascii "UINTPTR_MAX __UINTPTR_MAX__\0"
 14299      5054525F 
 14299      4D415820 
 14299      5F5F5549 
 14299      4E545054 
 14300 3b39 02       		.byte	0x2
 14301 3b3a C901     		.uleb128 0xc9
 14302 3b3c 494E544D 		.ascii "INTMAX_MAX\0"
 14302      41585F4D 
 14302      415800
 14303 3b47 01       		.byte	0x1
 14304 3b48 CA01     		.uleb128 0xca
 14305 3b4a 494E544D 		.ascii "INTMAX_MAX __INTMAX_MAX__\0"
 14305      41585F4D 
 14305      4158205F 
 14305      5F494E54 
 14305      4D41585F 
 14306 3b64 02       		.byte	0x2
 14307 3b65 CB01     		.uleb128 0xcb
 14308 3b67 494E544D 		.ascii "INTMAX_MIN\0"
 14308      41585F4D 
 14308      494E00
 14309 3b72 01       		.byte	0x1
 14310 3b73 CC01     		.uleb128 0xcc
 14311 3b75 494E544D 		.ascii "INTMAX_MIN (-INTMAX_MAX - 1)\0"
 14311      41585F4D 
 14311      494E2028 
 14311      2D494E54 
 14311      4D41585F 
 14312 3b92 02       		.byte	0x2
 14313 3b93 CD01     		.uleb128 0xcd
 14314 3b95 55494E54 		.ascii "UINTMAX_MAX\0"
 14314      4D41585F 
 14314      4D415800 
 14315 3ba1 01       		.byte	0x1
 14316 3ba2 CE01     		.uleb128 0xce
 14317 3ba4 55494E54 		.ascii "UINTMAX_MAX __UINTMAX_MAX__\0"
 14317      4D41585F 
 14317      4D415820 
 14317      5F5F5549 
 14317      4E544D41 
 14318 3bc0 02       		.byte	0x2
 14319 3bc1 D201     		.uleb128 0xd2
 14320 3bc3 50545244 		.ascii "PTRDIFF_MAX\0"
 14320      4946465F 
 14320      4D415800 
 14321 3bcf 01       		.byte	0x1
 14322 3bd0 D301     		.uleb128 0xd3
 14323 3bd2 50545244 		.ascii "PTRDIFF_MAX __PTRDIFF_MAX__\0"
 14323      4946465F 
 14323      4D415820 
 14323      5F5F5054 
 14323      52444946 
 14324 3bee 02       		.byte	0x2
 14325 3bef D401     		.uleb128 0xd4
 14326 3bf1 50545244 		.ascii "PTRDIFF_MIN\0"
 14326      4946465F 
 14326      4D494E00 
 14327 3bfd 01       		.byte	0x1
 14328 3bfe D501     		.uleb128 0xd5
 14329 3c00 50545244 		.ascii "PTRDIFF_MIN (-PTRDIFF_MAX - 1)\0"
 14329      4946465F 
 14329      4D494E20 
 14329      282D5054 
 14329      52444946 
 14330 3c1f 02       		.byte	0x2
 14331 3c20 D701     		.uleb128 0xd7
 14332 3c22 5349475F 		.ascii "SIG_ATOMIC_MAX\0"
 14332      41544F4D 
 14332      49435F4D 
 14332      415800
 14333 3c31 01       		.byte	0x1
 14334 3c32 D801     		.uleb128 0xd8
 14335 3c34 5349475F 		.ascii "SIG_ATOMIC_MAX __SIG_ATOMIC_MAX__\0"
 14335      41544F4D 
 14335      49435F4D 
 14335      4158205F 
 14335      5F534947 
 14336 3c56 02       		.byte	0x2
 14337 3c57 D901     		.uleb128 0xd9
 14338 3c59 5349475F 		.ascii "SIG_ATOMIC_MIN\0"
 14338      41544F4D 
 14338      49435F4D 
 14338      494E00
 14339 3c68 01       		.byte	0x1
 14340 3c69 DA01     		.uleb128 0xda
 14341 3c6b 5349475F 		.ascii "SIG_ATOMIC_MIN __SIG_ATOMIC_MIN__\0"
 14341      41544F4D 
 14341      49435F4D 
 14341      494E205F 
 14341      5F534947 
 14342 3c8d 02       		.byte	0x2
 14343 3c8e DC01     		.uleb128 0xdc
 14344 3c90 53495A45 		.ascii "SIZE_MAX\0"
 14344      5F4D4158 
 14344      00
 14345 3c99 01       		.byte	0x1
 14346 3c9a DD01     		.uleb128 0xdd
 14347 3c9c 53495A45 		.ascii "SIZE_MAX __SIZE_MAX__\0"
 14347      5F4D4158 
 14347      205F5F53 
 14347      495A455F 
 14347      4D41585F 
 14348 3cb2 02       		.byte	0x2
 14349 3cb3 DF01     		.uleb128 0xdf
 14350 3cb5 57434841 		.ascii "WCHAR_MAX\0"
 14350      525F4D41 
 14350      5800
 14351 3cbf 01       		.byte	0x1
 14352 3cc0 E001     		.uleb128 0xe0
 14353 3cc2 57434841 		.ascii "WCHAR_MAX __WCHAR_MAX__\0"
 14353      525F4D41 
 14353      58205F5F 
 14353      57434841 
 14353      525F4D41 
 14354 3cda 02       		.byte	0x2
 14355 3cdb E101     		.uleb128 0xe1
 14356 3cdd 57434841 		.ascii "WCHAR_MIN\0"
 14356      525F4D49 
 14356      4E00
 14357 3ce7 01       		.byte	0x1
 14358 3ce8 E201     		.uleb128 0xe2
 14359 3cea 57434841 		.ascii "WCHAR_MIN __WCHAR_MIN__\0"
 14359      525F4D49 
 14359      4E205F5F 
 14359      57434841 
 14359      525F4D49 
 14360 3d02 02       		.byte	0x2
 14361 3d03 E401     		.uleb128 0xe4
 14362 3d05 57494E54 		.ascii "WINT_MAX\0"
 14362      5F4D4158 
 14362      00
 14363 3d0e 01       		.byte	0x1
 14364 3d0f E501     		.uleb128 0xe5
 14365 3d11 57494E54 		.ascii "WINT_MAX __WINT_MAX__\0"
 14365      5F4D4158 
 14365      205F5F57 
 14365      494E545F 
 14365      4D41585F 
 14366 3d27 02       		.byte	0x2
 14367 3d28 E601     		.uleb128 0xe6
 14368 3d2a 57494E54 		.ascii "WINT_MIN\0"
 14368      5F4D494E 
 14368      00
 14369 3d33 01       		.byte	0x1
 14370 3d34 E701     		.uleb128 0xe7
 14371 3d36 57494E54 		.ascii "WINT_MIN __WINT_MIN__\0"
 14371      5F4D494E 
 14371      205F5F57 
 14371      494E545F 
 14371      4D494E5F 
 14372 3d4c 02       		.byte	0x2
 14373 3d4d EF01     		.uleb128 0xef
 14374 3d4f 494E5438 		.ascii "INT8_C\0"
 14374      5F4300
 14375 3d56 01       		.byte	0x1
 14376 3d57 F001     		.uleb128 0xf0
 14377 3d59 494E5438 		.ascii "INT8_C(c) __INT8_C(c)\0"
 14377      5F432863 
 14377      29205F5F 
 14377      494E5438 
 14377      5F432863 
 14378 3d6f 02       		.byte	0x2
 14379 3d70 F101     		.uleb128 0xf1
 14380 3d72 494E5431 		.ascii "INT16_C\0"
 14380      365F4300 
 14381 3d7a 01       		.byte	0x1
 14382 3d7b F201     		.uleb128 0xf2
 14383 3d7d 494E5431 		.ascii "INT16_C(c) __INT16_C(c)\0"
 14383      365F4328 
 14383      6329205F 
 14383      5F494E54 
 14383      31365F43 
 14384 3d95 02       		.byte	0x2
 14385 3d96 F301     		.uleb128 0xf3
 14386 3d98 494E5433 		.ascii "INT32_C\0"
 14386      325F4300 
 14387 3da0 01       		.byte	0x1
 14388 3da1 F401     		.uleb128 0xf4
 14389 3da3 494E5433 		.ascii "INT32_C(c) __INT32_C(c)\0"
 14389      325F4328 
 14389      6329205F 
 14389      5F494E54 
 14389      33325F43 
 14390 3dbb 02       		.byte	0x2
 14391 3dbc F501     		.uleb128 0xf5
 14392 3dbe 494E5436 		.ascii "INT64_C\0"
 14392      345F4300 
 14393 3dc6 01       		.byte	0x1
 14394 3dc7 F601     		.uleb128 0xf6
 14395 3dc9 494E5436 		.ascii "INT64_C(c) __INT64_C(c)\0"
 14395      345F4328 
 14395      6329205F 
 14395      5F494E54 
 14395      36345F43 
 14396 3de1 02       		.byte	0x2
 14397 3de2 F701     		.uleb128 0xf7
 14398 3de4 55494E54 		.ascii "UINT8_C\0"
 14398      385F4300 
 14399 3dec 01       		.byte	0x1
 14400 3ded F801     		.uleb128 0xf8
 14401 3def 55494E54 		.ascii "UINT8_C(c) __UINT8_C(c)\0"
 14401      385F4328 
 14401      6329205F 
 14401      5F55494E 
 14401      54385F43 
 14402 3e07 02       		.byte	0x2
 14403 3e08 F901     		.uleb128 0xf9
 14404 3e0a 55494E54 		.ascii "UINT16_C\0"
 14404      31365F43 
 14404      00
 14405 3e13 01       		.byte	0x1
 14406 3e14 FA01     		.uleb128 0xfa
 14407 3e16 55494E54 		.ascii "UINT16_C(c) __UINT16_C(c)\0"
 14407      31365F43 
 14407      28632920 
 14407      5F5F5549 
 14407      4E543136 
 14408 3e30 02       		.byte	0x2
 14409 3e31 FB01     		.uleb128 0xfb
 14410 3e33 55494E54 		.ascii "UINT32_C\0"
 14410      33325F43 
 14410      00
 14411 3e3c 01       		.byte	0x1
 14412 3e3d FC01     		.uleb128 0xfc
 14413 3e3f 55494E54 		.ascii "UINT32_C(c) __UINT32_C(c)\0"
 14413      33325F43 
 14413      28632920 
 14413      5F5F5549 
 14413      4E543332 
 14414 3e59 02       		.byte	0x2
 14415 3e5a FD01     		.uleb128 0xfd
 14416 3e5c 55494E54 		.ascii "UINT64_C\0"
 14416      36345F43 
 14416      00
 14417 3e65 01       		.byte	0x1
 14418 3e66 FE01     		.uleb128 0xfe
 14419 3e68 55494E54 		.ascii "UINT64_C(c) __UINT64_C(c)\0"
 14419      36345F43 
 14419      28632920 
 14419      5F5F5549 
 14419      4E543634 
 14420 3e82 02       		.byte	0x2
 14421 3e83 FF01     		.uleb128 0xff
 14422 3e85 494E544D 		.ascii "INTMAX_C\0"
 14422      41585F43 
 14422      00
 14423 3e8e 01       		.byte	0x1
 14424 3e8f 8002     		.uleb128 0x100
 14425 3e91 494E544D 		.ascii "INTMAX_C(c) __INTMAX_C(c)\0"
 14425      41585F43 
 14425      28632920 
 14425      5F5F494E 
 14425      544D4158 
 14426 3eab 02       		.byte	0x2
 14427 3eac 8102     		.uleb128 0x101
 14428 3eae 55494E54 		.ascii "UINTMAX_C\0"
 14428      4D41585F 
 14428      4300
 14429 3eb8 01       		.byte	0x1
 14430 3eb9 8202     		.uleb128 0x102
 14431 3ebb 55494E54 		.ascii "UINTMAX_C(c) __UINTMAX_C(c)\0"
 14431      4D41585F 
 14431      43286329 
 14431      205F5F55 
 14431      494E544D 
 14432 3ed7 04       		.byte	0x4
 14433 3ed8 01       		.byte	0x1
 14434 3ed9 0D       		.uleb128 0xd
 14435 3eda 5F474343 		.ascii "_GCC_WRAP_STDINT_H \0"
 14435      5F575241 
 14435      505F5354 
 14435      44494E54 
 14435      5F482000 
 14436 3eee 04       		.byte	0x4
 14437              		.file 13 "C:/Users/victim/source/repos/Paranyok/UEFI/Backend/mingw64/lib/gcc/x86_64-w64-mingw32/14
 14438 3eef 03       		.byte	0x3
 14439 3ef0 63       		.uleb128 0x63
 14440 3ef1 0D       		.uleb128 0xd
 14441              		.file 14 "C:/Users/victim/source/repos/Paranyok/UEFI/Backend/mingw64/include/stddef.h"
 14442 3ef2 03       		.byte	0x3
 14443 3ef3 01       		.uleb128 0x1
 14444 3ef4 0E       		.uleb128 0xe
 14445              		.file 15 "C:/Users/victim/source/repos/Paranyok/UEFI/Backend/mingw64/include/crtdefs.h"
 14446 3ef5 03       		.byte	0x3
 14447 3ef6 07       		.uleb128 0x7
 14448 3ef7 0F       		.uleb128 0xf
 14449 3ef8 01       		.byte	0x1
 14450 3ef9 08       		.uleb128 0x8
 14451 3efa 5F494E43 		.ascii "_INC_CRTDEFS \0"
 14451      5F435254 
 14451      44454653 
 14451      2000
 14452 3f08 03       		.byte	0x3
 14453 3f09 0A       		.uleb128 0xa
 14454 3f0a 03       		.uleb128 0x3
 14455 3f0b 01       		.byte	0x1
 14456 3f0c 08       		.uleb128 0x8
 14457 3f0d 5F494E43 		.ascii "_INC_CORECRT \0"
 14457      5F434F52 
 14457      45435254 
 14457      2000
 14458              		.file 16 "C:/Users/victim/source/repos/Paranyok/UEFI/Backend/mingw64/include/_mingw.h"
 14459 3f1b 03       		.byte	0x3
 14460 3f1c 0A       		.uleb128 0xa
 14461 3f1d 10       		.uleb128 0x10
 14462 3f1e 01       		.byte	0x1
 14463 3f1f 08       		.uleb128 0x8
 14464 3f20 5F494E43 		.ascii "_INC__MINGW_H \0"
 14464      5F5F4D49 
 14464      4E47575F 
 14464      482000
 14465              		.file 17 "C:/Users/victim/source/repos/Paranyok/UEFI/Backend/mingw64/include/_mingw_mac.h"
 14466 3f2f 03       		.byte	0x3
 14467 3f30 0A       		.uleb128 0xa
 14468 3f31 11       		.uleb128 0x11
 14469 3f32 01       		.byte	0x1
 14470 3f33 08       		.uleb128 0x8
 14471 3f34 5F494E43 		.ascii "_INC_CRTDEFS_MACRO \0"
 14471      5F435254 
 14471      44454653 
 14471      5F4D4143 
 14471      524F2000 
 14472 3f48 01       		.byte	0x1
 14473 3f49 0A       		.uleb128 0xa
 14474 3f4a 5F5F5354 		.ascii "__STRINGIFY(x) #x\0"
 14474      52494E47 
 14474      49465928 
 14474      78292023 
 14474      7800
 14475 3f5c 01       		.byte	0x1
 14476 3f5d 0B       		.uleb128 0xb
 14477 3f5e 5F5F4D49 		.ascii "__MINGW64_STRINGIFY(x) __STRINGIFY(x)\0"
 14477      4E475736 
 14477      345F5354 
 14477      52494E47 
 14477      49465928 
 14478 3f84 01       		.byte	0x1
 14479 3f85 0E       		.uleb128 0xe
 14480 3f86 5F5F4D49 		.ascii "__MINGW64_VERSION_MAJOR 13\0"
 14480      4E475736 
 14480      345F5645 
 14480      5253494F 
 14480      4E5F4D41 
 14481 3fa1 01       		.byte	0x1
 14482 3fa2 0F       		.uleb128 0xf
 14483 3fa3 5F5F4D49 		.ascii "__MINGW64_VERSION_MINOR 0\0"
 14483      4E475736 
 14483      345F5645 
 14483      5253494F 
 14483      4E5F4D49 
 14484 3fbd 01       		.byte	0x1
 14485 3fbe 10       		.uleb128 0x10
 14486 3fbf 5F5F4D49 		.ascii "__MINGW64_VERSION_BUGFIX 0\0"
 14486      4E475736 
 14486      345F5645 
 14486      5253494F 
 14486      4E5F4255 
 14487 3fda 01       		.byte	0x1
 14488 3fdb 18       		.uleb128 0x18
 14489 3fdc 5F5F4D49 		.ascii "__MINGW64_VERSION_RC 0\0"
 14489      4E475736 
 14489      345F5645 
 14489      5253494F 
 14489      4E5F5243 
 14490 3ff3 01       		.byte	0x1
 14491 3ff4 1A       		.uleb128 0x1a
 14492 3ff5 5F5F4D49 		.ascii "__MINGW64_VERSION_STR __MINGW64_STRINGIFY(__MINGW64_VERSION_MAJOR) \".\" __MINGW64_STRINGI
 14492      4E475736 
 14492      345F5645 
 14492      5253494F 
 14492      4E5F5354 
 14493 409b 01       		.byte	0x1
 14494 409c 21       		.uleb128 0x21
 14495 409d 5F5F4D49 		.ascii "__MINGW64_VERSION_STATE \"alpha\"\0"
 14495      4E475736 
 14495      345F5645 
 14495      5253494F 
 14495      4E5F5354 
 14496 40bd 01       		.byte	0x1
 14497 40be 27       		.uleb128 0x27
 14498 40bf 5F5F4D49 		.ascii "__MINGW32_MAJOR_VERSION 3\0"
 14498      4E475733 
 14498      325F4D41 
 14498      4A4F525F 
 14498      56455253 
 14499 40d9 01       		.byte	0x1
 14500 40da 28       		.uleb128 0x28
 14501 40db 5F5F4D49 		.ascii "__MINGW32_MINOR_VERSION 11\0"
 14501      4E475733 
 14501      325F4D49 
 14501      4E4F525F 
 14501      56455253 
 14502 40f6 01       		.byte	0x1
 14503 40f7 3E       		.uleb128 0x3e
 14504 40f8 5F4D5F41 		.ascii "_M_AMD64 100\0"
 14504      4D443634 
 14504      20313030 
 14504      00
 14505 4105 01       		.byte	0x1
 14506 4106 3F       		.uleb128 0x3f
 14507 4107 5F4D5F58 		.ascii "_M_X64 100\0"
 14507      36342031 
 14507      303000
 14508 4112 02       		.byte	0x2
 14509 4113 63       		.uleb128 0x63
 14510 4114 5F00     		.ascii "_\0"
 14511 4116 01       		.byte	0x1
 14512 4117 64       		.uleb128 0x64
 14513 4118 5F203100 		.ascii "_ 1\0"
 14514 411c 01       		.byte	0x1
 14515 411d 68       		.uleb128 0x68
 14516 411e 5F5F4D49 		.ascii "__MINGW_USE_UNDERSCORE_PREFIX 0\0"
 14516      4E47575F 
 14516      5553455F 
 14516      554E4445 
 14516      5253434F 
 14517 413e 02       		.byte	0x2
 14518 413f 6A       		.uleb128 0x6a
 14519 4140 5F00     		.ascii "_\0"
 14520 4142 01       		.byte	0x1
 14521 4143 77       		.uleb128 0x77
 14522 4144 5F5F4D49 		.ascii "__MINGW_IMP_SYMBOL(sym) __imp_ ##sym\0"
 14522      4E47575F 
 14522      494D505F 
 14522      53594D42 
 14522      4F4C2873 
 14523 4169 01       		.byte	0x1
 14524 416a 78       		.uleb128 0x78
 14525 416b 5F5F4D49 		.ascii "__MINGW_IMP_LSYMBOL(sym) __imp_ ##sym\0"
 14525      4E47575F 
 14525      494D505F 
 14525      4C53594D 
 14525      424F4C28 
 14526 4191 01       		.byte	0x1
 14527 4192 79       		.uleb128 0x79
 14528 4193 5F5F4D49 		.ascii "__MINGW_USYMBOL(sym) sym\0"
 14528      4E47575F 
 14528      5553594D 
 14528      424F4C28 
 14528      73796D29 
 14529 41ac 01       		.byte	0x1
 14530 41ad 7A       		.uleb128 0x7a
 14531 41ae 5F5F4D49 		.ascii "__MINGW_LSYMBOL(sym) _ ##sym\0"
 14531      4E47575F 
 14531      4C53594D 
 14531      424F4C28 
 14531      73796D29 
 14532 41cb 01       		.byte	0x1
 14533 41cc 8201     		.uleb128 0x82
 14534 41ce 5F5F4D49 		.ascii "__MINGW_ASM_CALL(func) __asm__(__MINGW64_STRINGIFY(__MINGW_USYMBOL(func)))\0"
 14534      4E47575F 
 14534      41534D5F 
 14534      43414C4C 
 14534      2866756E 
 14535 4219 01       		.byte	0x1
 14536 421a 8301     		.uleb128 0x83
 14537 421c 5F5F4D49 		.ascii "__MINGW_ASM_CRT_CALL(func) __asm__(__STRINGIFY(func))\0"
 14537      4E47575F 
 14537      41534D5F 
 14537      4352545F 
 14537      43414C4C 
 14538 4252 02       		.byte	0x2
 14539 4253 9D01     		.uleb128 0x9d
 14540 4255 5F5F4D49 		.ascii "__MINGW_EXTENSION\0"
 14540      4E47575F 
 14540      45585445 
 14540      4E53494F 
 14540      4E00
 14541 4267 01       		.byte	0x1
 14542 4268 A301     		.uleb128 0xa3
 14543 426a 5F5F4D49 		.ascii "__MINGW_EXTENSION __extension__\0"
 14543      4E47575F 
 14543      45585445 
 14543      4E53494F 
 14543      4E205F5F 
 14544 428a 01       		.byte	0x1
 14545 428b AB01     		.uleb128 0xab
 14546 428d 5F5F4338 		.ascii "__C89_NAMELESS __MINGW_EXTENSION\0"
 14546      395F4E41 
 14546      4D454C45 
 14546      5353205F 
 14546      5F4D494E 
 14547 42ae 01       		.byte	0x1
 14548 42af AC01     		.uleb128 0xac
 14549 42b1 5F5F4338 		.ascii "__C89_NAMELESSSTRUCTNAME \0"
 14549      395F4E41 
 14549      4D454C45 
 14549      53535354 
 14549      52554354 
 14550 42cb 01       		.byte	0x1
 14551 42cc AD01     		.uleb128 0xad
 14552 42ce 5F5F4338 		.ascii "__C89_NAMELESSSTRUCTNAME1 \0"
 14552      395F4E41 
 14552      4D454C45 
 14552      53535354 
 14552      52554354 
 14553 42e9 01       		.byte	0x1
 14554 42ea AE01     		.uleb128 0xae
 14555 42ec 5F5F4338 		.ascii "__C89_NAMELESSSTRUCTNAME2 \0"
 14555      395F4E41 
 14555      4D454C45 
 14555      53535354 
 14555      52554354 
 14556 4307 01       		.byte	0x1
 14557 4308 AF01     		.uleb128 0xaf
 14558 430a 5F5F4338 		.ascii "__C89_NAMELESSSTRUCTNAME3 \0"
 14558      395F4E41 
 14558      4D454C45 
 14558      53535354 
 14558      52554354 
 14559 4325 01       		.byte	0x1
 14560 4326 B001     		.uleb128 0xb0
 14561 4328 5F5F4338 		.ascii "__C89_NAMELESSSTRUCTNAME4 \0"
 14561      395F4E41 
 14561      4D454C45 
 14561      53535354 
 14561      52554354 
 14562 4343 01       		.byte	0x1
 14563 4344 B101     		.uleb128 0xb1
 14564 4346 5F5F4338 		.ascii "__C89_NAMELESSSTRUCTNAME5 \0"
 14564      395F4E41 
 14564      4D454C45 
 14564      53535354 
 14564      52554354 
 14565 4361 01       		.byte	0x1
 14566 4362 B201     		.uleb128 0xb2
 14567 4364 5F5F4338 		.ascii "__C89_NAMELESSUNIONNAME \0"
 14567      395F4E41 
 14567      4D454C45 
 14567      5353554E 
 14567      494F4E4E 
 14568 437d 01       		.byte	0x1
 14569 437e B301     		.uleb128 0xb3
 14570 4380 5F5F4338 		.ascii "__C89_NAMELESSUNIONNAME1 \0"
 14570      395F4E41 
 14570      4D454C45 
 14570      5353554E 
 14570      494F4E4E 
 14571 439a 01       		.byte	0x1
 14572 439b B401     		.uleb128 0xb4
 14573 439d 5F5F4338 		.ascii "__C89_NAMELESSUNIONNAME2 \0"
 14573      395F4E41 
 14573      4D454C45 
 14573      5353554E 
 14573      494F4E4E 
 14574 43b7 01       		.byte	0x1
 14575 43b8 B501     		.uleb128 0xb5
 14576 43ba 5F5F4338 		.ascii "__C89_NAMELESSUNIONNAME3 \0"
 14576      395F4E41 
 14576      4D454C45 
 14576      5353554E 
 14576      494F4E4E 
 14577 43d4 01       		.byte	0x1
 14578 43d5 B601     		.uleb128 0xb6
 14579 43d7 5F5F4338 		.ascii "__C89_NAMELESSUNIONNAME4 \0"
 14579      395F4E41 
 14579      4D454C45 
 14579      5353554E 
 14579      494F4E4E 
 14580 43f1 01       		.byte	0x1
 14581 43f2 B701     		.uleb128 0xb7
 14582 43f4 5F5F4338 		.ascii "__C89_NAMELESSUNIONNAME5 \0"
 14582      395F4E41 
 14582      4D454C45 
 14582      5353554E 
 14582      494F4E4E 
 14583 440e 01       		.byte	0x1
 14584 440f B801     		.uleb128 0xb8
 14585 4411 5F5F4338 		.ascii "__C89_NAMELESSUNIONNAME6 \0"
 14585      395F4E41 
 14585      4D454C45 
 14585      5353554E 
 14585      494F4E4E 
 14586 442b 01       		.byte	0x1
 14587 442c B901     		.uleb128 0xb9
 14588 442e 5F5F4338 		.ascii "__C89_NAMELESSUNIONNAME7 \0"
 14588      395F4E41 
 14588      4D454C45 
 14588      5353554E 
 14588      494F4E4E 
 14589 4448 01       		.byte	0x1
 14590 4449 BA01     		.uleb128 0xba
 14591 444b 5F5F4338 		.ascii "__C89_NAMELESSUNIONNAME8 \0"
 14591      395F4E41 
 14591      4D454C45 
 14591      5353554E 
 14591      494F4E4E 
 14592 4465 01       		.byte	0x1
 14593 4466 BE01     		.uleb128 0xbe
 14594 4468 5F5F474E 		.ascii "__GNU_EXTENSION __MINGW_EXTENSION\0"
 14594      555F4558 
 14594      54454E53 
 14594      494F4E20 
 14594      5F5F4D49 
 14595 448a 01       		.byte	0x1
 14596 448b C301     		.uleb128 0xc3
 14597 448d 5F5F4D49 		.ascii "__MINGW_HAVE_ANSI_C99_PRINTF 1\0"
 14597      4E47575F 
 14597      48415645 
 14597      5F414E53 
 14597      495F4339 
 14598 44ac 01       		.byte	0x1
 14599 44ad C401     		.uleb128 0xc4
 14600 44af 5F5F4D49 		.ascii "__MINGW_HAVE_WIDE_C99_PRINTF 1\0"
 14600      4E47575F 
 14600      48415645 
 14600      5F574944 
 14600      455F4339 
 14601 44ce 01       		.byte	0x1
 14602 44cf C501     		.uleb128 0xc5
 14603 44d1 5F5F4D49 		.ascii "__MINGW_HAVE_ANSI_C99_SCANF 1\0"
 14603      4E47575F 
 14603      48415645 
 14603      5F414E53 
 14603      495F4339 
 14604 44ef 01       		.byte	0x1
 14605 44f0 C601     		.uleb128 0xc6
 14606 44f2 5F5F4D49 		.ascii "__MINGW_HAVE_WIDE_C99_SCANF 1\0"
 14606      4E47575F 
 14606      48415645 
 14606      5F574944 
 14606      455F4339 
 14607 4510 01       		.byte	0x1
 14608 4511 CB01     		.uleb128 0xcb
 14609 4513 5F5F4D49 		.ascii "__MINGW_POISON_NAME(__IFACE) __IFACE ##_layout_has_not_been_verified_and_its_declaration_i
 14609      4E47575F 
 14609      504F4953 
 14609      4F4E5F4E 
 14609      414D4528 
 14610 4585 01       		.byte	0x1
 14611 4586 D101     		.uleb128 0xd1
 14612 4588 5F5F4D53 		.ascii "__MSABI_LONG(x) x ## l\0"
 14612      4142495F 
 14612      4C4F4E47 
 14612      28782920 
 14612      78202323 
 14613 459f 01       		.byte	0x1
 14614 45a0 D801     		.uleb128 0xd8
 14615 45a2 5F5F4D49 		.ascii "__MINGW_GCC_VERSION (__GNUC__ * 10000 + __GNUC_MINOR__ * 100 + __GNUC_PATCHLEVEL__)\0"
 14615      4E47575F 
 14615      4743435F 
 14615      56455253 
 14615      494F4E20 
 14616 45f6 01       		.byte	0x1
 14617 45f7 E001     		.uleb128 0xe0
 14618 45f9 5F5F4D49 		.ascii "__MINGW_GNUC_PREREQ(major,minor) (__GNUC__ > (major) || (__GNUC__ == (major) && __GNUC_MIN
 14618      4E47575F 
 14618      474E5543 
 14618      5F505245 
 14618      52455128 
 14619 4665 01       		.byte	0x1
 14620 4666 EB01     		.uleb128 0xeb
 14621 4668 5F5F4D49 		.ascii "__MINGW_MSC_PREREQ(major,minor) 0\0"
 14621      4E47575F 
 14621      4D53435F 
 14621      50524552 
 14621      4551286D 
 14622 468a 01       		.byte	0x1
 14623 468b F701     		.uleb128 0xf7
 14624 468d 5F5F4D49 		.ascii "__MINGW_ATTRIB_DEPRECATED_STR(X) \0"
 14624      4E47575F 
 14624      41545452 
 14624      49425F44 
 14624      45505245 
 14625 46af 01       		.byte	0x1
 14626 46b0 FA01     		.uleb128 0xfa
 14627 46b2 5F5F4D49 		.ascii "__MINGW_SEC_WARN_STR \"This function or variable may be unsafe, use _CRT_SECURE_NO_WARNING
 14627      4E47575F 
 14627      5345435F 
 14627      5741524E 
 14627      5F535452 
 14628 4725 01       		.byte	0x1
 14629 4726 FD01     		.uleb128 0xfd
 14630 4728 5F5F4D49 		.ascii "__MINGW_MSVC2005_DEPREC_STR \"This POSIX function is deprecated beginning in Visual C++ 20
 14630      4E47575F 
 14630      4D535643 
 14630      32303035 
 14630      5F444550 
 14631 47bb 01       		.byte	0x1
 14632 47bc 8102     		.uleb128 0x101
 14633 47be 5F5F4D49 		.ascii "__MINGW_ATTRIB_DEPRECATED_MSVC2005 __MINGW_ATTRIB_DEPRECATED_STR(__MINGW_MSVC2005_DEPREC_S
 14633      4E47575F 
 14633      41545452 
 14633      49425F44 
 14633      45505245 
 14634 481c 01       		.byte	0x1
 14635 481d 8802     		.uleb128 0x108
 14636 481f 5F5F4D49 		.ascii "__MINGW_ATTRIB_DEPRECATED_SEC_WARN __MINGW_ATTRIB_DEPRECATED_STR(__MINGW_SEC_WARN_STR)\0"
 14636      4E47575F 
 14636      41545452 
 14636      49425F44 
 14636      45505245 
 14637 4876 01       		.byte	0x1
 14638 4877 9B02     		.uleb128 0x11b
 14639 4879 5F5F4D49 		.ascii "__MINGW_MS_PRINTF(__format,__args) __attribute__((__format__(__ms_printf__, __format,__arg
 14639      4E47575F 
 14639      4D535F50 
 14639      52494E54 
 14639      46285F5F 
 14640 48d8 01       		.byte	0x1
 14641 48d9 9E02     		.uleb128 0x11e
 14642 48db 5F5F4D49 		.ascii "__MINGW_MS_SCANF(__format,__args) __attribute__((__format__(__ms_scanf__, __format,__args)
 14642      4E47575F 
 14642      4D535F53 
 14642      43414E46 
 14642      285F5F66 
 14643 4938 01       		.byte	0x1
 14644 4939 A102     		.uleb128 0x121
 14645 493b 5F5F4D49 		.ascii "__MINGW_GNU_PRINTF(__format,__args) __attribute__((__format__(__gnu_printf__,__format,__ar
 14645      4E47575F 
 14645      474E555F 
 14645      5052494E 
 14645      5446285F 
 14646 499b 01       		.byte	0x1
 14647 499c A402     		.uleb128 0x124
 14648 499e 5F5F4D49 		.ascii "__MINGW_GNU_SCANF(__format,__args) __attribute__((__format__(__gnu_scanf__, __format,__arg
 14648      4E47575F 
 14648      474E555F 
 14648      5343414E 
 14648      46285F5F 
 14649 49fd 02       		.byte	0x2
 14650 49fe A802     		.uleb128 0x128
 14651 4a00 5F5F6D69 		.ascii "__mingw_ovr\0"
 14651      6E67775F 
 14651      6F767200 
 14652 4a0c 01       		.byte	0x1
 14653 4a0d AD02     		.uleb128 0x12d
 14654 4a0f 5F5F6D69 		.ascii "__mingw_ovr static __attribute__ ((__unused__)) __inline__ __cdecl\0"
 14654      6E67775F 
 14654      6F767220 
 14654      73746174 
 14654      6963205F 
 14655 4a52 01       		.byte	0x1
 14656 4a53 B402     		.uleb128 0x134
 14657 4a55 5F5F6D69 		.ascii "__mingw_attribute_artificial __attribute__((__artificial__))\0"
 14657      6E67775F 
 14657      61747472 
 14657      69627574 
 14657      655F6172 
 14658 4a92 01       		.byte	0x1
 14659 4a93 BA02     		.uleb128 0x13a
 14660 4a95 5F5F4D49 		.ascii "__MINGW_SELECTANY __attribute__((__selectany__))\0"
 14660      4E47575F 
 14660      53454C45 
 14660      4354414E 
 14660      59205F5F 
 14661 4ac6 01       		.byte	0x1
 14662 4ac7 D302     		.uleb128 0x153
 14663 4ac9 5F5F4D49 		.ascii "__MINGW_FORTIFY_LEVEL 0\0"
 14663      4E47575F 
 14663      464F5254 
 14663      4946595F 
 14663      4C455645 
 14664 4ae1 01       		.byte	0x1
 14665 4ae2 FB02     		.uleb128 0x17b
 14666 4ae4 5F5F6D69 		.ascii "__mingw_bos_ovr __mingw_ovr\0"
 14666      6E67775F 
 14666      626F735F 
 14666      6F767220 
 14666      5F5F6D69 
 14667 4b00 01       		.byte	0x1
 14668 4b01 8803     		.uleb128 0x188
 14669 4b03 5F5F4D49 		.ascii "__MINGW_FORTIFY_VA_ARG 0\0"
 14669      4E47575F 
 14669      464F5254 
 14669      4946595F 
 14669      56415F41 
 14670 4b1c 02       		.byte	0x2
 14671 4b1d 8B03     		.uleb128 0x18b
 14672 4b1f 5F5F6861 		.ascii "__has_builtin\0"
 14672      735F6275 
 14672      696C7469 
 14672      6E00
 14673 4b2d 04       		.byte	0x4
 14674              		.file 18 "C:/Users/victim/source/repos/Paranyok/UEFI/Backend/mingw64/include/_mingw_secapi.h"
 14675 4b2e 03       		.byte	0x3
 14676 4b2f 0B       		.uleb128 0xb
 14677 4b30 12       		.uleb128 0x12
 14678 4b31 01       		.byte	0x1
 14679 4b32 08       		.uleb128 0x8
 14680 4b33 5F494E43 		.ascii "_INC_MINGW_SECAPI \0"
 14680      5F4D494E 
 14680      47575F53 
 14680      45434150 
 14680      492000
 14681 4b46 02       		.byte	0x2
 14682 4b47 1D       		.uleb128 0x1d
 14683 4b48 5F435254 		.ascii "_CRT_SECURE_CPP_OVERLOAD_SECURE_NAMES\0"
 14683      5F534543 
 14683      5552455F 
 14683      4350505F 
 14683      4F564552 
 14684 4b6e 02       		.byte	0x2
 14685 4b6f 1E       		.uleb128 0x1e
 14686 4b70 5F435254 		.ascii "_CRT_SECURE_CPP_OVERLOAD_SECURE_NAMES_MEMORY\0"
 14686      5F534543 
 14686      5552455F 
 14686      4350505F 
 14686      4F564552 
 14687 4b9d 02       		.byte	0x2
 14688 4b9e 1F       		.uleb128 0x1f
 14689 4b9f 5F435254 		.ascii "_CRT_SECURE_CPP_OVERLOAD_STANDARD_NAMES\0"
 14689      5F534543 
 14689      5552455F 
 14689      4350505F 
 14689      4F564552 
 14690 4bc7 02       		.byte	0x2
 14691 4bc8 20       		.uleb128 0x20
 14692 4bc9 5F435254 		.ascii "_CRT_SECURE_CPP_OVERLOAD_STANDARD_NAMES_COUNT\0"
 14692      5F534543 
 14692      5552455F 
 14692      4350505F 
 14692      4F564552 
 14693 4bf7 02       		.byte	0x2
 14694 4bf8 21       		.uleb128 0x21
 14695 4bf9 5F435254 		.ascii "_CRT_SECURE_CPP_OVERLOAD_STANDARD_NAMES_MEMORY\0"
 14695      5F534543 
 14695      5552455F 
 14695      4350505F 
 14695      4F564552 
 14696 4c28 01       		.byte	0x1
 14697 4c29 22       		.uleb128 0x22
 14698 4c2a 5F435254 		.ascii "_CRT_SECURE_CPP_OVERLOAD_SECURE_NAMES 0\0"
 14698      5F534543 
 14698      5552455F 
 14698      4350505F 
 14698      4F564552 
 14699 4c52 01       		.byte	0x1
 14700 4c53 23       		.uleb128 0x23
 14701 4c54 5F435254 		.ascii "_CRT_SECURE_CPP_OVERLOAD_SECURE_NAMES_MEMORY 0\0"
 14701      5F534543 
 14701      5552455F 
 14701      4350505F 
 14701      4F564552 
 14702 4c83 01       		.byte	0x1
 14703 4c84 24       		.uleb128 0x24
 14704 4c85 5F435254 		.ascii "_CRT_SECURE_CPP_OVERLOAD_STANDARD_NAMES 0\0"
 14704      5F534543 
 14704      5552455F 
 14704      4350505F 
 14704      4F564552 
 14705 4caf 01       		.byte	0x1
 14706 4cb0 25       		.uleb128 0x25
 14707 4cb1 5F435254 		.ascii "_CRT_SECURE_CPP_OVERLOAD_STANDARD_NAMES_COUNT 0\0"
 14707      5F534543 
 14707      5552455F 
 14707      4350505F 
 14707      4F564552 
 14708 4ce1 01       		.byte	0x1
 14709 4ce2 26       		.uleb128 0x26
 14710 4ce3 5F435254 		.ascii "_CRT_SECURE_CPP_OVERLOAD_STANDARD_NAMES_MEMORY 0\0"
 14710      5F534543 
 14710      5552455F 
 14710      4350505F 
 14710      4F564552 
 14711 4d14 01       		.byte	0x1
 14712 4d15 29       		.uleb128 0x29
 14713 4d16 5F5F4D49 		.ascii "__MINGW_CRT_NAME_CONCAT2(sym) ::sym ##_s\0"
 14713      4E47575F 
 14713      4352545F 
 14713      4E414D45 
 14713      5F434F4E 
 14714 4d3f 01       		.byte	0x1
 14715 4d40 45       		.uleb128 0x45
 14716 4d41 5F5F4352 		.ascii "__CRT_SECURE_CPP_OVERLOAD_STANDARD_NAMES_MEMORY_0_3_(__ret,__func,__type1,__attrib1,__arg1
 14716      545F5345 
 14716      43555245 
 14716      5F435050 
 14716      5F4F5645 
 14717 4e60 04       		.byte	0x4
 14718 4e61 01       		.byte	0x1
 14719 4e62 18       		.uleb128 0x18
 14720 4e63 5F5F4C4F 		.ascii "__LONG32 long\0"
 14720      4E473332 
 14720      206C6F6E 
 14720      6700
 14721 4e71 01       		.byte	0x1
 14722 4e72 2C       		.uleb128 0x2c
 14723 4e73 5F5F4D49 		.ascii "__MINGW_IMPORT extern __attribute__ ((__dllimport__))\0"
 14723      4E47575F 
 14723      494D504F 
 14723      52542065 
 14723      78746572 
 14724 4ea9 02       		.byte	0x2
 14725 4eaa 2F       		.uleb128 0x2f
 14726 4eab 5F5F5553 		.ascii "__USE_CRTIMP\0"
 14726      455F4352 
 14726      54494D50 
 14726      00
 14727 4eb8 01       		.byte	0x1
 14728 4eb9 31       		.uleb128 0x31
 14729 4eba 5F5F5553 		.ascii "__USE_CRTIMP 1\0"
 14729      455F4352 
 14729      54494D50 
 14729      203100
 14730 4ec9 01       		.byte	0x1
 14731 4eca 34       		.uleb128 0x34
 14732 4ecb 5F435254 		.ascii "_CRTIMP __attribute__ ((__dllimport__))\0"
 14732      494D5020 
 14732      5F5F6174 
 14732      74726962 
 14732      7574655F 
 14733 4ef3 01       		.byte	0x1
 14734 4ef4 39       		.uleb128 0x39
 14735 4ef5 5F5F4445 		.ascii "__DECLSPEC_SUPPORTED \0"
 14735      434C5350 
 14735      45435F53 
 14735      5550504F 
 14735      52544544 
 14736 4f0b 01       		.byte	0x1
 14737 4f0c 46       		.uleb128 0x46
 14738 4f0d 5553455F 		.ascii "USE___UUIDOF 0\0"
 14738      5F5F5555 
 14738      49444F46 
 14738      203000
 14739 4f1c 01       		.byte	0x1
 14740 4f1d 4A       		.uleb128 0x4a
 14741 4f1e 5F696E6C 		.ascii "_inline __inline\0"
 14741      696E6520 
 14741      5F5F696E 
 14741      6C696E65 
 14741      00
 14742 4f2f 01       		.byte	0x1
 14743 4f30 53       		.uleb128 0x53
 14744 4f31 5F5F4352 		.ascii "__CRT_INLINE extern inline __attribute__((__gnu_inline__))\0"
 14744      545F494E 
 14744      4C494E45 
 14744      20657874 
 14744      65726E20 
 14745 4f6c 01       		.byte	0x1
 14746 4f6d 5A       		.uleb128 0x5a
 14747 4f6e 5F5F4D49 		.ascii "__MINGW_INTRIN_INLINE extern __inline__ __attribute__((__always_inline__,__gnu_inline__))\
 14747      4E47575F 
 14747      494E5452 
 14747      494E5F49 
 14747      4E4C494E 
 14748 4fc8 01       		.byte	0x1
 14749 4fc9 68       		.uleb128 0x68
 14750 4fca 5F5F554E 		.ascii "__UNUSED_PARAM(x) x __attribute__ ((__unused__))\0"
 14750      55534544 
 14750      5F504152 
 14750      414D2878 
 14750      29207820 
 14751 4ffb 01       		.byte	0x1
 14752 4ffc 77       		.uleb128 0x77
 14753 4ffd 5F5F7265 		.ascii "__restrict_arr __restrict\0"
 14753      73747269 
 14753      63745F61 
 14753      7272205F 
 14753      5F726573 
 14754 5017 01       		.byte	0x1
 14755 5018 8701     		.uleb128 0x87
 14756 501a 5F5F4D49 		.ascii "__MINGW_ATTRIB_NORETURN __attribute__ ((__noreturn__))\0"
 14756      4E47575F 
 14756      41545452 
 14756      49425F4E 
 14756      4F524554 
 14757 5051 01       		.byte	0x1
 14758 5052 8801     		.uleb128 0x88
 14759 5054 5F5F4D49 		.ascii "__MINGW_ATTRIB_CONST __attribute__ ((__const__))\0"
 14759      4E47575F 
 14759      41545452 
 14759      49425F43 
 14759      4F4E5354 
 14760 5085 01       		.byte	0x1
 14761 5086 9201     		.uleb128 0x92
 14762 5088 5F5F4D49 		.ascii "__MINGW_ATTRIB_MALLOC __attribute__ ((__malloc__))\0"
 14762      4E47575F 
 14762      41545452 
 14762      49425F4D 
 14762      414C4C4F 
 14763 50bb 01       		.byte	0x1
 14764 50bc 9301     		.uleb128 0x93
 14765 50be 5F5F4D49 		.ascii "__MINGW_ATTRIB_PURE __attribute__ ((__pure__))\0"
 14765      4E47575F 
 14765      41545452 
 14765      49425F50 
 14765      55524520 
 14766 50ed 01       		.byte	0x1
 14767 50ee A001     		.uleb128 0xa0
 14768 50f0 5F5F4D49 		.ascii "__MINGW_ATTRIB_NONNULL(arg) __attribute__ ((__nonnull__ (arg)))\0"
 14768      4E47575F 
 14768      41545452 
 14768      49425F4E 
 14768      4F4E4E55 
 14769 5130 01       		.byte	0x1
 14770 5131 A601     		.uleb128 0xa6
 14771 5133 5F5F4D49 		.ascii "__MINGW_ATTRIB_UNUSED __attribute__ ((__unused__))\0"
 14771      4E47575F 
 14771      41545452 
 14771      49425F55 
 14771      4E555345 
 14772 5166 01       		.byte	0x1
 14773 5167 AC01     		.uleb128 0xac
 14774 5169 5F5F4D49 		.ascii "__MINGW_ATTRIB_USED __attribute__ ((__used__))\0"
 14774      4E47575F 
 14774      41545452 
 14774      49425F55 
 14774      53454420 
 14775 5198 01       		.byte	0x1
 14776 5199 AD01     		.uleb128 0xad
 14777 519b 5F5F4D49 		.ascii "__MINGW_ATTRIB_DEPRECATED __attribute__ ((__deprecated__))\0"
 14777      4E47575F 
 14777      41545452 
 14777      49425F44 
 14777      45505245 
 14778 51d6 01       		.byte	0x1
 14779 51d7 AF01     		.uleb128 0xaf
 14780 51d9 5F5F4D49 		.ascii "__MINGW_ATTRIB_DEPRECATED_MSG(x) __attribute__ ((__deprecated__(x)))\0"
 14780      4E47575F 
 14780      41545452 
 14780      49425F44 
 14780      45505245 
 14781 521e 01       		.byte	0x1
 14782 521f BE01     		.uleb128 0xbe
 14783 5221 5F5F4D49 		.ascii "__MINGW_NOTHROW __attribute__ ((__nothrow__))\0"
 14783      4E47575F 
 14783      4E4F5448 
 14783      524F5720 
 14783      5F5F6174 
 14784 524f 01       		.byte	0x1
 14785 5250 C601     		.uleb128 0xc6
 14786 5252 5F5F4D49 		.ascii "__MINGW_ATTRIB_NO_OPTIMIZE __attribute__((__optimize__ (\"0\")))\0"
 14786      4E47575F 
 14786      41545452 
 14786      49425F4E 
 14786      4F5F4F50 
 14787 5291 01       		.byte	0x1
 14788 5292 CC01     		.uleb128 0xcc
 14789 5294 5F5F4D49 		.ascii "__MINGW_PRAGMA_PARAM(x) _Pragma (#x)\0"
 14789      4E47575F 
 14789      50524147 
 14789      4D415F50 
 14789      4152414D 
 14790 52b9 01       		.byte	0x1
 14791 52ba D301     		.uleb128 0xd3
 14792 52bc 5F5F4D49 		.ascii "__MINGW_BROKEN_INTERFACE(x) __MINGW_PRAGMA_PARAM(message (\"Interface \" _CRT_STRINGIZE(x)
 14792      4E47575F 
 14792      42524F4B 
 14792      454E5F49 
 14792      4E544552 
 14793 5331 01       		.byte	0x1
 14794 5332 DE01     		.uleb128 0xde
 14795 5334 5F5F4D53 		.ascii "__MSVCRT_VERSION__ 0x700\0"
 14795      56435254 
 14795      5F564552 
 14795      53494F4E 
 14795      5F5F2030 
 14796 534d 01       		.byte	0x1
 14797 534e E801     		.uleb128 0xe8
 14798 5350 5F57494E 		.ascii "_WIN32_WINNT 0x601\0"
 14798      33325F57 
 14798      494E4E54 
 14798      20307836 
 14798      303100
 14799 5363 01       		.byte	0x1
 14800 5364 EC01     		.uleb128 0xec
 14801 5366 5F494E54 		.ascii "_INT128_DEFINED \0"
 14801      3132385F 
 14801      44454649 
 14801      4E454420 
 14801      00
 14802 5377 01       		.byte	0x1
 14803 5378 EE01     		.uleb128 0xee
 14804 537a 5F5F696E 		.ascii "__int8 char\0"
 14804      74382063 
 14804      68617200 
 14805 5386 01       		.byte	0x1
 14806 5387 EF01     		.uleb128 0xef
 14807 5389 5F5F696E 		.ascii "__int16 short\0"
 14807      74313620 
 14807      73686F72 
 14807      7400
 14808 5397 01       		.byte	0x1
 14809 5398 F001     		.uleb128 0xf0
 14810 539a 5F5F696E 		.ascii "__int32 int\0"
 14810      74333220 
 14810      696E7400 
 14811 53a6 01       		.byte	0x1
 14812 53a7 F101     		.uleb128 0xf1
 14813 53a9 5F5F696E 		.ascii "__int64 long long\0"
 14813      74363420 
 14813      6C6F6E67 
 14813      206C6F6E 
 14813      6700
 14814 53bb 01       		.byte	0x1
 14815 53bc FF01     		.uleb128 0xff
 14816 53be 5F5F7074 		.ascii "__ptr32 \0"
 14816      72333220 
 14816      00
 14817 53c7 01       		.byte	0x1
 14818 53c8 8002     		.uleb128 0x100
 14819 53ca 5F5F7074 		.ascii "__ptr64 \0"
 14819      72363420 
 14819      00
 14820 53d3 01       		.byte	0x1
 14821 53d4 8202     		.uleb128 0x102
 14822 53d6 5F5F756E 		.ascii "__unaligned \0"
 14822      616C6967 
 14822      6E656420 
 14822      00
 14823 53e3 01       		.byte	0x1
 14824 53e4 8502     		.uleb128 0x105
 14825 53e6 5F5F7736 		.ascii "__w64 \0"
 14825      342000
 14826 53ed 01       		.byte	0x1
 14827 53ee 8A02     		.uleb128 0x10a
 14828 53f0 5F5F666F 		.ascii "__forceinline extern __inline__ __attribute__((__always_inline__,__gnu_inline__))\0"
 14828      72636569 
 14828      6E6C696E 
 14828      65206578 
 14828      7465726E 
 14829 5442 01       		.byte	0x1
 14830 5443 9602     		.uleb128 0x116
 14831 5445 5F5F6E6F 		.ascii "__nothrow \0"
 14831      7468726F 
 14831      772000
 14832              		.file 19 "C:/Users/victim/source/repos/Paranyok/UEFI/Backend/mingw64/include/vadefs.h"
 14833 5450 03       		.byte	0x3
 14834 5451 9A02     		.uleb128 0x11a
 14835 5453 13       		.uleb128 0x13
 14836 5454 01       		.byte	0x1
 14837 5455 07       		.uleb128 0x7
 14838 5456 5F494E43 		.ascii "_INC_VADEFS \0"
 14838      5F564144 
 14838      45465320 
 14838      00
 14839 5463 03       		.byte	0x3
 14840 5464 09       		.uleb128 0x9
 14841 5465 10       		.uleb128 0x10
 14842 5466 01       		.byte	0x1
 14843 5467 8A05     		.uleb128 0x28a
 14844 5469 4D494E47 		.ascii "MINGW_SDK_INIT \0"
 14844      575F5344 
 14844      4B5F494E 
 14844      49542000 
 14845 5479 01       		.byte	0x1
 14846 547a 8E05     		.uleb128 0x28e
 14847 547c 4D494E47 		.ascii "MINGW_HAS_SECURE_API 1\0"
 14847      575F4841 
 14847      535F5345 
 14847      43555245 
 14847      5F415049 
 14848 5493 01       		.byte	0x1
 14849 5494 9105     		.uleb128 0x291
 14850 5496 5F5F5354 		.ascii "__STDC_SECURE_LIB__ 200411L\0"
 14850      44435F53 
 14850      45435552 
 14850      455F4C49 
 14850      425F5F20 
 14851 54b2 01       		.byte	0x1
 14852 54b3 9205     		.uleb128 0x292
 14853 54b5 5F5F474F 		.ascii "__GOT_SECURE_LIB__ __STDC_SECURE_LIB__\0"
 14853      545F5345 
 14853      43555245 
 14853      5F4C4942 
 14853      5F5F205F 
 14854              		.file 20 "C:/Users/victim/source/repos/Paranyok/UEFI/Backend/mingw64/include/sdks/_mingw_ddk.h"
 14855 54dc 03       		.byte	0x3
 14856 54dd 9505     		.uleb128 0x295
 14857 54df 14       		.uleb128 0x14
 14858 54e0 01       		.byte	0x1
 14859 54e1 02       		.uleb128 0x2
 14860 54e2 4D494E47 		.ascii "MINGW_DDK_H \0"
 14860      575F4444 
 14860      4B5F4820 
 14860      00
 14861 54ef 01       		.byte	0x1
 14862 54f0 04       		.uleb128 0x4
 14863 54f1 4D494E47 		.ascii "MINGW_HAS_DDK_H 1\0"
 14863      575F4841 
 14863      535F4444 
 14863      4B5F4820 
 14863      3100
 14864 5503 04       		.byte	0x4
 14865 5504 04       		.byte	0x4
 14866 5505 02       		.byte	0x2
 14867 5506 0C       		.uleb128 0xc
 14868 5507 5F435254 		.ascii "_CRT_PACKING\0"
 14868      5F504143 
 14868      4B494E47 
 14868      00
 14869 5514 01       		.byte	0x1
 14870 5515 0D       		.uleb128 0xd
 14871 5516 5F435254 		.ascii "_CRT_PACKING 8\0"
 14871      5F504143 
 14871      4B494E47 
 14871      203800
 14872 5525 01       		.byte	0x1
 14873 5526 17       		.uleb128 0x17
 14874 5527 5F5F474E 		.ascii "__GNUC_VA_LIST \0"
 14874      55435F56 
 14874      415F4C49 
 14874      53542000 
 14875 5537 01       		.byte	0x1
 14876 5538 1D       		.uleb128 0x1d
 14877 5539 5F56415F 		.ascii "_VA_LIST_DEFINED \0"
 14877      4C495354 
 14877      5F444546 
 14877      494E4544 
 14877      2000
 14878 554b 01       		.byte	0x1
 14879 554c 2A       		.uleb128 0x2a
 14880 554d 5F414444 		.ascii "_ADDRESSOF(v) (&(v))\0"
 14880      52455353 
 14880      4F462876 
 14880      29202826 
 14880      28762929 
 14881 5562 01       		.byte	0x1
 14882 5563 30       		.uleb128 0x30
 14883 5564 5F637274 		.ascii "_crt_va_start(v,l) __builtin_va_start(v,l)\0"
 14883      5F76615F 
 14883      73746172 
 14883      7428762C 
 14883      6C29205F 
 14884 558f 01       		.byte	0x1
 14885 5590 31       		.uleb128 0x31
 14886 5591 5F637274 		.ascii "_crt_va_arg(v,l) __builtin_va_arg(v,l)\0"
 14886      5F76615F 
 14886      61726728 
 14886      762C6C29 
 14886      205F5F62 
 14887 55b8 01       		.byte	0x1
 14888 55b9 32       		.uleb128 0x32
 14889 55ba 5F637274 		.ascii "_crt_va_end(v) __builtin_va_end(v)\0"
 14889      5F76615F 
 14889      656E6428 
 14889      7629205F 
 14889      5F627569 
 14890 55dd 01       		.byte	0x1
 14891 55de 33       		.uleb128 0x33
 14892 55df 5F637274 		.ascii "_crt_va_copy(d,s) __builtin_va_copy(d,s)\0"
 14892      5F76615F 
 14892      636F7079 
 14892      28642C73 
 14892      29205F5F 
 14893 5608 04       		.byte	0x4
 14894 5609 01       		.byte	0x1
 14895 560a 9D02     		.uleb128 0x11d
 14896 560c 5F5F4352 		.ascii "__CRT_STRINGIZE(_Value) #_Value\0"
 14896      545F5354 
 14896      52494E47 
 14896      495A4528 
 14896      5F56616C 
 14897 562c 01       		.byte	0x1
 14898 562d 9E02     		.uleb128 0x11e
 14899 562f 5F435254 		.ascii "_CRT_STRINGIZE(_Value) __CRT_STRINGIZE(_Value)\0"
 14899      5F535452 
 14899      494E4749 
 14899      5A45285F 
 14899      56616C75 
 14900 565e 01       		.byte	0x1
 14901 565f A202     		.uleb128 0x122
 14902 5661 5F5F4352 		.ascii "__CRT_WIDE(_String) L ## _String\0"
 14902      545F5749 
 14902      4445285F 
 14902      53747269 
 14902      6E672920 
 14903 5682 01       		.byte	0x1
 14904 5683 A302     		.uleb128 0x123
 14905 5685 5F435254 		.ascii "_CRT_WIDE(_String) __CRT_WIDE(_String)\0"
 14905      5F574944 
 14905      45285F53 
 14905      7472696E 
 14905      6729205F 
 14906 56ac 01       		.byte	0x1
 14907 56ad A702     		.uleb128 0x127
 14908 56af 5F573634 		.ascii "_W64 \0"
 14908      2000
 14909 56b5 01       		.byte	0x1
 14910 56b6 AE02     		.uleb128 0x12e
 14911 56b8 5F435254 		.ascii "_CRTIMP_NOIA64 _CRTIMP\0"
 14911      494D505F 
 14911      4E4F4941 
 14911      3634205F 
 14911      43525449 
 14912 56cf 01       		.byte	0x1
 14913 56d0 B302     		.uleb128 0x133
 14914 56d2 5F435254 		.ascii "_CRTIMP2 _CRTIMP\0"
 14914      494D5032 
 14914      205F4352 
 14914      54494D50 
 14914      00
 14915 56e3 01       		.byte	0x1
 14916 56e4 B702     		.uleb128 0x137
 14917 56e6 5F435254 		.ascii "_CRTIMP_ALTERNATIVE _CRTIMP\0"
 14917      494D505F 
 14917      414C5445 
 14917      524E4154 
 14917      49564520 
 14918 5702 01       		.byte	0x1
 14919 5703 B802     		.uleb128 0x138
 14920 5705 5F435254 		.ascii "_CRT_ALTERNATIVE_IMPORTED \0"
 14920      5F414C54 
 14920      45524E41 
 14920      54495645 
 14920      5F494D50 
 14921 5720 01       		.byte	0x1
 14922 5721 BC02     		.uleb128 0x13c
 14923 5723 5F4D5254 		.ascii "_MRTIMP2 _CRTIMP\0"
 14923      494D5032 
 14923      205F4352 
 14923      54494D50 
 14923      00
 14924 5734 01       		.byte	0x1
 14925 5735 C502     		.uleb128 0x145
 14926 5737 5F444C4C 		.ascii "_DLL \0"
 14926      2000
 14927 573d 01       		.byte	0x1
 14928 573e C902     		.uleb128 0x149
 14929 5740 5F4D5420 		.ascii "_MT \0"
 14929      00
 14930 5745 01       		.byte	0x1
 14931 5746 CD02     		.uleb128 0x14d
 14932 5748 5F4D4352 		.ascii "_MCRTIMP _CRTIMP\0"
 14932      54494D50 
 14932      205F4352 
 14932      54494D50 
 14932      00
 14933 5759 01       		.byte	0x1
 14934 575a D102     		.uleb128 0x151
 14935 575c 5F435254 		.ascii "_CRTIMP_PURE _CRTIMP\0"
 14935      494D505F 
 14935      50555245 
 14935      205F4352 
 14935      54494D50 
 14936 5771 01       		.byte	0x1
 14937 5772 D502     		.uleb128 0x155
 14938 5774 5F50474C 		.ascii "_PGLOBAL \0"
 14938      4F42414C 
 14938      2000
 14939 577e 01       		.byte	0x1
 14940 577f D902     		.uleb128 0x159
 14941 5781 5F41474C 		.ascii "_AGLOBAL \0"
 14941      4F42414C 
 14941      2000
 14942 578b 01       		.byte	0x1
 14943 578c DC02     		.uleb128 0x15c
 14944 578e 5F534543 		.ascii "_SECURECRT_FILL_BUFFER_PATTERN 0xFD\0"
 14944      55524543 
 14944      52545F46 
 14944      494C4C5F 
 14944      42554646 
 14945 57b2 01       		.byte	0x1
 14946 57b3 DD02     		.uleb128 0x15d
 14947 57b5 5F435254 		.ascii "_CRT_DEPRECATE_TEXT(_Text) __declspec(deprecated)\0"
 14947      5F444550 
 14947      52454341 
 14947      54455F54 
 14947      45585428 
 14948 57e7 01       		.byte	0x1
 14949 57e8 E002     		.uleb128 0x160
 14950 57ea 5F435254 		.ascii "_CRT_INSECURE_DEPRECATE_MEMORY(_Replacement) \0"
 14950      5F494E53 
 14950      45435552 
 14950      455F4445 
 14950      50524543 
 14951 5818 01       		.byte	0x1
 14952 5819 E402     		.uleb128 0x164
 14953 581b 5F435254 		.ascii "_CRT_INSECURE_DEPRECATE_GLOBALS(_Replacement) \0"
 14953      5F494E53 
 14953      45435552 
 14953      455F4445 
 14953      50524543 
 14954 584a 01       		.byte	0x1
 14955 584b E802     		.uleb128 0x168
 14956 584d 5F435254 		.ascii "_CRT_MANAGED_HEAP_DEPRECATE \0"
 14956      5F4D414E 
 14956      41474544 
 14956      5F484541 
 14956      505F4445 
 14957 586a 01       		.byte	0x1
 14958 586b EC02     		.uleb128 0x16c
 14959 586d 5F435254 		.ascii "_CRT_OBSOLETE(_NewItem) \0"
 14959      5F4F4253 
 14959      4F4C4554 
 14959      45285F4E 
 14959      65774974 
 14960 5886 01       		.byte	0x1
 14961 5887 F802     		.uleb128 0x178
 14962 5889 5F434F4E 		.ascii "_CONST_RETURN \0"
 14962      53545F52 
 14962      45545552 
 14962      4E2000
 14963 5898 01       		.byte	0x1
 14964 5899 FD02     		.uleb128 0x17d
 14965 589b 554E414C 		.ascii "UNALIGNED __unaligned\0"
 14965      49474E45 
 14965      44205F5F 
 14965      756E616C 
 14965      69676E65 
 14966 58b1 01       		.byte	0x1
 14967 58b2 8703     		.uleb128 0x187
 14968 58b4 5F435254 		.ascii "_CRT_ALIGN(x) __attribute__ ((__aligned__ (x)))\0"
 14968      5F414C49 
 14968      474E2878 
 14968      29205F5F 
 14968      61747472 
 14969 58e4 01       		.byte	0x1
 14970 58e5 8E03     		.uleb128 0x18e
 14971 58e7 5F5F4352 		.ascii "__CRTDECL __cdecl\0"
 14971      54444543 
 14971      4C205F5F 
 14971      63646563 
 14971      6C00
 14972 58f9 01       		.byte	0x1
 14973 58fa 9103     		.uleb128 0x191
 14974 58fc 5F415247 		.ascii "_ARGMAX 100\0"
 14974      4D415820 
 14974      31303000 
 14975 5908 01       		.byte	0x1
 14976 5909 9403     		.uleb128 0x194
 14977 590b 5F545255 		.ascii "_TRUNCATE ((size_t)-1)\0"
 14977      4E434154 
 14977      45202828 
 14977      73697A65 
 14977      5F74292D 
 14978 5922 01       		.byte	0x1
 14979 5923 9803     		.uleb128 0x198
 14980 5925 5F435254 		.ascii "_CRT_UNUSED(x) (void)x\0"
 14980      5F554E55 
 14980      53454428 
 14980      78292028 
 14980      766F6964 
 14981 593c 01       		.byte	0x1
 14982 593d AD03     		.uleb128 0x1ad
 14983 593f 5F5F5553 		.ascii "__USE_MINGW_ANSI_STDIO 1\0"
 14983      455F4D49 
 14983      4E47575F 
 14983      414E5349 
 14983      5F535444 
 14984 5958 01       		.byte	0x1
 14985 5959 B403     		.uleb128 0x1b4
 14986 595b 5F5F5553 		.ascii "__USE_MINGW_ANSI_STDIO 1\0"
 14986      455F4D49 
 14986      4E47575F 
 14986      414E5349 
 14986      5F535444 
 14987 5974 02       		.byte	0x2
 14988 5975 C603     		.uleb128 0x1c6
 14989 5977 5F435254 		.ascii "_CRT_glob\0"
 14989      5F676C6F 
 14989      6200
 14990 5981 01       		.byte	0x1
 14991 5982 C703     		.uleb128 0x1c7
 14992 5984 5F435254 		.ascii "_CRT_glob _dowildcard\0"
 14992      5F676C6F 
 14992      62205F64 
 14992      6F77696C 
 14992      64636172 
 14993 599a 01       		.byte	0x1
 14994 599b D703     		.uleb128 0x1d7
 14995 599d 5F5F414E 		.ascii "__ANONYMOUS_DEFINED \0"
 14995      4F4E594D 
 14995      4F55535F 
 14995      44454649 
 14995      4E454420 
 14996 59b2 01       		.byte	0x1
 14997 59b3 D803     		.uleb128 0x1d8
 14998 59b5 5F414E4F 		.ascii "_ANONYMOUS_UNION __MINGW_EXTENSION\0"
 14998      4E594D4F 
 14998      55535F55 
 14998      4E494F4E 
 14998      205F5F4D 
 14999 59d8 01       		.byte	0x1
 15000 59d9 D903     		.uleb128 0x1d9
 15001 59db 5F414E4F 		.ascii "_ANONYMOUS_STRUCT __MINGW_EXTENSION\0"
 15001      4E594D4F 
 15001      55535F53 
 15001      54525543 
 15001      54205F5F 
 15002 59ff 01       		.byte	0x1
 15003 5a00 DB03     		.uleb128 0x1db
 15004 5a02 5F554E49 		.ascii "_UNION_NAME(x) \0"
 15004      4F4E5F4E 
 15004      414D4528 
 15004      78292000 
 15005 5a12 01       		.byte	0x1
 15006 5a13 DC03     		.uleb128 0x1dc
 15007 5a15 5F535452 		.ascii "_STRUCT_NAME(x) \0"
 15007      5543545F 
 15007      4E414D45 
 15007      28782920 
 15007      00
 15008 5a26 01       		.byte	0x1
 15009 5a27 F003     		.uleb128 0x1f0
 15010 5a29 44554D4D 		.ascii "DUMMYUNIONNAME \0"
 15010      59554E49 
 15010      4F4E4E41 
 15010      4D452000 
 15011 5a39 01       		.byte	0x1
 15012 5a3a F103     		.uleb128 0x1f1
 15013 5a3c 44554D4D 		.ascii "DUMMYUNIONNAME1 \0"
 15013      59554E49 
 15013      4F4E4E41 
 15013      4D453120 
 15013      00
 15014 5a4d 01       		.byte	0x1
 15015 5a4e F203     		.uleb128 0x1f2
 15016 5a50 44554D4D 		.ascii "DUMMYUNIONNAME2 \0"
 15016      59554E49 
 15016      4F4E4E41 
 15016      4D453220 
 15016      00
 15017 5a61 01       		.byte	0x1
 15018 5a62 F303     		.uleb128 0x1f3
 15019 5a64 44554D4D 		.ascii "DUMMYUNIONNAME3 \0"
 15019      59554E49 
 15019      4F4E4E41 
 15019      4D453320 
 15019      00
 15020 5a75 01       		.byte	0x1
 15021 5a76 F403     		.uleb128 0x1f4
 15022 5a78 44554D4D 		.ascii "DUMMYUNIONNAME4 \0"
 15022      59554E49 
 15022      4F4E4E41 
 15022      4D453420 
 15022      00
 15023 5a89 01       		.byte	0x1
 15024 5a8a F503     		.uleb128 0x1f5
 15025 5a8c 44554D4D 		.ascii "DUMMYUNIONNAME5 \0"
 15025      59554E49 
 15025      4F4E4E41 
 15025      4D453520 
 15025      00
 15026 5a9d 01       		.byte	0x1
 15027 5a9e F603     		.uleb128 0x1f6
 15028 5aa0 44554D4D 		.ascii "DUMMYUNIONNAME6 \0"
 15028      59554E49 
 15028      4F4E4E41 
 15028      4D453620 
 15028      00
 15029 5ab1 01       		.byte	0x1
 15030 5ab2 F703     		.uleb128 0x1f7
 15031 5ab4 44554D4D 		.ascii "DUMMYUNIONNAME7 \0"
 15031      59554E49 
 15031      4F4E4E41 
 15031      4D453720 
 15031      00
 15032 5ac5 01       		.byte	0x1
 15033 5ac6 F803     		.uleb128 0x1f8
 15034 5ac8 44554D4D 		.ascii "DUMMYUNIONNAME8 \0"
 15034      59554E49 
 15034      4F4E4E41 
 15034      4D453820 
 15034      00
 15035 5ad9 01       		.byte	0x1
 15036 5ada F903     		.uleb128 0x1f9
 15037 5adc 44554D4D 		.ascii "DUMMYUNIONNAME9 \0"
 15037      59554E49 
 15037      4F4E4E41 
 15037      4D453920 
 15037      00
 15038 5aed 01       		.byte	0x1
 15039 5aee 8604     		.uleb128 0x206
 15040 5af0 44554D4D 		.ascii "DUMMYSTRUCTNAME \0"
 15040      59535452 
 15040      5543544E 
 15040      414D4520 
 15040      00
 15041 5b01 01       		.byte	0x1
 15042 5b02 8704     		.uleb128 0x207
 15043 5b04 44554D4D 		.ascii "DUMMYSTRUCTNAME1 \0"
 15043      59535452 
 15043      5543544E 
 15043      414D4531 
 15043      2000
 15044 5b16 01       		.byte	0x1
 15045 5b17 8804     		.uleb128 0x208
 15046 5b19 44554D4D 		.ascii "DUMMYSTRUCTNAME2 \0"
 15046      59535452 
 15046      5543544E 
 15046      414D4532 
 15046      2000
 15047 5b2b 01       		.byte	0x1
 15048 5b2c 8904     		.uleb128 0x209
 15049 5b2e 44554D4D 		.ascii "DUMMYSTRUCTNAME3 \0"
 15049      59535452 
 15049      5543544E 
 15049      414D4533 
 15049      2000
 15050 5b40 01       		.byte	0x1
 15051 5b41 8A04     		.uleb128 0x20a
 15052 5b43 44554D4D 		.ascii "DUMMYSTRUCTNAME4 \0"
 15052      59535452 
 15052      5543544E 
 15052      414D4534 
 15052      2000
 15053 5b55 01       		.byte	0x1
 15054 5b56 8B04     		.uleb128 0x20b
 15055 5b58 44554D4D 		.ascii "DUMMYSTRUCTNAME5 \0"
 15055      59535452 
 15055      5543544E 
 15055      414D4535 
 15055      2000
 15056 5b6a 01       		.byte	0x1
 15057 5b6b B304     		.uleb128 0x233
 15058 5b6d 5F5F4352 		.ascii "__CRT_UUID_DECL(type,l,w1,w2,b1,b2,b3,b4,b5,b6,b7,b8) \0"
 15058      545F5555 
 15058      49445F44 
 15058      45434C28 
 15058      74797065 
 15059 5ba4 01       		.byte	0x1
 15060 5ba5 BF04     		.uleb128 0x23f
 15061 5ba7 5F5F4D49 		.ascii "__MINGW_DEBUGBREAK_IMPL !__has_builtin(__debugbreak)\0"
 15061      4E47575F 
 15061      44454255 
 15061      47425245 
 15061      414B5F49 
 15062 5bdc 01       		.byte	0x1
 15063 5bdd D404     		.uleb128 0x254
 15064 5bdf 5F5F4D49 		.ascii "__MINGW_FASTFAIL_IMPL !__has_builtin(__fastfail)\0"
 15064      4E47575F 
 15064      46415354 
 15064      4641494C 
 15064      5F494D50 
 15065 5c10 01       		.byte	0x1
 15066 5c11 EC04     		.uleb128 0x26c
 15067 5c13 5F5F4D49 		.ascii "__MINGW_PREFETCH_IMPL !__has_builtin(__prefetch)\0"
 15067      4E47575F 
 15067      50524546 
 15067      45544348 
 15067      5F494D50 
 15068 5c44 04       		.byte	0x4
 15069 5c45 02       		.byte	0x2
 15070 5c46 0D       		.uleb128 0xd
 15071 5c47 5F435254 		.ascii "_CRT_PACKING\0"
 15071      5F504143 
 15071      4B494E47 
 15071      00
 15072 5c54 01       		.byte	0x1
 15073 5c55 0E       		.uleb128 0xe
 15074 5c56 5F435254 		.ascii "_CRT_PACKING 8\0"
 15074      5F504143 
 15074      4B494E47 
 15074      203800
 15075 5c65 01       		.byte	0x1
 15076 5c66 18       		.uleb128 0x18
 15077 5c67 5F435254 		.ascii "_CRTNOALIAS \0"
 15077      4E4F414C 
 15077      49415320 
 15077      00
 15078 5c74 01       		.byte	0x1
 15079 5c75 1C       		.uleb128 0x1c
 15080 5c76 5F435254 		.ascii "_CRTRESTRICT \0"
 15080      52455354 
 15080      52494354 
 15080      2000
 15081 5c84 01       		.byte	0x1
 15082 5c85 20       		.uleb128 0x20
 15083 5c86 5F53495A 		.ascii "_SIZE_T_DEFINED \0"
 15083      455F545F 
 15083      44454649 
 15083      4E454420 
 15083      00
 15084 5c97 02       		.byte	0x2
 15085 5c98 21       		.uleb128 0x21
 15086 5c99 73697A65 		.ascii "size_t\0"
 15086      5F7400
 15087 5ca0 01       		.byte	0x1
 15088 5ca1 2A       		.uleb128 0x2a
 15089 5ca2 5F535349 		.ascii "_SSIZE_T_DEFINED \0"
 15089      5A455F54 
 15089      5F444546 
 15089      494E4544 
 15089      2000
 15090 5cb4 02       		.byte	0x2
 15091 5cb5 2B       		.uleb128 0x2b
 15092 5cb6 7373697A 		.ascii "ssize_t\0"
 15092      655F7400 
 15093 5cbe 01       		.byte	0x1
 15094 5cbf 35       		.uleb128 0x35
 15095 5cc0 5F525349 		.ascii "_RSIZE_T_DEFINED \0"
 15095      5A455F54 
 15095      5F444546 
 15095      494E4544 
 15095      2000
 15096 5cd2 01       		.byte	0x1
 15097 5cd3 39       		.uleb128 0x39
 15098 5cd4 5F494E54 		.ascii "_INTPTR_T_DEFINED \0"
 15098      5054525F 
 15098      545F4445 
 15098      46494E45 
 15098      442000
 15099 5ce7 01       		.byte	0x1
 15100 5ce8 3B       		.uleb128 0x3b
 15101 5ce9 5F5F696E 		.ascii "__intptr_t_defined \0"
 15101      74707472 
 15101      5F745F64 
 15101      6566696E 
 15101      65642000 
 15102 5cfd 02       		.byte	0x2
 15103 5cfe 3C       		.uleb128 0x3c
 15104 5cff 696E7470 		.ascii "intptr_t\0"
 15104      74725F74 
 15104      00
 15105 5d08 01       		.byte	0x1
 15106 5d09 46       		.uleb128 0x46
 15107 5d0a 5F55494E 		.ascii "_UINTPTR_T_DEFINED \0"
 15107      54505452 
 15107      5F545F44 
 15107      4546494E 
 15107      45442000 
 15108 5d1e 01       		.byte	0x1
 15109 5d1f 48       		.uleb128 0x48
 15110 5d20 5F5F7569 		.ascii "__uintptr_t_defined \0"
 15110      6E747074 
 15110      725F745F 
 15110      64656669 
 15110      6E656420 
 15111 5d35 02       		.byte	0x2
 15112 5d36 49       		.uleb128 0x49
 15113 5d37 75696E74 		.ascii "uintptr_t\0"
 15113      7074725F 
 15113      7400
 15114 5d41 01       		.byte	0x1
 15115 5d42 53       		.uleb128 0x53
 15116 5d43 5F505452 		.ascii "_PTRDIFF_T_DEFINED \0"
 15116      44494646 
 15116      5F545F44 
 15116      4546494E 
 15116      45442000 
 15117 5d57 01       		.byte	0x1
 15118 5d58 55       		.uleb128 0x55
 15119 5d59 5F505452 		.ascii "_PTRDIFF_T_ \0"
 15119      44494646 
 15119      5F545F20 
 15119      00
 15120 5d66 02       		.byte	0x2
 15121 5d67 56       		.uleb128 0x56
 15122 5d68 70747264 		.ascii "ptrdiff_t\0"
 15122      6966665F 
 15122      7400
 15123 5d72 01       		.byte	0x1
 15124 5d73 60       		.uleb128 0x60
 15125 5d74 5F574348 		.ascii "_WCHAR_T_DEFINED \0"
 15125      41525F54 
 15125      5F444546 
 15125      494E4544 
 15125      2000
 15126 5d86 01       		.byte	0x1
 15127 5d87 67       		.uleb128 0x67
 15128 5d88 5F574354 		.ascii "_WCTYPE_T_DEFINED \0"
 15128      5950455F 
 15128      545F4445 
 15128      46494E45 
 15128      442000
 15129 5d9b 01       		.byte	0x1
 15130 5d9c 69       		.uleb128 0x69
 15131 5d9d 5F57494E 		.ascii "_WINT_T \0"
 15131      545F5420 
 15131      00
 15132 5da6 01       		.byte	0x1
 15133 5da7 70       		.uleb128 0x70
 15134 5da8 5F455252 		.ascii "_ERRCODE_DEFINED \0"
 15134      434F4445 
 15134      5F444546 
 15134      494E4544 
 15134      2000
 15135 5dba 01       		.byte	0x1
 15136 5dbb 75       		.uleb128 0x75
 15137 5dbc 5F54494D 		.ascii "_TIME32_T_DEFINED \0"
 15137      4533325F 
 15137      545F4445 
 15137      46494E45 
 15137      442000
 15138 5dcf 01       		.byte	0x1
 15139 5dd0 7A       		.uleb128 0x7a
 15140 5dd1 5F54494D 		.ascii "_TIME64_T_DEFINED \0"
 15140      4536345F 
 15140      545F4445 
 15140      46494E45 
 15140      442000
 15141 5de4 01       		.byte	0x1
 15142 5de5 8601     		.uleb128 0x86
 15143 5de7 5F54494D 		.ascii "_TIME_T_DEFINED \0"
 15143      455F545F 
 15143      44454649 
 15143      4E454420 
 15143      00
 15144 5df8 01       		.byte	0x1
 15145 5df9 8F01     		.uleb128 0x8f
 15146 5dfb 5F435254 		.ascii "_CRT_SECURE_CPP_NOTHROW throw()\0"
 15146      5F534543 
 15146      5552455F 
 15146      4350505F 
 15146      4E4F5448 
 15147 5e1b 01       		.byte	0x1
 15148 5e1c 8602     		.uleb128 0x106
 15149 5e1e 5F5F4445 		.ascii "__DEFINE_CPP_OVERLOAD_SECURE_FUNC_0_0(__ret,__func,__dsttype,__dst) \0"
 15149      46494E45 
 15149      5F435050 
 15149      5F4F5645 
 15149      524C4F41 
 15150 5e63 01       		.byte	0x1
 15151 5e64 8702     		.uleb128 0x107
 15152 5e66 5F5F4445 		.ascii "__DEFINE_CPP_OVERLOAD_SECURE_FUNC_0_1(__ret,__func,__dsttype,__dst,__type1,__arg1) \0"
 15152      46494E45 
 15152      5F435050 
 15152      5F4F5645 
 15152      524C4F41 
 15153 5eba 01       		.byte	0x1
 15154 5ebb 8802     		.uleb128 0x108
 15155 5ebd 5F5F4445 		.ascii "__DEFINE_CPP_OVERLOAD_SECURE_FUNC_0_2(__ret,__func,__dsttype,__dst,__type1,__arg1,__type2,
 15155      46494E45 
 15155      5F435050 
 15155      5F4F5645 
 15155      524C4F41 
 15156 5f20 01       		.byte	0x1
 15157 5f21 8902     		.uleb128 0x109
 15158 5f23 5F5F4445 		.ascii "__DEFINE_CPP_OVERLOAD_SECURE_FUNC_0_3(__ret,__func,__dsttype,__dst,__type1,__arg1,__type2,
 15158      46494E45 
 15158      5F435050 
 15158      5F4F5645 
 15158      524C4F41 
 15159 5f95 01       		.byte	0x1
 15160 5f96 8A02     		.uleb128 0x10a
 15161 5f98 5F5F4445 		.ascii "__DEFINE_CPP_OVERLOAD_SECURE_FUNC_0_4(__ret,__func,__dsttype,__dst,__type1,__arg1,__type2,
 15161      46494E45 
 15161      5F435050 
 15161      5F4F5645 
 15161      524C4F41 
 15162 6019 01       		.byte	0x1
 15163 601a 8B02     		.uleb128 0x10b
 15164 601c 5F5F4445 		.ascii "__DEFINE_CPP_OVERLOAD_SECURE_FUNC_1_1(__ret,__func,__type0,__arg0,__dsttype,__dst,__type1,
 15164      46494E45 
 15164      5F435050 
 15164      5F4F5645 
 15164      524C4F41 
 15165 607f 01       		.byte	0x1
 15166 6080 8C02     		.uleb128 0x10c
 15167 6082 5F5F4445 		.ascii "__DEFINE_CPP_OVERLOAD_SECURE_FUNC_1_2(__ret,__func,__type0,__arg0,__dsttype,__dst,__type1,
 15167      46494E45 
 15167      5F435050 
 15167      5F4F5645 
 15167      524C4F41 
 15168 60f4 01       		.byte	0x1
 15169 60f5 8D02     		.uleb128 0x10d
 15170 60f7 5F5F4445 		.ascii "__DEFINE_CPP_OVERLOAD_SECURE_FUNC_1_3(__ret,__func,__type0,__arg0,__dsttype,__dst,__type1,
 15170      46494E45 
 15170      5F435050 
 15170      5F4F5645 
 15170      524C4F41 
 15171 6178 01       		.byte	0x1
 15172 6179 8E02     		.uleb128 0x10e
 15173 617b 5F5F4445 		.ascii "__DEFINE_CPP_OVERLOAD_SECURE_FUNC_2_0(__ret,__func,__type1,__arg1,__type2,__arg2,__dsttype
 15173      46494E45 
 15173      5F435050 
 15173      5F4F5645 
 15173      524C4F41 
 15174 61de 01       		.byte	0x1
 15175 61df 8F02     		.uleb128 0x10f
 15176 61e1 5F5F4445 		.ascii "__DEFINE_CPP_OVERLOAD_SECURE_FUNC_0_1_ARGLIST(__ret,__func,__vfunc,__dsttype,__dst,__type1
 15176      46494E45 
 15176      5F435050 
 15176      5F4F5645 
 15176      524C4F41 
 15177 6245 01       		.byte	0x1
 15178 6246 9002     		.uleb128 0x110
 15179 6248 5F5F4445 		.ascii "__DEFINE_CPP_OVERLOAD_SECURE_FUNC_0_2_ARGLIST(__ret,__func,__vfunc,__dsttype,__dst,__type1
 15179      46494E45 
 15179      5F435050 
 15179      5F4F5645 
 15179      524C4F41 
 15180 62bb 01       		.byte	0x1
 15181 62bc 9102     		.uleb128 0x111
 15182 62be 5F5F4445 		.ascii "__DEFINE_CPP_OVERLOAD_SECURE_FUNC_SPLITPATH(__ret,__func,__dsttype,__src) \0"
 15182      46494E45 
 15182      5F435050 
 15182      5F4F5645 
 15182      524C4F41 
 15183 6309 01       		.byte	0x1
 15184 630a 9502     		.uleb128 0x115
 15185 630c 5F5F4445 		.ascii "__DEFINE_CPP_OVERLOAD_STANDARD_FUNC_0_0(__ret_type,__ret_policy,__decl_spec,__name,__dst_a
 15185      46494E45 
 15185      5F435050 
 15185      5F4F5645 
 15185      524C4F41 
 15186 640c 01       		.byte	0x1
 15187 640d 9702     		.uleb128 0x117
 15188 640f 5F5F4445 		.ascii "__DEFINE_CPP_OVERLOAD_STANDARD_FUNC_0_1(__ret_type,__ret_policy,__decl_spec,__name,__dst_a
 15188      46494E45 
 15188      5F435050 
 15188      5F4F5645 
 15188      524C4F41 
 15189 654c 01       		.byte	0x1
 15190 654d 9902     		.uleb128 0x119
 15191 654f 5F5F4445 		.ascii "__DEFINE_CPP_OVERLOAD_STANDARD_FUNC_0_2(__ret_type,__ret_policy,__decl_spec,__name,__dst_a
 15191      46494E45 
 15191      5F435050 
 15191      5F4F5645 
 15191      524C4F41 
 15192 669f 01       		.byte	0x1
 15193 66a0 9B02     		.uleb128 0x11b
 15194 66a2 5F5F4445 		.ascii "__DEFINE_CPP_OVERLOAD_STANDARD_FUNC_0_3(__ret_type,__ret_policy,__decl_spec,__name,__dst_a
 15194      46494E45 
 15194      5F435050 
 15194      5F4F5645 
 15194      524C4F41 
 15195 681a 01       		.byte	0x1
 15196 681b 9D02     		.uleb128 0x11d
 15197 681d 5F5F4445 		.ascii "__DEFINE_CPP_OVERLOAD_STANDARD_FUNC_0_4(__ret_type,__ret_policy,__decl_spec,__name,__dst_a
 15197      46494E45 
 15197      5F435050 
 15197      5F4F5645 
 15197      524C4F41 
 15198 69bd 01       		.byte	0x1
 15199 69be A603     		.uleb128 0x1a6
 15200 69c0 5F5F4445 		.ascii "__DEFINE_CPP_OVERLOAD_STANDARD_FUNC_0_0_EX(__ret_type,__ret_policy,__decl_spec,__name,__se
 15200      46494E45 
 15200      5F435050 
 15200      5F4F5645 
 15200      524C4F41 
 15201 6a3f 01       		.byte	0x1
 15202 6a40 A703     		.uleb128 0x1a7
 15203 6a42 5F5F4445 		.ascii "__DEFINE_CPP_OVERLOAD_STANDARD_FUNC_0_1_EX(__ret_type,__ret_policy,__decl_spec,__name,__se
 15203      46494E45 
 15203      5F435050 
 15203      5F4F5645 
 15203      524C4F41 
 15204 6ad4 01       		.byte	0x1
 15205 6ad5 A803     		.uleb128 0x1a8
 15206 6ad7 5F5F4445 		.ascii "__DEFINE_CPP_OVERLOAD_STANDARD_FUNC_0_2_EX(__ret_type,__ret_policy,__decl_spec,__name,__se
 15206      46494E45 
 15206      5F435050 
 15206      5F4F5645 
 15206      524C4F41 
 15207 6b7c 01       		.byte	0x1
 15208 6b7d A903     		.uleb128 0x1a9
 15209 6b7f 5F5F4445 		.ascii "__DEFINE_CPP_OVERLOAD_STANDARD_FUNC_0_3_EX(__ret_type,__ret_policy,__decl_spec,__name,__se
 15209      46494E45 
 15209      5F435050 
 15209      5F4F5645 
 15209      524C4F41 
 15210 6c37 01       		.byte	0x1
 15211 6c38 AA03     		.uleb128 0x1aa
 15212 6c3a 5F5F4445 		.ascii "__DEFINE_CPP_OVERLOAD_STANDARD_FUNC_0_4_EX(__ret_type,__ret_policy,__decl_spec,__name,__se
 15212      46494E45 
 15212      5F435050 
 15212      5F4F5645 
 15212      524C4F41 
 15213 6d05 01       		.byte	0x1
 15214 6d06 BA03     		.uleb128 0x1ba
 15215 6d08 5F544147 		.ascii "_TAGLC_ID_DEFINED \0"
 15215      4C435F49 
 15215      445F4445 
 15215      46494E45 
 15215      442000
 15216 6d1b 01       		.byte	0x1
 15217 6d1c C303     		.uleb128 0x1c3
 15218 6d1e 5F544852 		.ascii "_THREADLOCALEINFO \0"
 15218      4541444C 
 15218      4F43414C 
 15218      45494E46 
 15218      4F2000
 15219 6d31 01       		.byte	0x1
 15220 6d32 E603     		.uleb128 0x1e6
 15221 6d34 5F5F6372 		.ascii "__crt_typefix(ctype) \0"
 15221      745F7479 
 15221      70656669 
 15221      78286374 
 15221      79706529 
 15222 6d4a 01       		.byte	0x1
 15223 6d4b F003     		.uleb128 0x1f0
 15224 6d4d 5F435254 		.ascii "_CRT_USE_WINAPI_FAMILY_DESKTOP_APP \0"
 15224      5F555345 
 15224      5F57494E 
 15224      4150495F 
 15224      46414D49 
 15225 6d71 04       		.byte	0x4
 15226 6d72 04       		.byte	0x4
 15227 6d73 01       		.byte	0x1
 15228 6d74 0A       		.uleb128 0xa
 15229 6d75 5F494E43 		.ascii "_INC_STDDEF \0"
 15229      5F535444 
 15229      44454620 
 15229      00
 15230 6d82 01       		.byte	0x1
 15231 6d83 11       		.uleb128 0x11
 15232 6d84 5F435254 		.ascii "_CRT_ERRNO_DEFINED \0"
 15232      5F455252 
 15232      4E4F5F44 
 15232      4546494E 
 15232      45442000 
 15233 6d98 01       		.byte	0x1
 15234 6d99 13       		.uleb128 0x13
 15235 6d9a 6572726E 		.ascii "errno (*_errno())\0"
 15235      6F20282A 
 15235      5F657272 
 15235      6E6F2829 
 15235      2900
 15236 6dac 01       		.byte	0x1
 15237 6dad 19       		.uleb128 0x19
 15238 6dae 5F746872 		.ascii "_threadid (__threadid())\0"
 15238      65616469 
 15238      6420285F 
 15238      5F746872 
 15238      65616469 
 15239 6dc7 01       		.byte	0x1
 15240 6dc8 31       		.uleb128 0x31
 15241 6dc9 5F535444 		.ascii "_STDDEF_H \0"
 15241      4445465F 
 15241      482000
 15242 6dd4 01       		.byte	0x1
 15243 6dd5 32       		.uleb128 0x32
 15244 6dd6 5F535444 		.ascii "_STDDEF_H_ \0"
 15244      4445465F 
 15244      485F2000 
 15245 6de2 01       		.byte	0x1
 15246 6de3 34       		.uleb128 0x34
 15247 6de4 5F414E53 		.ascii "_ANSI_STDDEF_H \0"
 15247      495F5354 
 15247      44444546 
 15247      5F482000 
 15248 6df4 01       		.byte	0x1
 15249 6df5 36       		.uleb128 0x36
 15250 6df6 5F5F5354 		.ascii "__STDDEF_H__ \0"
 15250      44444546 
 15250      5F485F5F 
 15250      2000
 15251 6e04 02       		.byte	0x2
 15252 6e05 A301     		.uleb128 0xa3
 15253 6e07 5F5F6E65 		.ascii "__need_ptrdiff_t\0"
 15253      65645F70 
 15253      74726469 
 15253      66665F74 
 15253      00
 15254 6e18 02       		.byte	0x2
 15255 6e19 F001     		.uleb128 0xf0
 15256 6e1b 5F5F6E65 		.ascii "__need_size_t\0"
 15256      65645F73 
 15256      697A655F 
 15256      7400
 15257 6e29 02       		.byte	0x2
 15258 6e2a D102     		.uleb128 0x151
 15259 6e2c 5F5F6E65 		.ascii "__need_wchar_t\0"
 15259      65645F77 
 15259      63686172 
 15259      5F7400
 15260 6e3b 02       		.byte	0x2
 15261 6e3c 8A03     		.uleb128 0x18a
 15262 6e3e 4E554C4C 		.ascii "NULL\0"
 15262      00
 15263 6e43 01       		.byte	0x1
 15264 6e44 8F03     		.uleb128 0x18f
 15265 6e46 4E554C4C 		.ascii "NULL ((void *)0)\0"
 15265      20282876 
 15265      6F696420 
 15265      2A293029 
 15265      00
 15266 6e57 02       		.byte	0x2
 15267 6e58 9903     		.uleb128 0x199
 15268 6e5a 5F5F6E65 		.ascii "__need_NULL\0"
 15268      65645F4E 
 15268      554C4C00 
 15269 6e66 01       		.byte	0x1
 15270 6e67 9E03     		.uleb128 0x19e
 15271 6e69 6F666673 		.ascii "offsetof(TYPE,MEMBER) __builtin_offsetof (TYPE, MEMBER)\0"
 15271      65746F66 
 15271      28545950 
 15271      452C4D45 
 15271      4D424552 
 15272 6ea1 01       		.byte	0x1
 15273 6ea2 A303     		.uleb128 0x1a3
 15274 6ea4 5F474343 		.ascii "_GCC_MAX_ALIGN_T \0"
 15274      5F4D4158 
 15274      5F414C49 
 15274      474E5F54 
 15274      2000
 15275 6eb6 01       		.byte	0x1
 15276 6eb7 A403     		.uleb128 0x1a4
 15277 6eb9 5F5F434C 		.ascii "__CLANG_MAX_ALIGN_T_DEFINED \0"
 15277      414E475F 
 15277      4D41585F 
 15277      414C4947 
 15277      4E5F545F 
 15278 6ed6 04       		.byte	0x4
 15279 6ed7 04       		.byte	0x4
 15280 6ed8 01       		.byte	0x1
 15281 6ed9 66       		.uleb128 0x66
 15282 6eda 57434841 		.ascii "WCHAR CHAR16\0"
 15282      52204348 
 15282      41523136 
 15282      00
 15283 6ee7 02       		.byte	0x2
 15284 6ee8 77       		.uleb128 0x77
 15285 6ee9 564F4944 		.ascii "VOID\0"
 15285      00
 15286 6eee 01       		.byte	0x1
 15287 6eef 8401     		.uleb128 0x84
 15288 6ef1 504F5354 		.ascii "POST_CODE(_Data) \0"
 15288      5F434F44 
 15288      45285F44 
 15288      61746129 
 15288      2000
 15289 6f03 01       		.byte	0x1
 15290 6f04 8801     		.uleb128 0x88
 15291 6f06 45464945 		.ascii "EFIERR(a) (0x8000000000000000 | a)\0"
 15291      52522861 
 15291      29202830 
 15291      78383030 
 15291      30303030 
 15292 6f29 01       		.byte	0x1
 15293 6f2a 8901     		.uleb128 0x89
 15294 6f2c 4546495F 		.ascii "EFI_ERROR_MASK 0x8000000000000000\0"
 15294      4552524F 
 15294      525F4D41 
 15294      534B2030 
 15294      78383030 
 15295 6f4e 01       		.byte	0x1
 15296 6f4f 8A01     		.uleb128 0x8a
 15297 6f51 45464945 		.ascii "EFIERR_OEM(a) (0xc000000000000000 | a)\0"
 15297      52525F4F 
 15297      454D2861 
 15297      29202830 
 15297      78633030 
 15298 6f78 01       		.byte	0x1
 15299 6f79 8D01     		.uleb128 0x8d
 15300 6f7b 4241445F 		.ascii "BAD_POINTER 0xFBFBFBFBFBFBFBFB\0"
 15300      504F494E 
 15300      54455220 
 15300      30784642 
 15300      46424642 
 15301 6f9a 01       		.byte	0x1
 15302 6f9b 8E01     		.uleb128 0x8e
 15303 6f9d 4D41585F 		.ascii "MAX_ADDRESS 0xFFFFFFFFFFFFFFFF\0"
 15303      41444452 
 15303      45535320 
 15303      30784646 
 15303      46464646 
 15304 6fbc 01       		.byte	0x1
 15305 6fbd 9301     		.uleb128 0x93
 15306 6fbf 42524541 		.ascii "BREAKPOINT() while (TRUE);\0"
 15306      4B504F49 
 15306      4E542829 
 15306      20776869 
 15306      6C652028 
 15307 6fda 01       		.byte	0x1
 15308 6fdb 9A01     		.uleb128 0x9a
 15309 6fdd 4D494E5F 		.ascii "MIN_ALIGNMENT_SIZE 4\0"
 15309      414C4947 
 15309      4E4D454E 
 15309      545F5349 
 15309      5A452034 
 15310 6ff2 01       		.byte	0x1
 15311 6ff3 9C01     		.uleb128 0x9c
 15312 6ff5 414C4947 		.ascii "ALIGN_VARIABLE(Value,Adjustment) (UINTN)Adjustment = 0; if((UINTN)Value % MIN_ALIGNMENT_SI
 15312      4E5F5641 
 15312      52494142 
 15312      4C452856 
 15312      616C7565 
 15313 70ca 01       		.byte	0x1
 15314 70cb A701     		.uleb128 0xa7
 15315 70cd 4546495F 		.ascii "EFI_SIGNATURE_16(A,B) ((A) | (B<<8))\0"
 15315      5349474E 
 15315      41545552 
 15315      455F3136 
 15315      28412C42 
 15316 70f2 01       		.byte	0x1
 15317 70f3 A801     		.uleb128 0xa8
 15318 70f5 4546495F 		.ascii "EFI_SIGNATURE_32(A,B,C,D) (EFI_SIGNATURE_16(A,B) | (EFI_SIGNATURE_16(C,D) << 16))\0"
 15318      5349474E 
 15318      41545552 
 15318      455F3332 
 15318      28412C42 
 15319 7147 01       		.byte	0x1
 15320 7148 A901     		.uleb128 0xa9
 15321 714a 4546495F 		.ascii "EFI_SIGNATURE_64(A,B,C,D,E,F,G,H) (EFI_SIGNATURE_32(A,B,C,D) | ((UINT64)(EFI_SIGNATURE_32(
 15321      5349474E 
 15321      41545552 
 15321      455F3634 
 15321      28412C42 
 15322 71b6 01       		.byte	0x1
 15323 71b7 B101     		.uleb128 0xb1
 15324 71b9 4558504F 		.ascii "EXPORTAPI \0"
 15324      52544150 
 15324      492000
 15325 71c4 01       		.byte	0x1
 15326 71c5 C201     		.uleb128 0xc2
 15327 71c7 45464941 		.ascii "EFIAPI __attribute__((ms_abi))\0"
 15327      5049205F 
 15327      5F617474 
 15327      72696275 
 15327      74655F5F 
 15328 71e6 01       		.byte	0x1
 15329 71e7 C801     		.uleb128 0xc8
 15330 71e9 424F4F54 		.ascii "BOOTSERVICE \0"
 15330      53455256 
 15330      49434520 
 15330      00
 15331 71f6 01       		.byte	0x1
 15332 71f7 CB01     		.uleb128 0xcb
 15333 71f9 52554E54 		.ascii "RUNTIMESERVICE \0"
 15333      494D4553 
 15333      45525649 
 15333      43452000 
 15334 7209 01       		.byte	0x1
 15335 720a CC01     		.uleb128 0xcc
 15336 720c 52554E54 		.ascii "RUNTIMEFUNCTION \0"
 15336      494D4546 
 15336      554E4354 
 15336      494F4E20 
 15336      00
 15337 721d 01       		.byte	0x1
 15338 721e CF01     		.uleb128 0xcf
 15339 7220 52554E54 		.ascii "RUNTIME_CODE(a) alloc_text(\"rtcode\", a)\0"
 15339      494D455F 
 15339      434F4445 
 15339      28612920 
 15339      616C6C6F 
 15340 7248 01       		.byte	0x1
 15341 7249 D001     		.uleb128 0xd0
 15342 724b 42454749 		.ascii "BEGIN_RUNTIME_DATA() data_seg(\"rtdata\")\0"
 15342      4E5F5255 
 15342      4E54494D 
 15342      455F4441 
 15342      54412829 
 15343 7273 01       		.byte	0x1
 15344 7274 D101     		.uleb128 0xd1
 15345 7276 454E445F 		.ascii "END_RUNTIME_DATA() data_seg(\"\")\0"
 15345      52554E54 
 15345      494D455F 
 15345      44415441 
 15345      28292064 
 15346 7296 01       		.byte	0x1
 15347 7297 D301     		.uleb128 0xd3
 15348 7299 564F4C41 		.ascii "VOLATILE volatile\0"
 15348      54494C45 
 15348      20766F6C 
 15348      6174696C 
 15348      6500
 15349 72ab 01       		.byte	0x1
 15350 72ac D501     		.uleb128 0xd5
 15351 72ae 4D454D4F 		.ascii "MEMORY_FENCE() \0"
 15351      52595F46 
 15351      454E4345 
 15351      28292000 
 15352 72be 01       		.byte	0x1
 15353 72bf 8502     		.uleb128 0x105
 15354 72c1 4546495F 		.ascii "EFI_DRIVER_ENTRY_POINT(InitFunction) UINTN InitializeDriver ( VOID *ImageHandle, VOID *Sys
 15354      44524956 
 15354      45525F45 
 15354      4E545259 
 15354      5F504F49 
 15355 73ce 01       		.byte	0x1
 15356 73cf 9702     		.uleb128 0x117
 15357 73d1 4C4F4144 		.ascii "LOAD_INTERNAL_DRIVER(_if,type,name,entry) (_if)->LoadInternal(type, name, entry)\0"
 15357      5F494E54 
 15357      45524E41 
 15357      4C5F4452 
 15357      49564552 
 15358 7422 01       		.byte	0x1
 15359 7423 A602     		.uleb128 0x126
 15360 7425 494E5445 		.ascii "INTERFACE_DECL(x) struct x\0"
 15360      52464143 
 15360      455F4445 
 15360      434C2878 
 15360      29207374 
 15361 7440 01       		.byte	0x1
 15362 7441 AE02     		.uleb128 0x12e
 15363 7443 75656669 		.ascii "uefi_call_wrapper(func,va_num,...) func(__VA_ARGS__)\0"
 15363      5F63616C 
 15363      6C5F7772 
 15363      61707065 
 15363      72286675 
 15364 7478 01       		.byte	0x1
 15365 7479 8303     		.uleb128 0x183
 15366 747b 4546495F 		.ascii "EFI_FUNCTION __attribute__((ms_abi))\0"
 15366      46554E43 
 15366      54494F4E 
 15366      205F5F61 
 15366      74747269 
 15367 74a0 04       		.byte	0x4
 15368              		.file 21 "gnu-efi-3.0.18/inc/eficompiler.h"
 15369 74a1 03       		.byte	0x3
 15370 74a2 41       		.uleb128 0x41
 15371 74a3 15       		.uleb128 0x15
 15372 74a4 01       		.byte	0x1
 15373 74a5 12       		.uleb128 0x12
 15374 74a6 4546495F 		.ascii "EFI_UNUSED __attribute__((__unused__))\0"
 15374      554E5553 
 15374      4544205F 
 15374      5F617474 
 15374      72696275 
 15375 74cd 01       		.byte	0x1
 15376 74ce 1B       		.uleb128 0x1b
 15377 74cf 4546495F 		.ascii "EFI_NO_TAIL_CALL __attribute__((optimize(\"no-optimize-sibling-calls\")))\0"
 15377      4E4F5F54 
 15377      41494C5F 
 15377      43414C4C 
 15377      205F5F61 
 15378 7517 01       		.byte	0x1
 15379 7518 25       		.uleb128 0x25
 15380 7519 4546495F 		.ascii "EFI_OPTNONE __attribute__((__optimize__(\"0\")))\0"
 15380      4F50544E 
 15380      4F4E4520 
 15380      5F5F6174 
 15380      74726962 
 15381 7548 01       		.byte	0x1
 15382 7549 2C       		.uleb128 0x2c
 15383 754a 4546495F 		.ascii "EFI_ALIGN(x) __attribute__((__aligned__(x)))\0"
 15383      414C4947 
 15383      4E287829 
 15383      205F5F61 
 15383      74747269 
 15384 7577 01       		.byte	0x1
 15385 7578 30       		.uleb128 0x30
 15386 7579 414C4947 		.ascii "ALIGN(x) EFI_ALIGN(x)\0"
 15386      4E287829 
 15386      20454649 
 15386      5F414C49 
 15386      474E2878 
 15387 758f 01       		.byte	0x1
 15388 7590 36       		.uleb128 0x36
 15389 7591 4546495F 		.ascii "EFI_NORETURN __attribute__((noreturn))\0"
 15389      4E4F5245 
 15389      5455524E 
 15389      205F5F61 
 15389      74747269 
 15390 75b8 04       		.byte	0x4
 15391 75b9 03       		.byte	0x3
 15392 75ba 42       		.uleb128 0x42
 15393 75bb 05       		.uleb128 0x5
 15394 75bc 01       		.byte	0x1
 15395 75bd 02       		.uleb128 0x2
 15396 75be 5F454649 		.ascii "_EFI_DEF_H \0"
 15396      5F444546 
 15396      5F482000 
 15397 75ca 01       		.byte	0x1
 15398 75cb 22       		.uleb128 0x22
 15399 75cc 434F4E53 		.ascii "CONST const\0"
 15399      5420636F 
 15399      6E737400 
 15400 75d8 01       		.byte	0x1
 15401 75d9 29       		.uleb128 0x29
 15402 75da 54525545 		.ascii "TRUE ((BOOLEAN) 1)\0"
 15402      20282842 
 15402      4F4F4C45 
 15402      414E2920 
 15402      312900
 15403 75ed 01       		.byte	0x1
 15404 75ee 2A       		.uleb128 0x2a
 15405 75ef 46414C53 		.ascii "FALSE ((BOOLEAN) 0)\0"
 15405      45202828 
 15405      424F4F4C 
 15405      45414E29 
 15405      20302900 
 15406 7603 01       		.byte	0x1
 15407 7604 4B       		.uleb128 0x4b
 15408 7605 494E2000 		.ascii "IN \0"
 15409 7609 01       		.byte	0x1
 15410 760a 4C       		.uleb128 0x4c
 15411 760b 4F555420 		.ascii "OUT \0"
 15411      00
 15412 7610 01       		.byte	0x1
 15413 7611 4D       		.uleb128 0x4d
 15414 7612 4F505449 		.ascii "OPTIONAL \0"
 15414      4F4E414C 
 15414      2000
 15415 761c 01       		.byte	0x1
 15416 761d 70       		.uleb128 0x70
 15417 761e 4546495F 		.ascii "EFI_TIME_ADJUST_DAYLIGHT 0x01\0"
 15417      54494D45 
 15417      5F41444A 
 15417      5553545F 
 15417      4441594C 
 15418 763c 01       		.byte	0x1
 15419 763d 71       		.uleb128 0x71
 15420 763e 4546495F 		.ascii "EFI_TIME_IN_DAYLIGHT 0x02\0"
 15420      54494D45 
 15420      5F494E5F 
 15420      4441594C 
 15420      49474854 
 15421 7658 01       		.byte	0x1
 15422 7659 74       		.uleb128 0x74
 15423 765a 4546495F 		.ascii "EFI_UNSPECIFIED_TIMEZONE 0x07FF\0"
 15423      554E5350 
 15423      45434946 
 15423      4945445F 
 15423      54494D45 
 15424 767a 01       		.byte	0x1
 15425 767b C001     		.uleb128 0xc0
 15426 767d 4546495F 		.ascii "EFI_MEMORY_UC 0x0000000000000001\0"
 15426      4D454D4F 
 15426      52595F55 
 15426      43203078 
 15426      30303030 
 15427 769e 01       		.byte	0x1
 15428 769f C101     		.uleb128 0xc1
 15429 76a1 4546495F 		.ascii "EFI_MEMORY_WC 0x0000000000000002\0"
 15429      4D454D4F 
 15429      52595F57 
 15429      43203078 
 15429      30303030 
 15430 76c2 01       		.byte	0x1
 15431 76c3 C201     		.uleb128 0xc2
 15432 76c5 4546495F 		.ascii "EFI_MEMORY_WT 0x0000000000000004\0"
 15432      4D454D4F 
 15432      52595F57 
 15432      54203078 
 15432      30303030 
 15433 76e6 01       		.byte	0x1
 15434 76e7 C301     		.uleb128 0xc3
 15435 76e9 4546495F 		.ascii "EFI_MEMORY_WB 0x0000000000000008\0"
 15435      4D454D4F 
 15435      52595F57 
 15435      42203078 
 15435      30303030 
 15436 770a 01       		.byte	0x1
 15437 770b C401     		.uleb128 0xc4
 15438 770d 4546495F 		.ascii "EFI_MEMORY_UCE 0x0000000000000010\0"
 15438      4D454D4F 
 15438      52595F55 
 15438      43452030 
 15438      78303030 
 15439 772f 01       		.byte	0x1
 15440 7730 C701     		.uleb128 0xc7
 15441 7732 4546495F 		.ascii "EFI_MEMORY_WP 0x0000000000001000\0"
 15441      4D454D4F 
 15441      52595F57 
 15441      50203078 
 15441      30303030 
 15442 7753 01       		.byte	0x1
 15443 7754 C801     		.uleb128 0xc8
 15444 7756 4546495F 		.ascii "EFI_MEMORY_RP 0x0000000000002000\0"
 15444      4D454D4F 
 15444      52595F52 
 15444      50203078 
 15444      30303030 
 15445 7777 01       		.byte	0x1
 15446 7778 C901     		.uleb128 0xc9
 15447 777a 4546495F 		.ascii "EFI_MEMORY_XP 0x0000000000004000\0"
 15447      4D454D4F 
 15447      52595F58 
 15447      50203078 
 15447      30303030 
 15448 779b 01       		.byte	0x1
 15449 779c CA01     		.uleb128 0xca
 15450 779e 4546495F 		.ascii "EFI_MEMORY_RO 0x0000000000020000\0"
 15450      4D454D4F 
 15450      52595F52 
 15450      4F203078 
 15450      30303030 
 15451 77bf 01       		.byte	0x1
 15452 77c0 CD01     		.uleb128 0xcd
 15453 77c2 4546495F 		.ascii "EFI_MEMORY_NV 0x0000000000008000\0"
 15453      4D454D4F 
 15453      52595F4E 
 15453      56203078 
 15453      30303030 
 15454 77e3 01       		.byte	0x1
 15455 77e4 CE01     		.uleb128 0xce
 15456 77e6 4546495F 		.ascii "EFI_MEMORY_RUNTIME 0x8000000000000000\0"
 15456      4D454D4F 
 15456      52595F52 
 15456      554E5449 
 15456      4D452030 
 15457 780c 01       		.byte	0x1
 15458 780d D101     		.uleb128 0xd1
 15459 780f 4546495F 		.ascii "EFI_MEMORY_MORE_RELIABLE 0x0000000000010000\0"
 15459      4D454D4F 
 15459      52595F4D 
 15459      4F52455F 
 15459      52454C49 
 15460 783b 01       		.byte	0x1
 15461 783c D201     		.uleb128 0xd2
 15462 783e 4546495F 		.ascii "EFI_MEMORY_SP 0x0000000000040000\0"
 15462      4D454D4F 
 15462      52595F53 
 15462      50203078 
 15462      30303030 
 15463 785f 01       		.byte	0x1
 15464 7860 D301     		.uleb128 0xd3
 15465 7862 4546495F 		.ascii "EFI_MEMORY_CPU_CRYPTO 0x0000000000080000\0"
 15465      4D454D4F 
 15465      52595F43 
 15465      50555F43 
 15465      52595054 
 15466 788b 01       		.byte	0x1
 15467 788c D401     		.uleb128 0xd4
 15468 788e 4546495F 		.ascii "EFI_MEMORY_ISA_VALID 0x4000000000000000\0"
 15468      4D454D4F 
 15468      52595F49 
 15468      53415F56 
 15468      414C4944 
 15469 78b6 01       		.byte	0x1
 15470 78b7 D501     		.uleb128 0xd5
 15471 78b9 4546495F 		.ascii "EFI_MEMORY_ISA_MASK 0x0FFFF00000000000\0"
 15471      4D454D4F 
 15471      52595F49 
 15471      53415F4D 
 15471      41534B20 
 15472 78e0 01       		.byte	0x1
 15473 78e1 D801     		.uleb128 0xd8
 15474 78e3 4546495F 		.ascii "EFI_MEMORY_DESCRIPTOR_VERSION 1\0"
 15474      4D454D4F 
 15474      52595F44 
 15474      45534352 
 15474      4950544F 
 15475 7903 01       		.byte	0x1
 15476 7904 E701     		.uleb128 0xe7
 15477 7906 49534F5F 		.ascii "ISO_639_2_ENTRY_SIZE 3\0"
 15477      3633395F 
 15477      325F454E 
 15477      5452595F 
 15477      53495A45 
 15478 791d 01       		.byte	0x1
 15479 791e ED01     		.uleb128 0xed
 15480 7920 4546495F 		.ascii "EFI_PAGE_SIZE 4096\0"
 15480      50414745 
 15480      5F53495A 
 15480      45203430 
 15480      393600
 15481 7933 01       		.byte	0x1
 15482 7934 EE01     		.uleb128 0xee
 15483 7936 4546495F 		.ascii "EFI_PAGE_MASK 0xFFF\0"
 15483      50414745 
 15483      5F4D4153 
 15483      4B203078 
 15483      46464600 
 15484 794a 01       		.byte	0x1
 15485 794b EF01     		.uleb128 0xef
 15486 794d 4546495F 		.ascii "EFI_PAGE_SHIFT 12\0"
 15486      50414745 
 15486      5F534849 
 15486      46542031 
 15486      3200
 15487 795f 01       		.byte	0x1
 15488 7960 F101     		.uleb128 0xf1
 15489 7962 4546495F 		.ascii "EFI_SIZE_TO_PAGES(a) ( ((a) >> EFI_PAGE_SHIFT) + ((a) & EFI_PAGE_MASK ? 1 : 0) )\0"
 15489      53495A45 
 15489      5F544F5F 
 15489      50414745 
 15489      53286129 
 15490 79b3 01       		.byte	0x1
 15491 79b4 F401     		.uleb128 0xf4
 15492 79b6 4546495F 		.ascii "EFI_OS_INDICATIONS_BOOT_TO_FW_UI 0x0000000000000001\0"
 15492      4F535F49 
 15492      4E444943 
 15492      4154494F 
 15492      4E535F42 
 15493 79ea 01       		.byte	0x1
 15494 79eb F501     		.uleb128 0xf5
 15495 79ed 4546495F 		.ascii "EFI_OS_INDICATIONS_TIMESTAMP_REVOCATION 0x0000000000000002\0"
 15495      4F535F49 
 15495      4E444943 
 15495      4154494F 
 15495      4E535F54 
 15496 7a28 01       		.byte	0x1
 15497 7a29 F601     		.uleb128 0xf6
 15498 7a2b 4546495F 		.ascii "EFI_OS_INDICATIONS_FILE_CAPSULE_DELIVERY_SUPPORTED 0x0000000000000004\0"
 15498      4F535F49 
 15498      4E444943 
 15498      4154494F 
 15498      4E535F46 
 15499 7a71 01       		.byte	0x1
 15500 7a72 F801     		.uleb128 0xf8
 15501 7a74 4546495F 		.ascii "EFI_OS_INDICATIONS_FMP_CAPSULE_SUPPORTED 0x0000000000000008\0"
 15501      4F535F49 
 15501      4E444943 
 15501      4154494F 
 15501      4E535F46 
 15502 7ab0 01       		.byte	0x1
 15503 7ab1 FA01     		.uleb128 0xfa
 15504 7ab3 4546495F 		.ascii "EFI_OS_INDICATIONS_CAPSULE_RESULT_VAR_SUPPORTED 0x0000000000000010\0"
 15504      4F535F49 
 15504      4E444943 
 15504      4154494F 
 15504      4E535F43 
 15505 7af6 01       		.byte	0x1
 15506 7af7 FC01     		.uleb128 0xfc
 15507 7af9 4546495F 		.ascii "EFI_OS_INDICATIONS_START_OS_RECOVERY 0x0000000000000020\0"
 15507      4F535F49 
 15507      4E444943 
 15507      4154494F 
 15507      4E535F53 
 15508 7b31 01       		.byte	0x1
 15509 7b32 FD01     		.uleb128 0xfd
 15510 7b34 4546495F 		.ascii "EFI_OS_INDICATIONS_START_PLATFORM_RECOVERY 0x0000000000000040\0"
 15510      4F535F49 
 15510      4E444943 
 15510      4154494F 
 15510      4E535F53 
 15511 7b72 01       		.byte	0x1
 15512 7b73 FF01     		.uleb128 0xff
 15513 7b75 4546495F 		.ascii "EFI_OS_INDICATIONS_JSON_CONFIG_DATA_REFRESH 0x0000000000000080\0"
 15513      4F535F49 
 15513      4E444943 
 15513      4154494F 
 15513      4E535F4A 
 15514 7bb4 04       		.byte	0x4
 15515 7bb5 03       		.byte	0x3
 15516 7bb6 43       		.uleb128 0x43
 15517 7bb7 06       		.uleb128 0x6
 15518 7bb8 01       		.byte	0x1
 15519 7bb9 02       		.uleb128 0x2
 15520 7bba 5F444556 		.ascii "_DEVPATH_H \0"
 15520      50415448 
 15520      5F482000 
 15521 7bc6 01       		.byte	0x1
 15522 7bc7 23       		.uleb128 0x23
 15523 7bc8 4546495F 		.ascii "EFI_DP_TYPE_MASK 0x7F\0"
 15523      44505F54 
 15523      5950455F 
 15523      4D41534B 
 15523      20307837 
 15524 7bde 01       		.byte	0x1
 15525 7bdf 24       		.uleb128 0x24
 15526 7be0 4546495F 		.ascii "EFI_DP_TYPE_UNPACKED 0x80\0"
 15526      44505F54 
 15526      5950455F 
 15526      554E5041 
 15526      434B4544 
 15527 7bfa 01       		.byte	0x1
 15528 7bfb 27       		.uleb128 0x27
 15529 7bfc 454E445F 		.ascii "END_DEVICE_PATH_TYPE 0x7f\0"
 15529      44455649 
 15529      43455F50 
 15529      4154485F 
 15529      54595045 
 15530 7c16 01       		.byte	0x1
 15531 7c17 2A       		.uleb128 0x2a
 15532 7c18 454E445F 		.ascii "END_ENTIRE_DEVICE_PATH_SUBTYPE 0xff\0"
 15532      454E5449 
 15532      52455F44 
 15532      45564943 
 15532      455F5041 
 15533 7c3c 01       		.byte	0x1
 15534 7c3d 2B       		.uleb128 0x2b
 15535 7c3e 454E445F 		.ascii "END_INSTANCE_DEVICE_PATH_SUBTYPE 0x01\0"
 15535      494E5354 
 15535      414E4345 
 15535      5F444556 
 15535      4943455F 
 15536 7c64 01       		.byte	0x1
 15537 7c65 2C       		.uleb128 0x2c
 15538 7c66 454E445F 		.ascii "END_DEVICE_PATH_LENGTH (sizeof(EFI_DEVICE_PATH_PROTOCOL))\0"
 15538      44455649 
 15538      43455F50 
 15538      4154485F 
 15538      4C454E47 
 15539 7ca0 01       		.byte	0x1
 15540 7ca1 2F       		.uleb128 0x2f
 15541 7ca2 44505F49 		.ascii "DP_IS_END_TYPE(a) \0"
 15541      535F454E 
 15541      445F5459 
 15541      50452861 
 15541      292000
 15542 7cb5 01       		.byte	0x1
 15543 7cb6 30       		.uleb128 0x30
 15544 7cb7 44505F49 		.ascii "DP_IS_END_SUBTYPE(a) ( ((a)->SubType == END_ENTIRE_DEVICE_PATH_SUBTYPE )\0"
 15544      535F454E 
 15544      445F5355 
 15544      42545950 
 15544      45286129 
 15545 7d00 01       		.byte	0x1
 15546 7d01 32       		.uleb128 0x32
 15547 7d02 44657669 		.ascii "DevicePathType(a) ( ((a)->Type) & EFI_DP_TYPE_MASK )\0"
 15547      63655061 
 15547      74685479 
 15547      70652861 
 15547      29202820 
 15548 7d37 01       		.byte	0x1
 15549 7d38 33       		.uleb128 0x33
 15550 7d39 44657669 		.ascii "DevicePathSubType(a) ( (a)->SubType )\0"
 15550      63655061 
 15550      74685375 
 15550      62547970 
 15550      65286129 
 15551 7d5f 01       		.byte	0x1
 15552 7d60 34       		.uleb128 0x34
 15553 7d61 44657669 		.ascii "DevicePathNodeLength(a) ( ((a)->Length[0]) | ((a)->Length[1] << 8) )\0"
 15553      63655061 
 15553      74684E6F 
 15553      64654C65 
 15553      6E677468 
 15554 7da6 01       		.byte	0x1
 15555 7da7 35       		.uleb128 0x35
 15556 7da8 4E657874 		.ascii "NextDevicePathNode(a) ( (EFI_DEVICE_PATH_PROTOCOL *) ( ((UINT8 *) (a)) + DevicePathNodeLen
 15556      44657669 
 15556      63655061 
 15556      74684E6F 
 15556      64652861 
 15557 7e0b 01       		.byte	0x1
 15558 7e0c 37       		.uleb128 0x37
 15559 7e0d 49734465 		.ascii "IsDevicePathEndType(a) ( DevicePathType(a) == END_DEVICE_PATH_TYPE )\0"
 15559      76696365 
 15559      50617468 
 15559      456E6454 
 15559      79706528 
 15560 7e52 01       		.byte	0x1
 15561 7e53 38       		.uleb128 0x38
 15562 7e54 49734465 		.ascii "IsDevicePathEndSubType(a) ( (a)->SubType == END_ENTIRE_DEVICE_PATH_SUBTYPE )\0"
 15562      76696365 
 15562      50617468 
 15562      456E6453 
 15562      75625479 
 15563 7ea1 01       		.byte	0x1
 15564 7ea2 39       		.uleb128 0x39
 15565 7ea3 49734465 		.ascii "IsDevicePathEnd(a) ( IsDevicePathEndType(a) && IsDevicePathEndSubType(a) )\0"
 15565      76696365 
 15565      50617468 
 15565      456E6428 
 15565      61292028 
 15566 7eee 01       		.byte	0x1
 15567 7eef 3A       		.uleb128 0x3a
 15568 7ef0 49734465 		.ascii "IsDevicePathUnpacked(a) ( (a)->Type & EFI_DP_TYPE_UNPACKED )\0"
 15568      76696365 
 15568      50617468 
 15568      556E7061 
 15568      636B6564 
 15569 7f2d 01       		.byte	0x1
 15570 7f2e 3D       		.uleb128 0x3d
 15571 7f2f 53657444 		.ascii "SetDevicePathNodeLength(a,l) { (a)->Length[0] = (UINT8) (l); (a)->Length[1] = (UINT8) ((l)
 15571      65766963 
 15571      65506174 
 15571      684E6F64 
 15571      654C656E 
 15572 7f93 01       		.byte	0x1
 15573 7f94 42       		.uleb128 0x42
 15574 7f95 53657444 		.ascii "SetDevicePathEndNode(a) { (a)->Type = END_DEVICE_PATH_TYPE; (a)->SubType = END_ENTIRE_DEVI
 15574      65766963 
 15574      65506174 
 15574      68456E64 
 15574      4E6F6465 
 15575 8049 01       		.byte	0x1
 15576 804a 4E       		.uleb128 0x4e
 15577 804b 48415244 		.ascii "HARDWARE_DEVICE_PATH 0x01\0"
 15577      57415245 
 15577      5F444556 
 15577      4943455F 
 15577      50415448 
 15578 8065 01       		.byte	0x1
 15579 8066 50       		.uleb128 0x50
 15580 8067 48575F50 		.ascii "HW_PCI_DP 0x01\0"
 15580      43495F44 
 15580      50203078 
 15580      303100
 15581 8076 01       		.byte	0x1
 15582 8077 57       		.uleb128 0x57
 15583 8078 48575F50 		.ascii "HW_PCCARD_DP 0x02\0"
 15583      43434152 
 15583      445F4450 
 15583      20307830 
 15583      3200
 15584 808a 01       		.byte	0x1
 15585 808b 5D       		.uleb128 0x5d
 15586 808c 48575F4D 		.ascii "HW_MEMMAP_DP 0x03\0"
 15586      454D4D41 
 15586      505F4450 
 15586      20307830 
 15586      3300
 15587 809e 01       		.byte	0x1
 15588 809f 65       		.uleb128 0x65
 15589 80a0 48575F56 		.ascii "HW_VENDOR_DP 0x04\0"
 15589      454E444F 
 15589      525F4450 
 15589      20307830 
 15589      3400
 15590 80b2 01       		.byte	0x1
 15591 80b3 6B       		.uleb128 0x6b
 15592 80b4 554E4B4E 		.ascii "UNKNOWN_DEVICE_GUID { 0xcf31fac5, 0xc24e, 0x11d2, {0x85, 0xf3, 0x0, 0xa0, 0xc9, 0x3e, 0xc9
 15592      4F574E5F 
 15592      44455649 
 15592      43455F47 
 15592      55494420 
 15593 8118 01       		.byte	0x1
 15594 8119 73       		.uleb128 0x73
 15595 811a 48575F43 		.ascii "HW_CONTROLLER_DP 0x05\0"
 15595      4F4E5452 
 15595      4F4C4C45 
 15595      525F4450 
 15595      20307830 
 15596 8130 01       		.byte	0x1
 15597 8131 7D       		.uleb128 0x7d
 15598 8132 41435049 		.ascii "ACPI_DEVICE_PATH 0x02\0"
 15598      5F444556 
 15598      4943455F 
 15598      50415448 
 15598      20307830 
 15599 8148 01       		.byte	0x1
 15600 8149 7F       		.uleb128 0x7f
 15601 814a 41435049 		.ascii "ACPI_DP 0x01\0"
 15601      5F445020 
 15601      30783031 
 15601      00
 15602 8157 01       		.byte	0x1
 15603 8158 8601     		.uleb128 0x86
 15604 815a 45585041 		.ascii "EXPANDED_ACPI_DP 0x02\0"
 15604      4E444544 
 15604      5F414350 
 15604      495F4450 
 15604      20307830 
 15605 8170 01       		.byte	0x1
 15606 8171 8F01     		.uleb128 0x8f
 15607 8173 41435049 		.ascii "ACPI_ADR_DP 3\0"
 15607      5F414452 
 15607      5F445020 
 15607      3300
 15608 8181 01       		.byte	0x1
 15609 8182 9C01     		.uleb128 0x9c
 15610 8184 504E505F 		.ascii "PNP_EISA_ID_CONST 0x41d0\0"
 15610      45495341 
 15610      5F49445F 
 15610      434F4E53 
 15610      54203078 
 15611 819d 01       		.byte	0x1
 15612 819e 9D01     		.uleb128 0x9d
 15613 81a0 45495341 		.ascii "EISA_ID(_Name,_Num) ((UINT32) ((_Name) | (_Num) << 16))\0"
 15613      5F494428 
 15613      5F4E616D 
 15613      652C5F4E 
 15613      756D2920 
 15614 81d8 01       		.byte	0x1
 15615 81d9 9E01     		.uleb128 0x9e
 15616 81db 45495341 		.ascii "EISA_PNP_ID(_PNPId) (EISA_ID(PNP_EISA_ID_CONST, (_PNPId)))\0"
 15616      5F504E50 
 15616      5F494428 
 15616      5F504E50 
 15616      49642920 
 15617 8216 01       		.byte	0x1
 15618 8217 A001     		.uleb128 0xa0
 15619 8219 504E505F 		.ascii "PNP_EISA_ID_MASK 0xffff\0"
 15619      45495341 
 15619      5F49445F 
 15619      4D41534B 
 15619      20307866 
 15620 8231 01       		.byte	0x1
 15621 8232 A101     		.uleb128 0xa1
 15622 8234 45495341 		.ascii "EISA_ID_TO_NUM(_Id) ((_Id) >> 16)\0"
 15622      5F49445F 
 15622      544F5F4E 
 15622      554D285F 
 15622      49642920 
 15623 8256 01       		.byte	0x1
 15624 8257 A701     		.uleb128 0xa7
 15625 8259 4D455353 		.ascii "MESSAGING_DEVICE_PATH 0x03\0"
 15625      4147494E 
 15625      475F4445 
 15625      56494345 
 15625      5F504154 
 15626 8274 01       		.byte	0x1
 15627 8275 A901     		.uleb128 0xa9
 15628 8277 4D53475F 		.ascii "MSG_ATAPI_DP 0x01\0"
 15628      41544150 
 15628      495F4450 
 15628      20307830 
 15628      3100
 15629 8289 01       		.byte	0x1
 15630 828a B101     		.uleb128 0xb1
 15631 828c 4D53475F 		.ascii "MSG_SCSI_DP 0x02\0"
 15631      53435349 
 15631      5F445020 
 15631      30783032 
 15631      00
 15632 829d 01       		.byte	0x1
 15633 829e B801     		.uleb128 0xb8
 15634 82a0 4D53475F 		.ascii "MSG_FIBRECHANNEL_DP 0x03\0"
 15634      46494252 
 15634      45434841 
 15634      4E4E454C 
 15634      5F445020 
 15635 82b9 01       		.byte	0x1
 15636 82ba C401     		.uleb128 0xc4
 15637 82bc 4D53475F 		.ascii "MSG_FIBRECHANNELEX_DP 21\0"
 15637      46494252 
 15637      45434841 
 15637      4E4E454C 
 15637      45585F44 
 15638 82d5 01       		.byte	0x1
 15639 82d6 CC01     		.uleb128 0xcc
 15640 82d8 4D53475F 		.ascii "MSG_1394_DP 0x04\0"
 15640      31333934 
 15640      5F445020 
 15640      30783034 
 15640      00
 15641 82e9 01       		.byte	0x1
 15642 82ea D301     		.uleb128 0xd3
 15643 82ec 4D53475F 		.ascii "MSG_USB_DP 0x05\0"
 15643      5553425F 
 15643      44502030 
 15643      78303500 
 15644 82fc 01       		.byte	0x1
 15645 82fd DE01     		.uleb128 0xde
 15646 82ff 4D53475F 		.ascii "MSG_SATA_DP 18\0"
 15646      53415441 
 15646      5F445020 
 15646      313800
 15647 830e 01       		.byte	0x1
 15648 830f EA01     		.uleb128 0xea
 15649 8311 4D53475F 		.ascii "MSG_USB_WWID_DP 16\0"
 15649      5553425F 
 15649      57574944 
 15649      5F445020 
 15649      313600
 15650 8324 01       		.byte	0x1
 15651 8325 F701     		.uleb128 0xf7
 15652 8327 4D53475F 		.ascii "MSG_DEVICE_LOGICAL_UNIT_DP 17\0"
 15652      44455649 
 15652      43455F4C 
 15652      4F474943 
 15652      414C5F55 
 15653 8345 01       		.byte	0x1
 15654 8346 FD01     		.uleb128 0xfd
 15655 8348 4D53475F 		.ascii "MSG_USB_CLASS_DP 0x0F\0"
 15655      5553425F 
 15655      434C4153 
 15655      535F4450 
 15655      20307830 
 15656 835e 01       		.byte	0x1
 15657 835f 8702     		.uleb128 0x107
 15658 8361 4D53475F 		.ascii "MSG_I2O_DP 0x06\0"
 15658      49324F5F 
 15658      44502030 
 15658      78303600 
 15659 8371 01       		.byte	0x1
 15660 8372 8D02     		.uleb128 0x10d
 15661 8374 4D53475F 		.ascii "MSG_MAC_ADDR_DP 0x0b\0"
 15661      4D41435F 
 15661      41444452 
 15661      5F445020 
 15661      30783062 
 15662 8389 01       		.byte	0x1
 15663 838a 9402     		.uleb128 0x114
 15664 838c 4D53475F 		.ascii "MSG_IPv4_DP 0x0c\0"
 15664      49507634 
 15664      5F445020 
 15664      30783063 
 15664      00
 15665 839d 01       		.byte	0x1
 15666 839e A202     		.uleb128 0x122
 15667 83a0 4D53475F 		.ascii "MSG_IPv6_DP 0x0d\0"
 15667      49507636 
 15667      5F445020 
 15667      30783064 
 15667      00
 15668 83b1 01       		.byte	0x1
 15669 83b2 B502     		.uleb128 0x135
 15670 83b4 4D53475F 		.ascii "MSG_URI_DP 24\0"
 15670      5552495F 
 15670      44502032 
 15670      3400
 15671 83c2 01       		.byte	0x1
 15672 83c3 BF02     		.uleb128 0x13f
 15673 83c5 4D53475F 		.ascii "MSG_VLAN_DP 20\0"
 15673      564C414E 
 15673      5F445020 
 15673      323000
 15674 83d4 01       		.byte	0x1
 15675 83d5 C502     		.uleb128 0x145
 15676 83d7 4D53475F 		.ascii "MSG_INFINIBAND_DP 0x09\0"
 15676      494E4649 
 15676      4E494241 
 15676      4E445F44 
 15676      50203078 
 15677 83ee 01       		.byte	0x1
 15678 83ef CF02     		.uleb128 0x14f
 15679 83f1 4D53475F 		.ascii "MSG_UART_DP 0x0e\0"
 15679      55415254 
 15679      5F445020 
 15679      30783065 
 15679      00
 15680 8402 01       		.byte	0x1
 15681 8403 D902     		.uleb128 0x159
 15682 8405 4D53475F 		.ascii "MSG_VENDOR_DP 0x0A\0"
 15682      56454E44 
 15682      4F525F44 
 15682      50203078 
 15682      304100
 15683 8418 01       		.byte	0x1
 15684 8419 DC02     		.uleb128 0x15c
 15685 841b 4546495F 		.ascii "EFI_PC_ANSI_GUID { 0xe0c14753, 0xf9be, 0x11d2, {0x9a, 0x0c, 0x00, 0x90, 0x27, 0x3f, 0xc1, 
 15685      50435F41 
 15685      4E53495F 
 15685      47554944 
 15685      207B2030 
 15686 847d 01       		.byte	0x1
 15687 847e DE02     		.uleb128 0x15e
 15688 8480 44455649 		.ascii "DEVICE_PATH_MESSAGING_PC_ANSI EFI_PC_ANSI_GUID\0"
 15688      43455F50 
 15688      4154485F 
 15688      4D455353 
 15688      4147494E 
 15689 84af 01       		.byte	0x1
 15690 84b0 E002     		.uleb128 0x160
 15691 84b2 4546495F 		.ascii "EFI_VT_100_GUID { 0xdfa66065, 0xb419, 0x11d3, {0x9a, 0x2d, 0x00, 0x90, 0x27, 0x3f, 0xc1, 0
 15691      56545F31 
 15691      30305F47 
 15691      55494420 
 15691      7B203078 
 15692 8513 01       		.byte	0x1
 15693 8514 E202     		.uleb128 0x162
 15694 8516 44455649 		.ascii "DEVICE_PATH_MESSAGING_VT_100 EFI_VT_100_GUID\0"
 15694      43455F50 
 15694      4154485F 
 15694      4D455353 
 15694      4147494E 
 15695 8543 01       		.byte	0x1
 15696 8544 E402     		.uleb128 0x164
 15697 8546 4546495F 		.ascii "EFI_VT_100_PLUS_GUID { 0x7baec70b, 0x57e0, 0x4c76, {0x8e, 0x87, 0x2f, 0x9e, 0x28, 0x08, 0x
 15697      56545F31 
 15697      30305F50 
 15697      4C55535F 
 15697      47554944 
 15698 85ac 01       		.byte	0x1
 15699 85ad E602     		.uleb128 0x166
 15700 85af 44455649 		.ascii "DEVICE_PATH_MESSAGING_VT_100_PLUS EFI_VT_100_PLUS_GUID\0"
 15700      43455F50 
 15700      4154485F 
 15700      4D455353 
 15700      4147494E 
 15701 85e6 01       		.byte	0x1
 15702 85e7 E802     		.uleb128 0x168
 15703 85e9 4546495F 		.ascii "EFI_VT_UTF8_GUID { 0xad15a0d6, 0x8bec, 0x4acf, {0xa0, 0x73, 0xd0, 0x1d, 0xe7, 0x7e, 0x2d, 
 15703      56545F55 
 15703      5446385F 
 15703      47554944 
 15703      207B2030 
 15704 864b 01       		.byte	0x1
 15705 864c EA02     		.uleb128 0x16a
 15706 864e 44455649 		.ascii "DEVICE_PATH_MESSAGING_VT_UTF8 EFI_VT_UTF8_GUID\0"
 15706      43455F50 
 15706      4154485F 
 15706      4D455353 
 15706      4147494E 
 15707 867d 01       		.byte	0x1
 15708 867e F002     		.uleb128 0x170
 15709 8680 4D454449 		.ascii "MEDIA_DEVICE_PATH 0x04\0"
 15709      415F4445 
 15709      56494345 
 15709      5F504154 
 15709      48203078 
 15710 8697 01       		.byte	0x1
 15711 8698 F202     		.uleb128 0x172
 15712 869a 4D454449 		.ascii "MEDIA_HARDDRIVE_DP 0x01\0"
 15712      415F4841 
 15712      52444452 
 15712      4956455F 
 15712      44502030 
 15713 86b2 01       		.byte	0x1
 15714 86b3 FD02     		.uleb128 0x17d
 15715 86b5 4D42525F 		.ascii "MBR_TYPE_PCAT 0x01\0"
 15715      54595045 
 15715      5F504341 
 15715      54203078 
 15715      303100
 15716 86c8 01       		.byte	0x1
 15717 86c9 FE02     		.uleb128 0x17e
 15718 86cb 4D42525F 		.ascii "MBR_TYPE_EFI_PARTITION_TABLE_HEADER 0x02\0"
 15718      54595045 
 15718      5F454649 
 15718      5F504152 
 15718      54495449 
 15719 86f4 01       		.byte	0x1
 15720 86f5 8003     		.uleb128 0x180
 15721 86f7 5349474E 		.ascii "SIGNATURE_TYPE_MBR 0x01\0"
 15721      41545552 
 15721      455F5459 
 15721      50455F4D 
 15721      42522030 
 15722 870f 01       		.byte	0x1
 15723 8710 8103     		.uleb128 0x181
 15724 8712 5349474E 		.ascii "SIGNATURE_TYPE_GUID 0x02\0"
 15724      41545552 
 15724      455F5459 
 15724      50455F47 
 15724      55494420 
 15725 872b 01       		.byte	0x1
 15726 872c 8303     		.uleb128 0x183
 15727 872e 4D454449 		.ascii "MEDIA_CDROM_DP 0x02\0"
 15727      415F4344 
 15727      524F4D5F 
 15727      44502030 
 15727      78303200 
 15728 8742 01       		.byte	0x1
 15729 8743 8B03     		.uleb128 0x18b
 15730 8745 4D454449 		.ascii "MEDIA_VENDOR_DP 0x03\0"
 15730      415F5645 
 15730      4E444F52 
 15730      5F445020 
 15730      30783033 
 15731 875a 01       		.byte	0x1
 15732 875b 8E03     		.uleb128 0x18e
 15733 875d 4D454449 		.ascii "MEDIA_FILEPATH_DP 0x04\0"
 15733      415F4649 
 15733      4C455041 
 15733      54485F44 
 15733      50203078 
 15734 8774 01       		.byte	0x1
 15735 8775 9403     		.uleb128 0x194
 15736 8777 53495A45 		.ascii "SIZE_OF_FILEPATH_DEVICE_PATH EFI_FIELD_OFFSET(FILEPATH_DEVICE_PATH,PathName)\0"
 15736      5F4F465F 
 15736      46494C45 
 15736      50415448 
 15736      5F444556 
 15737 87c4 01       		.byte	0x1
 15738 87c5 9603     		.uleb128 0x196
 15739 87c7 4D454449 		.ascii "MEDIA_PROTOCOL_DP 0x05\0"
 15739      415F5052 
 15739      4F544F43 
 15739      4F4C5F44 
 15739      50203078 
 15740 87de 01       		.byte	0x1
 15741 87df A003     		.uleb128 0x1a0
 15742 87e1 4D454449 		.ascii "MEDIA_PIWG_FW_FILE_DP 6\0"
 15742      415F5049 
 15742      57475F46 
 15742      575F4649 
 15742      4C455F44 
 15743 87f9 01       		.byte	0x1
 15744 87fa AA03     		.uleb128 0x1aa
 15745 87fc 4D454449 		.ascii "MEDIA_PIWG_FW_VOL_DP 7\0"
 15745      415F5049 
 15745      57475F46 
 15745      575F564F 
 15745      4C5F4450 
 15746 8813 01       		.byte	0x1
 15747 8814 B403     		.uleb128 0x1b4
 15748 8816 4D454449 		.ascii "MEDIA_RELATIVE_OFFSET_RANGE_DP 8\0"
 15748      415F5245 
 15748      4C415449 
 15748      56455F4F 
 15748      46465345 
 15749 8837 01       		.byte	0x1
 15750 8838 C003     		.uleb128 0x1c0
 15751 883a 4242535F 		.ascii "BBS_DEVICE_PATH 0x05\0"
 15751      44455649 
 15751      43455F50 
 15751      41544820 
 15751      30783035 
 15752 884f 01       		.byte	0x1
 15753 8850 C203     		.uleb128 0x1c2
 15754 8852 4242535F 		.ascii "BBS_BBS_DP 0x01\0"
 15754      4242535F 
 15754      44502030 
 15754      78303100 
 15755 8862 01       		.byte	0x1
 15756 8863 CB03     		.uleb128 0x1cb
 15757 8865 4242535F 		.ascii "BBS_TYPE_FLOPPY 0x01\0"
 15757      54595045 
 15757      5F464C4F 
 15757      50505920 
 15757      30783031 
 15758 887a 01       		.byte	0x1
 15759 887b CC03     		.uleb128 0x1cc
 15760 887d 4242535F 		.ascii "BBS_TYPE_HARDDRIVE 0x02\0"
 15760      54595045 
 15760      5F484152 
 15760      44445249 
 15760      56452030 
 15761 8895 01       		.byte	0x1
 15762 8896 CD03     		.uleb128 0x1cd
 15763 8898 4242535F 		.ascii "BBS_TYPE_CDROM 0x03\0"
 15763      54595045 
 15763      5F434452 
 15763      4F4D2030 
 15763      78303300 
 15764 88ac 01       		.byte	0x1
 15765 88ad CE03     		.uleb128 0x1ce
 15766 88af 4242535F 		.ascii "BBS_TYPE_PCMCIA 0x04\0"
 15766      54595045 
 15766      5F50434D 
 15766      43494120 
 15766      30783034 
 15767 88c4 01       		.byte	0x1
 15768 88c5 CF03     		.uleb128 0x1cf
 15769 88c7 4242535F 		.ascii "BBS_TYPE_USB 0x05\0"
 15769      54595045 
 15769      5F555342 
 15769      20307830 
 15769      3500
 15770 88d9 01       		.byte	0x1
 15771 88da D003     		.uleb128 0x1d0
 15772 88dc 4242535F 		.ascii "BBS_TYPE_EMBEDDED_NETWORK 0x06\0"
 15772      54595045 
 15772      5F454D42 
 15772      45444445 
 15772      445F4E45 
 15773 88fb 01       		.byte	0x1
 15774 88fc D103     		.uleb128 0x1d1
 15775 88fe 4242535F 		.ascii "BBS_TYPE_DEV 0x80\0"
 15775      54595045 
 15775      5F444556 
 15775      20307838 
 15775      3000
 15776 8910 01       		.byte	0x1
 15777 8911 D203     		.uleb128 0x1d2
 15778 8913 4242535F 		.ascii "BBS_TYPE_UNKNOWN 0xFF\0"
 15778      54595045 
 15778      5F554E4B 
 15778      4E4F574E 
 15778      20307846 
 15779 8929 01       		.byte	0x1
 15780 892a 9A04     		.uleb128 0x21a
 15781 892c 4546495F 		.ascii "EFI_DEVICE_PATH_TO_TEXT_PROTOCOL_GUID { 0x8b843e20, 0x8132, 0x4852, {0x90, 0xcc, 0x55, 0x1
 15781      44455649 
 15781      43455F50 
 15781      4154485F 
 15781      544F5F54 
 15782 89a3 01       		.byte	0x1
 15783 89a4 B204     		.uleb128 0x232
 15784 89a6 4546495F 		.ascii "EFI_DEVICE_PATH_FROM_TEXT_PROTOCOL_GUID { 0x5c99a21, 0xc70f, 0x4ad2, {0x8a, 0x5f, 0x35, 0x
 15784      44455649 
 15784      43455F50 
 15784      4154485F 
 15784      46524F4D 
 15785 8a1e 01       		.byte	0x1
 15786 8a1f C604     		.uleb128 0x246
 15787 8a21 4546495F 		.ascii "EFI_DEVICE_PATH_UTILITIES_PROTOCOL_GUID { 0x379be4e, 0xd706, 0x437d, {0xb0, 0x37, 0xed, 0x
 15787      44455649 
 15787      43455F50 
 15787      4154485F 
 15787      5554494C 
 15788 8a99 04       		.byte	0x4
 15789              		.file 22 "gnu-efi-3.0.18/inc/efipciio.h"
 15790 8a9a 03       		.byte	0x3
 15791 8a9b 44       		.uleb128 0x44
 15792 8a9c 16       		.uleb128 0x16
 15793 8a9d 01       		.byte	0x1
 15794 8a9e 02       		.uleb128 0x2
 15795 8a9f 5F454649 		.ascii "_EFI_PCI_IO_H \0"
 15795      5F504349 
 15795      5F494F5F 
 15795      482000
 15796 8aae 01       		.byte	0x1
 15797 8aaf 04       		.uleb128 0x4
 15798 8ab0 4546495F 		.ascii "EFI_PCI_IO_PROTOCOL_GUID { 0x4cf5b200, 0x68b8, 0x4ca5, {0x9e, 0xec, 0xb2, 0x3e, 0x3f, 0x50
 15798      5043495F 
 15798      494F5F50 
 15798      524F544F 
 15798      434F4C5F 
 15799 8b1a 01       		.byte	0x1
 15800 8b1b 07       		.uleb128 0x7
 15801 8b1c 4546495F 		.ascii "EFI_PCI_ROOT_BRIDGE_IO_PROTOCOL_GUID { 0x2f707ebb, 0x4a1a, 0x11d4, {0x9a, 0x38, 0x00, 0x90
 15801      5043495F 
 15801      524F4F54 
 15801      5F425249 
 15801      4447455F 
 15802 8b92 01       		.byte	0x1
 15803 8b93 1D       		.uleb128 0x1d
 15804 8b94 4546495F 		.ascii "EFI_PCI_IO_PASS_THROUGH_BAR 0xff\0"
 15804      5043495F 
 15804      494F5F50 
 15804      4153535F 
 15804      5448524F 
 15805 8bb5 01       		.byte	0x1
 15806 8bb6 F401     		.uleb128 0xf4
 15807 8bb8 4546495F 		.ascii "EFI_PCI_ATTRIBUTE_ISA_MOTHERBOARD_IO 0x0001\0"
 15807      5043495F 
 15807      41545452 
 15807      49425554 
 15807      455F4953 
 15808 8be4 01       		.byte	0x1
 15809 8be5 F501     		.uleb128 0xf5
 15810 8be7 4546495F 		.ascii "EFI_PCI_ATTRIBUTE_ISA_IO 0x0002\0"
 15810      5043495F 
 15810      41545452 
 15810      49425554 
 15810      455F4953 
 15811 8c07 01       		.byte	0x1
 15812 8c08 F601     		.uleb128 0xf6
 15813 8c0a 4546495F 		.ascii "EFI_PCI_ATTRIBUTE_VGA_PALETTE_IO 0x0004\0"
 15813      5043495F 
 15813      41545452 
 15813      49425554 
 15813      455F5647 
 15814 8c32 01       		.byte	0x1
 15815 8c33 F701     		.uleb128 0xf7
 15816 8c35 4546495F 		.ascii "EFI_PCI_ATTRIBUTE_VGA_MEMORY 0x0008\0"
 15816      5043495F 
 15816      41545452 
 15816      49425554 
 15816      455F5647 
 15817 8c59 01       		.byte	0x1
 15818 8c5a F801     		.uleb128 0xf8
 15819 8c5c 4546495F 		.ascii "EFI_PCI_ATTRIBUTE_VGA_IO 0x0010\0"
 15819      5043495F 
 15819      41545452 
 15819      49425554 
 15819      455F5647 
 15820 8c7c 01       		.byte	0x1
 15821 8c7d F901     		.uleb128 0xf9
 15822 8c7f 4546495F 		.ascii "EFI_PCI_ATTRIBUTE_IDE_PRIMARY_IO 0x0020\0"
 15822      5043495F 
 15822      41545452 
 15822      49425554 
 15822      455F4944 
 15823 8ca7 01       		.byte	0x1
 15824 8ca8 FA01     		.uleb128 0xfa
 15825 8caa 4546495F 		.ascii "EFI_PCI_ATTRIBUTE_IDE_SECONDARY_IO 0x0040\0"
 15825      5043495F 
 15825      41545452 
 15825      49425554 
 15825      455F4944 
 15826 8cd4 01       		.byte	0x1
 15827 8cd5 FB01     		.uleb128 0xfb
 15828 8cd7 4546495F 		.ascii "EFI_PCI_ATTRIBUTE_MEMORY_WRITE_COMBINE 0x0080\0"
 15828      5043495F 
 15828      41545452 
 15828      49425554 
 15828      455F4D45 
 15829 8d05 01       		.byte	0x1
 15830 8d06 FC01     		.uleb128 0xfc
 15831 8d08 4546495F 		.ascii "EFI_PCI_ATTRIBUTE_IO 0x0100\0"
 15831      5043495F 
 15831      41545452 
 15831      49425554 
 15831      455F494F 
 15832 8d24 01       		.byte	0x1
 15833 8d25 FD01     		.uleb128 0xfd
 15834 8d27 4546495F 		.ascii "EFI_PCI_ATTRIBUTE_MEMORY 0x0200\0"
 15834      5043495F 
 15834      41545452 
 15834      49425554 
 15834      455F4D45 
 15835 8d47 01       		.byte	0x1
 15836 8d48 FE01     		.uleb128 0xfe
 15837 8d4a 4546495F 		.ascii "EFI_PCI_ATTRIBUTE_BUS_MASTER 0x0400\0"
 15837      5043495F 
 15837      41545452 
 15837      49425554 
 15837      455F4255 
 15838 8d6e 01       		.byte	0x1
 15839 8d6f FF01     		.uleb128 0xff
 15840 8d71 4546495F 		.ascii "EFI_PCI_ATTRIBUTE_MEMORY_CACHED 0x0800\0"
 15840      5043495F 
 15840      41545452 
 15840      49425554 
 15840      455F4D45 
 15841 8d98 01       		.byte	0x1
 15842 8d99 8002     		.uleb128 0x100
 15843 8d9b 4546495F 		.ascii "EFI_PCI_ATTRIBUTE_MEMORY_DISABLE 0x1000\0"
 15843      5043495F 
 15843      41545452 
 15843      49425554 
 15843      455F4D45 
 15844 8dc3 01       		.byte	0x1
 15845 8dc4 8102     		.uleb128 0x101
 15846 8dc6 4546495F 		.ascii "EFI_PCI_ATTRIBUTE_EMBEDDED_DEVICE 0x2000\0"
 15846      5043495F 
 15846      41545452 
 15846      49425554 
 15846      455F454D 
 15847 8def 01       		.byte	0x1
 15848 8df0 8202     		.uleb128 0x102
 15849 8df2 4546495F 		.ascii "EFI_PCI_ATTRIBUTE_EMBEDDED_ROM 0x4000\0"
 15849      5043495F 
 15849      41545452 
 15849      49425554 
 15849      455F454D 
 15850 8e18 01       		.byte	0x1
 15851 8e19 8302     		.uleb128 0x103
 15852 8e1b 4546495F 		.ascii "EFI_PCI_ATTRIBUTE_DUAL_ADDRESS_CYCLE 0x8000\0"
 15852      5043495F 
 15852      41545452 
 15852      49425554 
 15852      455F4455 
 15853 8e47 01       		.byte	0x1
 15854 8e48 8402     		.uleb128 0x104
 15855 8e4a 4546495F 		.ascii "EFI_PCI_ATTRIBUTE_ISA_IO_16 0x10000\0"
 15855      5043495F 
 15855      41545452 
 15855      49425554 
 15855      455F4953 
 15856 8e6e 01       		.byte	0x1
 15857 8e6f 8502     		.uleb128 0x105
 15858 8e71 4546495F 		.ascii "EFI_PCI_ATTRIBUTE_VGA_PALETTE_IO_16 0x20000\0"
 15858      5043495F 
 15858      41545452 
 15858      49425554 
 15858      455F5647 
 15859 8e9d 01       		.byte	0x1
 15860 8e9e 8602     		.uleb128 0x106
 15861 8ea0 4546495F 		.ascii "EFI_PCI_ATTRIBUTE_VGA_IO_16 0x40000\0"
 15861      5043495F 
 15861      41545452 
 15861      49425554 
 15861      455F5647 
 15862 8ec4 01       		.byte	0x1
 15863 8ec5 8802     		.uleb128 0x108
 15864 8ec7 4546495F 		.ascii "EFI_PCI_IO_ATTRIBUTE_ISA_MOTHERBOARD_IO EFI_PCI_ATTRIBUTE_ISA_MOTHERBOARD_IO\0"
 15864      5043495F 
 15864      494F5F41 
 15864      54545249 
 15864      42555445 
 15865 8f14 01       		.byte	0x1
 15866 8f15 8902     		.uleb128 0x109
 15867 8f17 4546495F 		.ascii "EFI_PCI_IO_ATTRIBUTE_ISA_IO EFI_PCI_ATTRIBUTE_ISA_IO\0"
 15867      5043495F 
 15867      494F5F41 
 15867      54545249 
 15867      42555445 
 15868 8f4c 01       		.byte	0x1
 15869 8f4d 8A02     		.uleb128 0x10a
 15870 8f4f 4546495F 		.ascii "EFI_PCI_IO_ATTRIBUTE_VGA_PALETTE_IO EFI_PCI_ATTRIBUTE_VGA_PALETTE_IO\0"
 15870      5043495F 
 15870      494F5F41 
 15870      54545249 
 15870      42555445 
 15871 8f94 01       		.byte	0x1
 15872 8f95 8B02     		.uleb128 0x10b
 15873 8f97 4546495F 		.ascii "EFI_PCI_IO_ATTRIBUTE_VGA_MEMORY EFI_PCI_ATTRIBUTE_VGA_MEMORY\0"
 15873      5043495F 
 15873      494F5F41 
 15873      54545249 
 15873      42555445 
 15874 8fd4 01       		.byte	0x1
 15875 8fd5 8C02     		.uleb128 0x10c
 15876 8fd7 4546495F 		.ascii "EFI_PCI_IO_ATTRIBUTE_VGA_IO EFI_PCI_ATTRIBUTE_VGA_IO\0"
 15876      5043495F 
 15876      494F5F41 
 15876      54545249 
 15876      42555445 
 15877 900c 01       		.byte	0x1
 15878 900d 8D02     		.uleb128 0x10d
 15879 900f 4546495F 		.ascii "EFI_PCI_IO_ATTRIBUTE_IDE_PRIMARY_IO EFI_PCI_ATTRIBUTE_IDE_PRIMARY_IO\0"
 15879      5043495F 
 15879      494F5F41 
 15879      54545249 
 15879      42555445 
 15880 9054 01       		.byte	0x1
 15881 9055 8E02     		.uleb128 0x10e
 15882 9057 4546495F 		.ascii "EFI_PCI_IO_ATTRIBUTE_IDE_SECONDARY_IO EFI_PCI_ATTRIBUTE_IDE_SECONDARY_IO\0"
 15882      5043495F 
 15882      494F5F41 
 15882      54545249 
 15882      42555445 
 15883 90a0 01       		.byte	0x1
 15884 90a1 8F02     		.uleb128 0x10f
 15885 90a3 4546495F 		.ascii "EFI_PCI_IO_ATTRIBUTE_MEMORY_WRITE_COMBINE EFI_PCI_ATTRIBUTE_MEMORY_WRITE_COMBINE\0"
 15885      5043495F 
 15885      494F5F41 
 15885      54545249 
 15885      42555445 
 15886 90f4 01       		.byte	0x1
 15887 90f5 9002     		.uleb128 0x110
 15888 90f7 4546495F 		.ascii "EFI_PCI_IO_ATTRIBUTE_IO EFI_PCI_ATTRIBUTE_IO\0"
 15888      5043495F 
 15888      494F5F41 
 15888      54545249 
 15888      42555445 
 15889 9124 01       		.byte	0x1
 15890 9125 9102     		.uleb128 0x111
 15891 9127 4546495F 		.ascii "EFI_PCI_IO_ATTRIBUTE_MEMORY EFI_PCI_ATTRIBUTE_MEMORY\0"
 15891      5043495F 
 15891      494F5F41 
 15891      54545249 
 15891      42555445 
 15892 915c 01       		.byte	0x1
 15893 915d 9202     		.uleb128 0x112
 15894 915f 4546495F 		.ascii "EFI_PCI_IO_ATTRIBUTE_BUS_MASTER EFI_PCI_ATTRIBUTE_BUS_MASTER\0"
 15894      5043495F 
 15894      494F5F41 
 15894      54545249 
 15894      42555445 
 15895 919c 01       		.byte	0x1
 15896 919d 9302     		.uleb128 0x113
 15897 919f 4546495F 		.ascii "EFI_PCI_IO_ATTRIBUTE_MEMORY_CACHED EFI_PCI_ATTRIBUTE_MEMORY_CACHED\0"
 15897      5043495F 
 15897      494F5F41 
 15897      54545249 
 15897      42555445 
 15898 91e2 01       		.byte	0x1
 15899 91e3 9402     		.uleb128 0x114
 15900 91e5 4546495F 		.ascii "EFI_PCI_IO_ATTRIBUTE_MEMORY_DISABLE EFI_PCI_ATTRIBUTE_MEMORY_DISABLE\0"
 15900      5043495F 
 15900      494F5F41 
 15900      54545249 
 15900      42555445 
 15901 922a 01       		.byte	0x1
 15902 922b 9502     		.uleb128 0x115
 15903 922d 4546495F 		.ascii "EFI_PCI_IO_ATTRIBUTE_EMBEDDED_DEVICE EFI_PCI_ATTRIBUTE_EMBEDDED_DEVICE\0"
 15903      5043495F 
 15903      494F5F41 
 15903      54545249 
 15903      42555445 
 15904 9274 01       		.byte	0x1
 15905 9275 9602     		.uleb128 0x116
 15906 9277 4546495F 		.ascii "EFI_PCI_IO_ATTRIBUTE_EMBEDDED_ROM EFI_PCI_ATTRIBUTE_EMBEDDED_ROM\0"
 15906      5043495F 
 15906      494F5F41 
 15906      54545249 
 15906      42555445 
 15907 92b8 01       		.byte	0x1
 15908 92b9 9702     		.uleb128 0x117
 15909 92bb 4546495F 		.ascii "EFI_PCI_IO_ATTRIBUTE_DUAL_ADDRESS_CYCLE EFI_PCI_ATTRIBUTE_DUAL_ADDRESS_CYCLE\0"
 15909      5043495F 
 15909      494F5F41 
 15909      54545249 
 15909      42555445 
 15910 9308 01       		.byte	0x1
 15911 9309 9802     		.uleb128 0x118
 15912 930b 4546495F 		.ascii "EFI_PCI_IO_ATTRIBUTE_ISA_IO_16 EFI_PCI_ATTRIBUTE_ISA_IO_16\0"
 15912      5043495F 
 15912      494F5F41 
 15912      54545249 
 15912      42555445 
 15913 9346 01       		.byte	0x1
 15914 9347 9902     		.uleb128 0x119
 15915 9349 4546495F 		.ascii "EFI_PCI_IO_ATTRIBUTE_VGA_PALETTE_IO_16 EFI_PCI_ATTRIBUTE_VGA_PALETTE_IO_16\0"
 15915      5043495F 
 15915      494F5F41 
 15915      54545249 
 15915      42555445 
 15916 9394 01       		.byte	0x1
 15917 9395 9A02     		.uleb128 0x11a
 15918 9397 4546495F 		.ascii "EFI_PCI_IO_ATTRIBUTE_VGA_IO_16 EFI_PCI_ATTRIBUTE_VGA_IO_16\0"
 15918      5043495F 
 15918      494F5F41 
 15918      54545249 
 15918      42555445 
 15919 93d2 01       		.byte	0x1
 15920 93d3 9C02     		.uleb128 0x11c
 15921 93d5 4546495F 		.ascii "EFI_PCI_ATTRIBUTE_VALID_FOR_ALLOCATE_BUFFER (EFI_PCI_ATTRIBUTE_MEMORY_WRITE_COMBINE | EFI_
 15921      5043495F 
 15921      41545452 
 15921      49425554 
 15921      455F5641 
 15922 9473 01       		.byte	0x1
 15923 9474 9F02     		.uleb128 0x11f
 15924 9476 4546495F 		.ascii "EFI_PCI_ATTRIBUTE_INVALID_FOR_ALLOCATE_BUFFER (~EFI_PCI_ATTRIBUTE_VALID_FOR_ALLOCATE_BUFFE
 15924      5043495F 
 15924      41545452 
 15924      49425554 
 15924      455F494E 
 15925 94d3 04       		.byte	0x4
 15926 94d4 03       		.byte	0x3
 15927 94d5 45       		.uleb128 0x45
 15928 94d6 07       		.uleb128 0x7
 15929 94d7 01       		.byte	0x1
 15930 94d8 02       		.uleb128 0x2
 15931 94d9 5F454649 		.ascii "_EFI_PROT_H \0"
 15931      5F50524F 
 15931      545F4820 
 15931      00
 15932 94e6 01       		.byte	0x1
 15933 94e7 19       		.uleb128 0x19
 15934 94e8 4546495F 		.ascii "EFI_FPSWA_PROTOCOL_GUID { 0xc41b6531, 0x97b9, 0x11d3, {0x9a, 0x29, 0x0, 0x90, 0x27, 0x3f, 
 15934      46505357 
 15934      415F5052 
 15934      4F544F43 
 15934      4F4C5F47 
 15935 9550 01       		.byte	0x1
 15936 9551 1B       		.uleb128 0x1b
 15937 9552 46505357 		.ascii "FPSWA_PROTOCOL EFI_FPSWA_PROTOCOL_GUID\0"
 15937      415F5052 
 15937      4F544F43 
 15937      4F4C2045 
 15937      46495F46 
 15938 9579 01       		.byte	0x1
 15939 957a 21       		.uleb128 0x21
 15940 957b 4546495F 		.ascii "EFI_DEVICE_PATH_PROTOCOL_GUID { 0x9576e91, 0x6d3f, 0x11d2, {0x8e, 0x39, 0x0, 0xa0, 0xc9, 0
 15940      44455649 
 15940      43455F50 
 15940      4154485F 
 15940      50524F54 
 15941 95e8 01       		.byte	0x1
 15942 95e9 23       		.uleb128 0x23
 15943 95ea 44455649 		.ascii "DEVICE_PATH_PROTOCOL EFI_DEVICE_PATH_PROTOCOL_GUID\0"
 15943      43455F50 
 15943      4154485F 
 15943      50524F54 
 15943      4F434F4C 
 15944 961d 01       		.byte	0x1
 15945 961e 2A       		.uleb128 0x2a
 15946 961f 4546495F 		.ascii "EFI_BLOCK_IO_PROTOCOL_GUID { 0x964e5b21, 0x6459, 0x11d2, {0x8e, 0x39, 0x0, 0xa0, 0xc9, 0x6
 15946      424C4F43 
 15946      4B5F494F 
 15946      5F50524F 
 15946      544F434F 
 15947 968a 01       		.byte	0x1
 15948 968b 2C       		.uleb128 0x2c
 15949 968c 424C4F43 		.ascii "BLOCK_IO_PROTOCOL EFI_BLOCK_IO_PROTOCOL_GUID\0"
 15949      4B5F494F 
 15949      5F50524F 
 15949      544F434F 
 15949      4C204546 
 15950 96b9 01       		.byte	0x1
 15951 96ba 2E       		.uleb128 0x2e
 15952 96bb 4546495F 		.ascii "EFI_BLOCK_IO_PROTOCOL_REVISION 0x00010000\0"
 15952      424C4F43 
 15952      4B5F494F 
 15952      5F50524F 
 15952      544F434F 
 15953 96e5 01       		.byte	0x1
 15954 96e6 2F       		.uleb128 0x2f
 15955 96e7 4546495F 		.ascii "EFI_BLOCK_IO_PROTOCOL_REVISION2 0x00020001\0"
 15955      424C4F43 
 15955      4B5F494F 
 15955      5F50524F 
 15955      544F434F 
 15956 9712 01       		.byte	0x1
 15957 9713 30       		.uleb128 0x30
 15958 9714 4546495F 		.ascii "EFI_BLOCK_IO_PROTOCOL_REVISION3 ((2<<16) | 31)\0"
 15958      424C4F43 
 15958      4B5F494F 
 15958      5F50524F 
 15958      544F434F 
 15959 9743 01       		.byte	0x1
 15960 9744 31       		.uleb128 0x31
 15961 9745 4546495F 		.ascii "EFI_BLOCK_IO_INTERFACE_REVISION EFI_BLOCK_IO_PROTOCOL_REVISION\0"
 15961      424C4F43 
 15961      4B5F494F 
 15961      5F494E54 
 15961      45524641 
 15962 9784 01       		.byte	0x1
 15963 9785 32       		.uleb128 0x32
 15964 9786 4546495F 		.ascii "EFI_BLOCK_IO_INTERFACE_REVISION2 EFI_BLOCK_IO_PROTOCOL_REVISION2\0"
 15964      424C4F43 
 15964      4B5F494F 
 15964      5F494E54 
 15964      45524641 
 15965 97c7 01       		.byte	0x1
 15966 97c8 33       		.uleb128 0x33
 15967 97c9 4546495F 		.ascii "EFI_BLOCK_IO_INTERFACE_REVISION3 EFI_BLOCK_IO_PROTOCOL_REVISION3\0"
 15967      424C4F43 
 15967      4B5F494F 
 15967      5F494E54 
 15967      45524641 
 15968 980a 01       		.byte	0x1
 15969 980b 8001     		.uleb128 0x80
 15970 980d 4546495F 		.ascii "EFI_BLOCK_IO2_PROTOCOL_GUID { 0xa77b2472, 0xe282, 0x4e9f, {0xa2, 0x45, 0xc2, 0xc0, 0xe2, 0
 15970      424C4F43 
 15970      4B5F494F 
 15970      325F5052 
 15970      4F544F43 
 15971 987a 01       		.byte	0x1
 15972 987b BA01     		.uleb128 0xba
 15973 987d 4546495F 		.ascii "EFI_DISK_IO_PROTOCOL_GUID { 0xce345171, 0xba0b, 0x11d2, {0x8e, 0x4f, 0x0, 0xa0, 0xc9, 0x69
 15973      4449534B 
 15973      5F494F5F 
 15973      50524F54 
 15973      4F434F4C 
 15974 98e7 01       		.byte	0x1
 15975 98e8 BC01     		.uleb128 0xbc
 15976 98ea 4449534B 		.ascii "DISK_IO_PROTOCOL EFI_DISK_IO_PROTOCOL_GUID\0"
 15976      5F494F5F 
 15976      50524F54 
 15976      4F434F4C 
 15976      20454649 
 15977 9915 01       		.byte	0x1
 15978 9916 BE01     		.uleb128 0xbe
 15979 9918 4546495F 		.ascii "EFI_DISK_IO_PROTOCOL_REVISION 0x00010000\0"
 15979      4449534B 
 15979      5F494F5F 
 15979      50524F54 
 15979      4F434F4C 
 15980 9941 01       		.byte	0x1
 15981 9942 BF01     		.uleb128 0xbf
 15982 9944 4546495F 		.ascii "EFI_DISK_IO_INTERFACE_REVISION EFI_DISK_IO_PROTOCOL_REVISION\0"
 15982      4449534B 
 15982      5F494F5F 
 15982      494E5445 
 15982      52464143 
 15983 9981 01       		.byte	0x1
 15984 9982 E301     		.uleb128 0xe3
 15985 9984 4546495F 		.ascii "EFI_DISK_IO2_PROTOCOL_GUID { 0x151c8eae, 0x7f2c, 0x472c, {0x9e, 0x54, 0x98, 0x28, 0x19, 0x
 15985      4449534B 
 15985      5F494F32 
 15985      5F50524F 
 15985      544F434F 
 15986 99f0 01       		.byte	0x1
 15987 99f1 E601     		.uleb128 0xe6
 15988 99f3 4546495F 		.ascii "EFI_DISK_IO2_PROTOCOL_REVISION 0x00020000\0"
 15988      4449534B 
 15988      5F494F32 
 15988      5F50524F 
 15988      544F434F 
 15989 9a1d 01       		.byte	0x1
 15990 9a1e 9E02     		.uleb128 0x11e
 15991 9a20 4546495F 		.ascii "EFI_SIMPLE_FILE_SYSTEM_PROTOCOL_GUID { 0x964e5b22, 0x6459, 0x11d2, {0x8e, 0x39, 0x0, 0xa0,
 15991      53494D50 
 15991      4C455F46 
 15991      494C455F 
 15991      53595354 
 15992 9a95 01       		.byte	0x1
 15993 9a96 A002     		.uleb128 0x120
 15994 9a98 53494D50 		.ascii "SIMPLE_FILE_SYSTEM_PROTOCOL EFI_SIMPLE_FILE_SYSTEM_PROTOCOL_GUID\0"
 15994      4C455F46 
 15994      494C455F 
 15994      53595354 
 15994      454D5F50 
 15995 9ad9 01       		.byte	0x1
 15996 9ada AC02     		.uleb128 0x12c
 15997 9adc 4546495F 		.ascii "EFI_SIMPLE_FILE_SYSTEM_PROTOCOL_REVISION 0x00010000\0"
 15997      53494D50 
 15997      4C455F46 
 15997      494C455F 
 15997      53595354 
 15998 9b10 01       		.byte	0x1
 15999 9b11 AD02     		.uleb128 0x12d
 16000 9b13 4546495F 		.ascii "EFI_FILE_IO_INTERFACE_REVISION EFI_SIMPLE_FILE_SYSTEM_PROTOCOL_REVISION\0"
 16000      46494C45 
 16000      5F494F5F 
 16000      494E5445 
 16000      52464143 
 16001 9b5b 01       		.byte	0x1
 16002 9b5c C602     		.uleb128 0x146
 16003 9b5e 4546495F 		.ascii "EFI_FILE_MODE_READ 0x0000000000000001\0"
 16003      46494C45 
 16003      5F4D4F44 
 16003      455F5245 
 16003      41442030 
 16004 9b84 01       		.byte	0x1
 16005 9b85 C702     		.uleb128 0x147
 16006 9b87 4546495F 		.ascii "EFI_FILE_MODE_WRITE 0x0000000000000002\0"
 16006      46494C45 
 16006      5F4D4F44 
 16006      455F5752 
 16006      49544520 
 16007 9bae 01       		.byte	0x1
 16008 9baf C802     		.uleb128 0x148
 16009 9bb1 4546495F 		.ascii "EFI_FILE_MODE_CREATE 0x8000000000000000\0"
 16009      46494C45 
 16009      5F4D4F44 
 16009      455F4352 
 16009      45415445 
 16010 9bd9 01       		.byte	0x1
 16011 9bda CB02     		.uleb128 0x14b
 16012 9bdc 4546495F 		.ascii "EFI_FILE_READ_ONLY 0x0000000000000001\0"
 16012      46494C45 
 16012      5F524541 
 16012      445F4F4E 
 16012      4C592030 
 16013 9c02 01       		.byte	0x1
 16014 9c03 CC02     		.uleb128 0x14c
 16015 9c05 4546495F 		.ascii "EFI_FILE_HIDDEN 0x0000000000000002\0"
 16015      46494C45 
 16015      5F484944 
 16015      44454E20 
 16015      30783030 
 16016 9c28 01       		.byte	0x1
 16017 9c29 CD02     		.uleb128 0x14d
 16018 9c2b 4546495F 		.ascii "EFI_FILE_SYSTEM 0x0000000000000004\0"
 16018      46494C45 
 16018      5F535953 
 16018      54454D20 
 16018      30783030 
 16019 9c4e 01       		.byte	0x1
 16020 9c4f CE02     		.uleb128 0x14e
 16021 9c51 4546495F 		.ascii "EFI_FILE_RESERVIED 0x0000000000000008\0"
 16021      46494C45 
 16021      5F524553 
 16021      45525649 
 16021      45442030 
 16022 9c77 01       		.byte	0x1
 16023 9c78 CF02     		.uleb128 0x14f
 16024 9c7a 4546495F 		.ascii "EFI_FILE_DIRECTORY 0x0000000000000010\0"
 16024      46494C45 
 16024      5F444952 
 16024      4543544F 
 16024      52592030 
 16025 9ca0 01       		.byte	0x1
 16026 9ca1 D002     		.uleb128 0x150
 16027 9ca3 4546495F 		.ascii "EFI_FILE_ARCHIVE 0x0000000000000020\0"
 16027      46494C45 
 16027      5F415243 
 16027      48495645 
 16027      20307830 
 16028 9cc7 01       		.byte	0x1
 16029 9cc8 D102     		.uleb128 0x151
 16030 9cca 4546495F 		.ascii "EFI_FILE_VALID_ATTR 0x0000000000000037\0"
 16030      46494C45 
 16030      5F56414C 
 16030      49445F41 
 16030      54545220 
 16031 9cf1 01       		.byte	0x1
 16032 9cf2 BC03     		.uleb128 0x1bc
 16033 9cf4 4546495F 		.ascii "EFI_FILE_PROTOCOL_REVISION 0x00010000\0"
 16033      46494C45 
 16033      5F50524F 
 16033      544F434F 
 16033      4C5F5245 
 16034 9d1a 01       		.byte	0x1
 16035 9d1b BD03     		.uleb128 0x1bd
 16036 9d1d 4546495F 		.ascii "EFI_FILE_PROTOCOL_REVISION2 0x00020000\0"
 16036      46494C45 
 16036      5F50524F 
 16036      544F434F 
 16036      4C5F5245 
 16037 9d44 01       		.byte	0x1
 16038 9d45 BE03     		.uleb128 0x1be
 16039 9d47 4546495F 		.ascii "EFI_FILE_PROTOCOL_LATEST_REVISION EFI_FILE_PROTOCOL_REVISION2\0"
 16039      46494C45 
 16039      5F50524F 
 16039      544F434F 
 16039      4C5F4C41 
 16040 9d85 01       		.byte	0x1
 16041 9d86 BF03     		.uleb128 0x1bf
 16042 9d88 4546495F 		.ascii "EFI_FILE_HANDLE_REVISION EFI_FILE_PROTOCOL_REVISION\0"
 16042      46494C45 
 16042      5F48414E 
 16042      444C455F 
 16042      52455649 
 16043 9dbc 01       		.byte	0x1
 16044 9dbd DA03     		.uleb128 0x1da
 16045 9dbf 4546495F 		.ascii "EFI_FILE_INFO_ID { 0x9576e92, 0x6d3f, 0x11d2, {0x8e, 0x39, 0x0, 0xa0, 0xc9, 0x69, 0x72, 0x
 16045      46494C45 
 16045      5F494E46 
 16045      4F5F4944 
 16045      207B2030 
 16046 9e1f 01       		.byte	0x1
 16047 9e20 F003     		.uleb128 0x1f0
 16048 9e22 53495A45 		.ascii "SIZE_OF_EFI_FILE_INFO EFI_FIELD_OFFSET(EFI_FILE_INFO,FileName)\0"
 16048      5F4F465F 
 16048      4546495F 
 16048      46494C45 
 16048      5F494E46 
 16049 9e61 01       		.byte	0x1
 16050 9e62 F203     		.uleb128 0x1f2
 16051 9e64 4546495F 		.ascii "EFI_FILE_SYSTEM_INFO_ID { 0x9576e93, 0x6d3f, 0x11d2, {0x8e, 0x39, 0x0, 0xa0, 0xc9, 0x69, 0
 16051      46494C45 
 16051      5F535953 
 16051      54454D5F 
 16051      494E464F 
 16052 9ecb 01       		.byte	0x1
 16053 9ecc 8604     		.uleb128 0x206
 16054 9ece 53495A45 		.ascii "SIZE_OF_EFI_FILE_SYSTEM_INFO EFI_FIELD_OFFSET(EFI_FILE_SYSTEM_INFO,VolumeLabel)\0"
 16054      5F4F465F 
 16054      4546495F 
 16054      46494C45 
 16054      5F535953 
 16055 9f1e 01       		.byte	0x1
 16056 9f1f 8804     		.uleb128 0x208
 16057 9f21 4546495F 		.ascii "EFI_FILE_SYSTEM_VOLUME_LABEL_ID { 0xDB47D7D3,0xFE81, 0x11d3, {0x9A, 0x35, 0x00, 0x90, 0x27
 16057      46494C45 
 16057      5F535953 
 16057      54454D5F 
 16057      564F4C55 
 16058 9f91 01       		.byte	0x1
 16059 9f92 8F04     		.uleb128 0x20f
 16060 9f94 53495A45 		.ascii "SIZE_OF_EFI_FILE_SYSTEM_VOLUME_LABEL_INFO EFI_FIELD_OFFSET(EFI_FILE_SYSTEM_VOLUME_LABEL,Vo
 16060      5F4F465F 
 16060      4546495F 
 16060      46494C45 
 16060      5F535953 
 16061 9ff9 01       		.byte	0x1
 16062 9ffa 9404     		.uleb128 0x214
 16063 9ffc 4546495F 		.ascii "EFI_FILE_SYSTEM_VOLUME_LABEL_INFO_ID EFI_FILE_SYSTEM_VOLUME_LABEL_ID\0"
 16063      46494C45 
 16063      5F535953 
 16063      54454D5F 
 16063      564F4C55 
 16064 a041 01       		.byte	0x1
 16065 a042 9504     		.uleb128 0x215
 16066 a044 4546495F 		.ascii "EFI_FILE_SYSTEM_VOLUME_LABEL_INFO EFI_FILE_SYSTEM_VOLUME_LABEL\0"
 16066      46494C45 
 16066      5F535953 
 16066      54454D5F 
 16066      564F4C55 
 16067 a083 01       		.byte	0x1
 16068 a084 9C04     		.uleb128 0x21c
 16069 a086 4546495F 		.ascii "EFI_LOAD_FILE_PROTOCOL_GUID { 0x56EC3091, 0x954C, 0x11d2, {0x8E, 0x3F, 0x00, 0xA0, 0xC9, 0
 16069      4C4F4144 
 16069      5F46494C 
 16069      455F5052 
 16069      4F544F43 
 16070 a0f3 01       		.byte	0x1
 16071 a0f4 9E04     		.uleb128 0x21e
 16072 a0f6 4C4F4144 		.ascii "LOAD_FILE_PROTOCOL EFI_LOAD_FILE_PROTOCOL_GUID\0"
 16072      5F46494C 
 16072      455F5052 
 16072      4F544F43 
 16072      4F4C2045 
 16073 a125 01       		.byte	0x1
 16074 a126 B704     		.uleb128 0x237
 16075 a128 4546495F 		.ascii "EFI_DEVICE_IO_PROTOCOL_GUID { 0xaf6ac311, 0x84c3, 0x11d2, {0x8e, 0x3c, 0x00, 0xa0, 0xc9, 0
 16075      44455649 
 16075      43455F49 
 16075      4F5F5052 
 16075      4F544F43 
 16076 a195 01       		.byte	0x1
 16077 a196 B904     		.uleb128 0x239
 16078 a198 44455649 		.ascii "DEVICE_IO_PROTOCOL EFI_DEVICE_IO_PROTOCOL_GUID\0"
 16078      43455F49 
 16078      4F5F5052 
 16078      4F544F43 
 16078      4F4C2045 
 16079 a1c7 01       		.byte	0x1
 16080 a1c8 CB04     		.uleb128 0x24b
 16081 a1ca 4546495F 		.ascii "EFI_PCI_ADDRESS(_bus,_dev,_func) ( (UINT64) ( (((UINTN)_bus) << 24) + (((UINTN)_dev) << 16
 16081      5043495F 
 16081      41444452 
 16081      45535328 
 16081      5F627573 
 16082 a242 01       		.byte	0x1
 16083 a243 A905     		.uleb128 0x2a9
 16084 a245 4546495F 		.ascii "EFI_UNICODE_COLLATION_PROTOCOL_GUID { 0x1d85cd7f, 0xf43d, 0x11d2, {0x9a, 0xc, 0x0, 0x90, 0
 16084      554E4943 
 16084      4F44455F 
 16084      434F4C4C 
 16084      4154494F 
 16085 a2b8 01       		.byte	0x1
 16086 a2b9 AB05     		.uleb128 0x2ab
 16087 a2bb 554E4943 		.ascii "UNICODE_COLLATION_PROTOCOL EFI_UNICODE_COLLATION_PROTOCOL_GUID\0"
 16087      4F44455F 
 16087      434F4C4C 
 16087      4154494F 
 16087      4E5F5052 
 16088 a2fa 01       		.byte	0x1
 16089 a2fb AD05     		.uleb128 0x2ad
 16090 a2fd 4546495F 		.ascii "EFI_UNICODE_BYTE_ORDER_MARK (CHAR16)(0xfeff)\0"
 16090      554E4943 
 16090      4F44455F 
 16090      42595445 
 16090      5F4F5244 
 16091 a32a 01       		.byte	0x1
 16092 a32b AE05     		.uleb128 0x2ae
 16093 a32d 554E4943 		.ascii "UNICODE_BYTE_ORDER_MARK EFI_UNICODE_BYTE_ORDER_MARK\0"
 16093      4F44455F 
 16093      42595445 
 16093      5F4F5244 
 16093      45525F4D 
 16094 a361 01       		.byte	0x1
 16095 a362 E505     		.uleb128 0x2e5
 16096 a364 4546495F 		.ascii "EFI_HASH_PROTOCOL_GUID { 0xC5184932, 0xDBA5, 0x46DB, { 0xA5, 0xBA, 0xCC, 0x0B, 0xDA, 0x9C,
 16096      48415348 
 16096      5F50524F 
 16096      544F434F 
 16096      4C5F4755 
 16097 a3ce 01       		.byte	0x1
 16098 a3cf E705     		.uleb128 0x2e7
 16099 a3d1 48415348 		.ascii "HASH_PROTOCOL EFI_HASH_PROTOCOL_GUID\0"
 16099      5F50524F 
 16099      544F434F 
 16099      4C204546 
 16099      495F4841 
 16100 a3f6 01       		.byte	0x1
 16101 a3f7 E905     		.uleb128 0x2e9
 16102 a3f9 4546495F 		.ascii "EFI_HASH_ALGORITHM_SHA1_GUID { 0x2AE9D80F, 0x3FB2, 0x4095, { 0xB7, 0xB1, 0xE9, 0x31, 0x57,
 16102      48415348 
 16102      5F414C47 
 16102      4F524954 
 16102      484D5F53 
 16103 a469 01       		.byte	0x1
 16104 a46a EB05     		.uleb128 0x2eb
 16105 a46c 4546495F 		.ascii "EFI_HASH_ALGORITHM_SHA1 EFI_HASH_ALGORITHM_SHA1_GUID\0"
 16105      48415348 
 16105      5F414C47 
 16105      4F524954 
 16105      484D5F53 
 16106 a4a1 01       		.byte	0x1
 16107 a4a2 ED05     		.uleb128 0x2ed
 16108 a4a4 4546495F 		.ascii "EFI_HASH_ALGORITHM_SHA224_GUID { 0x8DF01A06, 0x9BD5, 0x4BF7, { 0xB0, 0x21, 0xDB, 0x4F, 0xD
 16108      48415348 
 16108      5F414C47 
 16108      4F524954 
 16108      484D5F53 
 16109 a516 01       		.byte	0x1
 16110 a517 EF05     		.uleb128 0x2ef
 16111 a519 4546495F 		.ascii "EFI_HASH_ALGORITHM_SHA224 EFI_HASH_ALGORITHM_SHA224_GUID\0"
 16111      48415348 
 16111      5F414C47 
 16111      4F524954 
 16111      484D5F53 
 16112 a552 01       		.byte	0x1
 16113 a553 F105     		.uleb128 0x2f1
 16114 a555 4546495F 		.ascii "EFI_HASH_ALGORITHM_SHA256_GUID { 0x51AA59DE, 0xFDF2, 0x4EA3, { 0xBC, 0x63, 0x87, 0x5F, 0xB
 16114      48415348 
 16114      5F414C47 
 16114      4F524954 
 16114      484D5F53 
 16115 a5c7 01       		.byte	0x1
 16116 a5c8 F305     		.uleb128 0x2f3
 16117 a5ca 4546495F 		.ascii "EFI_HASH_ALGORITHM_SHA256 EFI_HASH_ALGORITHM_SHA256_GUID\0"
 16117      48415348 
 16117      5F414C47 
 16117      4F524954 
 16117      484D5F53 
 16118 a603 01       		.byte	0x1
 16119 a604 F505     		.uleb128 0x2f5
 16120 a606 4546495F 		.ascii "EFI_HASH_ALGORITHM_SHA384_GUID { 0xEFA96432, 0xDE33, 0x4DD2, { 0xAE, 0xE6, 0x32, 0x8C, 0x3
 16120      48415348 
 16120      5F414C47 
 16120      4F524954 
 16120      484D5F53 
 16121 a678 01       		.byte	0x1
 16122 a679 F705     		.uleb128 0x2f7
 16123 a67b 4546495F 		.ascii "EFI_HASH_ALGORITHM_SHA384 EFI_HASH_ALGORITHM_SHA384_GUID\0"
 16123      48415348 
 16123      5F414C47 
 16123      4F524954 
 16123      484D5F53 
 16124 a6b4 01       		.byte	0x1
 16125 a6b5 F905     		.uleb128 0x2f9
 16126 a6b7 4546495F 		.ascii "EFI_HASH_ALGORITHM_SHA512_GUID { 0xCAA4381E, 0x750C, 0x4770, { 0xB8, 0x70, 0x7A, 0x23, 0xB
 16126      48415348 
 16126      5F414C47 
 16126      4F524954 
 16126      484D5F53 
 16127 a729 01       		.byte	0x1
 16128 a72a FB05     		.uleb128 0x2fb
 16129 a72c 4546495F 		.ascii "EFI_HASH_ALGORITHM_SHA512 EFI_HASH_ALGORITHM_SHA512_GUID\0"
 16129      48415348 
 16129      5F414C47 
 16129      4F524954 
 16129      484D5F53 
 16130 a765 01       		.byte	0x1
 16131 a766 FD05     		.uleb128 0x2fd
 16132 a768 4546495F 		.ascii "EFI_HASH_ALGORITHM_MD5_GUID { 0x0AF7C79C, 0x65B5, 0x4319, { 0xB0, 0xAE, 0x44, 0xEC, 0x48, 
 16132      48415348 
 16132      5F414C47 
 16132      4F524954 
 16132      484D5F4D 
 16133 a7d7 01       		.byte	0x1
 16134 a7d8 FF05     		.uleb128 0x2ff
 16135 a7da 4546495F 		.ascii "EFI_HASH_ALGORITHM_MD5 EFI_HASH_ALGORITHM_MD5_GUID\0"
 16135      48415348 
 16135      5F414C47 
 16135      4F524954 
 16135      484D5F4D 
 16136 a80d 01       		.byte	0x1
 16137 a80e 8106     		.uleb128 0x301
 16138 a810 4546495F 		.ascii "EFI_HASH_ALGORITHM_SHA1_NOPAD_GUID { 0x24C5DC2F, 0x53E2, 0x40CA, { 0x9E, 0xD6, 0xA5, 0xD9,
 16138      48415348 
 16138      5F414C47 
 16138      4F524954 
 16138      484D5F53 
 16139 a886 01       		.byte	0x1
 16140 a887 8306     		.uleb128 0x303
 16141 a889 4546495F 		.ascii "EFI_HASH_ALGORITHM_SHA1_NOPAD EFI_HASH_ALGORITHM_SHA1_NOPAD_GUID\0"
 16141      48415348 
 16141      5F414C47 
 16141      4F524954 
 16141      484D5F53 
 16142 a8ca 01       		.byte	0x1
 16143 a8cb 8506     		.uleb128 0x305
 16144 a8cd 4546495F 		.ascii "EFI_HASH_ALGORITHM_SHA256_NOPAD_GUID { 0x8628752A, 0x6CB7, 0x4814, { 0x96, 0xFC, 0x24, 0xA
 16144      48415348 
 16144      5F414C47 
 16144      4F524954 
 16144      484D5F53 
 16145 a945 01       		.byte	0x1
 16146 a946 8706     		.uleb128 0x307
 16147 a948 4546495F 		.ascii "EFI_HASH_ALGORITHM_SHA256_NOPAD EFI_HASH_ALGORITHM_SHA256_NOPAD_GUID\0"
 16147      48415348 
 16147      5F414C47 
 16147      4F524954 
 16147      484D5F53 
 16148 a98d 01       		.byte	0x1
 16149 a98e C706     		.uleb128 0x347
 16150 a990 4546495F 		.ascii "EFI_GRAPHICS_OUTPUT_PROTOCOL_GUID { 0x9042a9de, 0x23dc, 0x4a38, {0x96, 0xfb, 0x7a, 0xde, 0
 16150      47524150 
 16150      48494353 
 16150      5F4F5554 
 16150      5055545F 
 16151 aa04 01       		.byte	0x1
 16152 aa05 F307     		.uleb128 0x3f3
 16153 aa07 4546495F 		.ascii "EFI_EDID_DISCOVERED_PROTOCOL_GUID { 0x1C0C34F6, 0xD380, 0x41FA, { 0xA0, 0x49, 0x8a, 0xD0, 
 16153      45444944 
 16153      5F444953 
 16153      434F5645 
 16153      5245445F 
 16154 aa7b 01       		.byte	0x1
 16155 aa7c 8108     		.uleb128 0x401
 16156 aa7e 4546495F 		.ascii "EFI_EDID_ACTIVE_PROTOCOL_GUID { 0xBD8C1056, 0x9F36, 0x44EC, { 0x92, 0xA8, 0xA6, 0x33, 0x7F
 16156      45444944 
 16156      5F414354 
 16156      4956455F 
 16156      50524F54 
 16157 aaee 01       		.byte	0x1
 16158 aaef 8F08     		.uleb128 0x40f
 16159 aaf1 4546495F 		.ascii "EFI_EDID_OVERRIDE_PROTOCOL_GUID { 0x48ECB431, 0xFB72, 0x45C0, { 0xA9, 0x22, 0xF4, 0x58, 0x
 16159      45444944 
 16159      5F4F5645 
 16159      52524944 
 16159      455F5052 
 16160 ab63 01       		.byte	0x1
 16161 ab64 BE08     		.uleb128 0x43e
 16162 ab66 4546495F 		.ascii "EFI_DRIVER_BINDING_PROTOCOL_GUID { 0x18A031AB, 0xB443, 0x4D1A, { 0xA5, 0xC0, 0x0C, 0x09, 0
 16162      44524956 
 16162      45525F42 
 16162      494E4449 
 16162      4E475F50 
 16163 abd9 01       		.byte	0x1
 16164 abda C008     		.uleb128 0x440
 16165 abdc 44524956 		.ascii "DRIVER_BINDING_PROTOCOL EFI_DRIVER_BINDING_PROTOCOL_GUID\0"
 16165      45525F42 
 16165      494E4449 
 16165      4E475F50 
 16165      524F544F 
 16166 ac15 01       		.byte	0x1
 16167 ac16 EA08     		.uleb128 0x46a
 16168 ac18 4546495F 		.ascii "EFI_DRIVER_SUPPORTED EFI_DRIVER_BINDING_PROTOCOL_SUPPORTED\0"
 16168      44524956 
 16168      45525F53 
 16168      5550504F 
 16168      52544544 
 16169 ac53 01       		.byte	0x1
 16170 ac54 EB08     		.uleb128 0x46b
 16171 ac56 4546495F 		.ascii "EFI_DRIVER_START EFI_DRIVER_BINDING_PROTOCOL_START\0"
 16171      44524956 
 16171      45525F53 
 16171      54415254 
 16171      20454649 
 16172 ac89 01       		.byte	0x1
 16173 ac8a EC08     		.uleb128 0x46c
 16174 ac8c 4546495F 		.ascii "EFI_DRIVER_STOP EFI_DRIVER_BINDING_PROTOCOL_STOP\0"
 16174      44524956 
 16174      45525F53 
 16174      544F5020 
 16174      4546495F 
 16175 acbd 01       		.byte	0x1
 16176 acbe F408     		.uleb128 0x474
 16177 acc0 4546495F 		.ascii "EFI_COMPONENT_NAME_PROTOCOL_GUID {0x107A772C, 0xD5E1, 0x11D4, { 0x9A, 0x46, 0x00, 0x90, 0x
 16177      434F4D50 
 16177      4F4E454E 
 16177      545F4E41 
 16177      4D455F50 
 16178 ad32 01       		.byte	0x1
 16179 ad33 F608     		.uleb128 0x476
 16180 ad35 434F4D50 		.ascii "COMPONENT_NAME_PROTOCOL EFI_COMPONENT_NAME_PROTOCOL_GUID\0"
 16180      4F4E454E 
 16180      545F4E41 
 16180      4D455F50 
 16180      524F544F 
 16181 ad6e 01       		.byte	0x1
 16182 ad6f 9809     		.uleb128 0x498
 16183 ad71 4546495F 		.ascii "EFI_COMPONENT_NAME2_PROTOCOL_GUID {0x6A7A5CFF, 0xE8D9, 0x4F70, { 0xBA, 0xDA, 0x75, 0xAB, 0
 16183      434F4D50 
 16183      4F4E454E 
 16183      545F4E41 
 16183      4D45325F 
 16184 ade4 01       		.byte	0x1
 16185 ade5 9A09     		.uleb128 0x49a
 16186 ade7 434F4D50 		.ascii "COMPONENT_NAME2_PROTOCOL EFI_COMPONENT_NAME2_PROTOCOL_GUID\0"
 16186      4F4E454E 
 16186      545F4E41 
 16186      4D45325F 
 16186      50524F54 
 16187 ae22 01       		.byte	0x1
 16188 ae23 BD09     		.uleb128 0x4bd
 16189 ae25 4546495F 		.ascii "EFI_LOADED_IMAGE_PROTOCOL_GUID { 0x5B1B31A1, 0x9562, 0x11d2, {0x8E, 0x3F, 0x00, 0xA0, 0xC9
 16189      4C4F4144 
 16189      45445F49 
 16189      4D414745 
 16189      5F50524F 
 16190 ae95 01       		.byte	0x1
 16191 ae96 BF09     		.uleb128 0x4bf
 16192 ae98 4C4F4144 		.ascii "LOADED_IMAGE_PROTOCOL EFI_LOADED_IMAGE_PROTOCOL_GUID\0"
 16192      45445F49 
 16192      4D414745 
 16192      5F50524F 
 16192      544F434F 
 16193 aecd 01       		.byte	0x1
 16194 aece C109     		.uleb128 0x4c1
 16195 aed0 4546495F 		.ascii "EFI_LOADED_IMAGE_PROTOCOL_REVISION 0x1000\0"
 16195      4C4F4144 
 16195      45445F49 
 16195      4D414745 
 16195      5F50524F 
 16196 aefa 01       		.byte	0x1
 16197 aefb C209     		.uleb128 0x4c2
 16198 aefd 4546495F 		.ascii "EFI_IMAGE_INFORMATION_REVISION EFI_LOADED_IMAGE_PROTOCOL_REVISION\0"
 16198      494D4147 
 16198      455F494E 
 16198      464F524D 
 16198      4154494F 
 16199 af3f 01       		.byte	0x1
 16200 af40 E409     		.uleb128 0x4e4
 16201 af42 4546495F 		.ascii "EFI_LOADED_IMAGE_DEVICE_PATH_PROTOCOL_GUID {0xbc62157e, 0x3e33, 0x4fec, {0x99, 0x20, 0x2d,
 16201      4C4F4144 
 16201      45445F49 
 16201      4D414745 
 16201      5F444556 
 16202 afbd 01       		.byte	0x1
 16203 afbe EB09     		.uleb128 0x4eb
 16204 afc0 4546495F 		.ascii "EFI_RNG_PROTOCOL_GUID { 0x3152bca5, 0xeade, 0x433d, {0x86, 0x2e, 0xc0, 0x1c, 0xdc, 0x29, 0
 16204      524E475F 
 16204      50524F54 
 16204      4F434F4C 
 16204      5F475549 
 16205 b027 01       		.byte	0x1
 16206 b028 F009     		.uleb128 0x4f0
 16207 b02a 4546495F 		.ascii "EFI_RNG_ALGORITHM_SP800_90_HASH_256_GUID {0xa7af67cb, 0x603b, 0x4d42, {0xba, 0x21, 0x70, 0
 16207      524E475F 
 16207      414C474F 
 16207      52495448 
 16207      4D5F5350 
 16208 b0a3 01       		.byte	0x1
 16209 b0a4 F309     		.uleb128 0x4f3
 16210 b0a6 4546495F 		.ascii "EFI_RNG_ALGORITHM_SP800_90_HMAC_256_GUID {0xc5149b43, 0xae85, 0x4f53, {0x99, 0x82, 0xb9, 0
 16210      524E475F 
 16210      414C474F 
 16210      52495448 
 16210      4D5F5350 
 16211 b11f 01       		.byte	0x1
 16212 b120 F609     		.uleb128 0x4f6
 16213 b122 4546495F 		.ascii "EFI_RNG_ALGORITHM_SP800_90_CTR_256_GUID {0x44f0de6e, 0x4d8c, 0x4045, {0xa8, 0xc7, 0x4d, 0x
 16213      524E475F 
 16213      414C474F 
 16213      52495448 
 16213      4D5F5350 
 16214 b19a 01       		.byte	0x1
 16215 b19b F909     		.uleb128 0x4f9
 16216 b19d 4546495F 		.ascii "EFI_RNG_ALGORITHM_X9_31_3DES_GUID {0x63c4785a, 0xca34, 0x4012, {0xa3, 0xc8, 0x0b, 0x6a, 0x
 16216      524E475F 
 16216      414C474F 
 16216      52495448 
 16216      4D5F5839 
 16217 b20f 01       		.byte	0x1
 16218 b210 FC09     		.uleb128 0x4fc
 16219 b212 4546495F 		.ascii "EFI_RNG_ALGORITHM_X9_31_AES_GUID {0xacd03321, 0x777e, 0x4d3d, {0xb1, 0xc8, 0x20, 0xcf, 0xd
 16219      524E475F 
 16219      414C474F 
 16219      52495448 
 16219      4D5F5839 
 16220 b283 01       		.byte	0x1
 16221 b284 FF09     		.uleb128 0x4ff
 16222 b286 4546495F 		.ascii "EFI_RNG_ALGORITHM_RAW {0xe43176d7, 0xb6e8, 0x4827, {0xb7, 0x84, 0x7f, 0xfd, 0xc4, 0xb6, 0x
 16222      524E475F 
 16222      414C474F 
 16222      52495448 
 16222      4D5F5241 
 16223 b2ec 01       		.byte	0x1
 16224 b2ed 9F0A     		.uleb128 0x51f
 16225 b2ef 4546495F 		.ascii "EFI_PLATFORM_DRIVER_OVERRIDE_PROTOCOL_GUID { 0x6b30c738, 0xa391, 0x11d4, {0x9a, 0x3b, 0x00
 16225      504C4154 
 16225      464F524D 
 16225      5F445249 
 16225      5645525F 
 16226 b36b 01       		.byte	0x1
 16227 b36c C40A     		.uleb128 0x544
 16228 b36e 4546495F 		.ascii "EFI_BUS_SPECIFIC_DRIVER_OVERRIDE_PROTOCOL_GUID { 0x3bc1b285, 0x8a15, 0x4a82, {0xaa, 0xbf, 
 16228      4255535F 
 16228      53504543 
 16228      49464943 
 16228      5F445249 
 16229 b3ee 01       		.byte	0x1
 16230 b3ef D70A     		.uleb128 0x557
 16231 b3f1 4546495F 		.ascii "EFI_DRIVER_FAMILY_OVERRIDE_PROTOCOL_GUID { 0xb1ee129e, 0xda36, 0x4181, {0x91, 0xf8, 0x04, 
 16231      44524956 
 16231      45525F46 
 16231      414D494C 
 16231      595F4F56 
 16232 b46b 01       		.byte	0x1
 16233 b46c E90A     		.uleb128 0x569
 16234 b46e 4546495F 		.ascii "EFI_EBC_INTERPRETER_PROTOCOL_GUID {0x13ac6dd1, 0x73d0, 0x11d4, {0xb0, 0x6b, 0x00, 0xaa, 0x
 16234      4542435F 
 16234      494E5445 
 16234      52505245 
 16234      5445525F 
 16235 b4e0 01       		.byte	0x1
 16236 b4e1 EC0A     		.uleb128 0x56c
 16237 b4e3 4546495F 		.ascii "EFI_EBC_PROTOCOL_GUID EFI_EBC_INTERPRETER_PROTOCOL_GUID\0"
 16237      4542435F 
 16237      50524F54 
 16237      4F434F4C 
 16237      5F475549 
 16238 b51b 04       		.byte	0x4
 16239 b51c 03       		.byte	0x3
 16240 b51d 46       		.uleb128 0x46
 16241 b51e 09       		.uleb128 0x9
 16242 b51f 01       		.byte	0x1
 16243 b520 02       		.uleb128 0x2
 16244 b521 5F454649 		.ascii "_EFI_CON_H \0"
 16244      5F434F4E 
 16244      5F482000 
 16245 b52d 01       		.byte	0x1
 16246 b52e 1A       		.uleb128 0x1a
 16247 b52f 4546495F 		.ascii "EFI_SIMPLE_TEXT_OUTPUT_PROTOCOL_GUID { 0x387477c2, 0x69c7, 0x11d2, {0x8e, 0x39, 0x0, 0xa0,
 16247      53494D50 
 16247      4C455F54 
 16247      4558545F 
 16247      4F555450 
 16248 b5a4 01       		.byte	0x1
 16249 b5a5 1C       		.uleb128 0x1c
 16250 b5a6 53494D50 		.ascii "SIMPLE_TEXT_OUTPUT_PROTOCOL EFI_SIMPLE_TEXT_OUTPUT_PROTOCOL_GUID\0"
 16250      4C455F54 
 16250      4558545F 
 16250      4F555450 
 16250      55545F50 
 16251 b5e7 01       		.byte	0x1
 16252 b5e8 4C       		.uleb128 0x4c
 16253 b5e9 4546495F 		.ascii "EFI_BLACK 0x00\0"
 16253      424C4143 
 16253      4B203078 
 16253      303000
 16254 b5f8 01       		.byte	0x1
 16255 b5f9 4D       		.uleb128 0x4d
 16256 b5fa 4546495F 		.ascii "EFI_BLUE 0x01\0"
 16256      424C5545 
 16256      20307830 
 16256      3100
 16257 b608 01       		.byte	0x1
 16258 b609 4E       		.uleb128 0x4e
 16259 b60a 4546495F 		.ascii "EFI_GREEN 0x02\0"
 16259      47524545 
 16259      4E203078 
 16259      303200
 16260 b619 01       		.byte	0x1
 16261 b61a 4F       		.uleb128 0x4f
 16262 b61b 4546495F 		.ascii "EFI_CYAN (EFI_BLUE | EFI_GREEN)\0"
 16262      4359414E 
 16262      20284546 
 16262      495F424C 
 16262      5545207C 
 16263 b63b 01       		.byte	0x1
 16264 b63c 50       		.uleb128 0x50
 16265 b63d 4546495F 		.ascii "EFI_RED 0x04\0"
 16265      52454420 
 16265      30783034 
 16265      00
 16266 b64a 01       		.byte	0x1
 16267 b64b 51       		.uleb128 0x51
 16268 b64c 4546495F 		.ascii "EFI_MAGENTA (EFI_BLUE | EFI_RED)\0"
 16268      4D414745 
 16268      4E544120 
 16268      28454649 
 16268      5F424C55 
 16269 b66d 01       		.byte	0x1
 16270 b66e 52       		.uleb128 0x52
 16271 b66f 4546495F 		.ascii "EFI_BROWN (EFI_GREEN | EFI_RED)\0"
 16271      42524F57 
 16271      4E202845 
 16271      46495F47 
 16271      5245454E 
 16272 b68f 01       		.byte	0x1
 16273 b690 53       		.uleb128 0x53
 16274 b691 4546495F 		.ascii "EFI_LIGHTGRAY (EFI_BLUE | EFI_GREEN | EFI_RED)\0"
 16274      4C494748 
 16274      54475241 
 16274      59202845 
 16274      46495F42 
 16275 b6c0 01       		.byte	0x1
 16276 b6c1 54       		.uleb128 0x54
 16277 b6c2 4546495F 		.ascii "EFI_BRIGHT 0x08\0"
 16277      42524947 
 16277      48542030 
 16277      78303800 
 16278 b6d2 01       		.byte	0x1
 16279 b6d3 55       		.uleb128 0x55
 16280 b6d4 4546495F 		.ascii "EFI_DARKGRAY (EFI_BRIGHT)\0"
 16280      4441524B 
 16280      47524159 
 16280      20284546 
 16280      495F4252 
 16281 b6ee 01       		.byte	0x1
 16282 b6ef 56       		.uleb128 0x56
 16283 b6f0 4546495F 		.ascii "EFI_LIGHTBLUE (EFI_BLUE | EFI_BRIGHT)\0"
 16283      4C494748 
 16283      54424C55 
 16283      45202845 
 16283      46495F42 
 16284 b716 01       		.byte	0x1
 16285 b717 57       		.uleb128 0x57
 16286 b718 4546495F 		.ascii "EFI_LIGHTGREEN (EFI_GREEN | EFI_BRIGHT)\0"
 16286      4C494748 
 16286      54475245 
 16286      454E2028 
 16286      4546495F 
 16287 b740 01       		.byte	0x1
 16288 b741 58       		.uleb128 0x58
 16289 b742 4546495F 		.ascii "EFI_LIGHTCYAN (EFI_CYAN | EFI_BRIGHT)\0"
 16289      4C494748 
 16289      54435941 
 16289      4E202845 
 16289      46495F43 
 16290 b768 01       		.byte	0x1
 16291 b769 59       		.uleb128 0x59
 16292 b76a 4546495F 		.ascii "EFI_LIGHTRED (EFI_RED | EFI_BRIGHT)\0"
 16292      4C494748 
 16292      54524544 
 16292      20284546 
 16292      495F5245 
 16293 b78e 01       		.byte	0x1
 16294 b78f 5A       		.uleb128 0x5a
 16295 b790 4546495F 		.ascii "EFI_LIGHTMAGENTA (EFI_MAGENTA | EFI_BRIGHT)\0"
 16295      4C494748 
 16295      544D4147 
 16295      454E5441 
 16295      20284546 
 16296 b7bc 01       		.byte	0x1
 16297 b7bd 5B       		.uleb128 0x5b
 16298 b7be 4546495F 		.ascii "EFI_YELLOW (EFI_BROWN | EFI_BRIGHT)\0"
 16298      59454C4C 
 16298      4F572028 
 16298      4546495F 
 16298      42524F57 
 16299 b7e2 01       		.byte	0x1
 16300 b7e3 5C       		.uleb128 0x5c
 16301 b7e4 4546495F 		.ascii "EFI_WHITE (EFI_BLUE | EFI_GREEN | EFI_RED | EFI_BRIGHT)\0"
 16301      57484954 
 16301      45202845 
 16301      46495F42 
 16301      4C554520 
 16302 b81c 01       		.byte	0x1
 16303 b81d 5E       		.uleb128 0x5e
 16304 b81e 4546495F 		.ascii "EFI_TEXT_ATTR(f,b) ((f) | ((b) << 4))\0"
 16304      54455854 
 16304      5F415454 
 16304      5228662C 
 16304      62292028 
 16305 b844 01       		.byte	0x1
 16306 b845 60       		.uleb128 0x60
 16307 b846 4546495F 		.ascii "EFI_BACKGROUND_BLACK 0x00\0"
 16307      4241434B 
 16307      47524F55 
 16307      4E445F42 
 16307      4C41434B 
 16308 b860 01       		.byte	0x1
 16309 b861 61       		.uleb128 0x61
 16310 b862 4546495F 		.ascii "EFI_BACKGROUND_BLUE 0x10\0"
 16310      4241434B 
 16310      47524F55 
 16310      4E445F42 
 16310      4C554520 
 16311 b87b 01       		.byte	0x1
 16312 b87c 62       		.uleb128 0x62
 16313 b87d 4546495F 		.ascii "EFI_BACKGROUND_GREEN 0x20\0"
 16313      4241434B 
 16313      47524F55 
 16313      4E445F47 
 16313      5245454E 
 16314 b897 01       		.byte	0x1
 16315 b898 63       		.uleb128 0x63
 16316 b899 4546495F 		.ascii "EFI_BACKGROUND_CYAN (EFI_BACKGROUND_BLUE | EFI_BACKGROUND_GREEN)\0"
 16316      4241434B 
 16316      47524F55 
 16316      4E445F43 
 16316      59414E20 
 16317 b8da 01       		.byte	0x1
 16318 b8db 64       		.uleb128 0x64
 16319 b8dc 4546495F 		.ascii "EFI_BACKGROUND_RED 0x40\0"
 16319      4241434B 
 16319      47524F55 
 16319      4E445F52 
 16319      45442030 
 16320 b8f4 01       		.byte	0x1
 16321 b8f5 65       		.uleb128 0x65
 16322 b8f6 4546495F 		.ascii "EFI_BACKGROUND_MAGENTA (EFI_BACKGROUND_BLUE | EFI_BACKGROUND_RED)\0"
 16322      4241434B 
 16322      47524F55 
 16322      4E445F4D 
 16322      4147454E 
 16323 b938 01       		.byte	0x1
 16324 b939 66       		.uleb128 0x66
 16325 b93a 4546495F 		.ascii "EFI_BACKGROUND_BROWN (EFI_BACKGROUND_GREEN | EFI_BACKGROUND_RED)\0"
 16325      4241434B 
 16325      47524F55 
 16325      4E445F42 
 16325      524F574E 
 16326 b97b 01       		.byte	0x1
 16327 b97c 67       		.uleb128 0x67
 16328 b97d 4546495F 		.ascii "EFI_BACKGROUND_LIGHTGRAY (EFI_BACKGROUND_BLUE | EFI_BACKGROUND_GREEN | EFI_BACKGROUND_RED)
 16328      4241434B 
 16328      47524F55 
 16328      4E445F4C 
 16328      49474854 
 16329 b9d8 01       		.byte	0x1
 16330 b9d9 9F01     		.uleb128 0x9f
 16331 b9db 424F5844 		.ascii "BOXDRAW_HORIZONTAL 0x2500\0"
 16331      5241575F 
 16331      484F5249 
 16331      5A4F4E54 
 16331      414C2030 
 16332 b9f5 01       		.byte	0x1
 16333 b9f6 A001     		.uleb128 0xa0
 16334 b9f8 424F5844 		.ascii "BOXDRAW_VERTICAL 0x2502\0"
 16334      5241575F 
 16334      56455254 
 16334      4943414C 
 16334      20307832 
 16335 ba10 01       		.byte	0x1
 16336 ba11 A101     		.uleb128 0xa1
 16337 ba13 424F5844 		.ascii "BOXDRAW_DOWN_RIGHT 0x250c\0"
 16337      5241575F 
 16337      444F574E 
 16337      5F524947 
 16337      48542030 
 16338 ba2d 01       		.byte	0x1
 16339 ba2e A201     		.uleb128 0xa2
 16340 ba30 424F5844 		.ascii "BOXDRAW_DOWN_LEFT 0x2510\0"
 16340      5241575F 
 16340      444F574E 
 16340      5F4C4546 
 16340      54203078 
 16341 ba49 01       		.byte	0x1
 16342 ba4a A301     		.uleb128 0xa3
 16343 ba4c 424F5844 		.ascii "BOXDRAW_UP_RIGHT 0x2514\0"
 16343      5241575F 
 16343      55505F52 
 16343      49474854 
 16343      20307832 
 16344 ba64 01       		.byte	0x1
 16345 ba65 A401     		.uleb128 0xa4
 16346 ba67 424F5844 		.ascii "BOXDRAW_UP_LEFT 0x2518\0"
 16346      5241575F 
 16346      55505F4C 
 16346      45465420 
 16346      30783235 
 16347 ba7e 01       		.byte	0x1
 16348 ba7f A501     		.uleb128 0xa5
 16349 ba81 424F5844 		.ascii "BOXDRAW_VERTICAL_RIGHT 0x251c\0"
 16349      5241575F 
 16349      56455254 
 16349      4943414C 
 16349      5F524947 
 16350 ba9f 01       		.byte	0x1
 16351 baa0 A601     		.uleb128 0xa6
 16352 baa2 424F5844 		.ascii "BOXDRAW_VERTICAL_LEFT 0x2524\0"
 16352      5241575F 
 16352      56455254 
 16352      4943414C 
 16352      5F4C4546 
 16353 babf 01       		.byte	0x1
 16354 bac0 A701     		.uleb128 0xa7
 16355 bac2 424F5844 		.ascii "BOXDRAW_DOWN_HORIZONTAL 0x252c\0"
 16355      5241575F 
 16355      444F574E 
 16355      5F484F52 
 16355      495A4F4E 
 16356 bae1 01       		.byte	0x1
 16357 bae2 A801     		.uleb128 0xa8
 16358 bae4 424F5844 		.ascii "BOXDRAW_UP_HORIZONTAL 0x2534\0"
 16358      5241575F 
 16358      55505F48 
 16358      4F52495A 
 16358      4F4E5441 
 16359 bb01 01       		.byte	0x1
 16360 bb02 A901     		.uleb128 0xa9
 16361 bb04 424F5844 		.ascii "BOXDRAW_VERTICAL_HORIZONTAL 0x253c\0"
 16361      5241575F 
 16361      56455254 
 16361      4943414C 
 16361      5F484F52 
 16362 bb27 01       		.byte	0x1
 16363 bb28 AB01     		.uleb128 0xab
 16364 bb2a 424F5844 		.ascii "BOXDRAW_DOUBLE_HORIZONTAL 0x2550\0"
 16364      5241575F 
 16364      444F5542 
 16364      4C455F48 
 16364      4F52495A 
 16365 bb4b 01       		.byte	0x1
 16366 bb4c AC01     		.uleb128 0xac
 16367 bb4e 424F5844 		.ascii "BOXDRAW_DOUBLE_VERTICAL 0x2551\0"
 16367      5241575F 
 16367      444F5542 
 16367      4C455F56 
 16367      45525449 
 16368 bb6d 01       		.byte	0x1
 16369 bb6e AD01     		.uleb128 0xad
 16370 bb70 424F5844 		.ascii "BOXDRAW_DOWN_RIGHT_DOUBLE 0x2552\0"
 16370      5241575F 
 16370      444F574E 
 16370      5F524947 
 16370      48545F44 
 16371 bb91 01       		.byte	0x1
 16372 bb92 AE01     		.uleb128 0xae
 16373 bb94 424F5844 		.ascii "BOXDRAW_DOWN_DOUBLE_RIGHT 0x2553\0"
 16373      5241575F 
 16373      444F574E 
 16373      5F444F55 
 16373      424C455F 
 16374 bbb5 01       		.byte	0x1
 16375 bbb6 AF01     		.uleb128 0xaf
 16376 bbb8 424F5844 		.ascii "BOXDRAW_DOUBLE_DOWN_RIGHT 0x2554\0"
 16376      5241575F 
 16376      444F5542 
 16376      4C455F44 
 16376      4F574E5F 
 16377 bbd9 01       		.byte	0x1
 16378 bbda B101     		.uleb128 0xb1
 16379 bbdc 424F5844 		.ascii "BOXDRAW_DOWN_LEFT_DOUBLE 0x2555\0"
 16379      5241575F 
 16379      444F574E 
 16379      5F4C4546 
 16379      545F444F 
 16380 bbfc 01       		.byte	0x1
 16381 bbfd B201     		.uleb128 0xb2
 16382 bbff 424F5844 		.ascii "BOXDRAW_DOWN_DOUBLE_LEFT 0x2556\0"
 16382      5241575F 
 16382      444F574E 
 16382      5F444F55 
 16382      424C455F 
 16383 bc1f 01       		.byte	0x1
 16384 bc20 B301     		.uleb128 0xb3
 16385 bc22 424F5844 		.ascii "BOXDRAW_DOUBLE_DOWN_LEFT 0x2557\0"
 16385      5241575F 
 16385      444F5542 
 16385      4C455F44 
 16385      4F574E5F 
 16386 bc42 01       		.byte	0x1
 16387 bc43 B501     		.uleb128 0xb5
 16388 bc45 424F5844 		.ascii "BOXDRAW_UP_RIGHT_DOUBLE 0x2558\0"
 16388      5241575F 
 16388      55505F52 
 16388      49474854 
 16388      5F444F55 
 16389 bc64 01       		.byte	0x1
 16390 bc65 B601     		.uleb128 0xb6
 16391 bc67 424F5844 		.ascii "BOXDRAW_UP_DOUBLE_RIGHT 0x2559\0"
 16391      5241575F 
 16391      55505F44 
 16391      4F55424C 
 16391      455F5249 
 16392 bc86 01       		.byte	0x1
 16393 bc87 B701     		.uleb128 0xb7
 16394 bc89 424F5844 		.ascii "BOXDRAW_DOUBLE_UP_RIGHT 0x255a\0"
 16394      5241575F 
 16394      444F5542 
 16394      4C455F55 
 16394      505F5249 
 16395 bca8 01       		.byte	0x1
 16396 bca9 B901     		.uleb128 0xb9
 16397 bcab 424F5844 		.ascii "BOXDRAW_UP_LEFT_DOUBLE 0x255b\0"
 16397      5241575F 
 16397      55505F4C 
 16397      4546545F 
 16397      444F5542 
 16398 bcc9 01       		.byte	0x1
 16399 bcca BA01     		.uleb128 0xba
 16400 bccc 424F5844 		.ascii "BOXDRAW_UP_DOUBLE_LEFT 0x255c\0"
 16400      5241575F 
 16400      55505F44 
 16400      4F55424C 
 16400      455F4C45 
 16401 bcea 01       		.byte	0x1
 16402 bceb BB01     		.uleb128 0xbb
 16403 bced 424F5844 		.ascii "BOXDRAW_DOUBLE_UP_LEFT 0x255d\0"
 16403      5241575F 
 16403      444F5542 
 16403      4C455F55 
 16403      505F4C45 
 16404 bd0b 01       		.byte	0x1
 16405 bd0c BD01     		.uleb128 0xbd
 16406 bd0e 424F5844 		.ascii "BOXDRAW_VERTICAL_RIGHT_DOUBLE 0x255e\0"
 16406      5241575F 
 16406      56455254 
 16406      4943414C 
 16406      5F524947 
 16407 bd33 01       		.byte	0x1
 16408 bd34 BE01     		.uleb128 0xbe
 16409 bd36 424F5844 		.ascii "BOXDRAW_VERTICAL_DOUBLE_RIGHT 0x255f\0"
 16409      5241575F 
 16409      56455254 
 16409      4943414C 
 16409      5F444F55 
 16410 bd5b 01       		.byte	0x1
 16411 bd5c BF01     		.uleb128 0xbf
 16412 bd5e 424F5844 		.ascii "BOXDRAW_DOUBLE_VERTICAL_RIGHT 0x2560\0"
 16412      5241575F 
 16412      444F5542 
 16412      4C455F56 
 16412      45525449 
 16413 bd83 01       		.byte	0x1
 16414 bd84 C101     		.uleb128 0xc1
 16415 bd86 424F5844 		.ascii "BOXDRAW_VERTICAL_LEFT_DOUBLE 0x2561\0"
 16415      5241575F 
 16415      56455254 
 16415      4943414C 
 16415      5F4C4546 
 16416 bdaa 01       		.byte	0x1
 16417 bdab C201     		.uleb128 0xc2
 16418 bdad 424F5844 		.ascii "BOXDRAW_VERTICAL_DOUBLE_LEFT 0x2562\0"
 16418      5241575F 
 16418      56455254 
 16418      4943414C 
 16418      5F444F55 
 16419 bdd1 01       		.byte	0x1
 16420 bdd2 C301     		.uleb128 0xc3
 16421 bdd4 424F5844 		.ascii "BOXDRAW_DOUBLE_VERTICAL_LEFT 0x2563\0"
 16421      5241575F 
 16421      444F5542 
 16421      4C455F56 
 16421      45525449 
 16422 bdf8 01       		.byte	0x1
 16423 bdf9 C501     		.uleb128 0xc5
 16424 bdfb 424F5844 		.ascii "BOXDRAW_DOWN_HORIZONTAL_DOUBLE 0x2564\0"
 16424      5241575F 
 16424      444F574E 
 16424      5F484F52 
 16424      495A4F4E 
 16425 be21 01       		.byte	0x1
 16426 be22 C601     		.uleb128 0xc6
 16427 be24 424F5844 		.ascii "BOXDRAW_DOWN_DOUBLE_HORIZONTAL 0x2565\0"
 16427      5241575F 
 16427      444F574E 
 16427      5F444F55 
 16427      424C455F 
 16428 be4a 01       		.byte	0x1
 16429 be4b C701     		.uleb128 0xc7
 16430 be4d 424F5844 		.ascii "BOXDRAW_DOUBLE_DOWN_HORIZONTAL 0x2566\0"
 16430      5241575F 
 16430      444F5542 
 16430      4C455F44 
 16430      4F574E5F 
 16431 be73 01       		.byte	0x1
 16432 be74 C901     		.uleb128 0xc9
 16433 be76 424F5844 		.ascii "BOXDRAW_UP_HORIZONTAL_DOUBLE 0x2567\0"
 16433      5241575F 
 16433      55505F48 
 16433      4F52495A 
 16433      4F4E5441 
 16434 be9a 01       		.byte	0x1
 16435 be9b CA01     		.uleb128 0xca
 16436 be9d 424F5844 		.ascii "BOXDRAW_UP_DOUBLE_HORIZONTAL 0x2568\0"
 16436      5241575F 
 16436      55505F44 
 16436      4F55424C 
 16436      455F484F 
 16437 bec1 01       		.byte	0x1
 16438 bec2 CB01     		.uleb128 0xcb
 16439 bec4 424F5844 		.ascii "BOXDRAW_DOUBLE_UP_HORIZONTAL 0x2569\0"
 16439      5241575F 
 16439      444F5542 
 16439      4C455F55 
 16439      505F484F 
 16440 bee8 01       		.byte	0x1
 16441 bee9 CD01     		.uleb128 0xcd
 16442 beeb 424F5844 		.ascii "BOXDRAW_VERTICAL_HORIZONTAL_DOUBLE 0x256a\0"
 16442      5241575F 
 16442      56455254 
 16442      4943414C 
 16442      5F484F52 
 16443 bf15 01       		.byte	0x1
 16444 bf16 CE01     		.uleb128 0xce
 16445 bf18 424F5844 		.ascii "BOXDRAW_VERTICAL_DOUBLE_HORIZONTAL 0x256b\0"
 16445      5241575F 
 16445      56455254 
 16445      4943414C 
 16445      5F444F55 
 16446 bf42 01       		.byte	0x1
 16447 bf43 CF01     		.uleb128 0xcf
 16448 bf45 424F5844 		.ascii "BOXDRAW_DOUBLE_VERTICAL_HORIZONTAL 0x256c\0"
 16448      5241575F 
 16448      444F5542 
 16448      4C455F56 
 16448      45525449 
 16449 bf6f 01       		.byte	0x1
 16450 bf70 D501     		.uleb128 0xd5
 16451 bf72 424C4F43 		.ascii "BLOCKELEMENT_FULL_BLOCK 0x2588\0"
 16451      4B454C45 
 16451      4D454E54 
 16451      5F46554C 
 16451      4C5F424C 
 16452 bf91 01       		.byte	0x1
 16453 bf92 D601     		.uleb128 0xd6
 16454 bf94 424C4F43 		.ascii "BLOCKELEMENT_LIGHT_SHADE 0x2591\0"
 16454      4B454C45 
 16454      4D454E54 
 16454      5F4C4947 
 16454      48545F53 
 16455 bfb4 01       		.byte	0x1
 16456 bfb5 DB01     		.uleb128 0xdb
 16457 bfb7 47454F4D 		.ascii "GEOMETRICSHAPE_UP_TRIANGLE 0x25b2\0"
 16457      45545249 
 16457      43534841 
 16457      50455F55 
 16457      505F5452 
 16458 bfd9 01       		.byte	0x1
 16459 bfda DC01     		.uleb128 0xdc
 16460 bfdc 47454F4D 		.ascii "GEOMETRICSHAPE_RIGHT_TRIANGLE 0x25ba\0"
 16460      45545249 
 16460      43534841 
 16460      50455F52 
 16460      49474854 
 16461 c001 01       		.byte	0x1
 16462 c002 DD01     		.uleb128 0xdd
 16463 c004 47454F4D 		.ascii "GEOMETRICSHAPE_DOWN_TRIANGLE 0x25bc\0"
 16463      45545249 
 16463      43534841 
 16463      50455F44 
 16463      4F574E5F 
 16464 c028 01       		.byte	0x1
 16465 c029 DE01     		.uleb128 0xde
 16466 c02b 47454F4D 		.ascii "GEOMETRICSHAPE_LEFT_TRIANGLE 0x25c4\0"
 16466      45545249 
 16466      43534841 
 16466      50455F4C 
 16466      4546545F 
 16467 c04f 01       		.byte	0x1
 16468 c050 E401     		.uleb128 0xe4
 16469 c052 4152524F 		.ascii "ARROW_UP 0x2191\0"
 16469      575F5550 
 16469      20307832 
 16469      31393100 
 16470 c062 01       		.byte	0x1
 16471 c063 E501     		.uleb128 0xe5
 16472 c065 4152524F 		.ascii "ARROW_DOWN 0x2193\0"
 16472      575F444F 
 16472      574E2030 
 16472      78323139 
 16472      3300
 16473 c077 01       		.byte	0x1
 16474 c078 EB01     		.uleb128 0xeb
 16475 c07a 4546495F 		.ascii "EFI_SIMPLE_TEXT_INPUT_PROTOCOL_GUID { 0x387477c1, 0x69c7, 0x11d2, {0x8e, 0x39, 0x0, 0xa0, 
 16475      53494D50 
 16475      4C455F54 
 16475      4558545F 
 16475      494E5055 
 16476 c0ee 01       		.byte	0x1
 16477 c0ef ED01     		.uleb128 0xed
 16478 c0f1 53494D50 		.ascii "SIMPLE_TEXT_INPUT_PROTOCOL EFI_SIMPLE_TEXT_INPUT_PROTOCOL_GUID\0"
 16478      4C455F54 
 16478      4558545F 
 16478      494E5055 
 16478      545F5052 
 16479 c130 01       		.byte	0x1
 16480 c131 FA01     		.uleb128 0xfa
 16481 c133 43484152 		.ascii "CHAR_NULL 0x0000\0"
 16481      5F4E554C 
 16481      4C203078 
 16481      30303030 
 16481      00
 16482 c144 01       		.byte	0x1
 16483 c145 FB01     		.uleb128 0xfb
 16484 c147 43484152 		.ascii "CHAR_BACKSPACE 0x0008\0"
 16484      5F424143 
 16484      4B535041 
 16484      43452030 
 16484      78303030 
 16485 c15d 01       		.byte	0x1
 16486 c15e FC01     		.uleb128 0xfc
 16487 c160 43484152 		.ascii "CHAR_TAB 0x0009\0"
 16487      5F544142 
 16487      20307830 
 16487      30303900 
 16488 c170 01       		.byte	0x1
 16489 c171 FD01     		.uleb128 0xfd
 16490 c173 43484152 		.ascii "CHAR_LINEFEED 0x000A\0"
 16490      5F4C494E 
 16490      45464545 
 16490      44203078 
 16490      30303041 
 16491 c188 01       		.byte	0x1
 16492 c189 FE01     		.uleb128 0xfe
 16493 c18b 43484152 		.ascii "CHAR_CARRIAGE_RETURN 0x000D\0"
 16493      5F434152 
 16493      52494147 
 16493      455F5245 
 16493      5455524E 
 16494 c1a7 01       		.byte	0x1
 16495 c1a8 8402     		.uleb128 0x104
 16496 c1aa 5343414E 		.ascii "SCAN_NULL 0x0000\0"
 16496      5F4E554C 
 16496      4C203078 
 16496      30303030 
 16496      00
 16497 c1bb 01       		.byte	0x1
 16498 c1bc 8502     		.uleb128 0x105
 16499 c1be 5343414E 		.ascii "SCAN_UP 0x0001\0"
 16499      5F555020 
 16499      30783030 
 16499      303100
 16500 c1cd 01       		.byte	0x1
 16501 c1ce 8602     		.uleb128 0x106
 16502 c1d0 5343414E 		.ascii "SCAN_DOWN 0x0002\0"
 16502      5F444F57 
 16502      4E203078 
 16502      30303032 
 16502      00
 16503 c1e1 01       		.byte	0x1
 16504 c1e2 8702     		.uleb128 0x107
 16505 c1e4 5343414E 		.ascii "SCAN_RIGHT 0x0003\0"
 16505      5F524947 
 16505      48542030 
 16505      78303030 
 16505      3300
 16506 c1f6 01       		.byte	0x1
 16507 c1f7 8802     		.uleb128 0x108
 16508 c1f9 5343414E 		.ascii "SCAN_LEFT 0x0004\0"
 16508      5F4C4546 
 16508      54203078 
 16508      30303034 
 16508      00
 16509 c20a 01       		.byte	0x1
 16510 c20b 8902     		.uleb128 0x109
 16511 c20d 5343414E 		.ascii "SCAN_HOME 0x0005\0"
 16511      5F484F4D 
 16511      45203078 
 16511      30303035 
 16511      00
 16512 c21e 01       		.byte	0x1
 16513 c21f 8A02     		.uleb128 0x10a
 16514 c221 5343414E 		.ascii "SCAN_END 0x0006\0"
 16514      5F454E44 
 16514      20307830 
 16514      30303600 
 16515 c231 01       		.byte	0x1
 16516 c232 8B02     		.uleb128 0x10b
 16517 c234 5343414E 		.ascii "SCAN_INSERT 0x0007\0"
 16517      5F494E53 
 16517      45525420 
 16517      30783030 
 16517      303700
 16518 c247 01       		.byte	0x1
 16519 c248 8C02     		.uleb128 0x10c
 16520 c24a 5343414E 		.ascii "SCAN_DELETE 0x0008\0"
 16520      5F44454C 
 16520      45544520 
 16520      30783030 
 16520      303800
 16521 c25d 01       		.byte	0x1
 16522 c25e 8D02     		.uleb128 0x10d
 16523 c260 5343414E 		.ascii "SCAN_PAGE_UP 0x0009\0"
 16523      5F504147 
 16523      455F5550 
 16523      20307830 
 16523      30303900 
 16524 c274 01       		.byte	0x1
 16525 c275 8E02     		.uleb128 0x10e
 16526 c277 5343414E 		.ascii "SCAN_PAGE_DOWN 0x000A\0"
 16526      5F504147 
 16526      455F444F 
 16526      574E2030 
 16526      78303030 
 16527 c28d 01       		.byte	0x1
 16528 c28e 8F02     		.uleb128 0x10f
 16529 c290 5343414E 		.ascii "SCAN_F1 0x000B\0"
 16529      5F463120 
 16529      30783030 
 16529      304200
 16530 c29f 01       		.byte	0x1
 16531 c2a0 9002     		.uleb128 0x110
 16532 c2a2 5343414E 		.ascii "SCAN_F2 0x000C\0"
 16532      5F463220 
 16532      30783030 
 16532      304300
 16533 c2b1 01       		.byte	0x1
 16534 c2b2 9102     		.uleb128 0x111
 16535 c2b4 5343414E 		.ascii "SCAN_F3 0x000D\0"
 16535      5F463320 
 16535      30783030 
 16535      304400
 16536 c2c3 01       		.byte	0x1
 16537 c2c4 9202     		.uleb128 0x112
 16538 c2c6 5343414E 		.ascii "SCAN_F4 0x000E\0"
 16538      5F463420 
 16538      30783030 
 16538      304500
 16539 c2d5 01       		.byte	0x1
 16540 c2d6 9302     		.uleb128 0x113
 16541 c2d8 5343414E 		.ascii "SCAN_F5 0x000F\0"
 16541      5F463520 
 16541      30783030 
 16541      304600
 16542 c2e7 01       		.byte	0x1
 16543 c2e8 9402     		.uleb128 0x114
 16544 c2ea 5343414E 		.ascii "SCAN_F6 0x0010\0"
 16544      5F463620 
 16544      30783030 
 16544      313000
 16545 c2f9 01       		.byte	0x1
 16546 c2fa 9502     		.uleb128 0x115
 16547 c2fc 5343414E 		.ascii "SCAN_F7 0x0011\0"
 16547      5F463720 
 16547      30783030 
 16547      313100
 16548 c30b 01       		.byte	0x1
 16549 c30c 9602     		.uleb128 0x116
 16550 c30e 5343414E 		.ascii "SCAN_F8 0x0012\0"
 16550      5F463820 
 16550      30783030 
 16550      313200
 16551 c31d 01       		.byte	0x1
 16552 c31e 9702     		.uleb128 0x117
 16553 c320 5343414E 		.ascii "SCAN_F9 0x0013\0"
 16553      5F463920 
 16553      30783030 
 16553      313300
 16554 c32f 01       		.byte	0x1
 16555 c330 9802     		.uleb128 0x118
 16556 c332 5343414E 		.ascii "SCAN_F10 0x0014\0"
 16556      5F463130 
 16556      20307830 
 16556      30313400 
 16557 c342 01       		.byte	0x1
 16558 c343 9902     		.uleb128 0x119
 16559 c345 5343414E 		.ascii "SCAN_F11 0x0015\0"
 16559      5F463131 
 16559      20307830 
 16559      30313500 
 16560 c355 01       		.byte	0x1
 16561 c356 9A02     		.uleb128 0x11a
 16562 c358 5343414E 		.ascii "SCAN_F12 0x0016\0"
 16562      5F463132 
 16562      20307830 
 16562      30313600 
 16563 c368 01       		.byte	0x1
 16564 c369 9B02     		.uleb128 0x11b
 16565 c36b 5343414E 		.ascii "SCAN_ESC 0x0017\0"
 16565      5F455343 
 16565      20307830 
 16565      30313700 
 16566 c37b 04       		.byte	0x4
 16567              		.file 23 "gnu-efi-3.0.18/inc/eficonex.h"
 16568 c37c 03       		.byte	0x3
 16569 c37d 47       		.uleb128 0x47
 16570 c37e 17       		.uleb128 0x17
 16571 c37f 01       		.byte	0x1
 16572 c380 02       		.uleb128 0x2
 16573 c381 5F454649 		.ascii "_EFI_CONEX_H \0"
 16573      5F434F4E 
 16573      45585F48 
 16573      2000
 16574 c38f 01       		.byte	0x1
 16575 c390 16       		.uleb128 0x16
 16576 c391 4546495F 		.ascii "EFI_SIMPLE_TEXT_INPUT_EX_PROTOCOL_GUID { 0xdd9e7534, 0x7762, 0x4698, {0x8c, 0x14, 0xf5, 0x
 16576      53494D50 
 16576      4C455F54 
 16576      4558545F 
 16576      494E5055 
 16577 c409 01       		.byte	0x1
 16578 c40a 28       		.uleb128 0x28
 16579 c40b 4546495F 		.ascii "EFI_SHIFT_STATE_VALID 0x80000000\0"
 16579      53484946 
 16579      545F5354 
 16579      4154455F 
 16579      56414C49 
 16580 c42c 01       		.byte	0x1
 16581 c42d 29       		.uleb128 0x29
 16582 c42e 4546495F 		.ascii "EFI_RIGHT_SHIFT_PRESSED 0x00000001\0"
 16582      52494748 
 16582      545F5348 
 16582      4946545F 
 16582      50524553 
 16583 c451 01       		.byte	0x1
 16584 c452 2A       		.uleb128 0x2a
 16585 c453 4546495F 		.ascii "EFI_LEFT_SHIFT_PRESSED 0x00000002\0"
 16585      4C454654 
 16585      5F534849 
 16585      46545F50 
 16585      52455353 
 16586 c475 01       		.byte	0x1
 16587 c476 2B       		.uleb128 0x2b
 16588 c477 4546495F 		.ascii "EFI_RIGHT_CONTROL_PRESSED 0x00000004\0"
 16588      52494748 
 16588      545F434F 
 16588      4E54524F 
 16588      4C5F5052 
 16589 c49c 01       		.byte	0x1
 16590 c49d 2C       		.uleb128 0x2c
 16591 c49e 4546495F 		.ascii "EFI_LEFT_CONTROL_PRESSED 0x00000008\0"
 16591      4C454654 
 16591      5F434F4E 
 16591      54524F4C 
 16591      5F505245 
 16592 c4c2 01       		.byte	0x1
 16593 c4c3 2D       		.uleb128 0x2d
 16594 c4c4 4546495F 		.ascii "EFI_RIGHT_ALT_PRESSED 0x00000010\0"
 16594      52494748 
 16594      545F414C 
 16594      545F5052 
 16594      45535345 
 16595 c4e5 01       		.byte	0x1
 16596 c4e6 2E       		.uleb128 0x2e
 16597 c4e7 4546495F 		.ascii "EFI_LEFT_ALT_PRESSED 0x00000020\0"
 16597      4C454654 
 16597      5F414C54 
 16597      5F505245 
 16597      53534544 
 16598 c507 01       		.byte	0x1
 16599 c508 2F       		.uleb128 0x2f
 16600 c509 4546495F 		.ascii "EFI_RIGHT_LOGO_PRESSED 0x00000040\0"
 16600      52494748 
 16600      545F4C4F 
 16600      474F5F50 
 16600      52455353 
 16601 c52b 01       		.byte	0x1
 16602 c52c 30       		.uleb128 0x30
 16603 c52d 4546495F 		.ascii "EFI_LEFT_LOGO_PRESSED 0x00000080\0"
 16603      4C454654 
 16603      5F4C4F47 
 16603      4F5F5052 
 16603      45535345 
 16604 c54e 01       		.byte	0x1
 16605 c54f 31       		.uleb128 0x31
 16606 c550 4546495F 		.ascii "EFI_MENU_KEY_PRESSED 0x00000100\0"
 16606      4D454E55 
 16606      5F4B4559 
 16606      5F505245 
 16606      53534544 
 16607 c570 01       		.byte	0x1
 16608 c571 32       		.uleb128 0x32
 16609 c572 4546495F 		.ascii "EFI_SYS_REQ_PRESSED 0x00000200\0"
 16609      5359535F 
 16609      5245515F 
 16609      50524553 
 16609      53454420 
 16610 c591 01       		.byte	0x1
 16611 c592 35       		.uleb128 0x35
 16612 c593 4546495F 		.ascii "EFI_TOGGLE_STATE_VALID 0x80\0"
 16612      544F4747 
 16612      4C455F53 
 16612      54415445 
 16612      5F56414C 
 16613 c5af 01       		.byte	0x1
 16614 c5b0 36       		.uleb128 0x36
 16615 c5b1 4546495F 		.ascii "EFI_KEY_STATE_EXPOSED 0x40\0"
 16615      4B45595F 
 16615      53544154 
 16615      455F4558 
 16615      504F5345 
 16616 c5cc 01       		.byte	0x1
 16617 c5cd 37       		.uleb128 0x37
 16618 c5ce 4546495F 		.ascii "EFI_SCROLL_LOCK_ACTIVE 0x01\0"
 16618      5343524F 
 16618      4C4C5F4C 
 16618      4F434B5F 
 16618      41435449 
 16619 c5ea 01       		.byte	0x1
 16620 c5eb 38       		.uleb128 0x38
 16621 c5ec 4546495F 		.ascii "EFI_NUM_LOCK_ACTIVE 0x02\0"
 16621      4E554D5F 
 16621      4C4F434B 
 16621      5F414354 
 16621      49564520 
 16622 c605 01       		.byte	0x1
 16623 c606 39       		.uleb128 0x39
 16624 c607 4546495F 		.ascii "EFI_CAPS_LOCK_ACTIVE 0x04\0"
 16624      43415053 
 16624      5F4C4F43 
 16624      4B5F4143 
 16624      54495645 
 16625 c621 04       		.byte	0x4
 16626              		.file 24 "gnu-efi-3.0.18/inc/efiser.h"
 16627 c622 03       		.byte	0x3
 16628 c623 48       		.uleb128 0x48
 16629 c624 18       		.uleb128 0x18
 16630 c625 01       		.byte	0x1
 16631 c626 02       		.uleb128 0x2
 16632 c627 5F454649 		.ascii "_EFI_SER_H \0"
 16632      5F534552 
 16632      5F482000 
 16633 c633 01       		.byte	0x1
 16634 c634 18       		.uleb128 0x18
 16635 c635 4546495F 		.ascii "EFI_SERIAL_IO_PROTOCOL_GUID { 0xBB25CF6F, 0xF1D4, 0x11D2, {0x9A, 0x0C, 0x00, 0x90, 0x27, 0
 16635      53455249 
 16635      414C5F49 
 16635      4F5F5052 
 16635      4F544F43 
 16636 c6a2 01       		.byte	0x1
 16637 c6a3 1A       		.uleb128 0x1a
 16638 c6a4 53455249 		.ascii "SERIAL_IO_PROTOCOL EFI_SERIAL_IO_PROTOCOL_GUID\0"
 16638      414C5F49 
 16638      4F5F5052 
 16638      4F544F43 
 16638      4F4C2045 
 16639 c6d3 01       		.byte	0x1
 16640 c6d4 2E       		.uleb128 0x2e
 16641 c6d5 4546495F 		.ascii "EFI_SERIAL_CLEAR_TO_SEND 0x0010\0"
 16641      53455249 
 16641      414C5F43 
 16641      4C454152 
 16641      5F544F5F 
 16642 c6f5 01       		.byte	0x1
 16643 c6f6 2F       		.uleb128 0x2f
 16644 c6f7 4546495F 		.ascii "EFI_SERIAL_DATA_SET_READY 0x0020\0"
 16644      53455249 
 16644      414C5F44 
 16644      4154415F 
 16644      5345545F 
 16645 c718 01       		.byte	0x1
 16646 c719 30       		.uleb128 0x30
 16647 c71a 4546495F 		.ascii "EFI_SERIAL_RING_INDICATE 0x0040\0"
 16647      53455249 
 16647      414C5F52 
 16647      494E475F 
 16647      494E4449 
 16648 c73a 01       		.byte	0x1
 16649 c73b 31       		.uleb128 0x31
 16650 c73c 4546495F 		.ascii "EFI_SERIAL_CARRIER_DETECT 0x0080\0"
 16650      53455249 
 16650      414C5F43 
 16650      41525249 
 16650      45525F44 
 16651 c75d 01       		.byte	0x1
 16652 c75e 32       		.uleb128 0x32
 16653 c75f 4546495F 		.ascii "EFI_SERIAL_REQUEST_TO_SEND 0x0002\0"
 16653      53455249 
 16653      414C5F52 
 16653      45515545 
 16653      53545F54 
 16654 c781 01       		.byte	0x1
 16655 c782 33       		.uleb128 0x33
 16656 c783 4546495F 		.ascii "EFI_SERIAL_DATA_TERMINAL_READY 0x0001\0"
 16656      53455249 
 16656      414C5F44 
 16656      4154415F 
 16656      5445524D 
 16657 c7a9 01       		.byte	0x1
 16658 c7aa 34       		.uleb128 0x34
 16659 c7ab 4546495F 		.ascii "EFI_SERIAL_INPUT_BUFFER_EMPTY 0x0100\0"
 16659      53455249 
 16659      414C5F49 
 16659      4E505554 
 16659      5F425546 
 16660 c7d0 01       		.byte	0x1
 16661 c7d1 35       		.uleb128 0x35
 16662 c7d2 4546495F 		.ascii "EFI_SERIAL_OUTPUT_BUFFER_EMPTY 0x0200\0"
 16662      53455249 
 16662      414C5F4F 
 16662      55545055 
 16662      545F4255 
 16663 c7f8 01       		.byte	0x1
 16664 c7f9 36       		.uleb128 0x36
 16665 c7fa 4546495F 		.ascii "EFI_SERIAL_HARDWARE_LOOPBACK_ENABLE 0x1000\0"
 16665      53455249 
 16665      414C5F48 
 16665      41524457 
 16665      4152455F 
 16666 c825 01       		.byte	0x1
 16667 c826 37       		.uleb128 0x37
 16668 c827 4546495F 		.ascii "EFI_SERIAL_SOFTWARE_LOOPBACK_ENABLE 0x2000\0"
 16668      53455249 
 16668      414C5F53 
 16668      4F465457 
 16668      4152455F 
 16669 c852 01       		.byte	0x1
 16670 c853 38       		.uleb128 0x38
 16671 c854 4546495F 		.ascii "EFI_SERIAL_HARDWARE_FLOW_CONTROL_ENABLE 0x4000\0"
 16671      53455249 
 16671      414C5F48 
 16671      41524457 
 16671      4152455F 
 16672 c883 01       		.byte	0x1
 16673 c884 76       		.uleb128 0x76
 16674 c885 53455249 		.ascii "SERIAL_IO_INTERFACE_REVISION 0x00010000\0"
 16674      414C5F49 
 16674      4F5F494E 
 16674      54455246 
 16674      4143455F 
 16675 c8ad 04       		.byte	0x4
 16676              		.file 25 "gnu-efi-3.0.18/inc/efi_nii.h"
 16677 c8ae 03       		.byte	0x3
 16678 c8af 49       		.uleb128 0x49
 16679 c8b0 19       		.uleb128 0x19
 16680 c8b1 01       		.byte	0x1
 16681 c8b2 02       		.uleb128 0x2
 16682 c8b3 5F454649 		.ascii "_EFI_NII_H \0"
 16682      5F4E4949 
 16682      5F482000 
 16683 c8bf 01       		.byte	0x1
 16684 c8c0 14       		.uleb128 0x14
 16685 c8c1 4546495F 		.ascii "EFI_NETWORK_INTERFACE_IDENTIFIER_PROTOCOL_GUID { 0xE18541CD, 0xF755, 0x4f73, {0x92, 0x8D, 
 16685      4E455457 
 16685      4F524B5F 
 16685      494E5445 
 16685      52464143 
 16686 c941 01       		.byte	0x1
 16687 c942 17       		.uleb128 0x17
 16688 c943 4546495F 		.ascii "EFI_NETWORK_INTERFACE_IDENTIFIER_PROTOCOL_REVISION 0x00010000\0"
 16688      4E455457 
 16688      4F524B5F 
 16688      494E5445 
 16688      52464143 
 16689 c981 01       		.byte	0x1
 16690 c982 18       		.uleb128 0x18
 16691 c983 4546495F 		.ascii "EFI_NETWORK_INTERFACE_IDENTIFIER_INTERFACE_REVISION EFI_NETWORK_INTERFACE_IDENTIFIER_PROTO
 16691      4E455457 
 16691      4F524B5F 
 16691      494E5445 
 16691      52464143 
 16692 c9ea 04       		.byte	0x4
 16693              		.file 26 "gnu-efi-3.0.18/inc/efipxebc.h"
 16694 c9eb 03       		.byte	0x3
 16695 c9ec 4A       		.uleb128 0x4a
 16696 c9ed 1A       		.uleb128 0x1a
 16697 c9ee 01       		.byte	0x1
 16698 c9ef 02       		.uleb128 0x2
 16699 c9f0 5F454649 		.ascii "_EFIPXEBC_H \0"
 16699      50584542 
 16699      435F4820 
 16699      00
 16700 c9fd 01       		.byte	0x1
 16701 c9fe 1A       		.uleb128 0x1a
 16702 c9ff 4546495F 		.ascii "EFI_PXE_BASE_CODE_PROTOCOL_GUID { 0x03c4e603, 0xac28, 0x11d3, {0x9a, 0x2d, 0x00, 0x90, 0x2
 16702      5058455F 
 16702      42415345 
 16702      5F434F44 
 16702      455F5052 
 16703 ca70 01       		.byte	0x1
 16704 ca71 1F       		.uleb128 0x1f
 16705 ca72 44454641 		.ascii "DEFAULT_TTL 4\0"
 16705      554C545F 
 16705      54544C20 
 16705      3400
 16706 ca80 01       		.byte	0x1
 16707 ca81 20       		.uleb128 0x20
 16708 ca82 44454641 		.ascii "DEFAULT_ToS 0\0"
 16708      554C545F 
 16708      546F5320 
 16708      3000
 16709 ca90 01       		.byte	0x1
 16710 ca91 68       		.uleb128 0x68
 16711 ca92 4546495F 		.ascii "EFI_PXE_BASE_CODE_MAX_IPCNT 8\0"
 16711      5058455F 
 16711      42415345 
 16711      5F434F44 
 16711      455F4D41 
 16712 cab0 01       		.byte	0x1
 16713 cab1 70       		.uleb128 0x70
 16714 cab2 4546495F 		.ascii "EFI_PXE_BASE_CODE_IP_FILTER_STATION_IP 0x0001\0"
 16714      5058455F 
 16714      42415345 
 16714      5F434F44 
 16714      455F4950 
 16715 cae0 01       		.byte	0x1
 16716 cae1 71       		.uleb128 0x71
 16717 cae2 4546495F 		.ascii "EFI_PXE_BASE_CODE_IP_FILTER_BROADCAST 0x0002\0"
 16717      5058455F 
 16717      42415345 
 16717      5F434F44 
 16717      455F4950 
 16718 cb0f 01       		.byte	0x1
 16719 cb10 72       		.uleb128 0x72
 16720 cb11 4546495F 		.ascii "EFI_PXE_BASE_CODE_IP_FILTER_PROMISCUOUS 0x0004\0"
 16720      5058455F 
 16720      42415345 
 16720      5F434F44 
 16720      455F4950 
 16721 cb40 01       		.byte	0x1
 16722 cb41 73       		.uleb128 0x73
 16723 cb42 4546495F 		.ascii "EFI_PXE_BASE_CODE_IP_FILTER_PROMISCUOUS_MULTICAST 0x0008\0"
 16723      5058455F 
 16723      42415345 
 16723      5F434F44 
 16723      455F4950 
 16724 cb7b 01       		.byte	0x1
 16725 cb7c 8801     		.uleb128 0x88
 16726 cb7e 4546495F 		.ascii "EFI_PXE_BASE_CODE_UDP_OPFLAGS_ANY_SRC_IP 0x0001\0"
 16726      5058455F 
 16726      42415345 
 16726      5F434F44 
 16726      455F5544 
 16727 cbae 01       		.byte	0x1
 16728 cbaf 8901     		.uleb128 0x89
 16729 cbb1 4546495F 		.ascii "EFI_PXE_BASE_CODE_UDP_OPFLAGS_ANY_SRC_PORT 0x0002\0"
 16729      5058455F 
 16729      42415345 
 16729      5F434F44 
 16729      455F5544 
 16730 cbe3 01       		.byte	0x1
 16731 cbe4 8A01     		.uleb128 0x8a
 16732 cbe6 4546495F 		.ascii "EFI_PXE_BASE_CODE_UDP_OPFLAGS_ANY_DEST_IP 0x0004\0"
 16732      5058455F 
 16732      42415345 
 16732      5F434F44 
 16732      455F5544 
 16733 cc17 01       		.byte	0x1
 16734 cc18 8B01     		.uleb128 0x8b
 16735 cc1a 4546495F 		.ascii "EFI_PXE_BASE_CODE_UDP_OPFLAGS_ANY_DEST_PORT 0x0008\0"
 16735      5058455F 
 16735      42415345 
 16735      5F434F44 
 16735      455F5544 
 16736 cc4d 01       		.byte	0x1
 16737 cc4e 8C01     		.uleb128 0x8c
 16738 cc50 4546495F 		.ascii "EFI_PXE_BASE_CODE_UDP_OPFLAGS_USE_FILTER 0x0010\0"
 16738      5058455F 
 16738      42415345 
 16738      5F434F44 
 16738      455F5544 
 16739 cc80 01       		.byte	0x1
 16740 cc81 8D01     		.uleb128 0x8d
 16741 cc83 4546495F 		.ascii "EFI_PXE_BASE_CODE_UDP_OPFLAGS_MAY_FRAGMENT 0x0020\0"
 16741      5058455F 
 16741      42415345 
 16741      5F434F44 
 16741      455F5544 
 16742 ccb5 01       		.byte	0x1
 16743 ccb6 9301     		.uleb128 0x93
 16744 ccb8 4546495F 		.ascii "EFI_PXE_BASE_CODE_BOOT_TYPE_BOOTSTRAP 0\0"
 16744      5058455F 
 16744      42415345 
 16744      5F434F44 
 16744      455F424F 
 16745 cce0 01       		.byte	0x1
 16746 cce1 9401     		.uleb128 0x94
 16747 cce3 4546495F 		.ascii "EFI_PXE_BASE_CODE_BOOT_TYPE_MS_WINNT_RIS 1\0"
 16747      5058455F 
 16747      42415345 
 16747      5F434F44 
 16747      455F424F 
 16748 cd0e 01       		.byte	0x1
 16749 cd0f 9501     		.uleb128 0x95
 16750 cd11 4546495F 		.ascii "EFI_PXE_BASE_CODE_BOOT_TYPE_INTEL_LCM 2\0"
 16750      5058455F 
 16750      42415345 
 16750      5F434F44 
 16750      455F424F 
 16751 cd39 01       		.byte	0x1
 16752 cd3a 9601     		.uleb128 0x96
 16753 cd3c 4546495F 		.ascii "EFI_PXE_BASE_CODE_BOOT_TYPE_DOSUNDI 3\0"
 16753      5058455F 
 16753      42415345 
 16753      5F434F44 
 16753      455F424F 
 16754 cd62 01       		.byte	0x1
 16755 cd63 9701     		.uleb128 0x97
 16756 cd65 4546495F 		.ascii "EFI_PXE_BASE_CODE_BOOT_TYPE_NEC_ESMPRO 4\0"
 16756      5058455F 
 16756      42415345 
 16756      5F434F44 
 16756      455F424F 
 16757 cd8e 01       		.byte	0x1
 16758 cd8f 9801     		.uleb128 0x98
 16759 cd91 4546495F 		.ascii "EFI_PXE_BASE_CODE_BOOT_TYPE_IBM_WSoD 5\0"
 16759      5058455F 
 16759      42415345 
 16759      5F434F44 
 16759      455F424F 
 16760 cdb8 01       		.byte	0x1
 16761 cdb9 9901     		.uleb128 0x99
 16762 cdbb 4546495F 		.ascii "EFI_PXE_BASE_CODE_BOOT_TYPE_IBM_LCCM 6\0"
 16762      5058455F 
 16762      42415345 
 16762      5F434F44 
 16762      455F424F 
 16763 cde2 01       		.byte	0x1
 16764 cde3 9A01     		.uleb128 0x9a
 16765 cde5 4546495F 		.ascii "EFI_PXE_BASE_CODE_BOOT_TYPE_CA_UNICENTER_TNG 7\0"
 16765      5058455F 
 16765      42415345 
 16765      5F434F44 
 16765      455F424F 
 16766 ce14 01       		.byte	0x1
 16767 ce15 9B01     		.uleb128 0x9b
 16768 ce17 4546495F 		.ascii "EFI_PXE_BASE_CODE_BOOT_TYPE_HP_OPENVIEW 8\0"
 16768      5058455F 
 16768      42415345 
 16768      5F434F44 
 16768      455F424F 
 16769 ce41 01       		.byte	0x1
 16770 ce42 9C01     		.uleb128 0x9c
 16771 ce44 4546495F 		.ascii "EFI_PXE_BASE_CODE_BOOT_TYPE_ALTIRIS_9 9\0"
 16771      5058455F 
 16771      42415345 
 16771      5F434F44 
 16771      455F424F 
 16772 ce6c 01       		.byte	0x1
 16773 ce6d 9D01     		.uleb128 0x9d
 16774 ce6f 4546495F 		.ascii "EFI_PXE_BASE_CODE_BOOT_TYPE_ALTIRIS_10 10\0"
 16774      5058455F 
 16774      42415345 
 16774      5F434F44 
 16774      455F424F 
 16775 ce99 01       		.byte	0x1
 16776 ce9a 9E01     		.uleb128 0x9e
 16777 ce9c 4546495F 		.ascii "EFI_PXE_BASE_CODE_BOOT_TYPE_ALTIRIS_11 11\0"
 16777      5058455F 
 16777      42415345 
 16777      5F434F44 
 16777      455F424F 
 16778 cec6 01       		.byte	0x1
 16779 cec7 9F01     		.uleb128 0x9f
 16780 cec9 4546495F 		.ascii "EFI_PXE_BASE_CODE_BOOT_TYPE_NOT_USED_12 12\0"
 16780      5058455F 
 16780      42415345 
 16780      5F434F44 
 16780      455F424F 
 16781 cef4 01       		.byte	0x1
 16782 cef5 A001     		.uleb128 0xa0
 16783 cef7 4546495F 		.ascii "EFI_PXE_BASE_CODE_BOOT_TYPE_REDHAT_INSTALL 13\0"
 16783      5058455F 
 16783      42415345 
 16783      5F434F44 
 16783      455F424F 
 16784 cf25 01       		.byte	0x1
 16785 cf26 A101     		.uleb128 0xa1
 16786 cf28 4546495F 		.ascii "EFI_PXE_BASE_CODE_BOOT_TYPE_REDHAT_BOOT 14\0"
 16786      5058455F 
 16786      42415345 
 16786      5F434F44 
 16786      455F424F 
 16787 cf53 01       		.byte	0x1
 16788 cf54 A201     		.uleb128 0xa2
 16789 cf56 4546495F 		.ascii "EFI_PXE_BASE_CODE_BOOT_TYPE_REMBO 15\0"
 16789      5058455F 
 16789      42415345 
 16789      5F434F44 
 16789      455F424F 
 16790 cf7b 01       		.byte	0x1
 16791 cf7c A301     		.uleb128 0xa3
 16792 cf7e 4546495F 		.ascii "EFI_PXE_BASE_CODE_BOOT_TYPE_BEOBOOT 16\0"
 16792      5058455F 
 16792      42415345 
 16792      5F434F44 
 16792      455F424F 
 16793 cfa5 01       		.byte	0x1
 16794 cfa6 A901     		.uleb128 0xa9
 16795 cfa8 4546495F 		.ascii "EFI_PXE_BASE_CODE_BOOT_TYPE_PXETEST 65535\0"
 16795      5058455F 
 16795      42415345 
 16795      5F434F44 
 16795      455F424F 
 16796 cfd2 01       		.byte	0x1
 16797 cfd3 AB01     		.uleb128 0xab
 16798 cfd5 4546495F 		.ascii "EFI_PXE_BASE_CODE_BOOT_LAYER_MASK 0x7FFF\0"
 16798      5058455F 
 16798      42415345 
 16798      5F434F44 
 16798      455F424F 
 16799 cffe 01       		.byte	0x1
 16800 cfff AC01     		.uleb128 0xac
 16801 d001 4546495F 		.ascii "EFI_PXE_BASE_CODE_BOOT_LAYER_INITIAL 0x0000\0"
 16801      5058455F 
 16801      42415345 
 16801      5F434F44 
 16801      455F424F 
 16802 d02d 01       		.byte	0x1
 16803 d02e DC01     		.uleb128 0xdc
 16804 d030 4546495F 		.ascii "EFI_PXE_BASE_CODE_MAX_ARP_ENTRIES 8\0"
 16804      5058455F 
 16804      42415345 
 16804      5F434F44 
 16804      455F4D41 
 16805 d054 01       		.byte	0x1
 16806 d055 DD01     		.uleb128 0xdd
 16807 d057 4546495F 		.ascii "EFI_PXE_BASE_CODE_MAX_ROUTE_ENTRIES 8\0"
 16807      5058455F 
 16807      42415345 
 16807      5F434F44 
 16807      455F4D41 
 16808 d07d 01       		.byte	0x1
 16809 d07e 8C03     		.uleb128 0x18c
 16810 d080 4546495F 		.ascii "EFI_PXE_BASE_CODE_PROTOCOL_REVISION 0x00010000\0"
 16810      5058455F 
 16810      42415345 
 16810      5F434F44 
 16810      455F5052 
 16811 d0af 01       		.byte	0x1
 16812 d0b0 8D03     		.uleb128 0x18d
 16813 d0b2 4546495F 		.ascii "EFI_PXE_BASE_CODE_INTERFACE_REVISION EFI_PXE_BASE_CODE_PROTOCOL_REVISION\0"
 16813      5058455F 
 16813      42415345 
 16813      5F434F44 
 16813      455F494E 
 16814 d0fb 01       		.byte	0x1
 16815 d0fc AC03     		.uleb128 0x1ac
 16816 d0fe 4546495F 		.ascii "EFI_PXE_BASE_CODE_CALLBACK_PROTOCOL_GUID { 0x245dca21, 0xfb7b, 0x11d3, {0x8f, 0x01, 0x00, 
 16816      5058455F 
 16816      42415345 
 16816      5F434F44 
 16816      455F4341 
 16817 d178 01       		.byte	0x1
 16818 d179 B303     		.uleb128 0x1b3
 16819 d17b 4546495F 		.ascii "EFI_PXE_BASE_CODE_CALLBACK_PROTOCOL_REVISION 0x00010000\0"
 16819      5058455F 
 16819      42415345 
 16819      5F434F44 
 16819      455F4341 
 16820 d1b3 01       		.byte	0x1
 16821 d1b4 B403     		.uleb128 0x1b4
 16822 d1b6 4546495F 		.ascii "EFI_PXE_BASE_CODE_CALLBACK_INTERFACE_REVISION EFI_PXE_BASE_CODE_CALLBACK_PROTOCOL_REVISION
 16822      5058455F 
 16822      42415345 
 16822      5F434F44 
 16822      455F4341 
 16823 d211 04       		.byte	0x4
 16824              		.file 27 "gnu-efi-3.0.18/inc/efinet.h"
 16825 d212 03       		.byte	0x3
 16826 d213 4B       		.uleb128 0x4b
 16827 d214 1B       		.uleb128 0x1b
 16828 d215 01       		.byte	0x1
 16829 d216 02       		.uleb128 0x2
 16830 d217 5F454649 		.ascii "_EFINET_H \0"
 16830      4E45545F 
 16830      482000
 16831 d222 01       		.byte	0x1
 16832 d223 17       		.uleb128 0x17
 16833 d224 4546495F 		.ascii "EFI_SIMPLE_NETWORK_PROTOCOL_GUID { 0xA19832B9, 0xAC25, 0x11D3, {0x9A, 0x2D, 0x00, 0x90, 0x
 16833      53494D50 
 16833      4C455F4E 
 16833      4554574F 
 16833      524B5F50 
 16834 d296 01       		.byte	0x1
 16835 d297 7D       		.uleb128 0x7d
 16836 d298 4546495F 		.ascii "EFI_SIMPLE_NETWORK_RECEIVE_UNICAST 0x01\0"
 16836      53494D50 
 16836      4C455F4E 
 16836      4554574F 
 16836      524B5F52 
 16837 d2c0 01       		.byte	0x1
 16838 d2c1 7E       		.uleb128 0x7e
 16839 d2c2 4546495F 		.ascii "EFI_SIMPLE_NETWORK_RECEIVE_MULTICAST 0x02\0"
 16839      53494D50 
 16839      4C455F4E 
 16839      4554574F 
 16839      524B5F52 
 16840 d2ec 01       		.byte	0x1
 16841 d2ed 7F       		.uleb128 0x7f
 16842 d2ee 4546495F 		.ascii "EFI_SIMPLE_NETWORK_RECEIVE_BROADCAST 0x04\0"
 16842      53494D50 
 16842      4C455F4E 
 16842      4554574F 
 16842      524B5F52 
 16843 d318 01       		.byte	0x1
 16844 d319 8001     		.uleb128 0x80
 16845 d31b 4546495F 		.ascii "EFI_SIMPLE_NETWORK_RECEIVE_PROMISCUOUS 0x08\0"
 16845      53494D50 
 16845      4C455F4E 
 16845      4554574F 
 16845      524B5F52 
 16846 d347 01       		.byte	0x1
 16847 d348 8101     		.uleb128 0x81
 16848 d34a 4546495F 		.ascii "EFI_SIMPLE_NETWORK_RECEIVE_PROMISCUOUS_MULTICAST 0x10\0"
 16848      53494D50 
 16848      4C455F4E 
 16848      4554574F 
 16848      524B5F52 
 16849 d380 01       		.byte	0x1
 16850 d381 8601     		.uleb128 0x86
 16851 d383 4546495F 		.ascii "EFI_SIMPLE_NETWORK_RECEIVE_INTERRUPT 0x01\0"
 16851      53494D50 
 16851      4C455F4E 
 16851      4554574F 
 16851      524B5F52 
 16852 d3ad 01       		.byte	0x1
 16853 d3ae 8701     		.uleb128 0x87
 16854 d3b0 4546495F 		.ascii "EFI_SIMPLE_NETWORK_TRANSMIT_INTERRUPT 0x02\0"
 16854      53494D50 
 16854      4C455F4E 
 16854      4554574F 
 16854      524B5F54 
 16855 d3db 01       		.byte	0x1
 16856 d3dc 8801     		.uleb128 0x88
 16857 d3de 4546495F 		.ascii "EFI_SIMPLE_NETWORK_COMMAND_INTERRUPT 0x04\0"
 16857      53494D50 
 16857      4C455F4E 
 16857      4554574F 
 16857      524B5F43 
 16858 d408 01       		.byte	0x1
 16859 d409 8901     		.uleb128 0x89
 16860 d40b 4546495F 		.ascii "EFI_SIMPLE_NETWORK_SOFTWARE_INTERRUPT 0x08\0"
 16860      53494D50 
 16860      4C455F4E 
 16860      4554574F 
 16860      524B5F53 
 16861 d436 01       		.byte	0x1
 16862 d437 8D01     		.uleb128 0x8d
 16863 d439 4D41585F 		.ascii "MAX_MCAST_FILTER_CNT 16\0"
 16863      4D434153 
 16863      545F4649 
 16863      4C544552 
 16863      5F434E54 
 16864 d451 01       		.byte	0x1
 16865 d452 BE02     		.uleb128 0x13e
 16866 d454 4546495F 		.ascii "EFI_SIMPLE_NETWORK_PROTOCOL_REVISION 0x00010000\0"
 16866      53494D50 
 16866      4C455F4E 
 16866      4554574F 
 16866      524B5F50 
 16867 d484 01       		.byte	0x1
 16868 d485 BF02     		.uleb128 0x13f
 16869 d487 4546495F 		.ascii "EFI_SIMPLE_NETWORK_INTERFACE_REVISION EFI_SIMPLE_NETWORK_PROTOCOL_REVISION\0"
 16869      53494D50 
 16869      4C455F4E 
 16869      4554574F 
 16869      524B5F49 
 16870 d4d2 04       		.byte	0x4
 16871 d4d3 03       		.byte	0x3
 16872 d4d4 4C       		.uleb128 0x4c
 16873 d4d5 08       		.uleb128 0x8
 16874 d4d6 01       		.byte	0x1
 16875 d4d7 02       		.uleb128 0x2
 16876 d4d8 5F454649 		.ascii "_EFI_API_H \0"
 16876      5F415049 
 16876      5F482000 
 16877 d4e4 01       		.byte	0x1
 16878 d4e5 1B       		.uleb128 0x1b
 16879 d4e6 4546495F 		.ascii "EFI_SPECIFICATION_REVISION_MAJORMINOR(major,minor) ((major<<16) | (minor))\0"
 16879      53504543 
 16879      49464943 
 16879      4154494F 
 16879      4E5F5245 
 16880 d531 01       		.byte	0x1
 16881 d532 1C       		.uleb128 0x1c
 16882 d533 4546495F 		.ascii "EFI_SPECIFICATION_MAJOR_REVISION 1\0"
 16882      53504543 
 16882      49464943 
 16882      4154494F 
 16882      4E5F4D41 
 16883 d556 01       		.byte	0x1
 16884 d557 1D       		.uleb128 0x1d
 16885 d558 4546495F 		.ascii "EFI_SPECIFICATION_MINOR_REVISION 02\0"
 16885      53504543 
 16885      49464943 
 16885      4154494F 
 16885      4E5F4D49 
 16886 d57c 01       		.byte	0x1
 16887 d57d 1E       		.uleb128 0x1e
 16888 d57e 4546495F 		.ascii "EFI_SPECIFICATION_VERSION EFI_SPECIFICATION_REVISION_MAJORMINOR(EFI_SPECIFICATION_MAJOR_RE
 16888      53504543 
 16888      49464943 
 16888      4154494F 
 16888      4E5F5645 
 16889 d602 01       		.byte	0x1
 16890 d603 44       		.uleb128 0x44
 16891 d604 4E657874 		.ascii "NextMemoryDescriptor(Ptr,Size) ((EFI_MEMORY_DESCRIPTOR *) (((UINT8 *) Ptr) + Size))\0"
 16891      4D656D6F 
 16891      72794465 
 16891      73637269 
 16891      70746F72 
 16892 d658 01       		.byte	0x1
 16893 d659 5F       		.uleb128 0x5f
 16894 d65a 4546495F 		.ascii "EFI_OPTIONAL_PTR 0x00000001\0"
 16894      4F505449 
 16894      4F4E414C 
 16894      5F505452 
 16894      20307830 
 16895 d676 01       		.byte	0x1
 16896 d677 60       		.uleb128 0x60
 16897 d678 4546495F 		.ascii "EFI_INTERNAL_FNC 0x00000002\0"
 16897      494E5445 
 16897      524E414C 
 16897      5F464E43 
 16897      20307830 
 16898 d694 01       		.byte	0x1
 16899 d695 61       		.uleb128 0x61
 16900 d696 4546495F 		.ascii "EFI_INTERNAL_PTR 0x00000004\0"
 16900      494E5445 
 16900      524E414C 
 16900      5F505452 
 16900      20307830 
 16901 d6b2 01       		.byte	0x1
 16902 d6b3 70       		.uleb128 0x70
 16903 d6b4 4556545F 		.ascii "EVT_TIMER 0x80000000\0"
 16903      54494D45 
 16903      52203078 
 16903      38303030 
 16903      30303030 
 16904 d6c9 01       		.byte	0x1
 16905 d6ca 71       		.uleb128 0x71
 16906 d6cb 4556545F 		.ascii "EVT_RUNTIME 0x40000000\0"
 16906      52554E54 
 16906      494D4520 
 16906      30783430 
 16906      30303030 
 16907 d6e2 01       		.byte	0x1
 16908 d6e3 72       		.uleb128 0x72
 16909 d6e4 4556545F 		.ascii "EVT_RUNTIME_CONTEXT 0x20000000\0"
 16909      52554E54 
 16909      494D455F 
 16909      434F4E54 
 16909      45585420 
 16910 d703 01       		.byte	0x1
 16911 d704 74       		.uleb128 0x74
 16912 d705 4556545F 		.ascii "EVT_NOTIFY_WAIT 0x00000100\0"
 16912      4E4F5449 
 16912      46595F57 
 16912      41495420 
 16912      30783030 
 16913 d720 01       		.byte	0x1
 16914 d721 75       		.uleb128 0x75
 16915 d722 4556545F 		.ascii "EVT_NOTIFY_SIGNAL 0x00000200\0"
 16915      4E4F5449 
 16915      46595F53 
 16915      49474E41 
 16915      4C203078 
 16916 d73f 01       		.byte	0x1
 16917 d740 77       		.uleb128 0x77
 16918 d741 4556545F 		.ascii "EVT_SIGNAL_EXIT_BOOT_SERVICES 0x00000201\0"
 16918      5349474E 
 16918      414C5F45 
 16918      5849545F 
 16918      424F4F54 
 16919 d76a 01       		.byte	0x1
 16920 d76b 78       		.uleb128 0x78
 16921 d76c 4556545F 		.ascii "EVT_SIGNAL_VIRTUAL_ADDRESS_CHANGE 0x60000202\0"
 16921      5349474E 
 16921      414C5F56 
 16921      49525455 
 16921      414C5F41 
 16922 d799 01       		.byte	0x1
 16923 d79a 7A       		.uleb128 0x7a
 16924 d79b 4556545F 		.ascii "EVT_EFI_SIGNAL_MASK 0x000000FF\0"
 16924      4546495F 
 16924      5349474E 
 16924      414C5F4D 
 16924      41534B20 
 16925 d7ba 01       		.byte	0x1
 16926 d7bb 7B       		.uleb128 0x7b
 16927 d7bc 4556545F 		.ascii "EVT_EFI_SIGNAL_MAX 4\0"
 16927      4546495F 
 16927      5349474E 
 16927      414C5F4D 
 16927      41582034 
 16928 d7d1 01       		.byte	0x1
 16929 d7d2 7D       		.uleb128 0x7d
 16930 d7d3 4546495F 		.ascii "EFI_EVENT_TIMER EVT_TIMER\0"
 16930      4556454E 
 16930      545F5449 
 16930      4D455220 
 16930      4556545F 
 16931 d7ed 01       		.byte	0x1
 16932 d7ee 7E       		.uleb128 0x7e
 16933 d7ef 4546495F 		.ascii "EFI_EVENT_RUNTIME EVT_RUNTIME\0"
 16933      4556454E 
 16933      545F5255 
 16933      4E54494D 
 16933      45204556 
 16934 d80d 01       		.byte	0x1
 16935 d80e 7F       		.uleb128 0x7f
 16936 d80f 4546495F 		.ascii "EFI_EVENT_RUNTIME_CONTEXT EVT_RUNTIME_CONTEXT\0"
 16936      4556454E 
 16936      545F5255 
 16936      4E54494D 
 16936      455F434F 
 16937 d83d 01       		.byte	0x1
 16938 d83e 8001     		.uleb128 0x80
 16939 d840 4546495F 		.ascii "EFI_EVENT_NOTIFY_WAIT EVT_NOTIFY_WAIT\0"
 16939      4556454E 
 16939      545F4E4F 
 16939      54494659 
 16939      5F574149 
 16940 d866 01       		.byte	0x1
 16941 d867 8101     		.uleb128 0x81
 16942 d869 4546495F 		.ascii "EFI_EVENT_NOTIFY_SIGNAL EVT_NOTIFY_SIGNAL\0"
 16942      4556454E 
 16942      545F4E4F 
 16942      54494659 
 16942      5F534947 
 16943 d893 01       		.byte	0x1
 16944 d894 8201     		.uleb128 0x82
 16945 d896 4546495F 		.ascii "EFI_EVENT_SIGNAL_EXIT_BOOT_SERVICES EVT_SIGNAL_EXIT_BOOT_SERVICES\0"
 16945      4556454E 
 16945      545F5349 
 16945      474E414C 
 16945      5F455849 
 16946 d8d8 01       		.byte	0x1
 16947 d8d9 8301     		.uleb128 0x83
 16948 d8db 4546495F 		.ascii "EFI_EVENT_SIGNAL_VIRTUAL_ADDRESS_CHANGE EVT_SIGNAL_VIRTUAL_ADDRESS_CHANGE\0"
 16948      4556454E 
 16948      545F5349 
 16948      474E414C 
 16948      5F564952 
 16949 d925 01       		.byte	0x1
 16950 d926 8401     		.uleb128 0x84
 16951 d928 4546495F 		.ascii "EFI_EVENT_EFI_SIGNAL_MASK EVT_EFI_SIGNAL_MASK\0"
 16951      4556454E 
 16951      545F4546 
 16951      495F5349 
 16951      474E414C 
 16952 d956 01       		.byte	0x1
 16953 d957 8501     		.uleb128 0x85
 16954 d959 4546495F 		.ascii "EFI_EVENT_EFI_SIGNAL_MAX EVT_EFI_SIGNAL_MAX\0"
 16954      4556454E 
 16954      545F4546 
 16954      495F5349 
 16954      474E414C 
 16955 d985 01       		.byte	0x1
 16956 d986 C601     		.uleb128 0xc6
 16957 d988 54504C5F 		.ascii "TPL_APPLICATION 4\0"
 16957      4150504C 
 16957      49434154 
 16957      494F4E20 
 16957      3400
 16958 d99a 01       		.byte	0x1
 16959 d99b C701     		.uleb128 0xc7
 16960 d99d 54504C5F 		.ascii "TPL_CALLBACK 8\0"
 16960      43414C4C 
 16960      4241434B 
 16960      203800
 16961 d9ac 01       		.byte	0x1
 16962 d9ad C801     		.uleb128 0xc8
 16963 d9af 54504C5F 		.ascii "TPL_NOTIFY 16\0"
 16963      4E4F5449 
 16963      46592031 
 16963      3600
 16964 d9bd 01       		.byte	0x1
 16965 d9be C901     		.uleb128 0xc9
 16966 d9c0 54504C5F 		.ascii "TPL_HIGH_LEVEL 31\0"
 16966      48494748 
 16966      5F4C4556 
 16966      454C2033 
 16966      3100
 16967 d9d2 01       		.byte	0x1
 16968 d9d3 CA01     		.uleb128 0xca
 16969 d9d5 4546495F 		.ascii "EFI_TPL_APPLICATION TPL_APPLICATION\0"
 16969      54504C5F 
 16969      4150504C 
 16969      49434154 
 16969      494F4E20 
 16970 d9f9 01       		.byte	0x1
 16971 d9fa CB01     		.uleb128 0xcb
 16972 d9fc 4546495F 		.ascii "EFI_TPL_CALLBACK TPL_CALLBACK\0"
 16972      54504C5F 
 16972      43414C4C 
 16972      4241434B 
 16972      2054504C 
 16973 da1a 01       		.byte	0x1
 16974 da1b CC01     		.uleb128 0xcc
 16975 da1d 4546495F 		.ascii "EFI_TPL_NOTIFY TPL_NOTIFY\0"
 16975      54504C5F 
 16975      4E4F5449 
 16975      46592054 
 16975      504C5F4E 
 16976 da37 01       		.byte	0x1
 16977 da38 CD01     		.uleb128 0xcd
 16978 da3a 4546495F 		.ascii "EFI_TPL_HIGH_LEVEL TPL_HIGH_LEVEL\0"
 16978      54504C5F 
 16978      48494748 
 16978      5F4C4556 
 16978      454C2054 
 16979 da5c 01       		.byte	0x1
 16980 da5d DF01     		.uleb128 0xdf
 16981 da5f 4546495F 		.ascii "EFI_GLOBAL_VARIABLE { 0x8BE4DF61, 0x93CA, 0x11d2, {0xAA, 0x0D, 0x00, 0xE0, 0x98, 0x03, 0x2
 16981      474C4F42 
 16981      414C5F56 
 16981      41524941 
 16981      424C4520 
 16982 dac4 01       		.byte	0x1
 16983 dac5 E301     		.uleb128 0xe3
 16984 dac7 4546495F 		.ascii "EFI_VARIABLE_NON_VOLATILE 0x00000001\0"
 16984      56415249 
 16984      41424C45 
 16984      5F4E4F4E 
 16984      5F564F4C 
 16985 daec 01       		.byte	0x1
 16986 daed E401     		.uleb128 0xe4
 16987 daef 4546495F 		.ascii "EFI_VARIABLE_BOOTSERVICE_ACCESS 0x00000002\0"
 16987      56415249 
 16987      41424C45 
 16987      5F424F4F 
 16987      54534552 
 16988 db1a 01       		.byte	0x1
 16989 db1b E501     		.uleb128 0xe5
 16990 db1d 4546495F 		.ascii "EFI_VARIABLE_RUNTIME_ACCESS 0x00000004\0"
 16990      56415249 
 16990      41424C45 
 16990      5F52554E 
 16990      54494D45 
 16991 db44 01       		.byte	0x1
 16992 db45 E601     		.uleb128 0xe6
 16993 db47 4546495F 		.ascii "EFI_VARIABLE_HARDWARE_ERROR_RECORD 0x00000008\0"
 16993      56415249 
 16993      41424C45 
 16993      5F484152 
 16993      44574152 
 16994 db75 01       		.byte	0x1
 16995 db76 E701     		.uleb128 0xe7
 16996 db78 4546495F 		.ascii "EFI_VARIABLE_AUTHENTICATED_WRITE_ACCESS 0x00000010\0"
 16996      56415249 
 16996      41424C45 
 16996      5F415554 
 16996      48454E54 
 16997 dbab 01       		.byte	0x1
 16998 dbac E801     		.uleb128 0xe8
 16999 dbae 4546495F 		.ascii "EFI_VARIABLE_TIME_BASED_AUTHENTICATED_WRITE_ACCESS 0x00000020\0"
 16999      56415249 
 16999      41424C45 
 16999      5F54494D 
 16999      455F4241 
 17000 dbec 01       		.byte	0x1
 17001 dbed E901     		.uleb128 0xe9
 17002 dbef 4546495F 		.ascii "EFI_VARIABLE_APPEND_WRITE 0x00000040\0"
 17002      56415249 
 17002      41424C45 
 17002      5F415050 
 17002      454E445F 
 17003 dc14 01       		.byte	0x1
 17004 dc15 EA01     		.uleb128 0xea
 17005 dc17 4546495F 		.ascii "EFI_VARIABLE_ENHANCED_AUTHENTICATED_ACCESS 0x00000080\0"
 17005      56415249 
 17005      41424C45 
 17005      5F454E48 
 17005      414E4345 
 17006 dc4d 01       		.byte	0x1
 17007 dc4e ED01     		.uleb128 0xed
 17008 dc50 4546495F 		.ascii "EFI_MAXIMUM_VARIABLE_SIZE 1024\0"
 17008      4D415849 
 17008      4D554D5F 
 17008      56415249 
 17008      41424C45 
 17009 dc6f 01       		.byte	0x1
 17010 dc70 BD02     		.uleb128 0x13d
 17011 dc72 494D4147 		.ascii "IMAGE_SUBSYSTEM_EFI_APPLICATION 10\0"
 17011      455F5355 
 17011      42535953 
 17011      54454D5F 
 17011      4546495F 
 17012 dc95 01       		.byte	0x1
 17013 dc96 BE02     		.uleb128 0x13e
 17014 dc98 494D4147 		.ascii "IMAGE_SUBSYSTEM_EFI_BOOT_SERVICE_DRIVER 11\0"
 17014      455F5355 
 17014      42535953 
 17014      54454D5F 
 17014      4546495F 
 17015 dcc3 01       		.byte	0x1
 17016 dcc4 BF02     		.uleb128 0x13f
 17017 dcc6 494D4147 		.ascii "IMAGE_SUBSYSTEM_EFI_RUNTIME_DRIVER 12\0"
 17017      455F5355 
 17017      42535953 
 17017      54454D5F 
 17017      4546495F 
 17018 dcec 01       		.byte	0x1
 17019 dced C502     		.uleb128 0x145
 17020 dcef 4546495F 		.ascii "EFI_IMAGE_MACHINE_IA32 0x014c\0"
 17020      494D4147 
 17020      455F4D41 
 17020      4348494E 
 17020      455F4941 
 17021 dd0d 01       		.byte	0x1
 17022 dd0e C902     		.uleb128 0x149
 17023 dd10 4546495F 		.ascii "EFI_IMAGE_MACHINE_IA64 0x0200\0"
 17023      494D4147 
 17023      455F4D41 
 17023      4348494E 
 17023      455F4941 
 17024 dd2e 01       		.byte	0x1
 17025 dd2f CD02     		.uleb128 0x14d
 17026 dd31 4546495F 		.ascii "EFI_IMAGE_MACHINE_EBC 0x0EBC\0"
 17026      494D4147 
 17026      455F4D41 
 17026      4348494E 
 17026      455F4542 
 17027 dd4e 01       		.byte	0x1
 17028 dd4f D102     		.uleb128 0x151
 17029 dd51 4546495F 		.ascii "EFI_IMAGE_MACHINE_X64 0x8664\0"
 17029      494D4147 
 17029      455F4D41 
 17029      4348494E 
 17029      455F5836 
 17030 dd6e 01       		.byte	0x1
 17031 dd6f D502     		.uleb128 0x155
 17032 dd71 4546495F 		.ascii "EFI_IMAGE_MACHINE_ARMTHUMB_MIXED 0x01C2\0"
 17032      494D4147 
 17032      455F4D41 
 17032      4348494E 
 17032      455F4152 
 17033 dd99 01       		.byte	0x1
 17034 dd9a D902     		.uleb128 0x159
 17035 dd9c 4546495F 		.ascii "EFI_IMAGE_MACHINE_AARCH64 0xAA64\0"
 17035      494D4147 
 17035      455F4D41 
 17035      4348494E 
 17035      455F4141 
 17036 ddbd 01       		.byte	0x1
 17037 ddbe DD02     		.uleb128 0x15d
 17038 ddc0 4546495F 		.ascii "EFI_IMAGE_MACHINE_RISCV32 0x5032\0"
 17038      494D4147 
 17038      455F4D41 
 17038      4348494E 
 17038      455F5249 
 17039 dde1 01       		.byte	0x1
 17040 dde2 E102     		.uleb128 0x161
 17041 dde4 4546495F 		.ascii "EFI_IMAGE_MACHINE_RISCV64 0x5064\0"
 17041      494D4147 
 17041      455F4D41 
 17041      4348494E 
 17041      455F5249 
 17042 de05 01       		.byte	0x1
 17043 de06 E502     		.uleb128 0x165
 17044 de08 4546495F 		.ascii "EFI_IMAGE_MACHINE_RISCV128 0x5128\0"
 17044      494D4147 
 17044      455F4D41 
 17044      4348494E 
 17044      455F5249 
 17045 de2a 01       		.byte	0x1
 17046 de2b E902     		.uleb128 0x169
 17047 de2d 4546495F 		.ascii "EFI_IMAGE_MACHINE_LOONGARCH32 0x6232\0"
 17047      494D4147 
 17047      455F4D41 
 17047      4348494E 
 17047      455F4C4F 
 17048 de52 01       		.byte	0x1
 17049 de53 ED02     		.uleb128 0x16d
 17050 de55 4546495F 		.ascii "EFI_IMAGE_MACHINE_LOONGARCH64 0x6264\0"
 17050      494D4147 
 17050      455F4D41 
 17050      4348494E 
 17050      455F4C4F 
 17051 de7a 01       		.byte	0x1
 17052 de7b E103     		.uleb128 0x1e1
 17053 de7d 4546495F 		.ascii "EFI_OPEN_PROTOCOL_BY_HANDLE_PROTOCOL 0x00000001\0"
 17053      4F50454E 
 17053      5F50524F 
 17053      544F434F 
 17053      4C5F4259 
 17054 dead 01       		.byte	0x1
 17055 deae E203     		.uleb128 0x1e2
 17056 deb0 4546495F 		.ascii "EFI_OPEN_PROTOCOL_GET_PROTOCOL 0x00000002\0"
 17056      4F50454E 
 17056      5F50524F 
 17056      544F434F 
 17056      4C5F4745 
 17057 deda 01       		.byte	0x1
 17058 dedb E303     		.uleb128 0x1e3
 17059 dedd 4546495F 		.ascii "EFI_OPEN_PROTOCOL_TEST_PROTOCOL 0x00000004\0"
 17059      4F50454E 
 17059      5F50524F 
 17059      544F434F 
 17059      4C5F5445 
 17060 df08 01       		.byte	0x1
 17061 df09 E403     		.uleb128 0x1e4
 17062 df0b 4546495F 		.ascii "EFI_OPEN_PROTOCOL_BY_CHILD_CONTROLLER 0x00000008\0"
 17062      4F50454E 
 17062      5F50524F 
 17062      544F434F 
 17062      4C5F4259 
 17063 df3c 01       		.byte	0x1
 17064 df3d E503     		.uleb128 0x1e5
 17065 df3f 4546495F 		.ascii "EFI_OPEN_PROTOCOL_BY_DRIVER 0x00000010\0"
 17065      4F50454E 
 17065      5F50524F 
 17065      544F434F 
 17065      4C5F4259 
 17066 df66 01       		.byte	0x1
 17067 df67 E603     		.uleb128 0x1e6
 17068 df69 4546495F 		.ascii "EFI_OPEN_PROTOCOL_EXCLUSIVE 0x00000020\0"
 17068      4F50454E 
 17068      5F50524F 
 17068      544F434F 
 17068      4C5F4558 
 17069 df90 01       		.byte	0x1
 17070 df91 8805     		.uleb128 0x288
 17071 df93 43415053 		.ascii "CAPSULE_FLAGS_PERSIST_ACROSS_RESET 0x00010000\0"
 17071      554C455F 
 17071      464C4147 
 17071      535F5045 
 17071      52534953 
 17072 dfc1 01       		.byte	0x1
 17073 dfc2 8905     		.uleb128 0x289
 17074 dfc4 43415053 		.ascii "CAPSULE_FLAGS_POPULATE_SYSTEM_TABLE 0x00020000\0"
 17074      554C455F 
 17074      464C4147 
 17074      535F504F 
 17074      50554C41 
 17075 dff3 01       		.byte	0x1
 17076 dff4 8A05     		.uleb128 0x28a
 17077 dff6 43415053 		.ascii "CAPSULE_FLAGS_INITIATE_RESET 0x00040000\0"
 17077      554C455F 
 17077      464C4147 
 17077      535F494E 
 17077      49544941 
 17078 e01e 01       		.byte	0x1
 17079 e01f 8806     		.uleb128 0x308
 17080 e021 4546495F 		.ascii "EFI_RUNTIME_SERVICES_SIGNATURE 0x56524553544e5552\0"
 17080      52554E54 
 17080      494D455F 
 17080      53455256 
 17080      49434553 
 17081 e053 01       		.byte	0x1
 17082 e054 8906     		.uleb128 0x309
 17083 e056 4546495F 		.ascii "EFI_1_02_RUNTIME_SERVICES_REVISION EFI_SPECIFICATION_REVISION_MAJORMINOR(1, 02)\0"
 17083      315F3032 
 17083      5F52554E 
 17083      54494D45 
 17083      5F534552 
 17084 e0a6 01       		.byte	0x1
 17085 e0a7 8A06     		.uleb128 0x30a
 17086 e0a9 4546495F 		.ascii "EFI_1_10_RUNTIME_SERVICES_REVISION EFI_SPECIFICATION_REVISION_MAJORMINOR(1, 10)\0"
 17086      315F3130 
 17086      5F52554E 
 17086      54494D45 
 17086      5F534552 
 17087 e0f9 01       		.byte	0x1
 17088 e0fa 8B06     		.uleb128 0x30b
 17089 e0fc 4546495F 		.ascii "EFI_2_00_RUNTIME_SERVICES_REVISION EFI_SPECIFICATION_REVISION_MAJORMINOR(2, 00)\0"
 17089      325F3030 
 17089      5F52554E 
 17089      54494D45 
 17089      5F534552 
 17090 e14c 01       		.byte	0x1
 17091 e14d 8C06     		.uleb128 0x30c
 17092 e14f 4546495F 		.ascii "EFI_2_10_RUNTIME_SERVICES_REVISION EFI_SPECIFICATION_REVISION_MAJORMINOR(2, 10)\0"
 17092      325F3130 
 17092      5F52554E 
 17092      54494D45 
 17092      5F534552 
 17093 e19f 01       		.byte	0x1
 17094 e1a0 8D06     		.uleb128 0x30d
 17095 e1a2 4546495F 		.ascii "EFI_2_20_RUNTIME_SERVICES_REVISION EFI_SPECIFICATION_REVISION_MAJORMINOR(2, 20)\0"
 17095      325F3230 
 17095      5F52554E 
 17095      54494D45 
 17095      5F534552 
 17096 e1f2 01       		.byte	0x1
 17097 e1f3 8E06     		.uleb128 0x30e
 17098 e1f5 4546495F 		.ascii "EFI_2_30_RUNTIME_SERVICES_REVISION EFI_SPECIFICATION_REVISION_MAJORMINOR(2, 30)\0"
 17098      325F3330 
 17098      5F52554E 
 17098      54494D45 
 17098      5F534552 
 17099 e245 01       		.byte	0x1
 17100 e246 8F06     		.uleb128 0x30f
 17101 e248 4546495F 		.ascii "EFI_2_31_RUNTIME_SERVICES_REVISION EFI_SPECIFICATION_REVISION_MAJORMINOR(2, 31)\0"
 17101      325F3331 
 17101      5F52554E 
 17101      54494D45 
 17101      5F534552 
 17102 e298 01       		.byte	0x1
 17103 e299 9006     		.uleb128 0x310
 17104 e29b 4546495F 		.ascii "EFI_2_40_RUNTIME_SERVICES_REVISION EFI_SPECIFICATION_REVISION_MAJORMINOR(2, 40)\0"
 17104      325F3430 
 17104      5F52554E 
 17104      54494D45 
 17104      5F534552 
 17105 e2eb 01       		.byte	0x1
 17106 e2ec 9106     		.uleb128 0x311
 17107 e2ee 4546495F 		.ascii "EFI_2_50_RUNTIME_SERVICES_REVISION EFI_SPECIFICATION_REVISION_MAJORMINOR(2, 50)\0"
 17107      325F3530 
 17107      5F52554E 
 17107      54494D45 
 17107      5F534552 
 17108 e33e 01       		.byte	0x1
 17109 e33f 9206     		.uleb128 0x312
 17110 e341 4546495F 		.ascii "EFI_2_60_RUNTIME_SERVICES_REVISION EFI_SPECIFICATION_REVISION_MAJORMINOR(2, 60)\0"
 17110      325F3630 
 17110      5F52554E 
 17110      54494D45 
 17110      5F534552 
 17111 e391 01       		.byte	0x1
 17112 e392 9306     		.uleb128 0x313
 17113 e394 4546495F 		.ascii "EFI_2_70_RUNTIME_SERVICES_REVISION EFI_SPECIFICATION_REVISION_MAJORMINOR(2, 70)\0"
 17113      325F3730 
 17113      5F52554E 
 17113      54494D45 
 17113      5F534552 
 17114 e3e4 01       		.byte	0x1
 17115 e3e5 9406     		.uleb128 0x314
 17116 e3e7 4546495F 		.ascii "EFI_2_80_RUNTIME_SERVICES_REVISION EFI_SPECIFICATION_REVISION_MAJORMINOR(2, 80)\0"
 17116      325F3830 
 17116      5F52554E 
 17116      54494D45 
 17116      5F534552 
 17117 e437 01       		.byte	0x1
 17118 e438 9506     		.uleb128 0x315
 17119 e43a 4546495F 		.ascii "EFI_2_90_RUNTIME_SERVICES_REVISION EFI_SPECIFICATION_REVISION_MAJORMINOR(2, 90)\0"
 17119      325F3930 
 17119      5F52554E 
 17119      54494D45 
 17119      5F534552 
 17120 e48a 01       		.byte	0x1
 17121 e48b 9606     		.uleb128 0x316
 17122 e48d 4546495F 		.ascii "EFI_2_100_RUNTIME_SERVICES_REVISION EFI_SPECIFICATION_REVISION_MAJORMINOR(2, 100)\0"
 17122      325F3130 
 17122      305F5255 
 17122      4E54494D 
 17122      455F5345 
 17123 e4df 01       		.byte	0x1
 17124 e4e0 9706     		.uleb128 0x317
 17125 e4e2 4546495F 		.ascii "EFI_RUNTIME_SERVICES_REVISION EFI_SPECIFICATION_VERSION\0"
 17125      52554E54 
 17125      494D455F 
 17125      53455256 
 17125      49434553 
 17126 e51a 01       		.byte	0x1
 17127 e51b C506     		.uleb128 0x345
 17128 e51d 4546495F 		.ascii "EFI_BOOT_SERVICES_SIGNATURE 0x56524553544f4f42\0"
 17128      424F4F54 
 17128      5F534552 
 17128      56494345 
 17128      535F5349 
 17129 e54c 01       		.byte	0x1
 17130 e54d C606     		.uleb128 0x346
 17131 e54f 4546495F 		.ascii "EFI_1_02_BOOT_SERVICES_REVISION EFI_SPECIFICATION_REVISION_MAJORMINOR(1, 02)\0"
 17131      315F3032 
 17131      5F424F4F 
 17131      545F5345 
 17131      52564943 
 17132 e59c 01       		.byte	0x1
 17133 e59d C706     		.uleb128 0x347
 17134 e59f 4546495F 		.ascii "EFI_1_10_BOOT_SERVICES_REVISION EFI_SPECIFICATION_REVISION_MAJORMINOR(1, 10)\0"
 17134      315F3130 
 17134      5F424F4F 
 17134      545F5345 
 17134      52564943 
 17135 e5ec 01       		.byte	0x1
 17136 e5ed C806     		.uleb128 0x348
 17137 e5ef 4546495F 		.ascii "EFI_2_00_BOOT_SERVICES_REVISION EFI_SPECIFICATION_REVISION_MAJORMINOR(2, 00)\0"
 17137      325F3030 
 17137      5F424F4F 
 17137      545F5345 
 17137      52564943 
 17138 e63c 01       		.byte	0x1
 17139 e63d C906     		.uleb128 0x349
 17140 e63f 4546495F 		.ascii "EFI_2_10_BOOT_SERVICES_REVISION EFI_SPECIFICATION_REVISION_MAJORMINOR(2, 10)\0"
 17140      325F3130 
 17140      5F424F4F 
 17140      545F5345 
 17140      52564943 
 17141 e68c 01       		.byte	0x1
 17142 e68d CA06     		.uleb128 0x34a
 17143 e68f 4546495F 		.ascii "EFI_2_20_BOOT_SERVICES_REVISION EFI_SPECIFICATION_REVISION_MAJORMINOR(2, 20)\0"
 17143      325F3230 
 17143      5F424F4F 
 17143      545F5345 
 17143      52564943 
 17144 e6dc 01       		.byte	0x1
 17145 e6dd CB06     		.uleb128 0x34b
 17146 e6df 4546495F 		.ascii "EFI_2_30_BOOT_SERVICES_REVISION EFI_SPECIFICATION_REVISION_MAJORMINOR(2, 30)\0"
 17146      325F3330 
 17146      5F424F4F 
 17146      545F5345 
 17146      52564943 
 17147 e72c 01       		.byte	0x1
 17148 e72d CC06     		.uleb128 0x34c
 17149 e72f 4546495F 		.ascii "EFI_2_31_BOOT_SERVICES_REVISION EFI_SPECIFICATION_REVISION_MAJORMINOR(2, 31)\0"
 17149      325F3331 
 17149      5F424F4F 
 17149      545F5345 
 17149      52564943 
 17150 e77c 01       		.byte	0x1
 17151 e77d CD06     		.uleb128 0x34d
 17152 e77f 4546495F 		.ascii "EFI_2_40_BOOT_SERVICES_REVISION EFI_SPECIFICATION_REVISION_MAJORMINOR(2, 40)\0"
 17152      325F3430 
 17152      5F424F4F 
 17152      545F5345 
 17152      52564943 
 17153 e7cc 01       		.byte	0x1
 17154 e7cd CE06     		.uleb128 0x34e
 17155 e7cf 4546495F 		.ascii "EFI_2_50_BOOT_SERVICES_REVISION EFI_SPECIFICATION_REVISION_MAJORMINOR(2, 50)\0"
 17155      325F3530 
 17155      5F424F4F 
 17155      545F5345 
 17155      52564943 
 17156 e81c 01       		.byte	0x1
 17157 e81d CF06     		.uleb128 0x34f
 17158 e81f 4546495F 		.ascii "EFI_2_60_BOOT_SERVICES_REVISION EFI_SPECIFICATION_REVISION_MAJORMINOR(2, 60)\0"
 17158      325F3630 
 17158      5F424F4F 
 17158      545F5345 
 17158      52564943 
 17159 e86c 01       		.byte	0x1
 17160 e86d D006     		.uleb128 0x350
 17161 e86f 4546495F 		.ascii "EFI_2_70_BOOT_SERVICES_REVISION EFI_SPECIFICATION_REVISION_MAJORMINOR(2, 70)\0"
 17161      325F3730 
 17161      5F424F4F 
 17161      545F5345 
 17161      52564943 
 17162 e8bc 01       		.byte	0x1
 17163 e8bd D106     		.uleb128 0x351
 17164 e8bf 4546495F 		.ascii "EFI_2_80_BOOT_SERVICES_REVISION EFI_SPECIFICATION_REVISION_MAJORMINOR(2, 80)\0"
 17164      325F3830 
 17164      5F424F4F 
 17164      545F5345 
 17164      52564943 
 17165 e90c 01       		.byte	0x1
 17166 e90d D206     		.uleb128 0x352
 17167 e90f 4546495F 		.ascii "EFI_2_90_BOOT_SERVICES_REVISION EFI_SPECIFICATION_REVISION_MAJORMINOR(2, 90)\0"
 17167      325F3930 
 17167      5F424F4F 
 17167      545F5345 
 17167      52564943 
 17168 e95c 01       		.byte	0x1
 17169 e95d D306     		.uleb128 0x353
 17170 e95f 4546495F 		.ascii "EFI_2_100_BOOT_SERVICES_REVISION EFI_SPECIFICATION_REVISION_MAJORMINOR(2, 100)\0"
 17170      325F3130 
 17170      305F424F 
 17170      4F545F53 
 17170      45525649 
 17171 e9ae 01       		.byte	0x1
 17172 e9af D406     		.uleb128 0x354
 17173 e9b1 4546495F 		.ascii "EFI_BOOT_SERVICES_REVISION EFI_SPECIFICATION_VERSION\0"
 17173      424F4F54 
 17173      5F534552 
 17173      56494345 
 17173      535F5245 
 17174 e9e6 01       		.byte	0x1
 17175 e9e7 BF07     		.uleb128 0x3bf
 17176 e9e9 4D50535F 		.ascii "MPS_TABLE_GUID { 0xeb9d2d2f, 0x2d88, 0x11d3, {0x9a, 0x16, 0x0, 0x90, 0x27, 0x3f, 0xc1, 0x4
 17176      5441424C 
 17176      455F4755 
 17176      4944207B 
 17176      20307865 
 17177 ea48 01       		.byte	0x1
 17178 ea49 C207     		.uleb128 0x3c2
 17179 ea4b 41435049 		.ascii "ACPI_TABLE_GUID { 0xeb9d2d30, 0x2d88, 0x11d3, {0x9a, 0x16, 0x0, 0x90, 0x27, 0x3f, 0xc1, 0x
 17179      5F544142 
 17179      4C455F47 
 17179      55494420 
 17179      7B203078 
 17180 eaab 01       		.byte	0x1
 17181 eaac C507     		.uleb128 0x3c5
 17182 eaae 41435049 		.ascii "ACPI_20_TABLE_GUID { 0x8868e871, 0xe4f1, 0x11d3, {0xbc, 0x22, 0x0, 0x80, 0xc7, 0x3c, 0x88,
 17182      5F32305F 
 17182      5441424C 
 17182      455F4755 
 17182      4944207B 
 17183 eb11 01       		.byte	0x1
 17184 eb12 C807     		.uleb128 0x3c8
 17185 eb14 534D4249 		.ascii "SMBIOS_TABLE_GUID { 0xeb9d2d31, 0x2d88, 0x11d3, {0x9a, 0x16, 0x0, 0x90, 0x27, 0x3f, 0xc1, 
 17185      4F535F54 
 17185      41424C45 
 17185      5F475549 
 17185      44207B20 
 17186 eb76 01       		.byte	0x1
 17187 eb77 CB07     		.uleb128 0x3cb
 17188 eb79 534D4249 		.ascii "SMBIOS3_TABLE_GUID { 0xf2fd1544, 0x9794, 0x4a2c, {0x99, 0x2e, 0xe5, 0xbb, 0xcf, 0x20, 0xe3
 17188      4F53335F 
 17188      5441424C 
 17188      455F4755 
 17188      4944207B 
 17189 ebdd 01       		.byte	0x1
 17190 ebde CE07     		.uleb128 0x3ce
 17191 ebe0 53414C5F 		.ascii "SAL_SYSTEM_TABLE_GUID { 0xeb9d2d32, 0x2d88, 0x11d3, {0x9a, 0x16, 0x0, 0x90, 0x27, 0x3f, 0x
 17191      53595354 
 17191      454D5F54 
 17191      41424C45 
 17191      5F475549 
 17192 ec46 01       		.byte	0x1
 17193 ec47 D107     		.uleb128 0x3d1
 17194 ec49 4546495F 		.ascii "EFI_DTB_TABLE_GUID { 0xb1b621d5, 0xf19c, 0x41a5, {0x83, 0x0b, 0xd9, 0x15, 0x2c, 0x69, 0xaa
 17194      4454425F 
 17194      5441424C 
 17194      455F4755 
 17194      4944207B 
 17195 ecad 01       		.byte	0x1
 17196 ecae E107     		.uleb128 0x3e1
 17197 ecb0 4546495F 		.ascii "EFI_SYSTEM_TABLE_SIGNATURE 0x5453595320494249\0"
 17197      53595354 
 17197      454D5F54 
 17197      41424C45 
 17197      5F534947 
 17198 ecde 01       		.byte	0x1
 17199 ecdf E207     		.uleb128 0x3e2
 17200 ece1 4546495F 		.ascii "EFI_1_02_SYSTEM_TABLE_REVISION EFI_SPECIFICATION_REVISION_MAJORMINOR(1, 02)\0"
 17200      315F3032 
 17200      5F535953 
 17200      54454D5F 
 17200      5441424C 
 17201 ed2d 01       		.byte	0x1
 17202 ed2e E307     		.uleb128 0x3e3
 17203 ed30 4546495F 		.ascii "EFI_1_10_SYSTEM_TABLE_REVISION EFI_SPECIFICATION_REVISION_MAJORMINOR(1, 10)\0"
 17203      315F3130 
 17203      5F535953 
 17203      54454D5F 
 17203      5441424C 
 17204 ed7c 01       		.byte	0x1
 17205 ed7d E407     		.uleb128 0x3e4
 17206 ed7f 4546495F 		.ascii "EFI_2_00_SYSTEM_TABLE_REVISION EFI_SPECIFICATION_REVISION_MAJORMINOR(2, 00)\0"
 17206      325F3030 
 17206      5F535953 
 17206      54454D5F 
 17206      5441424C 
 17207 edcb 01       		.byte	0x1
 17208 edcc E507     		.uleb128 0x3e5
 17209 edce 4546495F 		.ascii "EFI_2_10_SYSTEM_TABLE_REVISION EFI_SPECIFICATION_REVISION_MAJORMINOR(2, 10)\0"
 17209      325F3130 
 17209      5F535953 
 17209      54454D5F 
 17209      5441424C 
 17210 ee1a 01       		.byte	0x1
 17211 ee1b E607     		.uleb128 0x3e6
 17212 ee1d 4546495F 		.ascii "EFI_2_20_SYSTEM_TABLE_REVISION EFI_SPECIFICATION_REVISION_MAJORMINOR(2, 20)\0"
 17212      325F3230 
 17212      5F535953 
 17212      54454D5F 
 17212      5441424C 
 17213 ee69 01       		.byte	0x1
 17214 ee6a E707     		.uleb128 0x3e7
 17215 ee6c 4546495F 		.ascii "EFI_2_30_SYSTEM_TABLE_REVISION EFI_SPECIFICATION_REVISION_MAJORMINOR(2, 30)\0"
 17215      325F3330 
 17215      5F535953 
 17215      54454D5F 
 17215      5441424C 
 17216 eeb8 01       		.byte	0x1
 17217 eeb9 E807     		.uleb128 0x3e8
 17218 eebb 4546495F 		.ascii "EFI_2_31_SYSTEM_TABLE_REVISION EFI_SPECIFICATION_REVISION_MAJORMINOR(2, 31)\0"
 17218      325F3331 
 17218      5F535953 
 17218      54454D5F 
 17218      5441424C 
 17219 ef07 01       		.byte	0x1
 17220 ef08 E907     		.uleb128 0x3e9
 17221 ef0a 4546495F 		.ascii "EFI_2_40_SYSTEM_TABLE_REVISION EFI_SPECIFICATION_REVISION_MAJORMINOR(2, 40)\0"
 17221      325F3430 
 17221      5F535953 
 17221      54454D5F 
 17221      5441424C 
 17222 ef56 01       		.byte	0x1
 17223 ef57 EA07     		.uleb128 0x3ea
 17224 ef59 4546495F 		.ascii "EFI_2_50_SYSTEM_TABLE_REVISION EFI_SPECIFICATION_REVISION_MAJORMINOR(2, 50)\0"
 17224      325F3530 
 17224      5F535953 
 17224      54454D5F 
 17224      5441424C 
 17225 efa5 01       		.byte	0x1
 17226 efa6 EB07     		.uleb128 0x3eb
 17227 efa8 4546495F 		.ascii "EFI_2_60_SYSTEM_TABLE_REVISION EFI_SPECIFICATION_REVISION_MAJORMINOR(2, 60)\0"
 17227      325F3630 
 17227      5F535953 
 17227      54454D5F 
 17227      5441424C 
 17228 eff4 01       		.byte	0x1
 17229 eff5 EC07     		.uleb128 0x3ec
 17230 eff7 4546495F 		.ascii "EFI_2_70_SYSTEM_TABLE_REVISION EFI_SPECIFICATION_REVISION_MAJORMINOR(2, 70)\0"
 17230      325F3730 
 17230      5F535953 
 17230      54454D5F 
 17230      5441424C 
 17231 f043 01       		.byte	0x1
 17232 f044 ED07     		.uleb128 0x3ed
 17233 f046 4546495F 		.ascii "EFI_2_80_SYSTEM_TABLE_REVISION EFI_SPECIFICATION_REVISION_MAJORMINOR(2, 80)\0"
 17233      325F3830 
 17233      5F535953 
 17233      54454D5F 
 17233      5441424C 
 17234 f092 01       		.byte	0x1
 17235 f093 EE07     		.uleb128 0x3ee
 17236 f095 4546495F 		.ascii "EFI_2_90_SYSTEM_TABLE_REVISION EFI_SPECIFICATION_REVISION_MAJORMINOR(2, 90)\0"
 17236      325F3930 
 17236      5F535953 
 17236      54454D5F 
 17236      5441424C 
 17237 f0e1 01       		.byte	0x1
 17238 f0e2 EF07     		.uleb128 0x3ef
 17239 f0e4 4546495F 		.ascii "EFI_2_100_SYSTEM_TABLE_REVISION EFI_SPECIFICATION_REVISION_MAJORMINOR(2, 100)\0"
 17239      325F3130 
 17239      305F5359 
 17239      5354454D 
 17239      5F544142 
 17240 f132 01       		.byte	0x1
 17241 f133 F007     		.uleb128 0x3f0
 17242 f135 4546495F 		.ascii "EFI_SYSTEM_TABLE_REVISION EFI_SPECIFICATION_VERSION\0"
 17242      53595354 
 17242      454D5F54 
 17242      41424C45 
 17242      5F524556 
 17243 f169 04       		.byte	0x4
 17244              		.file 28 "gnu-efi-3.0.18/inc/efifs.h"
 17245 f16a 03       		.byte	0x3
 17246 f16b 4D       		.uleb128 0x4d
 17247 f16c 1C       		.uleb128 0x1c
 17248 f16d 01       		.byte	0x1
 17249 f16e 02       		.uleb128 0x2
 17250 f16f 5F454649 		.ascii "_EFI_FS_H \0"
 17250      5F46535F 
 17250      482000
 17251 f17a 01       		.byte	0x1
 17252 f17b 1B       		.uleb128 0x1b
 17253 f17c 4546495F 		.ascii "EFI_PARTITION_SIGNATURE 0x5053595320494249\0"
 17253      50415254 
 17253      4954494F 
 17253      4E5F5349 
 17253      474E4154 
 17254 f1a7 01       		.byte	0x1
 17255 f1a8 1C       		.uleb128 0x1c
 17256 f1a9 4546495F 		.ascii "EFI_PARTITION_REVISION 0x00010001\0"
 17256      50415254 
 17256      4954494F 
 17256      4E5F5245 
 17256      56495349 
 17257 f1cb 01       		.byte	0x1
 17258 f1cc 1D       		.uleb128 0x1d
 17259 f1cd 4D494E5F 		.ascii "MIN_EFI_PARTITION_BLOCK_SIZE 512\0"
 17259      4546495F 
 17259      50415254 
 17259      4954494F 
 17259      4E5F424C 
 17260 f1ee 01       		.byte	0x1
 17261 f1ef 1E       		.uleb128 0x1e
 17262 f1f0 4546495F 		.ascii "EFI_PARTITION_LBA 1\0"
 17262      50415254 
 17262      4954494F 
 17262      4E5F4C42 
 17262      41203100 
 17263 f204 01       		.byte	0x1
 17264 f205 31       		.uleb128 0x31
 17265 f206 4546495F 		.ascii "EFI_FILE_HEADER_SIGNATURE 0x454c494620494249\0"
 17265      46494C45 
 17265      5F484541 
 17265      4445525F 
 17265      5349474E 
 17266 f233 01       		.byte	0x1
 17267 f234 32       		.uleb128 0x32
 17268 f235 4546495F 		.ascii "EFI_FILE_HEADER_REVISION 0x00010000\0"
 17268      46494C45 
 17268      5F484541 
 17268      4445525F 
 17268      52455649 
 17269 f259 01       		.byte	0x1
 17270 f25a 33       		.uleb128 0x33
 17271 f25b 4546495F 		.ascii "EFI_FILE_STRING_SIZE 260\0"
 17271      46494C45 
 17271      5F535452 
 17271      494E475F 
 17271      53495A45 
 17272 f274 01       		.byte	0x1
 17273 f275 48       		.uleb128 0x48
 17274 f276 4546495F 		.ascii "EFI_FILE_LBAL(a) ((EFI_LBAL *) (((CHAR8 *) (a)) + (a)->LBALOffset))\0"
 17274      46494C45 
 17274      5F4C4241 
 17274      4C286129 
 17274      20282845 
 17275 f2ba 01       		.byte	0x1
 17276 f2bb 4A       		.uleb128 0x4a
 17277 f2bc 4546495F 		.ascii "EFI_FILE_CLASS_FREE_SPACE 1\0"
 17277      46494C45 
 17277      5F434C41 
 17277      53535F46 
 17277      5245455F 
 17278 f2d8 01       		.byte	0x1
 17279 f2d9 4B       		.uleb128 0x4b
 17280 f2da 4546495F 		.ascii "EFI_FILE_CLASS_EMPTY 2\0"
 17280      46494C45 
 17280      5F434C41 
 17280      53535F45 
 17280      4D505459 
 17281 f2f1 01       		.byte	0x1
 17282 f2f2 4C       		.uleb128 0x4c
 17283 f2f3 4546495F 		.ascii "EFI_FILE_CLASS_NORMAL 3\0"
 17283      46494C45 
 17283      5F434C41 
 17283      53535F4E 
 17283      4F524D41 
 17284 f30b 01       		.byte	0x1
 17285 f30c 54       		.uleb128 0x54
 17286 f30d 4546495F 		.ascii "EFI_LBAL_SIGNATURE 0x4c41424c20494249\0"
 17286      4C42414C 
 17286      5F534947 
 17286      4E415455 
 17286      52452030 
 17287 f333 01       		.byte	0x1
 17288 f334 55       		.uleb128 0x55
 17289 f335 4546495F 		.ascii "EFI_LBAL_REVISION 0x00010000\0"
 17289      4C42414C 
 17289      5F524556 
 17289      4953494F 
 17289      4E203078 
 17290 f352 01       		.byte	0x1
 17291 f353 61       		.uleb128 0x61
 17292 f354 4546495F 		.ascii "EFI_LBAL_ARRAY_SIZE(lbal,offs,blks) (((blks) - (offs) - (lbal)->Hdr.HeaderSize) / sizeof(E
 17292      4C42414C 
 17292      5F415252 
 17292      41595F53 
 17292      495A4528 
 17293 f3b6 01       		.byte	0x1
 17294 f3b7 71       		.uleb128 0x71
 17295 f3b8 4546495F 		.ascii "EFI_LBAL_RL(a) ((EFI_RL*) (((CHAR8 *) (a)) + (a)->Hdr.HeaderSize))\0"
 17295      4C42414C 
 17295      5F524C28 
 17295      61292028 
 17295      28454649 
 17296 f3fb 04       		.byte	0x4
 17297              		.file 29 "gnu-efi-3.0.18/inc/efierr.h"
 17298 f3fc 03       		.byte	0x3
 17299 f3fd 4E       		.uleb128 0x4e
 17300 f3fe 1D       		.uleb128 0x1d
 17301 f3ff 01       		.byte	0x1
 17302 f400 02       		.uleb128 0x2
 17303 f401 5F454649 		.ascii "_EFI_ERR_H \0"
 17303      5F455252 
 17303      5F482000 
 17304 f40d 01       		.byte	0x1
 17305 f40e 18       		.uleb128 0x18
 17306 f40f 45464957 		.ascii "EFIWARN(a) (a)\0"
 17306      41524E28 
 17306      61292028 
 17306      612900
 17307 f41e 01       		.byte	0x1
 17308 f41f 19       		.uleb128 0x19
 17309 f420 4546495F 		.ascii "EFI_ERROR(a) (((INTN) a) < 0)\0"
 17309      4552524F 
 17309      52286129 
 17309      20282828 
 17309      494E544E 
 17310 f43e 01       		.byte	0x1
 17311 f43f 1C       		.uleb128 0x1c
 17312 f440 4546495F 		.ascii "EFI_SUCCESS 0\0"
 17312      53554343 
 17312      45535320 
 17312      3000
 17313 f44e 01       		.byte	0x1
 17314 f44f 1D       		.uleb128 0x1d
 17315 f450 4546495F 		.ascii "EFI_LOAD_ERROR EFIERR(1)\0"
 17315      4C4F4144 
 17315      5F455252 
 17315      4F522045 
 17315      46494552 
 17316 f469 01       		.byte	0x1
 17317 f46a 1E       		.uleb128 0x1e
 17318 f46b 4546495F 		.ascii "EFI_INVALID_PARAMETER EFIERR(2)\0"
 17318      494E5641 
 17318      4C49445F 
 17318      50415241 
 17318      4D455445 
 17319 f48b 01       		.byte	0x1
 17320 f48c 1F       		.uleb128 0x1f
 17321 f48d 4546495F 		.ascii "EFI_UNSUPPORTED EFIERR(3)\0"
 17321      554E5355 
 17321      50504F52 
 17321      54454420 
 17321      45464945 
 17322 f4a7 01       		.byte	0x1
 17323 f4a8 20       		.uleb128 0x20
 17324 f4a9 4546495F 		.ascii "EFI_BAD_BUFFER_SIZE EFIERR(4)\0"
 17324      4241445F 
 17324      42554646 
 17324      45525F53 
 17324      495A4520 
 17325 f4c7 01       		.byte	0x1
 17326 f4c8 21       		.uleb128 0x21
 17327 f4c9 4546495F 		.ascii "EFI_BUFFER_TOO_SMALL EFIERR(5)\0"
 17327      42554646 
 17327      45525F54 
 17327      4F4F5F53 
 17327      4D414C4C 
 17328 f4e8 01       		.byte	0x1
 17329 f4e9 22       		.uleb128 0x22
 17330 f4ea 4546495F 		.ascii "EFI_NOT_READY EFIERR(6)\0"
 17330      4E4F545F 
 17330      52454144 
 17330      59204546 
 17330      49455252 
 17331 f502 01       		.byte	0x1
 17332 f503 23       		.uleb128 0x23
 17333 f504 4546495F 		.ascii "EFI_DEVICE_ERROR EFIERR(7)\0"
 17333      44455649 
 17333      43455F45 
 17333      52524F52 
 17333      20454649 
 17334 f51f 01       		.byte	0x1
 17335 f520 24       		.uleb128 0x24
 17336 f521 4546495F 		.ascii "EFI_WRITE_PROTECTED EFIERR(8)\0"
 17336      57524954 
 17336      455F5052 
 17336      4F544543 
 17336      54454420 
 17337 f53f 01       		.byte	0x1
 17338 f540 25       		.uleb128 0x25
 17339 f541 4546495F 		.ascii "EFI_OUT_OF_RESOURCES EFIERR(9)\0"
 17339      4F55545F 
 17339      4F465F52 
 17339      45534F55 
 17339      52434553 
 17340 f560 01       		.byte	0x1
 17341 f561 26       		.uleb128 0x26
 17342 f562 4546495F 		.ascii "EFI_VOLUME_CORRUPTED EFIERR(10)\0"
 17342      564F4C55 
 17342      4D455F43 
 17342      4F525255 
 17342      50544544 
 17343 f582 01       		.byte	0x1
 17344 f583 27       		.uleb128 0x27
 17345 f584 4546495F 		.ascii "EFI_VOLUME_FULL EFIERR(11)\0"
 17345      564F4C55 
 17345      4D455F46 
 17345      554C4C20 
 17345      45464945 
 17346 f59f 01       		.byte	0x1
 17347 f5a0 28       		.uleb128 0x28
 17348 f5a1 4546495F 		.ascii "EFI_NO_MEDIA EFIERR(12)\0"
 17348      4E4F5F4D 
 17348      45444941 
 17348      20454649 
 17348      45525228 
 17349 f5b9 01       		.byte	0x1
 17350 f5ba 29       		.uleb128 0x29
 17351 f5bb 4546495F 		.ascii "EFI_MEDIA_CHANGED EFIERR(13)\0"
 17351      4D454449 
 17351      415F4348 
 17351      414E4745 
 17351      44204546 
 17352 f5d8 01       		.byte	0x1
 17353 f5d9 2A       		.uleb128 0x2a
 17354 f5da 4546495F 		.ascii "EFI_NOT_FOUND EFIERR(14)\0"
 17354      4E4F545F 
 17354      464F554E 
 17354      44204546 
 17354      49455252 
 17355 f5f3 01       		.byte	0x1
 17356 f5f4 2B       		.uleb128 0x2b
 17357 f5f5 4546495F 		.ascii "EFI_ACCESS_DENIED EFIERR(15)\0"
 17357      41434345 
 17357      53535F44 
 17357      454E4945 
 17357      44204546 
 17358 f612 01       		.byte	0x1
 17359 f613 2C       		.uleb128 0x2c
 17360 f614 4546495F 		.ascii "EFI_NO_RESPONSE EFIERR(16)\0"
 17360      4E4F5F52 
 17360      4553504F 
 17360      4E534520 
 17360      45464945 
 17361 f62f 01       		.byte	0x1
 17362 f630 2D       		.uleb128 0x2d
 17363 f631 4546495F 		.ascii "EFI_NO_MAPPING EFIERR(17)\0"
 17363      4E4F5F4D 
 17363      41505049 
 17363      4E472045 
 17363      46494552 
 17364 f64b 01       		.byte	0x1
 17365 f64c 2E       		.uleb128 0x2e
 17366 f64d 4546495F 		.ascii "EFI_TIMEOUT EFIERR(18)\0"
 17366      54494D45 
 17366      4F555420 
 17366      45464945 
 17366      52522831 
 17367 f664 01       		.byte	0x1
 17368 f665 2F       		.uleb128 0x2f
 17369 f666 4546495F 		.ascii "EFI_NOT_STARTED EFIERR(19)\0"
 17369      4E4F545F 
 17369      53544152 
 17369      54454420 
 17369      45464945 
 17370 f681 01       		.byte	0x1
 17371 f682 30       		.uleb128 0x30
 17372 f683 4546495F 		.ascii "EFI_ALREADY_STARTED EFIERR(20)\0"
 17372      414C5245 
 17372      4144595F 
 17372      53544152 
 17372      54454420 
 17373 f6a2 01       		.byte	0x1
 17374 f6a3 31       		.uleb128 0x31
 17375 f6a4 4546495F 		.ascii "EFI_ABORTED EFIERR(21)\0"
 17375      41424F52 
 17375      54454420 
 17375      45464945 
 17375      52522832 
 17376 f6bb 01       		.byte	0x1
 17377 f6bc 32       		.uleb128 0x32
 17378 f6bd 4546495F 		.ascii "EFI_ICMP_ERROR EFIERR(22)\0"
 17378      49434D50 
 17378      5F455252 
 17378      4F522045 
 17378      46494552 
 17379 f6d7 01       		.byte	0x1
 17380 f6d8 33       		.uleb128 0x33
 17381 f6d9 4546495F 		.ascii "EFI_TFTP_ERROR EFIERR(23)\0"
 17381      54465450 
 17381      5F455252 
 17381      4F522045 
 17381      46494552 
 17382 f6f3 01       		.byte	0x1
 17383 f6f4 34       		.uleb128 0x34
 17384 f6f5 4546495F 		.ascii "EFI_PROTOCOL_ERROR EFIERR(24)\0"
 17384      50524F54 
 17384      4F434F4C 
 17384      5F455252 
 17384      4F522045 
 17385 f713 01       		.byte	0x1
 17386 f714 35       		.uleb128 0x35
 17387 f715 4546495F 		.ascii "EFI_INCOMPATIBLE_VERSION EFIERR(25)\0"
 17387      494E434F 
 17387      4D504154 
 17387      49424C45 
 17387      5F564552 
 17388 f739 01       		.byte	0x1
 17389 f73a 36       		.uleb128 0x36
 17390 f73b 4546495F 		.ascii "EFI_SECURITY_VIOLATION EFIERR(26)\0"
 17390      53454355 
 17390      52495459 
 17390      5F56494F 
 17390      4C415449 
 17391 f75d 01       		.byte	0x1
 17392 f75e 37       		.uleb128 0x37
 17393 f75f 4546495F 		.ascii "EFI_CRC_ERROR EFIERR(27)\0"
 17393      4352435F 
 17393      4552524F 
 17393      52204546 
 17393      49455252 
 17394 f778 01       		.byte	0x1
 17395 f779 38       		.uleb128 0x38
 17396 f77a 4546495F 		.ascii "EFI_END_OF_MEDIA EFIERR(28)\0"
 17396      454E445F 
 17396      4F465F4D 
 17396      45444941 
 17396      20454649 
 17397 f796 01       		.byte	0x1
 17398 f797 39       		.uleb128 0x39
 17399 f798 4546495F 		.ascii "EFI_END_OF_FILE EFIERR(31)\0"
 17399      454E445F 
 17399      4F465F46 
 17399      494C4520 
 17399      45464945 
 17400 f7b3 01       		.byte	0x1
 17401 f7b4 3A       		.uleb128 0x3a
 17402 f7b5 4546495F 		.ascii "EFI_INVALID_LANGUAGE EFIERR(32)\0"
 17402      494E5641 
 17402      4C49445F 
 17402      4C414E47 
 17402      55414745 
 17403 f7d5 01       		.byte	0x1
 17404 f7d6 3B       		.uleb128 0x3b
 17405 f7d7 4546495F 		.ascii "EFI_COMPROMISED_DATA EFIERR(33)\0"
 17405      434F4D50 
 17405      524F4D49 
 17405      5345445F 
 17405      44415441 
 17406 f7f7 01       		.byte	0x1
 17407 f7f8 3C       		.uleb128 0x3c
 17408 f7f9 4546495F 		.ascii "EFI_IP_ADDRESS_CONFLICT EFIERR(34)\0"
 17408      49505F41 
 17408      44445245 
 17408      53535F43 
 17408      4F4E464C 
 17409 f81c 01       		.byte	0x1
 17410 f81d 3D       		.uleb128 0x3d
 17411 f81e 4546495F 		.ascii "EFI_HTTP_ERROR EFIERR(35)\0"
 17411      48545450 
 17411      5F455252 
 17411      4F522045 
 17411      46494552 
 17412 f838 01       		.byte	0x1
 17413 f839 3F       		.uleb128 0x3f
 17414 f83a 4546495F 		.ascii "EFI_WARN_UNKOWN_GLYPH EFIWARN(1)\0"
 17414      5741524E 
 17414      5F554E4B 
 17414      4F574E5F 
 17414      474C5950 
 17415 f85b 01       		.byte	0x1
 17416 f85c 40       		.uleb128 0x40
 17417 f85d 4546495F 		.ascii "EFI_WARN_UNKNOWN_GLYPH EFIWARN(1)\0"
 17417      5741524E 
 17417      5F554E4B 
 17417      4E4F574E 
 17417      5F474C59 
 17418 f87f 01       		.byte	0x1
 17419 f880 41       		.uleb128 0x41
 17420 f881 4546495F 		.ascii "EFI_WARN_DELETE_FAILURE EFIWARN(2)\0"
 17420      5741524E 
 17420      5F44454C 
 17420      4554455F 
 17420      4641494C 
 17421 f8a4 01       		.byte	0x1
 17422 f8a5 42       		.uleb128 0x42
 17423 f8a6 4546495F 		.ascii "EFI_WARN_WRITE_FAILURE EFIWARN(3)\0"
 17423      5741524E 
 17423      5F575249 
 17423      54455F46 
 17423      41494C55 
 17424 f8c8 01       		.byte	0x1
 17425 f8c9 43       		.uleb128 0x43
 17426 f8ca 4546495F 		.ascii "EFI_WARN_BUFFER_TOO_SMALL EFIWARN(4)\0"
 17426      5741524E 
 17426      5F425546 
 17426      4645525F 
 17426      544F4F5F 
 17427 f8ef 01       		.byte	0x1
 17428 f8f0 44       		.uleb128 0x44
 17429 f8f1 4546495F 		.ascii "EFI_WARN_STALE_DATA EFIWARN(5)\0"
 17429      5741524E 
 17429      5F535441 
 17429      4C455F44 
 17429      41544120 
 17430 f910 01       		.byte	0x1
 17431 f911 45       		.uleb128 0x45
 17432 f912 4546495F 		.ascii "EFI_WARN_FILE_SYSTEM EFIWARN(6)\0"
 17432      5741524E 
 17432      5F46494C 
 17432      455F5359 
 17432      5354454D 
 17433 f932 01       		.byte	0x1
 17434 f933 46       		.uleb128 0x46
 17435 f934 4546495F 		.ascii "EFI_WARN_RESET_REQUIRED EFIWARN(7)\0"
 17435      5741524E 
 17435      5F524553 
 17435      45545F52 
 17435      45515549 
 17436 f957 04       		.byte	0x4
 17437              		.file 30 "gnu-efi-3.0.18/inc/efiui.h"
 17438 f958 03       		.byte	0x3
 17439 f959 4F       		.uleb128 0x4f
 17440 f95a 1E       		.uleb128 0x1e
 17441 f95b 01       		.byte	0x1
 17442 f95c 02       		.uleb128 0x2
 17443 f95d 5F454649 		.ascii "_EFI_UI_H \0"
 17443      5F55495F 
 17443      482000
 17444 f968 01       		.byte	0x1
 17445 f969 1F       		.uleb128 0x1f
 17446 f96a 4546495F 		.ascii "EFI_UI_INTERFACE_PROTOCOL_GUID { 0x32dd7981, 0x2d27, 0x11d4, {0xbc, 0x8b, 0x0, 0x80, 0xc7,
 17446      55495F49 
 17446      4E544552 
 17446      46414345 
 17446      5F50524F 
 17447 f9d9 01       		.byte	0x1
 17448 f9da 21       		.uleb128 0x21
 17449 f9db 4546495F 		.ascii "EFI_UI_PROTOCOL EFI_UI_INTERFACE_PROTOCOL_GUID\0"
 17449      55495F50 
 17449      524F544F 
 17449      434F4C20 
 17449      4546495F 
 17450 fa0a 01       		.byte	0x1
 17451 fa0b 2F       		.uleb128 0x2f
 17452 fa0c 4546495F 		.ascii "EFI_UI_INTERFACE_PROTOCOL_VERSION 0x00010000\0"
 17452      55495F49 
 17452      4E544552 
 17452      46414345 
 17452      5F50524F 
 17453 fa39 01       		.byte	0x1
 17454 fa3a 30       		.uleb128 0x30
 17455 fa3b 4546495F 		.ascii "EFI_UI_VERSION EFI_UI_INTERFACE_PROTOCOL_VERSION\0"
 17455      55495F56 
 17455      45525349 
 17455      4F4E2045 
 17455      46495F55 
 17456 fa6c 04       		.byte	0x4
 17457              		.file 31 "gnu-efi-3.0.18/inc/efiip.h"
 17458 fa6d 03       		.byte	0x3
 17459 fa6e 50       		.uleb128 0x50
 17460 fa6f 1F       		.uleb128 0x1f
 17461 fa70 01       		.byte	0x1
 17462 fa71 02       		.uleb128 0x2
 17463 fa72 5F454649 		.ascii "_EFI_IP_H \0"
 17463      5F49505F 
 17463      482000
 17464 fa7d 01       		.byte	0x1
 17465 fa7e 09       		.uleb128 0x9
 17466 fa7f 4546495F 		.ascii "EFI_IP4_SERVICE_BINDING_PROTOCOL {0xc51711e7,0xb4bf,0x404a,{0xbf,0xb8,0x0a,0x04, 0x8e,0xf1
 17466      4950345F 
 17466      53455256 
 17466      4943455F 
 17466      42494E44 
 17467 fae6 01       		.byte	0x1
 17468 fae7 0C       		.uleb128 0xc
 17469 fae8 4546495F 		.ascii "EFI_IP4_PROTOCOL {0x41d94cd2,0x35b6,0x455a,{0x82,0x58,0xd4,0xe5,0x13,0x34,0xaa,0xdd}}\0"
 17469      4950345F 
 17469      50524F54 
 17469      4F434F4C 
 17469      207B3078 
 17470 fb3e 01       		.byte	0x1
 17471 fb3f 0F       		.uleb128 0xf
 17472 fb40 4546495F 		.ascii "EFI_IP6_SERVICE_BINDING_PROTOCOL {0xec835dd3,0xfe0f,0x617b,{0xa6,0x21,0xb3,0x50,0xc3,0xe1,
 17472      4950365F 
 17472      53455256 
 17472      4943455F 
 17472      42494E44 
 17473 fba6 01       		.byte	0x1
 17474 fba7 12       		.uleb128 0x12
 17475 fba8 4546495F 		.ascii "EFI_IP6_PROTOCOL {0x2c8759d5,0x5c2d,0x66ef,{0x92,0x5f,0xb6,0x6c,0x10,0x19,0x57,0xe2}}\0"
 17475      4950365F 
 17475      50524F54 
 17475      4F434F4C 
 17475      207B3078 
 17476 fbfe 01       		.byte	0x1
 17477 fbff 8102     		.uleb128 0x101
 17478 fc01 49434D50 		.ascii "ICMP_V6_DEST_UNREACHABLE 0x1\0"
 17478      5F56365F 
 17478      44455354 
 17478      5F554E52 
 17478      45414348 
 17479 fc1e 01       		.byte	0x1
 17480 fc1f 8202     		.uleb128 0x102
 17481 fc21 49434D50 		.ascii "ICMP_V6_PACKET_TOO_BIG 0x2\0"
 17481      5F56365F 
 17481      5041434B 
 17481      45545F54 
 17481      4F4F5F42 
 17482 fc3c 01       		.byte	0x1
 17483 fc3d 8302     		.uleb128 0x103
 17484 fc3f 49434D50 		.ascii "ICMP_V6_TIME_EXCEEDED 0x3\0"
 17484      5F56365F 
 17484      54494D45 
 17484      5F455843 
 17484      45454445 
 17485 fc59 01       		.byte	0x1
 17486 fc5a 8402     		.uleb128 0x104
 17487 fc5c 49434D50 		.ascii "ICMP_V6_PARAMETER_PROBLEM 0x4\0"
 17487      5F56365F 
 17487      50415241 
 17487      4D455445 
 17487      525F5052 
 17488 fc7a 01       		.byte	0x1
 17489 fc7b 8902     		.uleb128 0x109
 17490 fc7d 49434D50 		.ascii "ICMP_V6_ECHO_REQUEST 0x80\0"
 17490      5F56365F 
 17490      4543484F 
 17490      5F524551 
 17490      55455354 
 17491 fc97 01       		.byte	0x1
 17492 fc98 8A02     		.uleb128 0x10a
 17493 fc9a 49434D50 		.ascii "ICMP_V6_ECHO_REPLY 0x81\0"
 17493      5F56365F 
 17493      4543484F 
 17493      5F524550 
 17493      4C592030 
 17494 fcb2 01       		.byte	0x1
 17495 fcb3 8B02     		.uleb128 0x10b
 17496 fcb5 49434D50 		.ascii "ICMP_V6_LISTENER_QUERY 0x82\0"
 17496      5F56365F 
 17496      4C495354 
 17496      454E4552 
 17496      5F515545 
 17497 fcd1 01       		.byte	0x1
 17498 fcd2 8C02     		.uleb128 0x10c
 17499 fcd4 49434D50 		.ascii "ICMP_V6_LISTENER_REPORT 0x83\0"
 17499      5F56365F 
 17499      4C495354 
 17499      454E4552 
 17499      5F524550 
 17500 fcf1 01       		.byte	0x1
 17501 fcf2 8D02     		.uleb128 0x10d
 17502 fcf4 49434D50 		.ascii "ICMP_V6_LISTENER_DONE 0x84\0"
 17502      5F56365F 
 17502      4C495354 
 17502      454E4552 
 17502      5F444F4E 
 17503 fd0f 01       		.byte	0x1
 17504 fd10 8E02     		.uleb128 0x10e
 17505 fd12 49434D50 		.ascii "ICMP_V6_ROUTER_SOLICIT 0x85\0"
 17505      5F56365F 
 17505      524F5554 
 17505      45525F53 
 17505      4F4C4943 
 17506 fd2e 01       		.byte	0x1
 17507 fd2f 8F02     		.uleb128 0x10f
 17508 fd31 49434D50 		.ascii "ICMP_V6_ROUTER_ADVERTISE 0x86\0"
 17508      5F56365F 
 17508      524F5554 
 17508      45525F41 
 17508      44564552 
 17509 fd4f 01       		.byte	0x1
 17510 fd50 9002     		.uleb128 0x110
 17511 fd52 49434D50 		.ascii "ICMP_V6_NEIGHBOR_SOLICIT 0x87\0"
 17511      5F56365F 
 17511      4E454947 
 17511      48424F52 
 17511      5F534F4C 
 17512 fd70 01       		.byte	0x1
 17513 fd71 9102     		.uleb128 0x111
 17514 fd73 49434D50 		.ascii "ICMP_V6_NEIGHBOR_ADVERTISE 0x88\0"
 17514      5F56365F 
 17514      4E454947 
 17514      48424F52 
 17514      5F414456 
 17515 fd93 01       		.byte	0x1
 17516 fd94 9202     		.uleb128 0x112
 17517 fd96 49434D50 		.ascii "ICMP_V6_REDIRECT 0x89\0"
 17517      5F56365F 
 17517      52454449 
 17517      52454354 
 17517      20307838 
 17518 fdac 01       		.byte	0x1
 17519 fdad 9302     		.uleb128 0x113
 17520 fdaf 49434D50 		.ascii "ICMP_V6_LISTENER_REPORT_2 0x8F\0"
 17520      5F56365F 
 17520      4C495354 
 17520      454E4552 
 17520      5F524550 
 17521 fdce 01       		.byte	0x1
 17522 fdcf 9802     		.uleb128 0x118
 17523 fdd1 49434D50 		.ascii "ICMP_V6_NO_ROUTE_TO_DEST 0x0\0"
 17523      5F56365F 
 17523      4E4F5F52 
 17523      4F555445 
 17523      5F544F5F 
 17524 fdee 01       		.byte	0x1
 17525 fdef 9902     		.uleb128 0x119
 17526 fdf1 49434D50 		.ascii "ICMP_V6_COMM_PROHIBITED 0x1\0"
 17526      5F56365F 
 17526      434F4D4D 
 17526      5F50524F 
 17526      48494249 
 17527 fe0d 01       		.byte	0x1
 17528 fe0e 9A02     		.uleb128 0x11a
 17529 fe10 49434D50 		.ascii "ICMP_V6_BEYOND_SCOPE 0x2\0"
 17529      5F56365F 
 17529      4245594F 
 17529      4E445F53 
 17529      434F5045 
 17530 fe29 01       		.byte	0x1
 17531 fe2a 9B02     		.uleb128 0x11b
 17532 fe2c 49434D50 		.ascii "ICMP_V6_ADDR_UNREACHABLE 0x3\0"
 17532      5F56365F 
 17532      41444452 
 17532      5F554E52 
 17532      45414348 
 17533 fe49 01       		.byte	0x1
 17534 fe4a 9C02     		.uleb128 0x11c
 17535 fe4c 49434D50 		.ascii "ICMP_V6_PORT_UNREACHABLE 0x4\0"
 17535      5F56365F 
 17535      504F5254 
 17535      5F554E52 
 17535      45414348 
 17536 fe69 01       		.byte	0x1
 17537 fe6a 9D02     		.uleb128 0x11d
 17538 fe6c 49434D50 		.ascii "ICMP_V6_SOURCE_ADDR_FAILED 0x5\0"
 17538      5F56365F 
 17538      534F5552 
 17538      43455F41 
 17538      4444525F 
 17539 fe8b 01       		.byte	0x1
 17540 fe8c 9E02     		.uleb128 0x11e
 17541 fe8e 49434D50 		.ascii "ICMP_V6_ROUTE_REJECTED 0x6\0"
 17541      5F56365F 
 17541      524F5554 
 17541      455F5245 
 17541      4A454354 
 17542 fea9 01       		.byte	0x1
 17543 feaa A302     		.uleb128 0x123
 17544 feac 49434D50 		.ascii "ICMP_V6_TIMEOUT_HOP_LIMIT 0x0\0"
 17544      5F56365F 
 17544      54494D45 
 17544      4F55545F 
 17544      484F505F 
 17545 feca 01       		.byte	0x1
 17546 fecb A402     		.uleb128 0x124
 17547 fecd 49434D50 		.ascii "ICMP_V6_TIMEOUT_REASSEMBLE 0x1\0"
 17547      5F56365F 
 17547      54494D45 
 17547      4F55545F 
 17547      52454153 
 17548 feec 01       		.byte	0x1
 17549 feed A902     		.uleb128 0x129
 17550 feef 49434D50 		.ascii "ICMP_V6_ERRONEOUS_HEADER 0x0\0"
 17550      5F56365F 
 17550      4552524F 
 17550      4E454F55 
 17550      535F4845 
 17551 ff0c 01       		.byte	0x1
 17552 ff0d AA02     		.uleb128 0x12a
 17553 ff0f 49434D50 		.ascii "ICMP_V6_UNRECOGNIZE_NEXT_HDR 0x1\0"
 17553      5F56365F 
 17553      554E5245 
 17553      434F474E 
 17553      495A455F 
 17554 ff30 01       		.byte	0x1
 17555 ff31 AB02     		.uleb128 0x12b
 17556 ff33 49434D50 		.ascii "ICMP_V6_UNRECOGNIZE_OPTION 0x2\0"
 17556      5F56365F 
 17556      554E5245 
 17556      434F474E 
 17556      495A455F 
 17557 ff52 04       		.byte	0x4
 17558              		.file 32 "gnu-efi-3.0.18/inc/efiudp.h"
 17559 ff53 03       		.byte	0x3
 17560 ff54 51       		.uleb128 0x51
 17561 ff55 20       		.uleb128 0x20
 17562 ff56 01       		.byte	0x1
 17563 ff57 02       		.uleb128 0x2
 17564 ff58 5F454649 		.ascii "_EFI_UDP_H \0"
 17564      5F554450 
 17564      5F482000 
 17565 ff64 01       		.byte	0x1
 17566 ff65 0A       		.uleb128 0xa
 17567 ff66 4546495F 		.ascii "EFI_UDP4_SERVICE_BINDING_PROTOCOL { 0x83f01464, 0x99bd, 0x45e5, {0xb3, 0x83, 0xaf, 0x63, 0
 17567      55445034 
 17567      5F534552 
 17567      56494345 
 17567      5F42494E 
 17568 ffd9 01       		.byte	0x1
 17569 ffda 0D       		.uleb128 0xd
 17570 ffdb 4546495F 		.ascii "EFI_UDP4_PROTOCOL { 0x3ad9df29, 0x4501, 0x478d, {0xb1, 0xf8, 0x7f, 0x7f, 0xe7, 0x0e, 0x50,
 17570      55445034 
 17570      5F50524F 
 17570      544F434F 
 17570      4C207B20 
 17571 1003e 01       		.byte	0x1
 17572 1003f 10       		.uleb128 0x10
 17573 10040 4546495F 		.ascii "EFI_UDP6_SERVICE_BINDING_PROTOCOL { 0x66ed4721, 0x3c98, 0x4d3e, {0x81, 0xe3, 0xd0, 0x3d, 0
 17573      55445036 
 17573      5F534552 
 17573      56494345 
 17573      5F42494E 
 17574 100b3 01       		.byte	0x1
 17575 100b4 13       		.uleb128 0x13
 17576 100b5 4546495F 		.ascii "EFI_UDP6_PROTOCOL { 0x4f948815, 0xb4b9, 0x43cb, {0x8a, 0x33, 0x90, 0xe0, 0x60, 0xb3,0x49, 
 17576      55445036 
 17576      5F50524F 
 17576      544F434F 
 17576      4C207B20 
 17577 10117 01       		.byte	0x1
 17578 10118 4E       		.uleb128 0x4e
 17579 10119 4546495F 		.ascii "EFI_NETWORK_UNREACHABLE EFIERR(100)\0"
 17579      4E455457 
 17579      4F524B5F 
 17579      554E5245 
 17579      41434841 
 17580 1013d 01       		.byte	0x1
 17581 1013e 4F       		.uleb128 0x4f
 17582 1013f 4546495F 		.ascii "EFI_HOST_UNREACHABLE EFIERR(101)\0"
 17582      484F5354 
 17582      5F554E52 
 17582      45414348 
 17582      41424C45 
 17583 10160 01       		.byte	0x1
 17584 10161 50       		.uleb128 0x50
 17585 10162 4546495F 		.ascii "EFI_PROTOCOL_UNREACHABLE EFIERR(102)\0"
 17585      50524F54 
 17585      4F434F4C 
 17585      5F554E52 
 17585      45414348 
 17586 10187 01       		.byte	0x1
 17587 10188 51       		.uleb128 0x51
 17588 10189 4546495F 		.ascii "EFI_PORT_UNREACHABLE EFIERR(103)\0"
 17588      504F5254 
 17588      5F554E52 
 17588      45414348 
 17588      41424C45 
 17589 101aa 04       		.byte	0x4
 17590              		.file 33 "gnu-efi-3.0.18/inc/efitcp.h"
 17591 101ab 03       		.byte	0x3
 17592 101ac 52       		.uleb128 0x52
 17593 101ad 21       		.uleb128 0x21
 17594 101ae 01       		.byte	0x1
 17595 101af 02       		.uleb128 0x2
 17596 101b0 5F454649 		.ascii "_EFI_TCP_H \0"
 17596      5F544350 
 17596      5F482000 
 17597 101bc 01       		.byte	0x1
 17598 101bd 09       		.uleb128 0x9
 17599 101be 4546495F 		.ascii "EFI_TCP4_SERVICE_BINDING_PROTOCOL { 0x00720665, 0x67eb, 0x4a99, {0xba, 0xf7, 0xd3, 0xc3, 0
 17599      54435034 
 17599      5F534552 
 17599      56494345 
 17599      5F42494E 
 17600 1022f 01       		.byte	0x1
 17601 10230 0C       		.uleb128 0xc
 17602 10231 4546495F 		.ascii "EFI_TCP4_PROTOCOL { 0x65530bc7, 0xa359, 0x410f, {0xb0, 0x10, 0x5a, 0xad, 0xc7, 0xec, 0x2b,
 17602      54435034 
 17602      5F50524F 
 17602      544F434F 
 17602      4C207B20 
 17603 10293 01       		.byte	0x1
 17604 10294 0F       		.uleb128 0xf
 17605 10295 4546495F 		.ascii "EFI_TCP6_SERVICE_BINDING_PROTOCOL { 0xec20eb79, 0x6c1a, 0x4664, {0x9a, 0xd, 0xd2, 0xe4, 0x
 17605      54435036 
 17605      5F534552 
 17605      56494345 
 17605      5F42494E 
 17606 10306 01       		.byte	0x1
 17607 10307 12       		.uleb128 0x12
 17608 10308 4546495F 		.ascii "EFI_TCP6_PROTOCOL { 0x46e44855, 0xbd60, 0x4ab7, {0xab, 0xd, 0xa6, 0x79, 0xb9, 0x44, 0x7d, 
 17608      54435036 
 17608      5F50524F 
 17608      544F434F 
 17608      4C207B20 
 17609 10369 01       		.byte	0x1
 17610 1036a 8701     		.uleb128 0x87
 17611 1036c 4546495F 		.ascii "EFI_CONNECTION_FIN EFIERR(104)\0"
 17611      434F4E4E 
 17611      45435449 
 17611      4F4E5F46 
 17611      494E2045 
 17612 1038b 01       		.byte	0x1
 17613 1038c 8801     		.uleb128 0x88
 17614 1038e 4546495F 		.ascii "EFI_CONNECTION_RESET EFIERR(105)\0"
 17614      434F4E4E 
 17614      45435449 
 17614      4F4E5F52 
 17614      45534554 
 17615 103af 01       		.byte	0x1
 17616 103b0 8901     		.uleb128 0x89
 17617 103b2 4546495F 		.ascii "EFI_CONNECTION_REFUSED EFIERR(106)\0"
 17617      434F4E4E 
 17617      45435449 
 17617      4F4E5F52 
 17617      45465553 
 17618 103d5 04       		.byte	0x4
 17619              		.file 34 "gnu-efi-3.0.18/inc/efipoint.h"
 17620 103d6 03       		.byte	0x3
 17621 103d7 53       		.uleb128 0x53
 17622 103d8 22       		.uleb128 0x22
 17623 103d9 01       		.byte	0x1
 17624 103da 17       		.uleb128 0x17
 17625 103db 5F454649 		.ascii "_EFI_POINT_H \0"
 17625      5F504F49 
 17625      4E545F48 
 17625      2000
 17626 103e9 01       		.byte	0x1
 17627 103ea 19       		.uleb128 0x19
 17628 103eb 4546495F 		.ascii "EFI_SIMPLE_POINTER_PROTOCOL_GUID { 0x31878c87, 0xb75, 0x11d5, { 0x9a, 0x4f, 0x0, 0x90, 0x2
 17628      53494D50 
 17628      4C455F50 
 17628      4F494E54 
 17628      45525F50 
 17629 1045d 01       		.byte	0x1
 17630 1045e 43       		.uleb128 0x43
 17631 1045f 4546495F 		.ascii "EFI_ABSOLUTE_POINTER_PROTOCOL_GUID { 0x8D59D32B, 0xC655, 0x4AE9, { 0x9B, 0x15, 0xF2, 0x59,
 17631      4142534F 
 17631      4C555445 
 17631      5F504F49 
 17631      4E544552 
 17632 104d5 01       		.byte	0x1
 17633 104d6 59       		.uleb128 0x59
 17634 104d7 4546495F 		.ascii "EFI_ABSP_SupportsAltActive 0x00000001\0"
 17634      41425350 
 17634      5F537570 
 17634      706F7274 
 17634      73416C74 
 17635 104fd 01       		.byte	0x1
 17636 104fe 5A       		.uleb128 0x5a
 17637 104ff 4546495F 		.ascii "EFI_ABSP_SupportsPressureAsZ 0x00000002\0"
 17637      41425350 
 17637      5F537570 
 17637      706F7274 
 17637      73507265 
 17638 10527 01       		.byte	0x1
 17639 10528 5B       		.uleb128 0x5b
 17640 10529 4546495F 		.ascii "EFI_ABSP_TouchActive 0x00000001\0"
 17640      41425350 
 17640      5F546F75 
 17640      63684163 
 17640      74697665 
 17641 10549 01       		.byte	0x1
 17642 1054a 5C       		.uleb128 0x5c
 17643 1054b 4546495F 		.ascii "EFI_ABS_AltActive 0x00000002\0"
 17643      4142535F 
 17643      416C7441 
 17643      63746976 
 17643      65203078 
 17644 10568 04       		.byte	0x4
 17645              		.file 35 "gnu-efi-3.0.18/inc/efishell.h"
 17646 10569 03       		.byte	0x3
 17647 1056a 54       		.uleb128 0x54
 17648 1056b 23       		.uleb128 0x23
 17649 1056c 01       		.byte	0x1
 17650 1056d 0D       		.uleb128 0xd
 17651 1056e 5F454649 		.ascii "_EFI_SHELL_H \0"
 17651      5F534845 
 17651      4C4C5F48 
 17651      2000
 17652              		.file 36 "gnu-efi-3.0.18/inc/efilink.h"
 17653 1057c 03       		.byte	0x3
 17654 1057d 0F       		.uleb128 0xf
 17655 1057e 24       		.uleb128 0x24
 17656 1057f 01       		.byte	0x1
 17657 10580 02       		.uleb128 0x2
 17658 10581 5F454649 		.ascii "_EFI_LINK_H \0"
 17658      5F4C494E 
 17658      4B5F4820 
 17658      00
 17659 1058e 01       		.byte	0x1
 17660 1058f 2B       		.uleb128 0x2b
 17661 10590 496E6974 		.ascii "InitializeListHead(ListHead) (ListHead)->Flink = ListHead; (ListHead)->Blink = ListHead;\0
 17661      69616C69 
 17661      7A654C69 
 17661      73744865 
 17661      6164284C 
 17662 105e9 01       		.byte	0x1
 17663 105ea 36       		.uleb128 0x36
 17664 105eb 49734C69 		.ascii "IsListEmpty(ListHead) ((ListHead)->Flink == (ListHead))\0"
 17664      7374456D 
 17664      70747928 
 17664      4C697374 
 17664      48656164 
 17665 10623 01       		.byte	0x1
 17666 10624 40       		.uleb128 0x40
 17667 10625 5F52656D 		.ascii "_RemoveEntryList(Entry) { LIST_ENTRY *_Blink, *_Flink; _Flink = (Entry)->Flink; _Blink = (
 17667      6F766545 
 17667      6E747279 
 17667      4C697374 
 17667      28456E74 
 17668 106c0 01       		.byte	0x1
 17669 106c1 4E       		.uleb128 0x4e
 17670 106c2 52656D6F 		.ascii "RemoveEntryList(Entry) _RemoveEntryList(Entry);\0"
 17670      7665456E 
 17670      7472794C 
 17670      69737428 
 17670      456E7472 
 17671 106f2 01       		.byte	0x1
 17672 106f3 5A       		.uleb128 0x5a
 17673 106f4 496E7365 		.ascii "InsertTailList(ListHead,Entry) { LIST_ENTRY *_ListHead, *_Blink; _ListHead = (ListHead); _
 17673      72745461 
 17673      696C4C69 
 17673      7374284C 
 17673      69737448 
 17674 107d4 01       		.byte	0x1
 17675 107d5 6C       		.uleb128 0x6c
 17676 107d6 496E7365 		.ascii "InsertHeadList(ListHead,Entry) { LIST_ENTRY *_ListHead, *_Flink; _ListHead = (ListHead); _
 17676      72744865 
 17676      61644C69 
 17676      7374284C 
 17676      69737448 
 17677 108b6 01       		.byte	0x1
 17678 108b7 7E       		.uleb128 0x7e
 17679 108b8 53776170 		.ascii "SwapListEntries(Entry1,Entry2) { LIST_ENTRY *Entry1Flink, *Entry1Blink; LIST_ENTRY *Entry2
 17679      4C697374 
 17679      456E7472 
 17679      69657328 
 17679      456E7472 
 17680 10a5d 01       		.byte	0x1
 17681 10a5e 9101     		.uleb128 0x91
 17682 10a60 4546495F 		.ascii "EFI_FIELD_OFFSET(TYPE,Field) ((UINTN)(intptr_t)(&(((TYPE *) 0)->Field)))\0"
 17682      4649454C 
 17682      445F4F46 
 17682      46534554 
 17682      28545950 
 17683 10aa9 01       		.byte	0x1
 17684 10aaa 9801     		.uleb128 0x98
 17685 10aac 5F435228 		.ascii "_CR(Record,TYPE,Field) ((TYPE *) ( (CHAR8 *)(Record) - (CHAR8 *) &(((TYPE *) 0)->Field)))\
 17685      5265636F 
 17685      72642C54 
 17685      5950452C 
 17685      4669656C 
 17686 10b06 01       		.byte	0x1
 17687 10b07 9E01     		.uleb128 0x9e
 17688 10b09 42415345 		.ascii "BASE_CR _CR\0"
 17688      5F435220 
 17688      5F435200 
 17689 10b15 01       		.byte	0x1
 17690 10b16 A601     		.uleb128 0xa6
 17691 10b18 43522852 		.ascii "CR(Record,TYPE,Field,Signature) _CR(Record, TYPE, Field)\0"
 17691      65636F72 
 17691      642C5459 
 17691      50452C46 
 17691      69656C64 
 17692 10b51 04       		.byte	0x4
 17693 10b52 01       		.byte	0x1
 17694 10b53 11       		.uleb128 0x11
 17695 10b54 4546495F 		.ascii "EFI_SHELL_PROTOCOL_GUID { 0x6302d008, 0x7f9b, 0x4f30, { 0x87, 0xac, 0x60, 0xc9, 0xfe, 0xf5
 17695      5348454C 
 17695      4C5F5052 
 17695      4F544F43 
 17695      4F4C5F47 
 17696 10bbf 01       		.byte	0x1
 17697 10bc0 9801     		.uleb128 0x98
 17698 10bc2 4546495F 		.ascii "EFI_DEVICE_NAME_USE_COMPONENT_NAME 0x00000001\0"
 17698      44455649 
 17698      43455F4E 
 17698      414D455F 
 17698      5553455F 
 17699 10bf0 01       		.byte	0x1
 17700 10bf1 9901     		.uleb128 0x99
 17701 10bf3 4546495F 		.ascii "EFI_DEVICE_NAME_USE_DEVICE_PATH 0x00000002\0"
 17701      44455649 
 17701      43455F4E 
 17701      414D455F 
 17701      5553455F 
 17702 10c1e 01       		.byte	0x1
 17703 10c1f 9903     		.uleb128 0x199
 17704 10c21 4546495F 		.ascii "EFI_SHELL_PARAMETERS_PROTOCOL_GUID { 0x752f3136, 0x4e16, 0x4fdc, { 0xa2, 0x2a, 0xe5, 0xf4,
 17704      5348454C 
 17704      4C5F5041 
 17704      52414D45 
 17704      54455253 
 17705 10c97 01       		.byte	0x1
 17706 10c98 A603     		.uleb128 0x1a6
 17707 10c9a 4546495F 		.ascii "EFI_SHELL_DYNAMIC_COMMAND_PROTOCOL_GUID { 0x3c7200e9, 0x005f, 0x4ea4, { 0x87, 0xde, 0xa3, 
 17707      5348454C 
 17707      4C5F4459 
 17707      4E414D49 
 17707      435F434F 
 17708 10d15 04       		.byte	0x4
 17709 10d16 04       		.byte	0x4
 17710 10d17 03       		.byte	0x3
 17711 10d18 02       		.uleb128 0x2
 17712 10d19 0A       		.uleb128 0xa
 17713 10d1a 01       		.byte	0x1
 17714 10d1b 02       		.uleb128 0x2
 17715 10d1c 5F454649 		.ascii "_EFILIB_INCLUDE_ \0"
 17715      4C49425F 
 17715      494E434C 
 17715      5544455F 
 17715      2000
 17716              		.file 37 "gnu-efi-3.0.18/inc/efidebug.h"
 17717 10d2e 03       		.byte	0x3
 17718 10d2f 1A       		.uleb128 0x1a
 17719 10d30 25       		.uleb128 0x25
 17720 10d31 01       		.byte	0x1
 17721 10d32 02       		.uleb128 0x2
 17722 10d33 5F454649 		.ascii "_EFI_DEBUG_H \0"
 17722      5F444542 
 17722      55475F48 
 17722      2000
 17723 10d41 01       		.byte	0x1
 17724 10d42 1F       		.uleb128 0x1f
 17725 10d43 44424741 		.ascii "DBGASSERT(a) \0"
 17725      53534552 
 17725      54286129 
 17725      2000
 17726 10d51 01       		.byte	0x1
 17727 10d52 20       		.uleb128 0x20
 17728 10d53 44454255 		.ascii "DEBUG(a) \0"
 17728      47286129 
 17728      2000
 17729 10d5d 01       		.byte	0x1
 17730 10d5e 2A       		.uleb128 0x2a
 17731 10d5f 44424753 		.ascii "DBGSETMEM(a,l) \0"
 17731      45544D45 
 17731      4D28612C 
 17731      6C292000 
 17732 10d6f 01       		.byte	0x1
 17733 10d70 2E       		.uleb128 0x2e
 17734 10d71 445F494E 		.ascii "D_INIT 0x00000001\0"
 17734      49542030 
 17734      78303030 
 17734      30303030 
 17734      3100
 17735 10d83 01       		.byte	0x1
 17736 10d84 2F       		.uleb128 0x2f
 17737 10d85 445F5741 		.ascii "D_WARN 0x00000002\0"
 17737      524E2030 
 17737      78303030 
 17737      30303030 
 17737      3200
 17738 10d97 01       		.byte	0x1
 17739 10d98 30       		.uleb128 0x30
 17740 10d99 445F4C4F 		.ascii "D_LOAD 0x00000004\0"
 17740      41442030 
 17740      78303030 
 17740      30303030 
 17740      3400
 17741 10dab 01       		.byte	0x1
 17742 10dac 31       		.uleb128 0x31
 17743 10dad 445F4653 		.ascii "D_FS 0x00000008\0"
 17743      20307830 
 17743      30303030 
 17743      30303800 
 17744 10dbd 01       		.byte	0x1
 17745 10dbe 32       		.uleb128 0x32
 17746 10dbf 445F504F 		.ascii "D_POOL 0x00000010\0"
 17746      4F4C2030 
 17746      78303030 
 17746      30303031 
 17746      3000
 17747 10dd1 01       		.byte	0x1
 17748 10dd2 33       		.uleb128 0x33
 17749 10dd3 445F5041 		.ascii "D_PAGE 0x00000020\0"
 17749      47452030 
 17749      78303030 
 17749      30303032 
 17749      3000
 17750 10de5 01       		.byte	0x1
 17751 10de6 34       		.uleb128 0x34
 17752 10de7 445F494E 		.ascii "D_INFO 0x00000040\0"
 17752      464F2030 
 17752      78303030 
 17752      30303034 
 17752      3000
 17753 10df9 01       		.byte	0x1
 17754 10dfa 35       		.uleb128 0x35
 17755 10dfb 445F5641 		.ascii "D_VAR 0x00000100\0"
 17755      52203078 
 17755      30303030 
 17755      30313030 
 17755      00
 17756 10e0c 01       		.byte	0x1
 17757 10e0d 36       		.uleb128 0x36
 17758 10e0e 445F5041 		.ascii "D_PARSE 0x00000200\0"
 17758      52534520 
 17758      30783030 
 17758      30303032 
 17758      303000
 17759 10e21 01       		.byte	0x1
 17760 10e22 37       		.uleb128 0x37
 17761 10e23 445F424D 		.ascii "D_BM 0x00000400\0"
 17761      20307830 
 17761      30303030 
 17761      34303000 
 17762 10e33 01       		.byte	0x1
 17763 10e34 38       		.uleb128 0x38
 17764 10e35 445F424C 		.ascii "D_BLKIO 0x00001000\0"
 17764      4B494F20 
 17764      30783030 
 17764      30303130 
 17764      303000
 17765 10e48 01       		.byte	0x1
 17766 10e49 39       		.uleb128 0x39
 17767 10e4a 445F424C 		.ascii "D_BLKIO_ULTRA 0x00002000\0"
 17767      4B494F5F 
 17767      554C5452 
 17767      41203078 
 17767      30303030 
 17768 10e63 01       		.byte	0x1
 17769 10e64 3A       		.uleb128 0x3a
 17770 10e65 445F4E45 		.ascii "D_NET 0x00004000\0"
 17770      54203078 
 17770      30303030 
 17770      34303030 
 17770      00
 17771 10e76 01       		.byte	0x1
 17772 10e77 3B       		.uleb128 0x3b
 17773 10e78 445F4E45 		.ascii "D_NET_ULTRA 0x00008000\0"
 17773      545F554C 
 17773      54524120 
 17773      30783030 
 17773      30303830 
 17774 10e8f 01       		.byte	0x1
 17775 10e90 3C       		.uleb128 0x3c
 17776 10e91 445F5458 		.ascii "D_TXTIN 0x00010000\0"
 17776      54494E20 
 17776      30783030 
 17776      30313030 
 17776      303000
 17777 10ea4 01       		.byte	0x1
 17778 10ea5 3D       		.uleb128 0x3d
 17779 10ea6 445F5458 		.ascii "D_TXTOUT 0x00020000\0"
 17779      544F5554 
 17779      20307830 
 17779      30303230 
 17779      30303000 
 17780 10eba 01       		.byte	0x1
 17781 10ebb 3E       		.uleb128 0x3e
 17782 10ebc 445F4552 		.ascii "D_ERROR_ATA 0x00040000\0"
 17782      524F525F 
 17782      41544120 
 17782      30783030 
 17782      30343030 
 17783 10ed3 01       		.byte	0x1
 17784 10ed4 3F       		.uleb128 0x3f
 17785 10ed5 445F4552 		.ascii "D_ERROR 0x80000000\0"
 17785      524F5220 
 17785      30783830 
 17785      30303030 
 17785      303000
 17786 10ee8 01       		.byte	0x1
 17787 10ee9 41       		.uleb128 0x41
 17788 10eea 445F5245 		.ascii "D_RESERVED 0x7fffC880\0"
 17788      53455256 
 17788      45442030 
 17788      78376666 
 17788      66433838 
 17789 10f00 01       		.byte	0x1
 17790 10f01 47       		.uleb128 0x47
 17791 10f02 4546495F 		.ascii "EFI_DBUG_MASK (D_ERROR)\0"
 17791      44425547 
 17791      5F4D4153 
 17791      4B202844 
 17791      5F455252 
 17792 10f1a 01       		.byte	0x1
 17793 10f1b 55       		.uleb128 0x55
 17794 10f1c 41535345 		.ascii "ASSERT(a) \0"
 17794      52542861 
 17794      292000
 17795 10f27 01       		.byte	0x1
 17796 10f28 56       		.uleb128 0x56
 17797 10f29 41535345 		.ascii "ASSERT_LOCKED(l) \0"
 17797      52545F4C 
 17797      4F434B45 
 17797      44286C29 
 17797      2000
 17798 10f3b 01       		.byte	0x1
 17799 10f3c 57       		.uleb128 0x57
 17800 10f3d 41535345 		.ascii "ASSERT_STRUCT(p,t) \0"
 17800      52545F53 
 17800      54525543 
 17800      5428702C 
 17800      74292000 
 17801 10f51 01       		.byte	0x1
 17802 10f52 74       		.uleb128 0x74
 17803 10f53 45584345 		.ascii "EXCEPT_IA32_DIVIDE_ERROR 0\0"
 17803      50545F49 
 17803      4133325F 
 17803      44495649 
 17803      44455F45 
 17804 10f6e 01       		.byte	0x1
 17805 10f6f 75       		.uleb128 0x75
 17806 10f70 45584345 		.ascii "EXCEPT_IA32_DEBUG 1\0"
 17806      50545F49 
 17806      4133325F 
 17806      44454255 
 17806      47203100 
 17807 10f84 01       		.byte	0x1
 17808 10f85 76       		.uleb128 0x76
 17809 10f86 45584345 		.ascii "EXCEPT_IA32_NMI 2\0"
 17809      50545F49 
 17809      4133325F 
 17809      4E4D4920 
 17809      3200
 17810 10f98 01       		.byte	0x1
 17811 10f99 77       		.uleb128 0x77
 17812 10f9a 45584345 		.ascii "EXCEPT_IA32_BREAKPOINT 3\0"
 17812      50545F49 
 17812      4133325F 
 17812      42524541 
 17812      4B504F49 
 17813 10fb3 01       		.byte	0x1
 17814 10fb4 78       		.uleb128 0x78
 17815 10fb5 45584345 		.ascii "EXCEPT_IA32_OVERFLOW 4\0"
 17815      50545F49 
 17815      4133325F 
 17815      4F564552 
 17815      464C4F57 
 17816 10fcc 01       		.byte	0x1
 17817 10fcd 79       		.uleb128 0x79
 17818 10fce 45584345 		.ascii "EXCEPT_IA32_BOUND 5\0"
 17818      50545F49 
 17818      4133325F 
 17818      424F554E 
 17818      44203500 
 17819 10fe2 01       		.byte	0x1
 17820 10fe3 7A       		.uleb128 0x7a
 17821 10fe4 45584345 		.ascii "EXCEPT_IA32_INVALID_OPCODE 6\0"
 17821      50545F49 
 17821      4133325F 
 17821      494E5641 
 17821      4C49445F 
 17822 11001 01       		.byte	0x1
 17823 11002 7B       		.uleb128 0x7b
 17824 11003 45584345 		.ascii "EXCEPT_IA32_DOUBLE_FAULT 8\0"
 17824      50545F49 
 17824      4133325F 
 17824      444F5542 
 17824      4C455F46 
 17825 1101e 01       		.byte	0x1
 17826 1101f 7C       		.uleb128 0x7c
 17827 11020 45584345 		.ascii "EXCEPT_IA32_INVALID_TSS 10\0"
 17827      50545F49 
 17827      4133325F 
 17827      494E5641 
 17827      4C49445F 
 17828 1103b 01       		.byte	0x1
 17829 1103c 7D       		.uleb128 0x7d
 17830 1103d 45584345 		.ascii "EXCEPT_IA32_SEG_NOT_PRESENT 11\0"
 17830      50545F49 
 17830      4133325F 
 17830      5345475F 
 17830      4E4F545F 
 17831 1105c 01       		.byte	0x1
 17832 1105d 7E       		.uleb128 0x7e
 17833 1105e 45584345 		.ascii "EXCEPT_IA32_STACK_FAULT 12\0"
 17833      50545F49 
 17833      4133325F 
 17833      53544143 
 17833      4B5F4641 
 17834 11079 01       		.byte	0x1
 17835 1107a 7F       		.uleb128 0x7f
 17836 1107b 45584345 		.ascii "EXCEPT_IA32_GP_FAULT 13\0"
 17836      50545F49 
 17836      4133325F 
 17836      47505F46 
 17836      41554C54 
 17837 11093 01       		.byte	0x1
 17838 11094 8001     		.uleb128 0x80
 17839 11096 45584345 		.ascii "EXCEPT_IA32_PAGE_FAULT 14\0"
 17839      50545F49 
 17839      4133325F 
 17839      50414745 
 17839      5F464155 
 17840 110b0 01       		.byte	0x1
 17841 110b1 8101     		.uleb128 0x81
 17842 110b3 45584345 		.ascii "EXCEPT_IA32_FP_ERROR 16\0"
 17842      50545F49 
 17842      4133325F 
 17842      46505F45 
 17842      52524F52 
 17843 110cb 01       		.byte	0x1
 17844 110cc 8201     		.uleb128 0x82
 17845 110ce 45584345 		.ascii "EXCEPT_IA32_ALIGNMENT_CHECK 17\0"
 17845      50545F49 
 17845      4133325F 
 17845      414C4947 
 17845      4E4D454E 
 17846 110ed 01       		.byte	0x1
 17847 110ee 8301     		.uleb128 0x83
 17848 110f0 45584345 		.ascii "EXCEPT_IA32_MACHINE_CHECK 18\0"
 17848      50545F49 
 17848      4133325F 
 17848      4D414348 
 17848      494E455F 
 17849 1110d 01       		.byte	0x1
 17850 1110e 8401     		.uleb128 0x84
 17851 11110 45584345 		.ascii "EXCEPT_IA32_SIMD 19\0"
 17851      50545F49 
 17851      4133325F 
 17851      53494D44 
 17851      20313900 
 17852 11124 01       		.byte	0x1
 17853 11125 C901     		.uleb128 0xc9
 17854 11127 45584345 		.ascii "EXCEPT_X64_DIVIDE_ERROR 0\0"
 17854      50545F58 
 17854      36345F44 
 17854      49564944 
 17854      455F4552 
 17855 11141 01       		.byte	0x1
 17856 11142 CA01     		.uleb128 0xca
 17857 11144 45584345 		.ascii "EXCEPT_X64_DEBUG 1\0"
 17857      50545F58 
 17857      36345F44 
 17857      45425547 
 17857      203100
 17858 11157 01       		.byte	0x1
 17859 11158 CB01     		.uleb128 0xcb
 17860 1115a 45584345 		.ascii "EXCEPT_X64_NMI 2\0"
 17860      50545F58 
 17860      36345F4E 
 17860      4D492032 
 17860      00
 17861 1116b 01       		.byte	0x1
 17862 1116c CC01     		.uleb128 0xcc
 17863 1116e 45584345 		.ascii "EXCEPT_X64_BREAKPOINT 3\0"
 17863      50545F58 
 17863      36345F42 
 17863      5245414B 
 17863      504F494E 
 17864 11186 01       		.byte	0x1
 17865 11187 CD01     		.uleb128 0xcd
 17866 11189 45584345 		.ascii "EXCEPT_X64_OVERFLOW 4\0"
 17866      50545F58 
 17866      36345F4F 
 17866      56455246 
 17866      4C4F5720 
 17867 1119f 01       		.byte	0x1
 17868 111a0 CE01     		.uleb128 0xce
 17869 111a2 45584345 		.ascii "EXCEPT_X64_BOUND 5\0"
 17869      50545F58 
 17869      36345F42 
 17869      4F554E44 
 17869      203500
 17870 111b5 01       		.byte	0x1
 17871 111b6 CF01     		.uleb128 0xcf
 17872 111b8 45584345 		.ascii "EXCEPT_X64_INVALID_OPCODE 6\0"
 17872      50545F58 
 17872      36345F49 
 17872      4E56414C 
 17872      49445F4F 
 17873 111d4 01       		.byte	0x1
 17874 111d5 D001     		.uleb128 0xd0
 17875 111d7 45584345 		.ascii "EXCEPT_X64_DOUBLE_FAULT 8\0"
 17875      50545F58 
 17875      36345F44 
 17875      4F55424C 
 17875      455F4641 
 17876 111f1 01       		.byte	0x1
 17877 111f2 D101     		.uleb128 0xd1
 17878 111f4 45584345 		.ascii "EXCEPT_X64_INVALID_TSS 10\0"
 17878      50545F58 
 17878      36345F49 
 17878      4E56414C 
 17878      49445F54 
 17879 1120e 01       		.byte	0x1
 17880 1120f D201     		.uleb128 0xd2
 17881 11211 45584345 		.ascii "EXCEPT_X64_SEG_NOT_PRESENT 11\0"
 17881      50545F58 
 17881      36345F53 
 17881      45475F4E 
 17881      4F545F50 
 17882 1122f 01       		.byte	0x1
 17883 11230 D301     		.uleb128 0xd3
 17884 11232 45584345 		.ascii "EXCEPT_X64_STACK_FAULT 12\0"
 17884      50545F58 
 17884      36345F53 
 17884      5441434B 
 17884      5F464155 
 17885 1124c 01       		.byte	0x1
 17886 1124d D401     		.uleb128 0xd4
 17887 1124f 45584345 		.ascii "EXCEPT_X64_GP_FAULT 13\0"
 17887      50545F58 
 17887      36345F47 
 17887      505F4641 
 17887      554C5420 
 17888 11266 01       		.byte	0x1
 17889 11267 D501     		.uleb128 0xd5
 17890 11269 45584345 		.ascii "EXCEPT_X64_PAGE_FAULT 14\0"
 17890      50545F58 
 17890      36345F50 
 17890      4147455F 
 17890      4641554C 
 17891 11282 01       		.byte	0x1
 17892 11283 D601     		.uleb128 0xd6
 17893 11285 45584345 		.ascii "EXCEPT_X64_FP_ERROR 16\0"
 17893      50545F58 
 17893      36345F46 
 17893      505F4552 
 17893      524F5220 
 17894 1129c 01       		.byte	0x1
 17895 1129d D701     		.uleb128 0xd7
 17896 1129f 45584345 		.ascii "EXCEPT_X64_ALIGNMENT_CHECK 17\0"
 17896      50545F58 
 17896      36345F41 
 17896      4C49474E 
 17896      4D454E54 
 17897 112bd 01       		.byte	0x1
 17898 112be D801     		.uleb128 0xd8
 17899 112c0 45584345 		.ascii "EXCEPT_X64_MACHINE_CHECK 18\0"
 17899      50545F58 
 17899      36345F4D 
 17899      41434849 
 17899      4E455F43 
 17900 112dc 01       		.byte	0x1
 17901 112dd D901     		.uleb128 0xd9
 17902 112df 45584345 		.ascii "EXCEPT_X64_SIMD 19\0"
 17902      50545F58 
 17902      36345F53 
 17902      494D4420 
 17902      313900
 17903 112f2 01       		.byte	0x1
 17904 112f3 A402     		.uleb128 0x124
 17905 112f5 45584345 		.ascii "EXCEPT_IPF_VHTP_TRANSLATION 0\0"
 17905      50545F49 
 17905      50465F56 
 17905      4854505F 
 17905      5452414E 
 17906 11313 01       		.byte	0x1
 17907 11314 A502     		.uleb128 0x125
 17908 11316 45584345 		.ascii "EXCEPT_IPF_INSTRUCTION_TLB 1\0"
 17908      50545F49 
 17908      50465F49 
 17908      4E535452 
 17908      55435449 
 17909 11333 01       		.byte	0x1
 17910 11334 A602     		.uleb128 0x126
 17911 11336 45584345 		.ascii "EXCEPT_IPF_DATA_TLB 2\0"
 17911      50545F49 
 17911      50465F44 
 17911      4154415F 
 17911      544C4220 
 17912 1134c 01       		.byte	0x1
 17913 1134d A702     		.uleb128 0x127
 17914 1134f 45584345 		.ascii "EXCEPT_IPF_ALT_INSTRUCTION_TLB 3\0"
 17914      50545F49 
 17914      50465F41 
 17914      4C545F49 
 17914      4E535452 
 17915 11370 01       		.byte	0x1
 17916 11371 A802     		.uleb128 0x128
 17917 11373 45584345 		.ascii "EXCEPT_IPF_ALT_DATA_TLB 4\0"
 17917      50545F49 
 17917      50465F41 
 17917      4C545F44 
 17917      4154415F 
 17918 1138d 01       		.byte	0x1
 17919 1138e A902     		.uleb128 0x129
 17920 11390 45584345 		.ascii "EXCEPT_IPF_DATA_NESTED_TLB 5\0"
 17920      50545F49 
 17920      50465F44 
 17920      4154415F 
 17920      4E455354 
 17921 113ad 01       		.byte	0x1
 17922 113ae AA02     		.uleb128 0x12a
 17923 113b0 45584345 		.ascii "EXCEPT_IPF_INSTRUCTION_KEY_MISSED 6\0"
 17923      50545F49 
 17923      50465F49 
 17923      4E535452 
 17923      55435449 
 17924 113d4 01       		.byte	0x1
 17925 113d5 AB02     		.uleb128 0x12b
 17926 113d7 45584345 		.ascii "EXCEPT_IPF_DATA_KEY_MISSED 7\0"
 17926      50545F49 
 17926      50465F44 
 17926      4154415F 
 17926      4B45595F 
 17927 113f4 01       		.byte	0x1
 17928 113f5 AC02     		.uleb128 0x12c
 17929 113f7 45584345 		.ascii "EXCEPT_IPF_DIRTY_BIT 8\0"
 17929      50545F49 
 17929      50465F44 
 17929      49525459 
 17929      5F424954 
 17930 1140e 01       		.byte	0x1
 17931 1140f AD02     		.uleb128 0x12d
 17932 11411 45584345 		.ascii "EXCEPT_IPF_INSTRUCTION_ACCESS_BIT 9\0"
 17932      50545F49 
 17932      50465F49 
 17932      4E535452 
 17932      55435449 
 17933 11435 01       		.byte	0x1
 17934 11436 AE02     		.uleb128 0x12e
 17935 11438 45584345 		.ascii "EXCEPT_IPF_DATA_ACCESS_BIT 10\0"
 17935      50545F49 
 17935      50465F44 
 17935      4154415F 
 17935      41434345 
 17936 11456 01       		.byte	0x1
 17937 11457 AF02     		.uleb128 0x12f
 17938 11459 45584345 		.ascii "EXCEPT_IPF_BREAKPOINT 11\0"
 17938      50545F49 
 17938      50465F42 
 17938      5245414B 
 17938      504F494E 
 17939 11472 01       		.byte	0x1
 17940 11473 B002     		.uleb128 0x130
 17941 11475 45584345 		.ascii "EXCEPT_IPF_EXTERNAL_INTERRUPT 12\0"
 17941      50545F49 
 17941      50465F45 
 17941      58544552 
 17941      4E414C5F 
 17942 11496 01       		.byte	0x1
 17943 11497 B102     		.uleb128 0x131
 17944 11499 45584345 		.ascii "EXCEPT_IPF_PAGE_NOT_PRESENT 20\0"
 17944      50545F49 
 17944      50465F50 
 17944      4147455F 
 17944      4E4F545F 
 17945 114b8 01       		.byte	0x1
 17946 114b9 B202     		.uleb128 0x132
 17947 114bb 45584345 		.ascii "EXCEPT_IPF_KEY_PERMISSION 21\0"
 17947      50545F49 
 17947      50465F4B 
 17947      45595F50 
 17947      45524D49 
 17948 114d8 01       		.byte	0x1
 17949 114d9 B302     		.uleb128 0x133
 17950 114db 45584345 		.ascii "EXCEPT_IPF_INSTRUCTION_ACCESS_RIGHTS 22\0"
 17950      50545F49 
 17950      50465F49 
 17950      4E535452 
 17950      55435449 
 17951 11503 01       		.byte	0x1
 17952 11504 B402     		.uleb128 0x134
 17953 11506 45584345 		.ascii "EXCEPT_IPF_DATA_ACCESS_RIGHTS 23\0"
 17953      50545F49 
 17953      50465F44 
 17953      4154415F 
 17953      41434345 
 17954 11527 01       		.byte	0x1
 17955 11528 B502     		.uleb128 0x135
 17956 1152a 45584345 		.ascii "EXCEPT_IPF_GENERAL_EXCEPTION 24\0"
 17956      50545F49 
 17956      50465F47 
 17956      454E4552 
 17956      414C5F45 
 17957 1154a 01       		.byte	0x1
 17958 1154b B602     		.uleb128 0x136
 17959 1154d 45584345 		.ascii "EXCEPT_IPF_DISABLED_FP_REGISTER 25\0"
 17959      50545F49 
 17959      50465F44 
 17959      49534142 
 17959      4C45445F 
 17960 11570 01       		.byte	0x1
 17961 11571 B702     		.uleb128 0x137
 17962 11573 45584345 		.ascii "EXCEPT_IPF_NAT_CONSUMPTION 26\0"
 17962      50545F49 
 17962      50465F4E 
 17962      41545F43 
 17962      4F4E5355 
 17963 11591 01       		.byte	0x1
 17964 11592 B802     		.uleb128 0x138
 17965 11594 45584345 		.ascii "EXCEPT_IPF_SPECULATION 27\0"
 17965      50545F49 
 17965      50465F53 
 17965      50454355 
 17965      4C415449 
 17966 115ae 01       		.byte	0x1
 17967 115af B902     		.uleb128 0x139
 17968 115b1 45584345 		.ascii "EXCEPT_IPF_DEBUG 29\0"
 17968      50545F49 
 17968      50465F44 
 17968      45425547 
 17968      20323900 
 17969 115c5 01       		.byte	0x1
 17970 115c6 BA02     		.uleb128 0x13a
 17971 115c8 45584345 		.ascii "EXCEPT_IPF_UNALIGNED_REFERENCE 30\0"
 17971      50545F49 
 17971      50465F55 
 17971      4E414C49 
 17971      474E4544 
 17972 115ea 01       		.byte	0x1
 17973 115eb BB02     		.uleb128 0x13b
 17974 115ed 45584345 		.ascii "EXCEPT_IPF_UNSUPPORTED_DATA_REFERENCE 31\0"
 17974      50545F49 
 17974      50465F55 
 17974      4E535550 
 17974      504F5254 
 17975 11616 01       		.byte	0x1
 17976 11617 BC02     		.uleb128 0x13c
 17977 11619 45584345 		.ascii "EXCEPT_IPF_FP_FAULT 32\0"
 17977      50545F49 
 17977      50465F46 
 17977      505F4641 
 17977      554C5420 
 17978 11630 01       		.byte	0x1
 17979 11631 BD02     		.uleb128 0x13d
 17980 11633 45584345 		.ascii "EXCEPT_IPF_FP_TRAP 33\0"
 17980      50545F49 
 17980      50465F46 
 17980      505F5452 
 17980      41502033 
 17981 11649 01       		.byte	0x1
 17982 1164a BE02     		.uleb128 0x13e
 17983 1164c 45584345 		.ascii "EXCEPT_IPF_LOWER_PRIVILEGE_TRANSFER_TRAP 34\0"
 17983      50545F49 
 17983      50465F4C 
 17983      4F574552 
 17983      5F505249 
 17984 11678 01       		.byte	0x1
 17985 11679 BF02     		.uleb128 0x13f
 17986 1167b 45584345 		.ascii "EXCEPT_IPF_TAKEN_BRANCH 35\0"
 17986      50545F49 
 17986      50465F54 
 17986      414B454E 
 17986      5F425241 
 17987 11696 01       		.byte	0x1
 17988 11697 C002     		.uleb128 0x140
 17989 11699 45584345 		.ascii "EXCEPT_IPF_SINGLE_STEP 36\0"
 17989      50545F49 
 17989      50465F53 
 17989      494E474C 
 17989      455F5354 
 17990 116b3 01       		.byte	0x1
 17991 116b4 C102     		.uleb128 0x141
 17992 116b6 45584345 		.ascii "EXCEPT_IPF_IA32_EXCEPTION 45\0"
 17992      50545F49 
 17992      50465F49 
 17992      4133325F 
 17992      45584345 
 17993 116d3 01       		.byte	0x1
 17994 116d4 C202     		.uleb128 0x142
 17995 116d6 45584345 		.ascii "EXCEPT_IPF_IA32_INTERCEPT 46\0"
 17995      50545F49 
 17995      50465F49 
 17995      4133325F 
 17995      494E5445 
 17996 116f3 01       		.byte	0x1
 17997 116f4 C302     		.uleb128 0x143
 17998 116f6 45584345 		.ascii "EXCEPT_IPF_IA32_INTERRUPT 47\0"
 17998      50545F49 
 17998      50465F49 
 17998      4133325F 
 17998      494E5445 
 17999 11713 01       		.byte	0x1
 18000 11714 C003     		.uleb128 0x1c0
 18001 11716 45584345 		.ascii "EXCEPT_EBC_UNDEFINED 0\0"
 18001      50545F45 
 18001      42435F55 
 18001      4E444546 
 18001      494E4544 
 18002 1172d 01       		.byte	0x1
 18003 1172e C103     		.uleb128 0x1c1
 18004 11730 45584345 		.ascii "EXCEPT_EBC_DIVIDE_ERROR 1\0"
 18004      50545F45 
 18004      42435F44 
 18004      49564944 
 18004      455F4552 
 18005 1174a 01       		.byte	0x1
 18006 1174b C203     		.uleb128 0x1c2
 18007 1174d 45584345 		.ascii "EXCEPT_EBC_DEBUG 2\0"
 18007      50545F45 
 18007      42435F44 
 18007      45425547 
 18007      203200
 18008 11760 01       		.byte	0x1
 18009 11761 C303     		.uleb128 0x1c3
 18010 11763 45584345 		.ascii "EXCEPT_EBC_BREAKPOINT 3\0"
 18010      50545F45 
 18010      42435F42 
 18010      5245414B 
 18010      504F494E 
 18011 1177b 01       		.byte	0x1
 18012 1177c C403     		.uleb128 0x1c4
 18013 1177e 45584345 		.ascii "EXCEPT_EBC_OVERFLOW 4\0"
 18013      50545F45 
 18013      42435F4F 
 18013      56455246 
 18013      4C4F5720 
 18014 11794 01       		.byte	0x1
 18015 11795 C503     		.uleb128 0x1c5
 18016 11797 45584345 		.ascii "EXCEPT_EBC_INVALID_OPCODE 5\0"
 18016      50545F45 
 18016      42435F49 
 18016      4E56414C 
 18016      49445F4F 
 18017 117b3 01       		.byte	0x1
 18018 117b4 C603     		.uleb128 0x1c6
 18019 117b6 45584345 		.ascii "EXCEPT_EBC_STACK_FAULT 6\0"
 18019      50545F45 
 18019      42435F53 
 18019      5441434B 
 18019      5F464155 
 18020 117cf 01       		.byte	0x1
 18021 117d0 C703     		.uleb128 0x1c7
 18022 117d2 45584345 		.ascii "EXCEPT_EBC_ALIGNMENT_CHECK 7\0"
 18022      50545F45 
 18022      42435F41 
 18022      4C49474E 
 18022      4D454E54 
 18023 117ef 01       		.byte	0x1
 18024 117f0 C803     		.uleb128 0x1c8
 18025 117f2 45584345 		.ascii "EXCEPT_EBC_INSTRUCTION_ENCODING 8\0"
 18025      50545F45 
 18025      42435F49 
 18025      4E535452 
 18025      55435449 
 18026 11814 01       		.byte	0x1
 18027 11815 C903     		.uleb128 0x1c9
 18028 11817 45584345 		.ascii "EXCEPT_EBC_BAD_BREAK 9\0"
 18028      50545F45 
 18028      42435F42 
 18028      41445F42 
 18028      5245414B 
 18029 1182e 01       		.byte	0x1
 18030 1182f CA03     		.uleb128 0x1ca
 18031 11831 45584345 		.ascii "EXCEPT_EBC_STEP 10\0"
 18031      50545F45 
 18031      42435F53 
 18031      54455020 
 18031      313000
 18032 11844 01       		.byte	0x1
 18033 11845 CB03     		.uleb128 0x1cb
 18034 11847 4D41585F 		.ascii "MAX_EBC_EXCEPTION EXCEPT_EBC_STEP\0"
 18034      4542435F 
 18034      45584345 
 18034      5054494F 
 18034      4E204558 
 18035 11869 01       		.byte	0x1
 18036 1186a DC03     		.uleb128 0x1dc
 18037 1186c 45584345 		.ascii "EXCEPT_ARM_RESET 0\0"
 18037      50545F41 
 18037      524D5F52 
 18037      45534554 
 18037      203000
 18038 1187f 01       		.byte	0x1
 18039 11880 DD03     		.uleb128 0x1dd
 18040 11882 45584345 		.ascii "EXCEPT_ARM_UNDEFINED_INSTRUCTION 1\0"
 18040      50545F41 
 18040      524D5F55 
 18040      4E444546 
 18040      494E4544 
 18041 118a5 01       		.byte	0x1
 18042 118a6 DE03     		.uleb128 0x1de
 18043 118a8 45584345 		.ascii "EXCEPT_ARM_SOFTWARE_INTERRUPT 2\0"
 18043      50545F41 
 18043      524D5F53 
 18043      4F465457 
 18043      4152455F 
 18044 118c8 01       		.byte	0x1
 18045 118c9 DF03     		.uleb128 0x1df
 18046 118cb 45584345 		.ascii "EXCEPT_ARM_PREFETCH_ABORT 3\0"
 18046      50545F41 
 18046      524D5F50 
 18046      52454645 
 18046      5443485F 
 18047 118e7 01       		.byte	0x1
 18048 118e8 E003     		.uleb128 0x1e0
 18049 118ea 45584345 		.ascii "EXCEPT_ARM_DATA_ABORT 4\0"
 18049      50545F41 
 18049      524D5F44 
 18049      4154415F 
 18049      41424F52 
 18050 11902 01       		.byte	0x1
 18051 11903 E103     		.uleb128 0x1e1
 18052 11905 45584345 		.ascii "EXCEPT_ARM_RESERVED 5\0"
 18052      50545F41 
 18052      524D5F52 
 18052      45534552 
 18052      56454420 
 18053 1191b 01       		.byte	0x1
 18054 1191c E203     		.uleb128 0x1e2
 18055 1191e 45584345 		.ascii "EXCEPT_ARM_IRQ 6\0"
 18055      50545F41 
 18055      524D5F49 
 18055      52512036 
 18055      00
 18056 1192f 01       		.byte	0x1
 18057 11930 E303     		.uleb128 0x1e3
 18058 11932 45584345 		.ascii "EXCEPT_ARM_FIQ 7\0"
 18058      50545F41 
 18058      524D5F46 
 18058      49512037 
 18058      00
 18059 11943 01       		.byte	0x1
 18060 11944 E403     		.uleb128 0x1e4
 18061 11946 4D41585F 		.ascii "MAX_ARM_EXCEPTION EXCEPT_ARM_FIQ\0"
 18061      41524D5F 
 18061      45584345 
 18061      5054494F 
 18061      4E204558 
 18062 11967 01       		.byte	0x1
 18063 11968 9F04     		.uleb128 0x21f
 18064 1196a 4546495F 		.ascii "EFI_DEBUG_IMAGE_INFO_TABLE_GUID { 0x49152e77, 0x1ada, 0x4764, {0xb7, 0xa2, 0x7a, 0xfe, 0xf
 18064      44454255 
 18064      475F494D 
 18064      4147455F 
 18064      494E464F 
 18065 119db 01       		.byte	0x1
 18066 119dc A204     		.uleb128 0x222
 18067 119de 4546495F 		.ascii "EFI_DEBUG_IMAGE_INFO_UPDATE_IN_PROGRESS 0x01\0"
 18067      44454255 
 18067      475F494D 
 18067      4147455F 
 18067      494E464F 
 18068 11a0b 01       		.byte	0x1
 18069 11a0c A304     		.uleb128 0x223
 18070 11a0e 4546495F 		.ascii "EFI_DEBUG_IMAGE_INFO_TABLE_MODIFIED 0x02\0"
 18070      44454255 
 18070      475F494D 
 18070      4147455F 
 18070      494E464F 
 18071 11a37 01       		.byte	0x1
 18072 11a38 A404     		.uleb128 0x224
 18073 11a3a 4546495F 		.ascii "EFI_DEBUG_IMAGE_INFO_INITIAL_SIZE (EFI_PAGE_SIZE / sizeof (UINTN))\0"
 18073      44454255 
 18073      475F494D 
 18073      4147455F 
 18073      494E464F 
 18074 11a7d 01       		.byte	0x1
 18075 11a7e A504     		.uleb128 0x225
 18076 11a80 4546495F 		.ascii "EFI_DEBUG_IMAGE_INFO_TYPE_NORMAL 0x01\0"
 18076      44454255 
 18076      475F494D 
 18076      4147455F 
 18076      494E464F 
 18077 11aa6 01       		.byte	0x1
 18078 11aa7 C204     		.uleb128 0x242
 18079 11aa9 4546495F 		.ascii "EFI_DEBUG_SUPPORT_PROTOCOL_GUID { 0x2755590c, 0x6f3c, 0x42fa, {0x9e, 0xa4, 0xa3, 0xba, 0x5
 18079      44454255 
 18079      475F5355 
 18079      50504F52 
 18079      545F5052 
 18080 11b1a 04       		.byte	0x4
 18081              		.file 38 "gnu-efi-3.0.18/inc/efipart.h"
 18082 11b1b 03       		.byte	0x3
 18083 11b1c 1B       		.uleb128 0x1b
 18084 11b1d 26       		.uleb128 0x26
 18085 11b1e 01       		.byte	0x1
 18086 11b1f 02       		.uleb128 0x2
 18087 11b20 5F454649 		.ascii "_EFI_PART_H \0"
 18087      5F504152 
 18087      545F4820 
 18087      00
 18088 11b2d 01       		.byte	0x1
 18089 11b2e 1A       		.uleb128 0x1a
 18090 11b2f 4546495F 		.ascii "EFI_PARTITION 0xef\0"
 18090      50415254 
 18090      4954494F 
 18090      4E203078 
 18090      656600
 18091 11b42 01       		.byte	0x1
 18092 11b43 1B       		.uleb128 0x1b
 18093 11b44 4D42525F 		.ascii "MBR_SIZE 512\0"
 18093      53495A45 
 18093      20353132 
 18093      00
 18094 11b51 01       		.byte	0x1
 18095 11b52 2C       		.uleb128 0x2c
 18096 11b53 45585452 		.ascii "EXTRACT_UINT32(D) (UINT32)(D[0] | (D[1] << 8) | (D[2] << 16) | (D[3] << 24))\0"
 18096      4143545F 
 18096      55494E54 
 18096      33322844 
 18096      29202855 
 18097 11ba0 01       		.byte	0x1
 18098 11ba1 2E       		.uleb128 0x2e
 18099 11ba2 4D42525F 		.ascii "MBR_SIGNATURE 0xaa55\0"
 18099      5349474E 
 18099      41545552 
 18099      45203078 
 18099      61613535 
 18100 11bb7 01       		.byte	0x1
 18101 11bb8 2F       		.uleb128 0x2f
 18102 11bb9 4D494E5F 		.ascii "MIN_MBR_DEVICE_SIZE 0x80000\0"
 18102      4D42525F 
 18102      44455649 
 18102      43455F53 
 18102      495A4520 
 18103 11bd5 01       		.byte	0x1
 18104 11bd6 30       		.uleb128 0x30
 18105 11bd7 4D42525F 		.ascii "MBR_ERRATA_PAD 0x40000\0"
 18105      45525241 
 18105      54415F50 
 18105      41442030 
 18105      78343030 
 18106 11bee 01       		.byte	0x1
 18107 11bef 32       		.uleb128 0x32
 18108 11bf0 4D41585F 		.ascii "MAX_MBR_PARTITIONS 4\0"
 18108      4D42525F 
 18108      50415254 
 18108      4954494F 
 18108      4E532034 
 18109 11c05 04       		.byte	0x4
 18110              		.file 39 "gnu-efi-3.0.18/inc/x86_64/efilibplat.h"
 18111 11c06 03       		.byte	0x3
 18112 11c07 1D       		.uleb128 0x1d
 18113 11c08 27       		.uleb128 0x27
 18114 11c09 04       		.byte	0x4
 18115              		.file 40 "gnu-efi-3.0.18/inc/efirtlib.h"
 18116 11c0a 03       		.byte	0x3
 18117 11c0b 2E       		.uleb128 0x2e
 18118 11c0c 28       		.uleb128 0x28
 18119 11c0d 01       		.byte	0x1
 18120 11c0e 02       		.uleb128 0x2
 18121 11c0f 5F454649 		.ascii "_EFI_RT_LIB_INCLUDE_ \0"
 18121      5F52545F 
 18121      4C49425F 
 18121      494E434C 
 18121      5544455F 
 18122 11c25 03       		.byte	0x3
 18123 11c26 18       		.uleb128 0x18
 18124 11c27 27       		.uleb128 0x27
 18125 11c28 04       		.byte	0x4
 18126 11c29 04       		.byte	0x4
 18127              		.file 41 "gnu-efi-3.0.18/inc/efistdarg.h"
 18128 11c2a 03       		.byte	0x3
 18129 11c2b 2F       		.uleb128 0x2f
 18130 11c2c 29       		.uleb128 0x29
 18131 11c2d 01       		.byte	0x1
 18132 11c2e 02       		.uleb128 0x2
 18133 11c2f 5F454649 		.ascii "_EFISTDARG_H_ \0"
 18133      53544441 
 18133      52475F48 
 18133      5F2000
 18134 11c3e 01       		.byte	0x1
 18135 11c3f 19       		.uleb128 0x19
 18136 11c40 76615F73 		.ascii "va_start(v,l) __builtin_va_start(v,l)\0"
 18136      74617274 
 18136      28762C6C 
 18136      29205F5F 
 18136      6275696C 
 18137 11c66 01       		.byte	0x1
 18138 11c67 1A       		.uleb128 0x1a
 18139 11c68 76615F65 		.ascii "va_end(v) __builtin_va_end(v)\0"
 18139      6E642876 
 18139      29205F5F 
 18139      6275696C 
 18139      74696E5F 
 18140 11c86 01       		.byte	0x1
 18141 11c87 1B       		.uleb128 0x1b
 18142 11c88 76615F61 		.ascii "va_arg(v,l) __builtin_va_arg(v,l)\0"
 18142      72672876 
 18142      2C6C2920 
 18142      5F5F6275 
 18142      696C7469 
 18143 11caa 01       		.byte	0x1
 18144 11cab 1C       		.uleb128 0x1c
 18145 11cac 76615F63 		.ascii "va_copy(d,s) __builtin_va_copy(d,s)\0"
 18145      6F707928 
 18145      642C7329 
 18145      205F5F62 
 18145      75696C74 
 18146 11cd0 04       		.byte	0x4
 18147              		.file 42 "gnu-efi-3.0.18/inc/pci22.h"
 18148 11cd1 03       		.byte	0x3
 18149 11cd2 30       		.uleb128 0x30
 18150 11cd3 2A       		.uleb128 0x2a
 18151 11cd4 01       		.byte	0x1
 18152 11cd5 02       		.uleb128 0x2
 18153 11cd6 5F504349 		.ascii "_PCI22_H \0"
 18153      32325F48 
 18153      2000
 18154 11ce0 01       		.byte	0x1
 18155 11ce1 19       		.uleb128 0x19
 18156 11ce2 5043495F 		.ascii "PCI_MAX_BUS 255\0"
 18156      4D41585F 
 18156      42555320 
 18156      32353500 
 18157 11cf2 01       		.byte	0x1
 18158 11cf3 1C       		.uleb128 0x1c
 18159 11cf4 5043495F 		.ascii "PCI_MAX_DEVICE 31\0"
 18159      4D41585F 
 18159      44455649 
 18159      43452033 
 18159      3100
 18160 11d06 01       		.byte	0x1
 18161 11d07 1D       		.uleb128 0x1d
 18162 11d08 5043495F 		.ascii "PCI_MAX_FUNC 7\0"
 18162      4D41585F 
 18162      46554E43 
 18162      203700
 18163 11d17 01       		.byte	0x1
 18164 11d18 22       		.uleb128 0x22
 18165 11d19 5043495F 		.ascii "PCI_VGA_PALETTE_SNOOP_DISABLED 0x20\0"
 18165      5647415F 
 18165      50414C45 
 18165      5454455F 
 18165      534E4F4F 
 18166 11d3d 01       		.byte	0x1
 18167 11d3e 5C       		.uleb128 0x5c
 18168 11d3f 5043495F 		.ascii "PCI_CLASS_DISPLAY_CTRL 0x03\0"
 18168      434C4153 
 18168      535F4449 
 18168      53504C41 
 18168      595F4354 
 18169 11d5b 01       		.byte	0x1
 18170 11d5c 5D       		.uleb128 0x5d
 18171 11d5d 5043495F 		.ascii "PCI_CLASS_VGA 0x00\0"
 18171      434C4153 
 18171      535F5647 
 18171      41203078 
 18171      303000
 18172 11d70 01       		.byte	0x1
 18173 11d71 5F       		.uleb128 0x5f
 18174 11d72 5043495F 		.ascii "PCI_CLASS_BRIDGE 0x06\0"
 18174      434C4153 
 18174      535F4252 
 18174      49444745 
 18174      20307830 
 18175 11d88 01       		.byte	0x1
 18176 11d89 60       		.uleb128 0x60
 18177 11d8a 5043495F 		.ascii "PCI_CLASS_ISA 0x01\0"
 18177      434C4153 
 18177      535F4953 
 18177      41203078 
 18177      303100
 18178 11d9d 01       		.byte	0x1
 18179 11d9e 61       		.uleb128 0x61
 18180 11d9f 5043495F 		.ascii "PCI_CLASS_ISA_POSITIVE_DECODE 0x80\0"
 18180      434C4153 
 18180      535F4953 
 18180      415F504F 
 18180      53495449 
 18181 11dc2 01       		.byte	0x1
 18182 11dc3 63       		.uleb128 0x63
 18183 11dc4 5043495F 		.ascii "PCI_CLASS_NETWORK 0x02\0"
 18183      434C4153 
 18183      535F4E45 
 18183      54574F52 
 18183      4B203078 
 18184 11ddb 01       		.byte	0x1
 18185 11ddc 64       		.uleb128 0x64
 18186 11ddd 5043495F 		.ascii "PCI_CLASS_ETHERNET 0x00\0"
 18186      434C4153 
 18186      535F4554 
 18186      4845524E 
 18186      45542030 
 18187 11df5 01       		.byte	0x1
 18188 11df6 66       		.uleb128 0x66
 18189 11df7 48454144 		.ascii "HEADER_TYPE_DEVICE 0x00\0"
 18189      45525F54 
 18189      5950455F 
 18189      44455649 
 18189      43452030 
 18190 11e0f 01       		.byte	0x1
 18191 11e10 67       		.uleb128 0x67
 18192 11e11 48454144 		.ascii "HEADER_TYPE_PCI_TO_PCI_BRIDGE 0x01\0"
 18192      45525F54 
 18192      5950455F 
 18192      5043495F 
 18192      544F5F50 
 18193 11e34 01       		.byte	0x1
 18194 11e35 68       		.uleb128 0x68
 18195 11e36 48454144 		.ascii "HEADER_TYPE_MULTI_FUNCTION 0x80\0"
 18195      45525F54 
 18195      5950455F 
 18195      4D554C54 
 18195      495F4655 
 18196 11e56 01       		.byte	0x1
 18197 11e57 69       		.uleb128 0x69
 18198 11e58 48454144 		.ascii "HEADER_LAYOUT_CODE 0x7f\0"
 18198      45525F4C 
 18198      41594F55 
 18198      545F434F 
 18198      44452030 
 18199 11e70 01       		.byte	0x1
 18200 11e71 6B       		.uleb128 0x6b
 18201 11e72 49535F50 		.ascii "IS_PCI_BRIDGE(_p) ((((_p)->Hdr.HeaderType) & HEADER_LAYOUT_CODE) == HEADER_TYPE_PCI_TO_PCI
 18201      43495F42 
 18201      52494447 
 18201      45285F70 
 18201      29202828 
 18202 11ed5 01       		.byte	0x1
 18203 11ed6 6C       		.uleb128 0x6c
 18204 11ed7 49535F50 		.ascii "IS_PCI_MULTI_FUNC(_p) (((_p)->Hdr.HeaderType) & HEADER_TYPE_MULTI_FUNCTION)\0"
 18204      43495F4D 
 18204      554C5449 
 18204      5F46554E 
 18204      43285F70 
 18205 11f23 01       		.byte	0x1
 18206 11f24 8601     		.uleb128 0x86
 18207 11f26 4546495F 		.ascii "EFI_ROOT_BRIDGE_LIST 'eprb'\0"
 18207      524F4F54 
 18207      5F425249 
 18207      4447455F 
 18207      4C495354 
 18208 11f42 01       		.byte	0x1
 18209 11f43 9401     		.uleb128 0x94
 18210 11f45 5043495F 		.ascii "PCI_EXPANSION_ROM_HEADER_SIGNATURE 0xaa55\0"
 18210      45585041 
 18210      4E53494F 
 18210      4E5F524F 
 18210      4D5F4845 
 18211 11f6f 01       		.byte	0x1
 18212 11f70 9501     		.uleb128 0x95
 18213 11f72 4546495F 		.ascii "EFI_PCI_EXPANSION_ROM_HEADER_EFISIGNATURE 0x0EF1\0"
 18213      5043495F 
 18213      45585041 
 18213      4E53494F 
 18213      4E5F524F 
 18214 11fa3 01       		.byte	0x1
 18215 11fa4 9601     		.uleb128 0x96
 18216 11fa6 5043495F 		.ascii "PCI_DATA_STRUCTURE_SIGNATURE EFI_SIGNATURE_32('P','C','I','R')\0"
 18216      44415441 
 18216      5F535452 
 18216      55435455 
 18216      52455F53 
 18217 11fe5 04       		.byte	0x4
 18218              		.file 43 "gnu-efi-3.0.18/inc/libsmbios.h"
 18219 11fe6 03       		.byte	0x3
 18220 11fe7 31       		.uleb128 0x31
 18221 11fe8 2B       		.uleb128 0x2b
 18222 11fe9 01       		.byte	0x1
 18223 11fea 02       		.uleb128 0x2
 18224 11feb 5F4C4942 		.ascii "_LIB_SMBIOS_H \0"
 18224      5F534D42 
 18224      494F535F 
 18224      482000
 18225 11ffa 04       		.byte	0x4
 18226 11ffb 01       		.byte	0x1
 18227 11ffc 38       		.uleb128 0x38
 18228 11ffd 67535420 		.ascii "gST ST\0"
 18228      535400
 18229 12004 01       		.byte	0x1
 18230 12005 3A       		.uleb128 0x3a
 18231 12006 67425320 		.ascii "gBS BS\0"
 18231      425300
 18232 1200d 01       		.byte	0x1
 18233 1200e 3C       		.uleb128 0x3c
 18234 1200f 67525420 		.ascii "gRT RT\0"
 18234      525400
 18235 12016 01       		.byte	0x1
 18236 12017 3F       		.uleb128 0x3f
 18237 12018 44657669 		.ascii "DevicePathProtocol gEfiDevicePathProtocolGuid\0"
 18237      63655061 
 18237      74685072 
 18237      6F746F63 
 18237      6F6C2067 
 18238 12046 01       		.byte	0x1
 18239 12047 41       		.uleb128 0x41
 18240 12048 44657669 		.ascii "DevicePathToTextProtocol gEfiDevicePathToTextProtocolGuid\0"
 18240      63655061 
 18240      7468546F 
 18240      54657874 
 18240      50726F74 
 18241 12082 01       		.byte	0x1
 18242 12083 43       		.uleb128 0x43
 18243 12084 44657669 		.ascii "DevicePathFromTextProtocol gEfiDevicePathFromTextProtocolGuid\0"
 18243      63655061 
 18243      74684672 
 18243      6F6D5465 
 18243      78745072 
 18244 120c2 01       		.byte	0x1
 18245 120c3 45       		.uleb128 0x45
 18246 120c4 44657669 		.ascii "DevicePathUtilitiesProtocol gEfiDevicePathUtilitiesProtocolGuid\0"
 18246      63655061 
 18246      74685574 
 18246      696C6974 
 18246      69657350 
 18247 12104 01       		.byte	0x1
 18248 12105 47       		.uleb128 0x47
 18249 12106 4C6F6164 		.ascii "LoadedImageProtocol gEfiLoadedImageProtocolGuid\0"
 18249      6564496D 
 18249      61676550 
 18249      726F746F 
 18249      636F6C20 
 18250 12136 01       		.byte	0x1
 18251 12137 49       		.uleb128 0x49
 18252 12138 54657874 		.ascii "TextInProtocol gEfiSimpleTextInProtocolGuid\0"
 18252      496E5072 
 18252      6F746F63 
 18252      6F6C2067 
 18252      45666953 
 18253 12164 01       		.byte	0x1
 18254 12165 4B       		.uleb128 0x4b
 18255 12166 54657874 		.ascii "TextOutProtocol gEfiSimpleTextOutProtocolGuid\0"
 18255      4F757450 
 18255      726F746F 
 18255      636F6C20 
 18255      67456669 
 18256 12194 01       		.byte	0x1
 18257 12195 4D       		.uleb128 0x4d
 18258 12196 47726170 		.ascii "GraphicsOutputProtocol gEfiGraphicsOutputProtocolGuid\0"
 18258      68696373 
 18258      4F757470 
 18258      75745072 
 18258      6F746F63 
 18259 121cc 01       		.byte	0x1
 18260 121cd 4F       		.uleb128 0x4f
 18261 121ce 45646964 		.ascii "EdidDiscoveredProtocol gEfiEdidDiscoveredProtocolGuid\0"
 18261      44697363 
 18261      6F766572 
 18261      65645072 
 18261      6F746F63 
 18262 12204 01       		.byte	0x1
 18263 12205 51       		.uleb128 0x51
 18264 12206 45646964 		.ascii "EdidActiveProtocol gEfiEdidActiveProtocolGuid\0"
 18264      41637469 
 18264      76655072 
 18264      6F746F63 
 18264      6F6C2067 
 18265 12234 01       		.byte	0x1
 18266 12235 53       		.uleb128 0x53
 18267 12236 45646964 		.ascii "EdidOverrideProtocol gEfiEdidOverrideProtocolGuid\0"
 18267      4F766572 
 18267      72696465 
 18267      50726F74 
 18267      6F636F6C 
 18268 12268 01       		.byte	0x1
 18269 12269 55       		.uleb128 0x55
 18270 1226a 426C6F63 		.ascii "BlockIoProtocol gEfiBlockIoProtocolGuid\0"
 18270      6B496F50 
 18270      726F746F 
 18270      636F6C20 
 18270      67456669 
 18271 12292 01       		.byte	0x1
 18272 12293 57       		.uleb128 0x57
 18273 12294 426C6F63 		.ascii "BlockIo2Protocol gEfiBlockIo2ProtocolGuid\0"
 18273      6B496F32 
 18273      50726F74 
 18273      6F636F6C 
 18273      20674566 
 18274 122be 01       		.byte	0x1
 18275 122bf 59       		.uleb128 0x59
 18276 122c0 4469736B 		.ascii "DiskIoProtocol gEfiDiskIoProtocolGuid\0"
 18276      496F5072 
 18276      6F746F63 
 18276      6F6C2067 
 18276      45666944 
 18277 122e6 01       		.byte	0x1
 18278 122e7 5B       		.uleb128 0x5b
 18279 122e8 4469736B 		.ascii "DiskIo2Protocol gEfiDiskIo2ProtocolGuid\0"
 18279      496F3250 
 18279      726F746F 
 18279      636F6C20 
 18279      67456669 
 18280 12310 01       		.byte	0x1
 18281 12311 5D       		.uleb128 0x5d
 18282 12312 46696C65 		.ascii "FileSystemProtocol gEfiSimpleFileSystemProtocolGuid\0"
 18282      53797374 
 18282      656D5072 
 18282      6F746F63 
 18282      6F6C2067 
 18283 12346 01       		.byte	0x1
 18284 12347 5F       		.uleb128 0x5f
 18285 12348 4C6F6164 		.ascii "LoadFileProtocol gEfiLoadFileProtocolGuid\0"
 18285      46696C65 
 18285      50726F74 
 18285      6F636F6C 
 18285      20674566 
 18286 12372 01       		.byte	0x1
 18287 12373 61       		.uleb128 0x61
 18288 12374 44657669 		.ascii "DeviceIoProtocol gEfiDeviceIoProtocolGuid\0"
 18288      6365496F 
 18288      50726F74 
 18288      6F636F6C 
 18288      20674566 
 18289 1239e 01       		.byte	0x1
 18290 1239f 65       		.uleb128 0x65
 18291 123a0 556E6963 		.ascii "UnicodeCollationProtocol gEfiUnicodeCollationProtocolGuid\0"
 18291      6F646543 
 18291      6F6C6C61 
 18291      74696F6E 
 18291      50726F74 
 18292 123da 01       		.byte	0x1
 18293 123db 67       		.uleb128 0x67
 18294 123dc 53657269 		.ascii "SerialIoProtocol gEfiSerialIoProtocolGuid\0"
 18294      616C496F 
 18294      50726F74 
 18294      6F636F6C 
 18294      20674566 
 18295 12406 01       		.byte	0x1
 18296 12407 6D       		.uleb128 0x6d
 18297 12408 53696D70 		.ascii "SimpleNetworkProtocol gEfiSimpleNetworkProtocolGuid\0"
 18297      6C654E65 
 18297      74776F72 
 18297      6B50726F 
 18297      746F636F 
 18298 1243c 01       		.byte	0x1
 18299 1243d 6F       		.uleb128 0x6f
 18300 1243e 50786542 		.ascii "PxeBaseCodeProtocol gEfiPxeBaseCodeProtocolGuid\0"
 18300      61736543 
 18300      6F646550 
 18300      726F746F 
 18300      636F6C20 
 18301 1246e 01       		.byte	0x1
 18302 1246f 71       		.uleb128 0x71
 18303 12470 50786543 		.ascii "PxeCallbackProtocol gEfiPxeBaseCodeCallbackProtocolGuid\0"
 18303      616C6C62 
 18303      61636B50 
 18303      726F746F 
 18303      636F6C20 
 18304 124a8 01       		.byte	0x1
 18305 124a9 73       		.uleb128 0x73
 18306 124aa 4E657477 		.ascii "NetworkInterfaceIdentifierProtocol gEfiNetworkInterfaceIdentifierProtocolGuid\0"
 18306      6F726B49 
 18306      6E746572 
 18306      66616365 
 18306      4964656E 
 18307 124f8 01       		.byte	0x1
 18308 124f9 75       		.uleb128 0x75
 18309 124fa 55695072 		.ascii "UiProtocol gEFiUiInterfaceProtocolGuid\0"
 18309      6F746F63 
 18309      6F6C2067 
 18309      45466955 
 18309      69496E74 
 18310 12521 01       		.byte	0x1
 18311 12522 78       		.uleb128 0x78
 18312 12523 50636949 		.ascii "PciIoProtocol gEfiPciIoProtocolGuid\0"
 18312      6F50726F 
 18312      746F636F 
 18312      6C206745 
 18312      66695063 
 18313 12547 01       		.byte	0x1
 18314 12548 7B       		.uleb128 0x7b
 18315 12549 44726976 		.ascii "DriverBindingProtocol gEfiDriverBindingProtocolGuid\0"
 18315      65724269 
 18315      6E64696E 
 18315      6750726F 
 18315      746F636F 
 18316 1257d 01       		.byte	0x1
 18317 1257e 7D       		.uleb128 0x7d
 18318 1257f 436F6D70 		.ascii "ComponentNameProtocol gEfiComponentNameProtocolGuid\0"
 18318      6F6E656E 
 18318      744E616D 
 18318      6550726F 
 18318      746F636F 
 18319 125b3 01       		.byte	0x1
 18320 125b4 7F       		.uleb128 0x7f
 18321 125b5 436F6D70 		.ascii "ComponentName2Protocol gEfiComponentName2ProtocolGuid\0"
 18321      6F6E656E 
 18321      744E616D 
 18321      65325072 
 18321      6F746F63 
 18322 125eb 01       		.byte	0x1
 18323 125ec 8101     		.uleb128 0x81
 18324 125ee 48617368 		.ascii "HashProtocol gEfiHashProtocolGuid\0"
 18324      50726F74 
 18324      6F636F6C 
 18324      20674566 
 18324      69486173 
 18325 12610 01       		.byte	0x1
 18326 12611 8301     		.uleb128 0x83
 18327 12613 506C6174 		.ascii "PlatformDriverOverrideProtocol gEfiPlatformDriverOverrideProtocolGuid\0"
 18327      666F726D 
 18327      44726976 
 18327      65724F76 
 18327      65727269 
 18328 12659 01       		.byte	0x1
 18329 1265a 8501     		.uleb128 0x85
 18330 1265c 42757353 		.ascii "BusSpecificDriverOverrideProtocol gEfiBusSpecificDriverOverrideProtocolGuid\0"
 18330      70656369 
 18330      66696344 
 18330      72697665 
 18330      724F7665 
 18331 126a8 01       		.byte	0x1
 18332 126a9 8701     		.uleb128 0x87
 18333 126ab 44726976 		.ascii "DriverFamilyOverrideProtocol gEfiDriverFamilyOverrideProtocolGuid\0"
 18333      65724661 
 18333      6D696C79 
 18333      4F766572 
 18333      72696465 
 18334 126ed 01       		.byte	0x1
 18335 126ee 8B01     		.uleb128 0x8b
 18336 126f0 45666947 		.ascii "EfiGlobalVariable gEfiGlobalVariableGuid\0"
 18336      6C6F6261 
 18336      6C566172 
 18336      6961626C 
 18336      65206745 
 18337 12719 01       		.byte	0x1
 18338 1271a 8D01     		.uleb128 0x8d
 18339 1271c 47656E65 		.ascii "GenericFileInfo gEfiFileInfoGuid\0"
 18339      72696346 
 18339      696C6549 
 18339      6E666F20 
 18339      67456669 
 18340 1273d 01       		.byte	0x1
 18341 1273e 8F01     		.uleb128 0x8f
 18342 12740 46696C65 		.ascii "FileSystemInfo gEfiFileSystemInfoGuid\0"
 18342      53797374 
 18342      656D496E 
 18342      666F2067 
 18342      45666946 
 18343 12766 01       		.byte	0x1
 18344 12767 9101     		.uleb128 0x91
 18345 12769 46696C65 		.ascii "FileSystemVolumeLabelInfo gEfiFileSystemVolumeLabelInfoIdGuid\0"
 18345      53797374 
 18345      656D566F 
 18345      6C756D65 
 18345      4C616265 
 18346 127a7 01       		.byte	0x1
 18347 127a8 9301     		.uleb128 0x93
 18348 127aa 5063416E 		.ascii "PcAnsiProtocol gEfiPcAnsiGuid\0"
 18348      73695072 
 18348      6F746F63 
 18348      6F6C2067 
 18348      45666950 
 18349 127c8 01       		.byte	0x1
 18350 127c9 9501     		.uleb128 0x95
 18351 127cb 56743130 		.ascii "Vt100Protocol gEfiVT100Guid\0"
 18351      3050726F 
 18351      746F636F 
 18351      6C206745 
 18351      66695654 
 18352 127e7 01       		.byte	0x1
 18353 127e8 B501     		.uleb128 0xb5
 18354 127ea 4C4F4144 		.ascii "LOAD_OPTION_ACTIVE 0x00000001\0"
 18354      5F4F5054 
 18354      494F4E5F 
 18354      41435449 
 18354      56452030 
 18355 12808 01       		.byte	0x1
 18356 12809 B701     		.uleb128 0xb7
 18357 1280b 5661724C 		.ascii "VarLanguageCodes L\"LangCodes\"\0"
 18357      616E6775 
 18357      61676543 
 18357      6F646573 
 18357      204C224C 
 18358 12829 01       		.byte	0x1
 18359 1282a B801     		.uleb128 0xb8
 18360 1282c 5661724C 		.ascii "VarLanguage L\"Lang\"\0"
 18360      616E6775 
 18360      61676520 
 18360      4C224C61 
 18360      6E672200 
 18361 12840 01       		.byte	0x1
 18362 12841 B901     		.uleb128 0xb9
 18363 12843 56617254 		.ascii "VarTimeout L\"Timeout\"\0"
 18363      696D656F 
 18363      7574204C 
 18363      2254696D 
 18363      656F7574 
 18364 12859 01       		.byte	0x1
 18365 1285a BA01     		.uleb128 0xba
 18366 1285c 56617243 		.ascii "VarConsoleInp L\"ConIn\"\0"
 18366      6F6E736F 
 18366      6C65496E 
 18366      70204C22 
 18366      436F6E49 
 18367 12873 01       		.byte	0x1
 18368 12874 BB01     		.uleb128 0xbb
 18369 12876 56617243 		.ascii "VarConsoleOut L\"ConOut\"\0"
 18369      6F6E736F 
 18369      6C654F75 
 18369      74204C22 
 18369      436F6E4F 
 18370 1288e 01       		.byte	0x1
 18371 1288f BC01     		.uleb128 0xbc
 18372 12891 56617245 		.ascii "VarErrorOut L\"ErrOut\"\0"
 18372      72726F72 
 18372      4F757420 
 18372      4C224572 
 18372      724F7574 
 18373 128a7 01       		.byte	0x1
 18374 128a8 BD01     		.uleb128 0xbd
 18375 128aa 56617242 		.ascii "VarBootOption L\"Boot%04x\"\0"
 18375      6F6F744F 
 18375      7074696F 
 18375      6E204C22 
 18375      426F6F74 
 18376 128c4 01       		.byte	0x1
 18377 128c5 BE01     		.uleb128 0xbe
 18378 128c7 56617242 		.ascii "VarBootOrder L\"BootOrder\"\0"
 18378      6F6F744F 
 18378      72646572 
 18378      204C2242 
 18378      6F6F744F 
 18379 128e1 01       		.byte	0x1
 18380 128e2 BF01     		.uleb128 0xbf
 18381 128e4 56617242 		.ascii "VarBootNext L\"BootNext\"\0"
 18381      6F6F744E 
 18381      65787420 
 18381      4C22426F 
 18381      6F744E65 
 18382 128fc 01       		.byte	0x1
 18383 128fd C001     		.uleb128 0xc0
 18384 128ff 56617242 		.ascii "VarBootCurrent L\"BootCurrent\"\0"
 18384      6F6F7443 
 18384      75727265 
 18384      6E74204C 
 18384      22426F6F 
 18385 1291d 01       		.byte	0x1
 18386 1291e C101     		.uleb128 0xc1
 18387 12920 56617244 		.ascii "VarDriverOption L\"Driver%04x\"\0"
 18387      72697665 
 18387      724F7074 
 18387      696F6E20 
 18387      4C224472 
 18388 1293e 01       		.byte	0x1
 18389 1293f C201     		.uleb128 0xc2
 18390 12941 56617244 		.ascii "VarDriverOrder L\"DriverOrder\"\0"
 18390      72697665 
 18390      724F7264 
 18390      6572204C 
 18390      22447269 
 18391 1295f 01       		.byte	0x1
 18392 12960 C301     		.uleb128 0xc3
 18393 12962 56617243 		.ascii "VarConsoleInpDev L\"ConInDev\"\0"
 18393      6F6E736F 
 18393      6C65496E 
 18393      70446576 
 18393      204C2243 
 18394 1297f 01       		.byte	0x1
 18395 12980 C401     		.uleb128 0xc4
 18396 12982 56617243 		.ascii "VarConsoleOutDev L\"ConOutDev\"\0"
 18396      6F6E736F 
 18396      6C654F75 
 18396      74446576 
 18396      204C2243 
 18397 129a0 01       		.byte	0x1
 18398 129a1 C501     		.uleb128 0xc5
 18399 129a3 56617245 		.ascii "VarErrorOutDev L\"ErrOutDev\"\0"
 18399      72726F72 
 18399      4F757444 
 18399      6576204C 
 18399      22457272 
 18400 129bf 01       		.byte	0x1
 18401 129c0 C701     		.uleb128 0xc7
 18402 129c2 4C616E67 		.ascii "LanguageCodeEnglish \"eng\"\0"
 18402      75616765 
 18402      436F6465 
 18402      456E676C 
 18402      69736820 
 18403 129dc 01       		.byte	0x1
 18404 129dd D901     		.uleb128 0xd9
 18405 129df 53544154 		.ascii "STATIC \0"
 18405      49432000 
 18406 129e7 01       		.byte	0x1
 18407 129e8 DA01     		.uleb128 0xda
 18408 129ea 494E5445 		.ascii "INTERNAL \0"
 18408      524E414C 
 18408      2000
 18409 129f4 01       		.byte	0x1
 18410 129f5 DB01     		.uleb128 0xdb
 18411 129f7 424F4F54 		.ascii "BOOTSERVICE \0"
 18411      53455256 
 18411      49434520 
 18411      00
 18412 12a04 01       		.byte	0x1
 18413 12a05 F204     		.uleb128 0x272
 18414 12a07 53507269 		.ascii "SPrint UnicodeSPrint\0"
 18414      6E742055 
 18414      6E69636F 
 18414      64655350 
 18414      72696E74 
 18415 12a1c 01       		.byte	0x1
 18416 12a1d F304     		.uleb128 0x273
 18417 12a1f 56535072 		.ascii "VSPrint UnicodeVSPrint\0"
 18417      696E7420 
 18417      556E6963 
 18417      6F646556 
 18417      53507269 
 18418 12a36 01       		.byte	0x1
 18419 12a37 F404     		.uleb128 0x274
 18420 12a39 41507269 		.ascii "APrint AsciiPrint\0"
 18420      6E742041 
 18420      73636969 
 18420      5072696E 
 18420      7400
 18421 12a4b 01       		.byte	0x1
 18422 12a4c AD08     		.uleb128 0x42d
 18423 12a4e 6F757470 		.ascii "outp(_Port,_DataByte) (UINT8)WritePort(GlobalIoFncs, IO_UINT8, (UINTN)_Port, (UINTN)_DataB
 18423      285F506F 
 18423      72742C5F 
 18423      44617461 
 18423      42797465 
 18424 12aad 01       		.byte	0x1
 18425 12aae AE08     		.uleb128 0x42e
 18426 12ab0 696E7028 		.ascii "inp(_Port) (UINT8)ReadPort(GlobalIoFncs, IO_UINT8, (UINTN)_Port)\0"
 18426      5F506F72 
 18426      74292028 
 18426      55494E54 
 18426      38295265 
 18427 12af1 01       		.byte	0x1
 18428 12af2 AF08     		.uleb128 0x42f
 18429 12af4 6F757470 		.ascii "outpw(_Port,_DataByte) (UINT16)WritePort(GlobalIoFncs, IO_UINT16, (UINTN)_Port, (UINTN)_Da
 18429      77285F50 
 18429      6F72742C 
 18429      5F446174 
 18429      61427974 
 18430 12b56 01       		.byte	0x1
 18431 12b57 B008     		.uleb128 0x430
 18432 12b59 696E7077 		.ascii "inpw(_Port) (UINT16)ReadPort(GlobalIoFncs, IO_UINT16, (UINTN)_Port)\0"
 18432      285F506F 
 18432      72742920 
 18432      2855494E 
 18432      54313629 
 18433 12b9d 01       		.byte	0x1
 18434 12b9e B108     		.uleb128 0x431
 18435 12ba0 6F757470 		.ascii "outpd(_Port,_DataByte) (UINT32)WritePort(GlobalIoFncs, IO_UINT32, (UINTN)_Port, (UINTN)_Da
 18435      64285F50 
 18435      6F72742C 
 18435      5F446174 
 18435      61427974 
 18436 12c02 01       		.byte	0x1
 18437 12c03 B208     		.uleb128 0x432
 18438 12c05 696E7064 		.ascii "inpd(_Port) (UINT32)ReadPort(GlobalIoFncs, IO_UINT32, (UINTN)_Port)\0"
 18438      285F506F 
 18438      72742920 
 18438      2855494E 
 18438      54333229 
 18439 12c49 01       		.byte	0x1
 18440 12c4a B408     		.uleb128 0x434
 18441 12c4c 77726974 		.ascii "writepci8(_Addr,_DataByte) (UINT8)WritePciConfig(GlobalIoFncs, IO_UINT8, (UINTN)_Addr, (UI
 18441      65706369 
 18441      38285F41 
 18441      6464722C 
 18441      5F446174 
 18442 12cb5 01       		.byte	0x1
 18443 12cb6 B508     		.uleb128 0x435
 18444 12cb8 72656164 		.ascii "readpci8(_Addr) (UINT8)ReadPciConfig(GlobalIoFncs, IO_UINT8, (UINTN)_Addr)\0"
 18444      70636938 
 18444      285F4164 
 18444      64722920 
 18444      2855494E 
 18445 12d03 01       		.byte	0x1
 18446 12d04 B608     		.uleb128 0x436
 18447 12d06 77726974 		.ascii "writepci16(_Addr,_DataByte) (UINT16)WritePciConfig(GlobalIoFncs, IO_UINT16, (UINTN)_Addr, 
 18447      65706369 
 18447      3136285F 
 18447      41646472 
 18447      2C5F4461 
 18448 12d72 01       		.byte	0x1
 18449 12d73 B708     		.uleb128 0x437
 18450 12d75 72656164 		.ascii "readpci16(_Addr) (UINT16)ReadPciConfig(GlobalIoFncs, IO_UINT16, (UINTN)_Addr)\0"
 18450      70636931 
 18450      36285F41 
 18450      64647229 
 18450      20285549 
 18451 12dc3 01       		.byte	0x1
 18452 12dc4 B808     		.uleb128 0x438
 18453 12dc6 77726974 		.ascii "writepci32(_Addr,_DataByte) (UINT32)WritePciConfig(GlobalIoFncs, IO_UINT32, (UINTN)_Addr, 
 18453      65706369 
 18453      3332285F 
 18453      41646472 
 18453      2C5F4461 
 18454 12e32 01       		.byte	0x1
 18455 12e33 B908     		.uleb128 0x439
 18456 12e35 72656164 		.ascii "readpci32(_Addr) (UINT32)ReadPciConfig(GlobalIoFncs, IO_UINT32, (UINTN)_Addr)\0"
 18456      70636933 
 18456      32285F41 
 18456      64647229 
 18456      20285549 
 18457 12e83 01       		.byte	0x1
 18458 12e84 BB08     		.uleb128 0x43b
 18459 12e86 506F7274 		.ascii "Port80(_PostCode) GlobalIoFncs->Io.Write (GlobalIoFncs, IO_UINT16, (UINT64)0x80, 1, &(_Pos
 18459      3830285F 
 18459      506F7374 
 18459      436F6465 
 18459      2920476C 
 18460 12ee8 04       		.byte	0x4
 18461 12ee9 01       		.byte	0x1
 18462 12eea 05       		.uleb128 0x5
 18463 12eeb 4546495F 		.ascii "EFI_BLACK 0x00\0"
 18463      424C4143 
 18463      4B203078 
 18463      303000
 18464 12efa 01       		.byte	0x1
 18465 12efb 06       		.uleb128 0x6
 18466 12efc 4546495F 		.ascii "EFI_BLUE 0x01\0"
 18466      424C5545 
 18466      20307830 
 18466      3100
 18467 12f0a 01       		.byte	0x1
 18468 12f0b 07       		.uleb128 0x7
 18469 12f0c 4546495F 		.ascii "EFI_GREEN 0x02\0"
 18469      47524545 
 18469      4E203078 
 18469      303200
 18470 12f1b 01       		.byte	0x1
 18471 12f1c 08       		.uleb128 0x8
 18472 12f1d 4546495F 		.ascii "EFI_RED 0x04\0"
 18472      52454420 
 18472      30783034 
 18472      00
 18473 12f2a 01       		.byte	0x1
 18474 12f2b 09       		.uleb128 0x9
 18475 12f2c 4546495F 		.ascii "EFI_BRIGHT 0x08\0"
 18475      42524947 
 18475      48542030 
 18475      78303800 
 18476 12f3c 01       		.byte	0x1
 18477 12f3d 0C       		.uleb128 0xc
 18478 12f3e 4D5F5049 		.ascii "M_PI 3.14159265358979323846\0"
 18478      20332E31 
 18478      34313539 
 18478      32363533 
 18478      35383937 
 18479 12f5a 01       		.byte	0x1
 18480 12f5b 10       		.uleb128 0x10
 18481 12f5c 4445475F 		.ascii "DEG_TO_RAD(angle) ((angle) * M_PI / 180.0)\0"
 18481      544F5F52 
 18481      41442861 
 18481      6E676C65 
 18481      29202828 
 18482 12f87 01       		.byte	0x1
 18483 12f88 13       		.uleb128 0x13
 18484 12f89 53504541 		.ascii "SPEAKER_PORT 0x61\0"
 18484      4B45525F 
 18484      504F5254 
 18484      20307836 
 18484      3100
 18485 12f9b 01       		.byte	0x1
 18486 12f9c 14       		.uleb128 0x14
 18487 12f9d 54494D45 		.ascii "TIMER_COMMAND_PORT 0x43\0"
 18487      525F434F 
 18487      4D4D414E 
 18487      445F504F 
 18487      52542030 
 18488 12fb5 01       		.byte	0x1
 18489 12fb6 15       		.uleb128 0x15
 18490 12fb7 54494D45 		.ascii "TIMER_DATA_PORT 0x42\0"
 18490      525F4441 
 18490      54415F50 
 18490      4F525420 
 18490      30783432 
 18491 12fcc 01       		.byte	0x1
 18492 12fcd 16       		.uleb128 0x16
 18493 12fce 5049545F 		.ascii "PIT_FREQUENCY 1193180\0"
 18493      46524551 
 18493      55454E43 
 18493      59203131 
 18493      39333138 
 18494 12fe4 04       		.byte	0x4
 18495 12fe5 00       		.byte	0
 18496              		.section	.debug_line,"dr"
 18497              	.Ldebug_line0:
 18498 0000 DE0A0000 		.section	.debug_str,"dr"
 18498      05000800 
 18498      14010000 
 18498      010101FB 
 18498      0E0D0001 
 18499              	.LASF12:
 18500 0000 6D657373 		.ascii "message\0"
 18500      61676500 
 18501              	.LASF2:
 18502 0008 41747472 		.ascii "Attribute\0"
 18502      69627574 
 18502      6500
 18503              	.LASF13:
 18504 0012 6F726967 		.ascii "originalCol\0"
 18504      696E616C 
 18504      436F6C00 
 18505              	.LASF14:
 18506 001e 6F726967 		.ascii "originalRow\0"
 18506      696E616C 
 18506      526F7700 
 18507              	.LASF10:
 18508 002a 636F6C6F 		.ascii "color\0"
 18508      7200
 18509              	.LASF8:
 18510 0030 53746174 		.ascii "Status\0"
 18510      757300
 18511              	.LASF9:
 18512 0037 65666665 		.ascii "effectDuration\0"
 18512      63744475 
 18512      72617469 
 18512      6F6E00
 18513              	.LASF3:
 18514 0046 436F6E4F 		.ascii "ConOut\0"
 18514      757400
 18515              	.LASF5:
 18516 004d 53797374 		.ascii "SystemTable\0"
 18516      656D5461 
 18516      626C6500 
 18517              	.LASF6:
 18518 0059 436F6C75 		.ascii "Columns\0"
 18518      6D6E7300 
 18519              	.LASF7:
 18520 0061 526F7773 		.ascii "Rows\0"
 18520      00
 18521              	.LASF11:
 18522 0066 64757261 		.ascii "duration\0"
 18522      74696F6E 
 18522      00
 18523              	.LASF4:
 18524 006f 48656164 		.ascii "HeaderSize\0"
 18524      65725369 
 18524      7A6500
 18525              		.section	.debug_line_str,"dr"
 18526              	.LASF0:
 18527 0000 433A2F55 		.ascii "C:/Users/victim/source/repos/Paranyok/UEFI\\bootmgfw.c\0"
 18527      73657273 
 18527      2F766963 
 18527      74696D2F 
 18527      736F7572 
 18528              	.LASF1:
 18529 0036 433A5C55 		.ascii "C:\\Users\\victim\\source\\repos\\Paranyok\\UEFI\\Backend\0"
 18529      73657273 
 18529      5C766963 
 18529      74696D5C 
 18529      736F7572 
 18530              		.ident	"GCC: (Rev1, Built by MSYS2 project) 14.2.0"
